 Far

 Timestamp is 4d49e22b (Thu Feb 03 00:00:59 2011)

 Preferred load address is 00400000

 Start         Length     Name                   Class
 0001:00000000 0010d818H .text                   CODE
 0001:0010d820 000009c8H .text$yc                CODE
 0001:0010e1f0 00000c9eH .text$yd                CODE
 0002:00000000 00000550H .idata$5                DATA
 0002:00000550 00000004H .CRT$XCA                DATA
 0002:00000554 00000004H .CRT$XCC                DATA
 0002:00000558 000000c4H .CRT$XCU                DATA
 0002:0000061c 00000004H .CRT$XCZ                DATA
 0002:00000620 00000004H .CRT$XIA                DATA
 0002:00000624 00000014H .CRT$XIC                DATA
 0002:00000638 00000004H .CRT$XIY                DATA
 0002:0000063c 00000004H .CRT$XIZ                DATA
 0002:00000640 00000004H .CRT$XLA                DATA
 0002:00000644 00000004H .CRT$XLY                DATA
 0002:00000648 00000004H .CRT$XLZ                DATA
 0002:0000064c 00000004H .CRT$XPA                DATA
 0002:00000650 00000004H .CRT$XPX                DATA
 0002:00000654 00000004H .CRT$XPXA               DATA
 0002:00000658 00000004H .CRT$XPZ                DATA
 0002:0000065c 00000004H .CRT$XTA                DATA
 0002:00000660 00000004H .CRT$XTZ                DATA
 0002:00000670 000174b4H .rdata                  DATA
 0002:00017b24 00000018H .rdata$T                DATA
 0002:00017b3c 00000004H .rtc$IAA                DATA
 0002:00017b40 00000004H .rtc$IZZ                DATA
 0002:00017b44 00000004H .rtc$TAA                DATA
 0002:00017b48 00000004H .rtc$TZZ                DATA
 0002:00017b50 00000914H .xdata$x                DATA
 0002:00018464 000000c8H .idata$2                DATA
 0002:0001852c 00000014H .idata$3                DATA
 0002:00018540 00000550H .idata$4                DATA
 0002:00018a90 000019a4H .idata$6                DATA
 0002:0001a440 00000030H .edata                  DATA
 0003:00000000 00010868H .data                   DATA
 0003:00010880 0003dee4H .bss                    DATA
 0004:00000000 00000001H .tls                    DATA
 0004:00000004 00000004H .tls$                   DATA
 0004:00000008 00000001H .tls$ZZZ                DATA
 0005:00000000 00000370H .rsrc$01                DATA
 0005:00000370 00009970H .rsrc$02                DATA

  Address         Publics by Value              Rva+Base       Lib:Object

 0000:00000000       ___safe_se_handler_count   00000000     <absolute>
 0000:00000000       ___safe_se_handler_table   00000000     <absolute>
 0000:00000000       __except_list              00000000     <absolute>
 0000:0000002c       __tls_array                0000002c     <absolute>
 0000:00000000       ___ImageBase               00400000     <linker-defined>
 0001:00000000       ?ReadPipeInt@@YA_NPAXAAH@Z 00401000 f   elevation.obj
 0001:00000030       ?WritePipeInt@@YA_NPAXH@Z  00401030 f   elevation.obj
 0001:00000060       ?WritePipeData@@YA_NPAXPBXH@Z 00401060 f   elevation.obj
 0001:000000c0       ?ResetApprove@elevation@@QAEXXZ 004010c0 f   elevation.obj
 0001:000000f0       ?WriteData@elevation@@ABE_NPBXK@Z 004010f0 f   elevation.obj
 0001:00000150       ?ReadInt@elevation@@ABE_NAAH@Z 00401150 f   elevation.obj
 0001:00000180       ?WriteInt@elevation@@ABE_NH@Z 00401180 f   elevation.obj
 0001:000001c0       ?ReceiveLastError@elevation@@ABE_NXZ 004011c0 f   elevation.obj
 0001:00000200       ?AdminApproveDlgProc@@YGJPAXHHJ@Z 00401200 f   elevation.obj
 0001:00000250       ??_I@YGXPAXIHP6EX0@Z@Z     00401250 f i elevation.obj
 0001:00000290       ?ElevationRequired@@YA_NW4ELEVATION_MODE@@@Z 00401290 f   elevation.obj
 0001:000002e0       ?IsUserAdmin@@YA_NXZ       004012e0 f   elevation.obj
 0001:00000350       ?AdminCopyProgressRoutine@@YGKT_LARGE_INTEGER@@000KKPAX11@Z 00401350 f   elevation.obj
 0001:00000570       ?StrLength@@YAHPB_W@Z      00401570 f i elevation.obj
 0001:000005a0       ?StrCmpI@@YAHPB_W0@Z       004015a0 f i elevation.obj
 0001:000005d0       ??YUnicodeString@@QAEABV0@PB_W@Z 004015d0 f i elevation.obj
 0001:000005d0       ?Append@UnicodeString@@QAEAAV1@PB_W@Z 004015d0 f i elevation.obj
 0001:00000610       ?Discard@SaveScreen@@QAEXXZ 00401610 f i savescr.obj
 0001:00000610       ??1AutoObject@@QAE@XZ      00401610 f i elevation.obj
 0001:00000630       ?ReadPipeData@@YA_NPAXAAVAutoObject@@@Z 00401630 f   elevation.obj
 0001:000006d0       ??0DisableElevation@@QAE@XZ 004016d0 f   elevation.obj
 0001:000006f0       ??1DisableElevation@@QAE@XZ 004016f0 f   elevation.obj
 0001:00000700       ?fCallbackRoutine@elevation@@QBEXP6GKT_LARGE_INTEGER@@000KKPAX11@Z@Z 00401700 f   elevation.obj
 0001:00000870       ?CreateDirectoryExHandler@@YAXXZ 00401870 f   elevation.obj
 0001:00000940       ?RemoveDirectoryHandler@@YAXXZ 00401940 f   elevation.obj
 0001:000009d0       ?DeleteFileHandler@@YAXXZ  004019d0 f   elevation.obj
 0001:00000a60       ?CopyFileExHandler@@YAXXZ  00401a60 f   elevation.obj
 0001:00000ba0       ?MoveFileExHandler@@YAXXZ  00401ba0 f   elevation.obj
 0001:00000c80       ?GetFileAttributesHandler@@YAXXZ 00401c80 f   elevation.obj
 0001:00000d10       ?SetFileAttributesHandler@@YAXXZ 00401d10 f   elevation.obj
 0001:00000dd0       ?CreateHardLinkHandler@@YAXXZ 00401dd0 f   elevation.obj
 0001:00000ea0       ?CreateSymbolicLinkHandler@@YAXXZ 00401ea0 f   elevation.obj
 0001:00000f80       ?MoveToRecycleBinHandler@@YAXXZ 00401f80 f   elevation.obj
 0001:00001060       ?SetOwnerHandler@@YAXXZ    00402060 f   elevation.obj
 0001:00001130       ?CreateFileHandler@@YAXXZ  00402130 f   elevation.obj
 0001:000012c0       ?Process@@YA_NH@Z          004022c0 f   elevation.obj
 0001:00001390       ??0UnicodeString@@QAE@PB_W@Z 00402390 f i elevation.obj
 0001:000013e0       ??0FormatString@@QAE@XZ    004023e0 f i elevation.obj
 0001:00001400       ?Commit@FormatString@@EAEXABVUnicodeString@@@Z 00402400 f i elevation.obj
 0001:00001430       ??1FormatString@@QAE@XZ    00402430 f i elevation.obj
 0001:00001460       ??1DialogItemEx@@QAE@XZ    00402460 f i elevation.obj
 0001:000014c0       ?AdminMain@@YAHPB_WK_N@Z   004024c0 f   elevation.obj
 0001:00001780       ?Initialize@elevation@@AAE_NXZ 00402780 f   elevation.obj
 0001:00001b60       ?AdminApproveDlgSync@@YAXPAX@Z 00402b60 f   elevation.obj
 0001:00001ec0       ?AdminApproveDlg@elevation@@AAE_NHPB_W@Z 00402ec0 f   elevation.obj
 0001:00002000       ?fCreateDirectoryEx@elevation@@QAE_NPB_W0PAU_SECURITY_ATTRIBUTES@@@Z 00403000 f   elevation.obj
 0001:00002150       ?fRemoveDirectory@elevation@@QAE_NPB_W@Z 00403150 f   elevation.obj
 0001:00002260       ?fDeleteFile@elevation@@QAE_NPB_W@Z 00403260 f   elevation.obj
 0001:00002370       ?fCopyFileEx@elevation@@QAE_NPB_W0P6GKT_LARGE_INTEGER@@111KKPAX22@Z2PAHK@Z 00403370 f   elevation.obj
 0001:00002520       ?fMoveFileEx@elevation@@QAE_NPB_W0K@Z 00403520 f   elevation.obj
 0001:00002670       ?fGetFileAttributes@elevation@@QAEKPB_W@Z 00403670 f   elevation.obj
 0001:00002770       ?fSetFileAttributes@elevation@@QAE_NPB_WK@Z 00403770 f   elevation.obj
 0001:00002890       ?fCreateHardLink@elevation@@QAE_NPB_W0PAU_SECURITY_ATTRIBUTES@@@Z 00403890 f   elevation.obj
 0001:000029d0       ?fCreateSymbolicLink@elevation@@QAE_NPB_W0K@Z 004039d0 f   elevation.obj
 0001:00002b20       ?fMoveToRecycleBin@elevation@@QAEHAAU_SHFILEOPSTRUCTW@@@Z 00403b20 f   elevation.obj
 0001:00002c80       ?fSetOwner@elevation@@QAE_NPB_W0@Z 00403c80 f   elevation.obj
 0001:00002dc0       ?fCreateFile@elevation@@QAEPAXPB_WKKPAU_SECURITY_ATTRIBUTES@@KKPAX@Z 00403dc0 f   elevation.obj
 0001:00002f30       ??0CachedRead@@QAE@AAVFile@@@Z 00403f30 f   cache.obj
 0001:00002f60       ??1CachedRead@@QAE@XZ      00403f60 f   cache.obj
 0001:00002f60       ??1?$FarQueue@K@@QAE@XZ    00403f60 f   farqueue.obj
 0001:00002f70       ?Clear@CachedRead@@QAEXXZ  00403f70 f   cache.obj
 0001:00002f80       ??0CachedWrite@@QAE@AAVFile@@@Z 00403f80 f   cache.obj
 0001:00002fb0       ?Flush@CachedWrite@@QAE_NXZ 00403fb0 f   cache.obj
 0001:00003010       ?FillBuffer@CachedRead@@QAE_NXZ 00404010 f   cache.obj
 0001:00003100       ??1CachedWrite@@QAE@XZ     00404100 f   cache.obj
 0001:00003170       ?Write@CachedWrite@@QAE_NPBXK@Z 00404170 f   cache.obj
 0001:000031f0       ?Read@CachedRead@@QAE_NPAXKPAK@Z 004041f0 f   cache.obj
 0001:00003610       ?GetDeviceTypeByCaps@@YAIW4CDROM_DeviceCapabilities@@@Z 00404610 f   cddrv.obj
 0001:000036b0       ?IsDriveTypeCDROM@@YA_NI@Z 004046b0 f   cddrv.obj
 0001:000036d0       ?Replace@UnicodeString@@QAEAAV1@IIPB_W@Z 004046d0 f i cddrv.obj
 0001:00003710       ??4UnicodeString@@QAEABV0@PB_W@Z 00404710 f i cddrv.obj
 0001:00003750       ?Equal@UnicodeString@@QBE_NIPB_W@Z 00404750 f i cddrv.obj
 0001:00003960       ?FAR_GetDriveType@@YAIPB_WPAW4CDROM_DeviceCapabilities@@K@Z 00404960 f   cddrv.obj
 0001:00003b20       ?Free@CFileMask@@QAEXXZ    00404b20 f   CFileMask.obj
 0001:00003b40       ?Set@CFileMask@@QAE_NPB_WK@Z 00404b40 f   CFileMask.obj
 0001:00003c60       ?Compare@CFileMask@@QAE_NPB_W@Z 00404c60 f   CFileMask.obj
 0001:00003c90       ??0CFileMask@@QAE@XZ       00404c90 f   CFileMask.obj
 0001:00003ca0       ??0ChangeMacroMode@@QAE@H@Z 00404ca0 f   chgmmode.obj
 0001:00003cd0       ??1ChangeMacroMode@@QAE@XZ 00404cd0 f   chgmmode.obj
 0001:00003ce0       ??0ChangePriority@@QAE@H@Z 00404ce0 f   chgprior.obj
 0001:00003d10       ??1ChangePriority@@QAE@XZ  00404d10 f   chgprior.obj
 0001:00003d30       ?SetUseInternalClipboardState@Clipboard@@SA_N_N@Z 00404d30 f   clipboard.obj
 0001:00003d50       ?GetUseInternalClipboardState@Clipboard@@SA_NXZ 00404d50 f   clipboard.obj
 0001:00003d60       ?Open@Clipboard@@QAEHXZ    00404d60 f   clipboard.obj
 0001:00003da0       ?Close@Clipboard@@QAEHXZ   00404da0 f   clipboard.obj
 0001:00003dd0       ?Empty@Clipboard@@QAEHXZ   00404dd0 f   clipboard.obj
 0001:00003e30       ?GetData@Clipboard@@AAEPAXI@Z 00404e30 f   clipboard.obj
 0001:00003e90       ?SetData@Clipboard@@AAEPAXIPAX@Z 00404e90 f   clipboard.obj
 0001:00003f40       ?IsFormatAvailable@Clipboard@@AAEHI@Z 00404f40 f   clipboard.obj
 0001:00003f90       ?CopyHDROP@Clipboard@@QAE_NPAXI@Z 00404f90 f   clipboard.obj
 0001:00004030       ?EmptyInternalClipboard@@YAHXZ 00405030 f   clipboard.obj
 0001:000040a0       _wmemset                   004050a0 f i clipboard.obj
 0001:000040e0       ?StrCmp@@YAHPB_W0@Z        004050e0 f i clipboard.obj
 0001:00004110       ?IsEmpty@UnicodeString@@QBE_NXZ 00405110 f i clipboard.obj
 0001:00004130       ?RegisterFormat@Clipboard@@AAEIPB_W@Z 00405130 f   clipboard.obj
 0001:000041a0       ?Copy@Clipboard@@QAE_NPB_W@Z 004051a0 f   clipboard.obj
 0001:00004230       ?CopyFormat@Clipboard@@QAE_NPB_W0@Z 00405230 f   clipboard.obj
 0001:000042d0       ?PasteEx@Clipboard@@QAEPA_WH@Z 004052d0 f   clipboard.obj
 0001:00004380       ?PasteFormat@Clipboard@@QAEPA_WPB_W@Z 00405380 f   clipboard.obj
 0001:000044c0       ?CopyToClipboard@@YGHPB_W@Z 004054c0 f   clipboard.obj
 0001:00004540       ?PasteFromClipboardEx@@YAPA_WH@Z 00405540 f   clipboard.obj
 0001:000045c0       ?Paste@Clipboard@@QAEPA_WXZ 004055c0 f   clipboard.obj
 0001:000047a0       ?PasteFromClipboard@@YGPA_WXZ 004057a0 f   clipboard.obj
 0001:00004810       ?Change@BitFlags@@QAEKKH@Z 00405810 f i cmdline.obj
 0001:00004840       ?RevertAC@EditControl@@QAEXXZ 00405840 f i cmdline.obj
 0001:00004860       ?IsSlash@@YAH_W@Z          00405860 f i cmdline.obj
 0001:00004880       ?SetPersistentBlocks@CommandLine@@QAEXH@Z 00405880 f   cmdline.obj
 0001:000048a0       ?SetDelRemovesBlocks@CommandLine@@QAEXH@Z 004058a0 f   cmdline.obj
 0001:000048c0       ?SetAutoComplete@CommandLine@@QAEXH@Z 004058c0 f   cmdline.obj
 0001:000048e0       ?SetCurPos@CommandLine@@QAEXHH@Z 004058e0 f   cmdline.obj
 0001:00004910       ?VMProcess@CommandLine@@UAE_JHPAX_J@Z 00405910 f   cmdline.obj
 0001:000049a0       ?SetString@CommandLine@@QAEXPB_WH@Z 004059a0 f   cmdline.obj
 0001:000049e0       ?ExecString@CommandLine@@QAEXPB_W_N11111@Z 004059e0 f   cmdline.obj
 0001:00004a60       ?InsertString@CommandLine@@QAEXPB_W@Z 00405a60 f   cmdline.obj
 0001:00004a90       ?ProcessMouse@CommandLine@@UAEHPAU_MOUSE_EVENT_RECORD@@@Z 00405a90 f   cmdline.obj
 0001:00004ad0       ?SaveBackground@CommandLine@@QAEXHHHH@Z 00405ad0 f   cmdline.obj
 0001:00004b30       ?SaveBackground@CommandLine@@QAEXXZ 00405b30 f   cmdline.obj
 0001:00004b40       ?ShowBackground@CommandLine@@QAEXXZ 00405b40 f   cmdline.obj
 0001:00004b60       ?CorrectRealScreenCoord@CommandLine@@QAEXXZ 00405b60 f   cmdline.obj
 0001:00004b70       ?ResizeConsole@CommandLine@@UAEXXZ 00405b70 f   cmdline.obj
 0001:00004ba0       ??YUnicodeString@@QAEABV0@_W@Z 00405ba0 f i cmdline.obj
 0001:00004bc0       ?SetCurDir@CommandLine@@QAEHPB_W@Z 00405bc0 f   cmdline.obj
 0001:00004c60       ?GetCurDir@CommandLine@@QAEHAAVUnicodeString@@@Z 00405c60 f   cmdline.obj
 0001:00004c80       ??1PushPopRecord@@QAE@XZ   00405c80 f i cmdline.obj
 0001:00004c80       ??1UnicodeString@@QAE@XZ   00405c80 f i elevation.obj
 0001:00004ca0       ?GetPrompt@CommandLine@@AAEXAAVUnicodeString@@@Z 00405ca0 f   cmdline.obj
 0001:000050a0       ?ShowViewEditHistory@CommandLine@@QAEXXZ 004060a0 f   cmdline.obj
 0001:000052f0       ?DisplayObject@CommandLine@@EAEXXZ 004062f0 f   cmdline.obj
 0001:000053e0       ?ProcessKey@CommandLine@@UAEHH@Z 004063e0 f   cmdline.obj
 0001:00005ea0       ?Free@?$TStack@UPushPopRecord@@@@QAEXXZ 00406ea0 f i cmdline.obj
 0001:00005f00       ??0CommandLine@@QAE@XZ     00406f00 f   cmdline.obj
 0001:00005fc0       ??1CommandLine@@UAE@XZ     00406fc0 f   cmdline.obj
 0001:00006040       ??_GCommandLine@@UAEPAXI@Z 00407040 f i cmdline.obj
 0001:00006040       ??_ECommandLine@@UAEPAXI@Z 00407040 f i cmdline.obj
 0001:00006070       ?Clear@MenuItemEx@@QAEXXZ  00407070 f i codepage.obj
 0001:000060a0       ?GetItemsCount@@YAHXZ      004070a0 f   codepage.obj
 0001:000060e0       ?GetCodePageInsertPosition@@YAHIHH@Z 004070e0 f   codepage.obj
 0001:00006140       ??8UnicodeString@@QBE_NPB_W@Z 00407140 f i codepage.obj
 0001:00006180       ?FormatCodePageString@@YAXIPB_WAAVFormatString@@_N@Z 00407180 f   codepage.obj
 0001:000061f0       ??1MenuItemEx@@QAE@XZ      004071f0 f i codepage.obj
 0001:00006210       ?AddSeparator@@YAXPB_WH@Z  00407210 f   codepage.obj
 0001:00006330       ?ProcessSelected@@YAX_N@Z  00407330 f   codepage.obj
 0001:000066c0       ?FormatCodePageName@@YAPA_WIPA_WIAA_N@Z 004076c0 f   codepage.obj
 0001:00006890       ?EditDialogProc@@YGJPAXHHJ@Z 00407890 f   codepage.obj
 0001:00006b00       ?AddCodePage@@YAXPB_WIH_N11@Z 00407b00 f   codepage.obj
 0001:00006d60       ?AddStandardCodePage@@YAXPB_WIH_N@Z 00407d60 f   codepage.obj
 0001:00006e20       ?EnumCodePagesProc@@YGHPB_W@Z 00407e20 f   codepage.obj
 0001:00007030       ?AddCodePages@@YAXK@Z      00408030 f   codepage.obj
 0001:00007180       ?FillCodePagesVMenu@@YAX_N00@Z 00408180 f   codepage.obj
 0001:000072e0       ?FormatCodePageName@@YAPA_WIPA_WI@Z 004082e0 f   codepage.obj
 0001:00007300       ?EditCodePageName@@YAXXZ   00408300 f   codepage.obj
 0001:00007600       ?SelectCodePage@@YAII_N00@Z 00408600 f   codepage.obj
 0001:00007a00       ?FillCodePagesList@@YAIPAXII_N1@Z 00408a00 f   codepage.obj
 0001:00007b50       ?IsCodePageSupported@@YA_NI@Z 00408b50 f   codepage.obj
 0001:00007bd0       ?UpdateSecondColumnPosition@?$DialogBuilderBase@UDialogItemEx@@@@IAEXXZ 00408bd0 f i config.obj
 0001:00007c30       ?SaveValues@?$DialogBuilderBase@UDialogItemEx@@@@IAEXXZ 00408c30 f i config.obj
 0001:00007c90       ?MaxTextWidth@?$DialogBuilderBase@UDialogItemEx@@@@IAEHXZ 00408c90 f i config.obj
 0001:00007d50       ??4DialogItemEx@@QAEABU0@ABU0@@Z 00408d50 f i config.obj
 0001:00007df0       ?SetFolderInfoFiles@@YAXXZ 00408df0 f   config.obj
 0001:00007ee0       ?SaveConfig@@YAXH@Z        00408ee0 f   config.obj
 0001:000081e0       ?EndColumns@?$DialogBuilderBase@UDialogItemEx@@@@QAEXXZ 004091e0 f i config.obj
 0001:00008290       ?Free@?$TArray@VUserDefinedListItem@@@@QAEXXZ 00409290 f i config.obj
 0001:000082e0       ??1EditorOptions@@QAE@XZ   004092e0 f i config.obj
 0001:00008300       ??1CodeXLAT@@QAE@XZ        00409300 f i config.obj
 0001:000083a0       ??1Options@@QAE@XZ         004093a0 f i config.obj
 0001:00008670       ??_EDialogItemEx@@QAEPAXI@Z 00409670 f i config.obj
 0001:00008740       ?ReadConfig@@YAXXZ         00409740 f   config.obj
 0001:00008d90       ?ReallocDialogItems@?$DialogBuilderBase@UDialogItemEx@@@@IAEXXZ 00409d90 f i config.obj
 0001:00008f30       ?AddText@?$DialogBuilderBase@UDialogItemEx@@@@QAEPAUDialogItemEx@@H@Z 00409f30 f i config.obj
 0001:00008fb0       ?AddCheckbox@?$DialogBuilderBase@UDialogItemEx@@@@QAEPAUDialogItemEx@@HPAHH@Z 00409fb0 f i config.obj
 0001:000090b0       ?AddRadioButtons@?$DialogBuilderBase@UDialogItemEx@@@@QAEXPAHHQAH@Z 0040a0b0 f i config.obj
 0001:000091e0       ?AddTextBefore@?$DialogBuilderBase@UDialogItemEx@@@@QAEPAUDialogItemEx@@PAU2@H@Z 0040a1e0 f i config.obj
 0001:00009320       ?AddTextAfter@?$DialogBuilderBase@UDialogItemEx@@@@QAEPAUDialogItemEx@@PAU2@H@Z 0040a320 f i config.obj
 0001:000093f0       ?AddOKCancel@?$DialogBuilderBase@UDialogItemEx@@@@QAEXHH@Z 0040a3f0 f i config.obj
 0001:00009530       ?SystemSettings@@YAXXZ     0040a530 f   config.obj
 0001:00009790       ?PanelSettings@@YAXXZ      0040a790 f   config.obj
 0001:00009a40       ?InterfaceSettings@@YAXXZ  0040aa40 f   config.obj
 0001:00009c70       ?AutoCompleteSettings@@YAXXZ 0040ac70 f   config.obj
 0001:00009d50       ?InfoPanelSettings@@YAXXZ  0040ad50 f   config.obj
 0001:00009f30       ?DialogSettings@@YAXXZ     0040af30 f   config.obj
 0001:0000a040       ?VMenuSettings@@YAXXZ      0040b040 f   config.obj
 0001:0000a160       ?CmdlineSettings@@YAXXZ    0040b160 f   config.obj
 0001:0000a2a0       ?SetConfirmations@@YAXXZ   0040b2a0 f   config.obj
 0001:0000a420       ?PluginsManagerSettings@@YAXXZ 0040b420 f   config.obj
 0001:0000a5e0       ?SetDizConfig@@YAXXZ       0040b5e0 f   config.obj
 0001:0000a820       ?ViewerConfig@@YAXAAUViewerOptions@@_N@Z 0040b820 f   config.obj
 0001:0000aa50       ?EditorConfig@@YAXAAUEditorOptions@@_N@Z 0040ba50 f   config.obj
 0001:0000ad60       ?Allocate@console@@QAE_NXZ 0040bd60 f   console.obj
 0001:0000ad70       ?Free@console@@QAE_NXZ     0040bd70 f   console.obj
 0001:0000ad80       ?GetInputHandle@console@@QAEPAXXZ 0040bd80 f   console.obj
 0001:0000ad90       ?GetOutputHandle@console@@QAEPAXXZ 0040bd90 f   console.obj
 0001:0000ada0       ?GetWindow@console@@QAEPAUHWND__@@XZ 0040bda0 f   console.obj
 0001:0000adb0       ?GetSize@console@@QAE_NAAU_COORD@@@Z 0040bdb0 f   console.obj
 0001:0000ae20       ?GetWindowRect@console@@QAE_NAAU_SMALL_RECT@@@Z 0040be20 f   console.obj
 0001:0000ae60       ?SetWindowRect@console@@QAE_NABU_SMALL_RECT@@@Z 0040be60 f   console.obj
 0001:0000ae90       ?GetWorkingRect@console@@QAE_NAAU_SMALL_RECT@@@Z 0040be90 f   console.obj
 0001:0000aef0       ?SetTitle@console@@QAE_NPB_W@Z 0040bef0 f   console.obj
 0001:0000af10       ?GetKeyboardLayoutNameW@console@@QAE_NAAVUnicodeString@@@Z 0040bf10 f   console.obj
 0001:0000af70       ?GetInputCodepage@console@@QAEIXZ 0040bf70 f   console.obj
 0001:0000af80       ?SetInputCodepage@console@@QAE_NI@Z 0040bf80 f   console.obj
 0001:0000afa0       ?GetOutputCodepage@console@@QAEIXZ 0040bfa0 f   console.obj
 0001:0000afb0       ?SetOutputCodepage@console@@QAE_NI@Z 0040bfb0 f   console.obj
 0001:0000afd0       ?SetControlHandler@console@@QAE_NP6GHK@Z_N@Z 0040bfd0 f   console.obj
 0001:0000b000       ?GetMode@console@@QAE_NPAXAAK@Z 0040c000 f   console.obj
 0001:0000b020       ?SetMode@console@@QAE_NPAXK@Z 0040c020 f   console.obj
 0001:0000b040       ?Write@console@@QAE_NPB_WK@Z 0040c040 f   console.obj
 0001:0000b070       ?GetTextAttributes@console@@QAE_NAAG@Z 0040c070 f   console.obj
 0001:0000b0b0       ?SetTextAttributes@console@@QAE_NG@Z 0040c0b0 f   console.obj
 0001:0000b0d0       ?GetCursorInfo@console@@QAE_NAAU_CONSOLE_CURSOR_INFO@@@Z 0040c0d0 f   console.obj
 0001:0000b0f0       ?SetCursorInfo@console@@QAE_NABU_CONSOLE_CURSOR_INFO@@@Z 0040c0f0 f   console.obj
 0001:0000b110       ?FlushInputBuffer@console@@QAE_NXZ 0040c110 f   console.obj
 0001:0000b130       ?GetAlias@console@@QAEKPB_WPA_WK0@Z 0040c130 f   console.obj
 0001:0000b140       ?GetDisplayMode@console@@QAE_NAAK@Z 0040c140 f   console.obj
 0001:0000b160       ?GetLargestWindowSize@console@@QAE?AU_COORD@@XZ 0040c160 f   console.obj
 0001:0000b180       ?SetActiveScreenBuffer@console@@QAE_NPAX@Z 0040c180 f   console.obj
 0001:0000b1a0       ?ScrollWindow@console@@QAE_NHH@Z 0040c1a0 f   console.obj
 0001:0000b2b0       ?ScrollScreenBuffer@console@@QAE_NH@Z 0040c2b0 f   console.obj
 0001:0000b340       ?ResetPosition@console@@QAE_NXZ 0040c340 f   console.obj
 0001:0000b3b0       ?SetSize@console@@QAE_NU_COORD@@@Z 0040c3b0 f   console.obj
 0001:0000b490       ?GetTitle@console@@QAE_NAAVUnicodeString@@@Z 0040c490 f   console.obj
 0001:0000b520       ?PeekInput@console@@QAE_NAAU_INPUT_RECORD@@KAAK@Z 0040c520 f   console.obj
 0001:0000b5e0       ?ReadInput@console@@QAE_NAAU_INPUT_RECORD@@KAAK@Z 0040c5e0 f   console.obj
 0001:0000b6a0       ?WriteInput@console@@QAE_NAAU_INPUT_RECORD@@KAAK@Z 0040c6a0 f   console.obj
 0001:0000b710       ?ReadOutput@console@@QAE_NAAU_CHAR_INFO@@U_COORD@@1AAU_SMALL_RECT@@@Z 0040c710 f   console.obj
 0001:0000b890       ?WriteOutput@console@@QAE_NABU_CHAR_INFO@@U_COORD@@1AAU_SMALL_RECT@@@Z 0040c890 f   console.obj
 0001:0000ba10       ?GetCursorPosition@console@@QAE_NAAU_COORD@@@Z 0040ca10 f   console.obj
 0001:0000ba80       ?SetCursorPosition@console@@QAE_NU_COORD@@@Z 0040ca80 f   console.obj
 0001:0000bb20       ?ClearExtraRegions@console@@QAE_NG@Z 0040cb20 f   console.obj
 0001:0000bdf0       ?SetFarTitle@ConsoleTitle@@SAXPB_W_N@Z 0040cdf0 f   constitle.obj
 0001:0000bf90       ??0ConsoleTitle@@QAE@PB_W@Z 0040cf90 f   constitle.obj
 0001:0000bfe0       ??1ConsoleTitle@@QAE@XZ    0040cfe0 f   constitle.obj
 0001:0000c070       ?Set@ConsoleTitle@@QAAXPB_WZZ 0040d070 f   constitle.obj
 0001:0000c0d0       ?Flush@CopyProgress@@AAEXXZ 0040d0d0 f   copy.obj
 0001:0000c1f0       ?CreateScanBackground@CopyProgress@@AAEXXZ 0040d1f0 f   copy.obj
 0001:0000c2b0       ?GetParentFolder@@YAAAVUnicodeString@@PB_WAAV1@@Z 0040d2b0 f   copy.obj
 0001:0000c2e0       ?CheckAndUpdateConsole@@YAHH@Z 0040d2e0 f   copy.obj
 0001:0000c390       ?StrCmpNNI@@YAHPB_WH0H@Z   0040d390 f i copy.obj
 0001:0000c3c0       ?StrCmpNI@@YAHPB_W0H@Z     0040d3c0 f i copy.obj
 0001:0000c3f0       ?Clear@FAR_FIND_DATA_EX@@QAEXXZ 0040d3f0 f i copy.obj
 0001:0000c440       ?DeleteAfterMove@ShellCopy@@AAEHPB_WK@Z 0040d440 f   copy.obj
 0001:0000c650       ?SetDestDizPath@ShellCopy@@AAEXPB_W@Z 0040d650 f   copy.obj
 0001:0000c6f0       ?SetScanName@CopyProgress@@QAEXPB_W@Z 0040d6f0 f   copy.obj
 0001:0000c780       ?DrawNames@CopyProgress@@AAEXXZ 0040d780 f   copy.obj
 0001:0000c810       ?CheckNulOrCon@@YA_NPB_W@Z 0040d810 f   copy.obj
 0001:0000c890       ??1CopyProgress@@QAE@XZ    0040d890 f i copy.obj
 0001:0000c930       ??0FAR_FIND_DATA_EX@@QAE@ABU0@@Z 0040d930 f i copy.obj
 0001:0000c9d0       ?SetSecurity@ShellCopy@@AAEHPB_WABU_SECURITY_ATTRIBUTES@@@Z 0040d9d0 f   copy.obj
 0001:0000ca90       ?ShellCopySecuryMsg@@YAHPB_W@Z 0040da90 f   copy.obj
 0001:0000cc70       ?ShellSetAttr@ShellCopy@@AAE_NPB_WK@Z 0040dc70 f   copy.obj
 0001:0000ce50       ??0CopyProgress@@QAE@_N00@Z 0040de50 f   copy.obj
 0001:0000cf00       ?CreateBackground@CopyProgress@@QAEXXZ 0040df00 f   copy.obj
 0001:0000d250       ?SetProgress@CopyProgress@@AAEX_N_K1@Z 0040e250 f   copy.obj
 0001:0000d790       ?CmpFullNames@@YAHPB_W0@Z  0040e790 f   copy.obj
 0001:0000d870       ?CmpFullPath@@YAHPB_W0@Z   0040e870 f   copy.obj
 0001:0000db70       ?PR_ShellCopyMsg@@YAXXZ    0040eb70 f   copy.obj
 0001:0000dba0       ?WarnDlgProc@@YGJPAXHHJ@Z  0040eba0 f   copy.obj
 0001:0000de40       ?AskOverwrite@ShellCopy@@AAEHABUFAR_FIND_DATA_EX@@PB_W1KHHHAAHAAVUnicodeString@@2@Z 0040ee40 f   copy.obj
 0001:0000ee50       ?GetSecurity@ShellCopy@@AAEHPB_WAAU_SECURITY_ATTRIBUTES@@@Z 0040fe50 f   copy.obj
 0001:0000ef40       ?CalcTotalSize@ShellCopy@@AAE_NXZ 0040ff40 f   copy.obj
 0001:0000f2a0       ?SetTotalProgressValue@CopyProgress@@QAEX_K0@Z 004102a0 f i copy.obj
 0001:0000f2c0       ?SetNames@CopyProgress@@QAEXPB_W0@Z 004102c0 f   copy.obj
 0001:0000f440       ?CopyDlgProc@@YGJPAXHHJ@Z  00410440 f   copy.obj
 0001:0000f9a0       ??1ShellCopy@@QAE@XZ       004109a0 f   copy.obj
 0001:0000fc20       ?Free@?$TPointerArray@UScanTreeData@@@@QAEXXZ 00410c20 f i copy.obj
 0001:0000fcb0       ?ShellSystemCopy@ShellCopy@@AAEHPB_W0ABUFAR_FIND_DATA_EX@@@Z 00410cb0 f   copy.obj
 0001:0000fd90       ??1ScanTree@@QAE@XZ        00410d90 f i copy.obj
 0001:0000fde0       ?ShellCopyFile@ShellCopy@@AAEHPB_WABUFAR_FIND_DATA_EX@@AAVUnicodeString@@AAKH@Z 00410de0 f   copy.obj
 0001:00010fc0       ?SetRecursiveSecurity@ShellCopy@@AAEHPB_WABU_SECURITY_ATTRIBUTES@@@Z 00411fc0 f   copy.obj
 0001:00011100       ?ShellCopyOneFile@ShellCopy@@AAE?AW4COPY_CODES@@PB_WABUFAR_FIND_DATA_EX@@AAVUnicodeString@@HH@Z 00412100 f   copy.obj
 0001:00012880       ?CopyFileTree@ShellCopy@@AAE?AW4COPY_CODES@@PB_W@Z 00413880 f   copy.obj
 0001:00013860       ??0ShellCopy@@QAE@PAVPanel@@HHHHAAHPB_W_N@Z 00414860 f   copy.obj
 0001:00015d40       ??0ControlObject@@QAE@XZ   00416d40 f   ctrlobj.obj
 0001:00015ee0       ?CreateFilePanels@ControlObject@@QAEXXZ 00416ee0 f   ctrlobj.obj
 0001:00015f10       ?Cp@ControlObject@@QAEPAVFilePanels@@XZ 00416f10 f   ctrlobj.obj
 0001:00015f20       ??1ControlObject@@QAE@XZ   00416f20 f   ctrlobj.obj
 0001:000160e0       ?ShowCopyright@ControlObject@@SAXK@Z 004170e0 f   ctrlobj.obj
 0001:000162b0       ?Init@ControlObject@@QAEXXZ 004172b0 f   ctrlobj.obj
 0001:000164e0       _wmemmove                  004174e0 f i cvtname.obj
 0001:00016500       ?StrCmpNN@@YAHPB_WH0H@Z    00417500 f i cvtname.obj
 0001:00016530       ?StrCmpN@@YAHPB_W0H@Z      00417530 f i cvtname.obj
 0001:00016560       ?Point2Root@@YA?AW4PATH_PFX_TYPE@@PB_WAAI@Z 00417560 f   cvtname.obj
 0001:00016690       ?MixToFullPath@@YAXAAVUnicodeString@@@Z 00417690 f   cvtname.obj
 0001:00016860       ??0UnicodeString@@QAE@PB_WI@Z 00417860 f i cvtname.obj
 0001:00016890       ?MixToFullPath@@YA_NPB_WAAVUnicodeString@@0@Z 00417890 f   cvtname.obj
 0001:00016a90       ?ConvertNameToFull@@YAXPB_WAAVUnicodeString@@@Z 00417a90 f   cvtname.obj
 0001:00016b50       ?TryConvertVolumeGuidToDrivePath@@YA?AVUnicodeString@@ABV1@@Z 00417b50 f   cvtname.obj
 0001:00016e10       ?ConvertNameToReal@@YAXPB_WAAVUnicodeString@@@Z 00417e10 f   cvtname.obj
 0001:00017030       ?ConvertNameToShort@@YAXPB_WAAVUnicodeString@@@Z 00418030 f   cvtname.obj
 0001:00017110       ?ConvertNameToLong@@YAXPB_WAAVUnicodeString@@@Z 00418110 f   cvtname.obj
 0001:00017210       ?ConvertNameToUNC@@YAXAAVUnicodeString@@@Z 00418210 f   cvtname.obj
 0001:00017400       ?PrepareDiskPath@@YAAAVUnicodeString@@AAV1@_N@Z 00418400 f   cvtname.obj
 0001:00017770       ?ConvertYearToFull@@YAKK@Z 00418770 f   datetime.obj
 0001:000177d0       ?GetDateFormatW@@YAHXZ     004187d0 f   datetime.obj
 0001:00017800       ?GetDateSeparator@@YA_WXZ  00418800 f   datetime.obj
 0001:00017830       ?GetTimeSeparator@@YA_WXZ  00418830 f   datetime.obj
 0001:000179d0       ?FileTimeDifference@@YA_JPBU_FILETIME@@0@Z 004189d0 f   datetime.obj
 0001:000179f0       ?FileTimeToUI64@@YA_KPBU_FILETIME@@@Z 004189f0 f   datetime.obj
 0001:00017a00       ?PrepareStrFTime@@YAXXZ    00418a00 f   datetime.obj
 0001:00017e10       ?StrFTime@@YGIAAVUnicodeString@@PB_WPBUtm@@@Z 00418e10 f   datetime.obj
 0001:000183f0       ?MkStrFTime@@YAIAAVUnicodeString@@PB_W@Z 004193f0 f   datetime.obj
 0001:00018440       ?GetFileDateAndTime@@YAXPB_WPAGIH@Z 00419440 f   datetime.obj
 0001:00018510       ?StrToDateTime@@YAXPB_W0AAU_FILETIME@@HHH_N@Z 00419510 f   datetime.obj
 0001:00018720       ?ConvertRelativeDate@@YAXABU_FILETIME@@AAVUnicodeString@@1@Z 00419720 f   datetime.obj
 0001:000189f0       ?ConvertDate@@YAXABU_FILETIME@@AAVUnicodeString@@1HHHHH@Z 004199f0 f   datetime.obj
 0001:00018fb0       ?SHErrorToWinError@@YAKK@Z 00419fb0 f   delete.obj
 0001:000190b0       ?MoveToRecycleBinInternal@@YA_NPB_W@Z 0041a0b0 f   delete.obj
 0001:00019490       ?DeleteFileWithFolder@@YAHPB_W@Z 0041a490 f   delete.obj
 0001:00019b90       ?DeleteDirTree@@YAXPB_W@Z  0041ab90 f   delete.obj
 0001:0001a020       ?ShellDelete@@YAXPAVPanel@@H@Z 0041b020 f   delete.obj
 0001:0001b110       ?ChangeFlags@VMenu@@QAEKKH@Z 0041c110 f i dialog.obj
 0001:0001b150       ?Clear@DialogItemEx@@QAEXXZ 0041c150 f i dialog.obj
 0001:0001b1b0       ?AddAutomation@DialogItemEx@@QAE_NHW4FarDialogItemFlags@@00000@Z 0041c1b0 f i dialog.obj
 0001:0001b230       ?RevertAC@DlgEdit@@QAEXXZ  0041c230 f i dialog.obj
 0001:0001b270       ?ItemHasDropDownArrow@Dialog@@AAE_NPBUDialogItemEx@@@Z 0041c270 f   dialog.obj
 0001:0001b300       ?ProcessKey@Dialog@@AAEXHI@Z 0041c300 f   dialog.obj
 0001:0001b330       ?GetMacroMode@Dialog@@UAEHXZ 0041c330 f   dialog.obj
 0001:0001b330       ?GetType@Dialog@@UAEHXZ    0041c330 f   dialog.obj
 0001:0001b340       ?FastHide@FolderTree@@UAEHXZ 0041c340 f   foldtree.obj
 0001:0001b340       ?FastHide@Dialog@@UAEHXZ   0041c340 f   dialog.obj
 0001:0001b350       ?DlgProc@Dialog@@QAGJPAXHHJ@Z 0041c350 f   dialog.obj
 0001:0001b410       ?ProcessEvents@Dialog@@UAE_NXZ 0041c410 f   dialog.obj
 0001:0001b420       ?SetId@Dialog@@QAEXABU_GUID@@@Z 0041c420 f   dialog.obj
 0001:0001b460       ?IsKeyHighlighted@@YA_NPB_WHHH@Z 0041c460 f   dialog.obj
 0001:0001b560       ?DialogItemExToDialogItemEx@@YAXPAUDialogItemEx@@0@Z 0041c560 f   dialog.obj
 0001:0001b610       ?ConvertItemSmall@@YAXPAUFarDialogItem@@PAUDialogItemEx@@@Z 0041c610 f   dialog.obj
 0001:0001b6c0       ?ItemStringAndSize@@YAIPAUDialogItemEx@@AAVUnicodeString@@@Z 0041c6c0 f   dialog.obj
 0001:0001b730       ?DataToItemEx@@YAXPBUDialogDataEx@@PAUDialogItemEx@@H@Z 0041c730 f   dialog.obj
 0001:0001b920       ?CheckDialogCoord@Dialog@@AAEXXZ 0041c920 f   dialog.obj
 0001:0001b9c0       ?Show@Dialog@@UAEXXZ       0041c9c0 f   dialog.obj
 0001:0001ba40       ?Hide@Dialog@@UAEXXZ       0041ca40 f   dialog.obj
 0001:0001ba70       ?GetDialogTitle@Dialog@@AAEPB_WXZ 0041ca70 f   dialog.obj
 0001:0001bb40       ?GetItemRect@Dialog@@AAEHIAAU_SMALL_RECT@@@Z 0041cb40 f   dialog.obj
 0001:0001be20       ?DeleteDialogObjects@Dialog@@AAEXXZ 0041ce20 f   dialog.obj
 0001:0001bfe0       ?CtlColorDlgItem@Dialog@@AAEJHHHHK@Z 0041cfe0 f   dialog.obj
 0001:0001c670       ?LenStrItem@Dialog@@AAEHHPB_W@Z 0041d670 f   dialog.obj
 0001:0001c6f0       ?ProcessRadioButton@Dialog@@AAEII@Z 0041d6f0 f   dialog.obj
 0001:0001c7f0       ?ChangeFocus@Dialog@@AAEIIHH@Z 0041d7f0 f   dialog.obj
 0001:0001c8a0       ?ChangeFocus2@Dialog@@AAEXI@Z 0041d8a0 f   dialog.obj
 0001:0001cb40       ?SetAutomation@Dialog@@QAEHGGW4FarDialogItemFlags@@00000@Z 0041db40 f   dialog.obj
 0001:0001cbc0       ?SelectFromEditHistory@Dialog@@AAEHPAUDialogItemEx@@PAVDlgEdit@@PB_WAAVUnicodeString@@@Z 0041dbc0 f   dialog.obj
 0001:0001ce20       ?AddToEditHistory@Dialog@@AAEHPB_W0@Z 0041de20 f   dialog.obj
 0001:0001cf40       ?CheckHighlights@Dialog@@AAEHGH@Z 0041df40 f   dialog.obj
 0001:0001d070       ?SetHelp@Dialog@@QAEXPB_W@Z 0041e070 f   dialog.obj
 0001:0001d110       ?ClearDone@Dialog@@QAEXXZ  0041e110 f   dialog.obj
 0001:0001d140       ?SetExitCode@Dialog@@UAEXH@Z 0041e140 f   dialog.obj
 0001:0001d170       ?GetTypeAndName@Dialog@@UAEHAAVUnicodeString@@0@Z 0041e170 f   dialog.obj
 0001:0001d220       ?DefDlgProc@@YGJPAXHHJ@Z   0041e220 f   dialog.obj
 0001:0001d4c0       ?CallDlgProc@Dialog@@AAEJHHJ@Z 0041e4c0 f   dialog.obj
 0001:0001d500       ?SetPosition@Dialog@@UAEXHHHH@Z 0041e500 f   dialog.obj
 0001:0001d570       ?IsInited@Dialog@@QAEHXZ   0041e570 f   dialog.obj
 0001:0001d5a0       ?SetComboBoxPos@Dialog@@AAEXPAUDialogItemEx@@@Z 0041e5a0 f   dialog.obj
 0001:0001d6a0       ?ConvertItemEx@@YA_NW4CVTITEMFLAGS@@PAUFarDialogItem@@PAUDialogItemEx@@I@Z 0041e6a0 f   dialog.obj
 0001:0001d8d0       ?ConvertItemEx2@@YAIPAUFarDialogItem@@PAUDialogItemEx@@@Z 0041e8d0 f   dialog.obj
 0001:0001d9a0       ?Init@Dialog@@AAEXP6GJPAXHHJ@ZJ@Z 0041e9a0 f   dialog.obj
 0001:0001da60       ?ProcessCenterGroup@Dialog@@AAEXXZ 0041ea60 f   dialog.obj
 0001:0001dcd0       ?ProcessLastHistory@Dialog@@AAEXPAUDialogItemEx@@H@Z 0041ecd0 f   dialog.obj
 0001:0001ddd0       ?GetDialogObjectsData@Dialog@@QAEXXZ 0041edd0 f   dialog.obj
 0001:0001df40       ?ShowDialog@Dialog@@AAEXI@Z 0041ef40 f   dialog.obj
 0001:0001ee90       ?VMProcess@Dialog@@UAE_JHPAX_J@Z 0041fe90 f   dialog.obj
 0001:0001f3b0       ?Do_ProcessFirstCtrl@Dialog@@AAEHXZ 004203b0 f   dialog.obj
 0001:0001f480       ?Do_ProcessNextCtrl@Dialog@@AAEHHH@Z 00420480 f   dialog.obj
 0001:0001f5d0       ?Do_ProcessTab@Dialog@@AAEHH@Z 004205d0 f   dialog.obj
 0001:0001f6b0       ?SelectFromComboBox@Dialog@@AAEHPAUDialogItemEx@@PAVDlgEdit@@PAVVMenu@@@Z 004206b0 f   dialog.obj
 0001:0001f9d0       ?AdjustEditPos@Dialog@@QAEXHH@Z 004209d0 f   dialog.obj
 0001:0001fae0       ?CloseDialog@Dialog@@QAEXXZ 00420ae0 f   dialog.obj
 0001:0001fb60       ??0Dialog@@QAE@PAUDialogItemEx@@IP6GJPAXHHJ@ZJ@Z 00420b60 f   dialog.obj
 0001:0001fca0       ?GetCanLoseFocus@Frame@@UAEHH@Z 00420ca0 f i dialog.obj
 0001:0001fcb0       ?Refresh@Frame@@UAEXXZ     00420cb0 f i dialog.obj
 0001:0001fcb0       ?Refresh@FilePanels@@UAEXXZ 00420cb0 f i filepanels.obj
 0001:0001fcc0       ?RedrawKeyBar@Frame@@UAEXXZ 00420cc0 f i dialog.obj
 0001:0001fcd0       ?GetTitle@Frame@@UAEAAVUnicodeString@@AAV2@HH@Z 00420cd0 f i dialog.obj
 0001:0001fce0       ?GetTypeName@Dialog@@UAEPB_WXZ 00420ce0 f i dialog.obj
 0001:0001fcf0       ??0Dialog@@QAE@PAUFarDialogItem@@IP6GJPAXHHJ@ZJ@Z 00420cf0 f   dialog.obj
 0001:0001fe30       ?DisplayObject@Dialog@@EAEXXZ 00420e30 f   dialog.obj
 0001:0001fe80       ?InitDialogObjects@Dialog@@AAEII@Z 00420e80 f   dialog.obj
 0001:000208b0       ?SetItemRect@Dialog@@AAEHIPAU_SMALL_RECT@@@Z 004218b0 f   dialog.obj
 0001:00020a40       ?ProcessMoveDialog@Dialog@@AAEHK@Z 00421a40 f   dialog.obj
 0001:00020ea0       ?ProcessOpenComboBox@Dialog@@AAEHHPAUDialogItemEx@@I@Z 00421ea0 f   dialog.obj
 0001:00020ff0       ?SendDlgMessage@@YGJPAXHHJ@Z 00421ff0 f   dialog.obj
 0001:00023090       ??1Dialog@@UAE@XZ          00424090 f   dialog.obj
 0001:000231c0       ?InitDialog@Dialog@@QAEXXZ 004241c0 f   dialog.obj
 0001:000232b0       ?ProcessMouse@Dialog@@UAEHPAU_MOUSE_EVENT_RECORD@@@Z 004242b0 f   dialog.obj
 0001:00023de0       ?Do_ProcessSpace@Dialog@@AAEHXZ 00424de0 f   dialog.obj
 0001:00023f20       ?ProcessHighlighting@Dialog@@AAEHHIH@Z 00424f20 f   dialog.obj
 0001:000241b0       ?Process@Dialog@@QAEXXZ    004251b0 f   dialog.obj
 0001:000242c0       ?ResizeConsole@Dialog@@UAEXXZ 004252c0 f   dialog.obj
 0001:000243b0       ??_GDialog@@UAEPAXI@Z      004253b0 f i dialog.obj
 0001:000243b0       ??_EDialog@@UAEPAXI@Z      004253b0 f i dialog.obj
 0001:000243e0       ?ProcessKey@Dialog@@UAEHH@Z 004253e0 f   dialog.obj
 0001:00025790       ?GetPluginDirInfo@@YAHPAXPB_WAAK2AA_K3@Z 00426790 f   dirinfo.obj
 0001:00025940       ?GetDirInfo@@YAHPB_W0AAK1AA_K221JPAVFileFilter@@K@Z 00426940 f   dirinfo.obj
 0001:00026150       ?FarChDir@@YAHPB_WH@Z      00427150 f   dirmix.obj
 0001:00026300       ?CreatePath@@YAXAAVUnicodeString@@@Z 00427300 f   dirmix.obj
 0001:00026440       ?TestFolder@@YAHPB_W@Z     00427440 f   dirmix.obj
 0001:00026640       ?CheckShortcutFolder@@YAHPAVUnicodeString@@HH@Z 00427640 f   dirmix.obj
 0001:00026890       ?IsUnicodeOrUtfCodePage@@YA_NI@Z 00427890 f i dizlist.obj
 0001:000268c0       ?Reset@DizList@@QAEXXZ     004278c0 f   dizlist.obj
 0001:00026930       ?PR_ReadingMsg@DizList@@SAXXZ 00427930 f   dizlist.obj
 0001:00026960       ?IsSpace@@YAH_W@Z          00427960 f i dizlist.obj
 0001:00026980       ?IsSpaceOrEos@@YAH_W@Z     00427980 f i dizlist.obj
 0001:000269b0       ?AddRecord@DizList@@AAE_NPB_W@Z 004279b0 f   dizlist.obj
 0001:00026c80       ?GetDizName@DizList@@QAEXAAVUnicodeString@@@Z 00427c80 f   dizlist.obj
 0001:00026c90       ??0DizList@@QAE@XZ         00427c90 f   dizlist.obj
 0001:00026cc0       ??1DizList@@QAE@XZ         00427cc0 f   dizlist.obj
 0001:00026d00       ?Read@DizList@@QAEXPB_W0@Z 00427d00 f   dizlist.obj
 0001:00026fc0       ?BuildIndex@DizList@@AAEXXZ 00427fc0 f   dizlist.obj
 0001:00027050       ?Flush@DizList@@QAE_NPB_W0@Z 00428050 f   dizlist.obj
 0001:00027400       ?GetDizPos@DizList@@AAEHPB_WPAH@Z 00428400 f   dizlist.obj
 0001:000274d0       ?GetDizPosEx@DizList@@AAEHPB_W0PAH@Z 004284d0 f   dizlist.obj
 0001:000275f0       ?DeleteDiz@DizList@@QAE_NPB_W0@Z 004285f0 f   dizlist.obj
 0001:00027670       ?AddDizText@DizList@@QAE_NPB_W00@Z 00428670 f   dizlist.obj
 0001:000277a0       ?CopyDiz@DizList@@QAE_NPB_W000PAV1@@Z 004287a0 f   dizlist.obj
 0001:00027850       ?GetDizTextAddr@DizList@@QAEPB_WPB_W0_J@Z 00428850 f   dizlist.obj
 0001:00027960       ?GetLangString@DialogBuilder@@MAEPB_WH@Z 00428960 f   DlgBuilder.obj
 0001:00027970       ?DoShowDialog@DialogBuilder@@MAEHXZ 00428970 f   DlgBuilder.obj
 0001:000279f0       ?InitDialogItem@?$DialogBuilderBase@UDialogItemEx@@@@MAEXPAUDialogItemEx@@PB_W@Z 004289f0 f i DlgBuilder.obj
 0001:000279f0       ?DeleteDiz@Panel@@UAEXPB_W0@Z 004289f0 f i infolist.obj
 0001:00027a00       ?ProcessMouse@ScreenObject@@UAEHPAU_MOUSE_EVENT_RECORD@@@Z 00428a00 f i filepanels.obj
 0001:00027a00       ?CreateRadioButtonBinding@?$DialogBuilderBase@UDialogItemEx@@@@MAEPAU?$DialogItemBinding@UDialogItemEx@@@@PAH@Z 00428a00 f i DlgBuilder.obj
 0001:00027a00       ?ProcessKey@ScreenObject@@UAEHH@Z 00428a00 f i filepanels.obj
 0001:00027a00       ?UpdateIfChanged@Panel@@UAEHH@Z 00428a00 f i infolist.obj
 0001:00027a00       ?IsSelected@Panel@@UAEHPB_W@Z 00428a00 f i infolist.obj
 0001:00027a00       ?GetLastSelectedItem@Panel@@UAEHPAUFileListItem@@@Z 00428a00 f i infolist.obj
 0001:00027a00       ?IsSelected@Panel@@UAEHJ@Z 00428a00 f i infolist.obj
 0001:00027a00       ?Analyse@PluginA@@UAEHPBUAnalyseData@@@Z 00428a00 f i PluginA.obj
 0001:00027a00       ?GetLangString@?$DialogBuilderBase@UDialogItemEx@@@@MAEPB_WH@Z 00428a00 f i DlgBuilder.obj
 0001:00027a00       ?IsColumnDisplayed@Panel@@UAEHH@Z 00428a00 f i infolist.obj
 0001:00027a10       ?GetPluginHandle@Panel@@UAEPAXXZ 00428a10 f i infolist.obj
 0001:00027a10       ?DoShowDialog@?$DialogBuilderBase@UDialogItemEx@@@@MAEHXZ 00428a10 f i DlgBuilder.obj
 0001:00027a20       ?GetCustomData@PluginA@@UAEHPB_WPAPA_W@Z 00428a20 f i PluginA.obj
 0001:00027a20       ?ProcessSynchroEvent@PluginA@@UAEHHPAX@Z 00428a20 f i PluginA.obj
 0001:00027a20       ?SendKeyToPlugin@Panel@@UAEHKH@Z 00428a20 f i infolist.obj
 0001:00027a20       ?GetItem@Panel@@UAEHHPAX@Z 00428a20 f i infolist.obj
 0001:00027a20       ?CreateCheckBoxBinding@?$DialogBuilderBase@UDialogItemEx@@@@MAEPAU?$DialogItemBinding@UDialogItemEx@@@@PAHH@Z 00428a20 f i DlgBuilder.obj
 0001:00027a20       ?ProcessPluginEvent@Panel@@UAEHHPAX@Z 00428a20 f i infolist.obj
 0001:00027a20       ?GetTypeAndName@Frame@@UAEHAAVUnicodeString@@0@Z 00428a20 f i frame.obj
 0001:00027a20       ?AddIntEditField@?$DialogBuilderBase@UDialogItemEx@@@@UAEPAUDialogItemEx@@PAHH@Z 00428a20 f i DlgBuilder.obj
 0001:00027a30       ?SaveValue@?$CheckBoxBinding@UDialogItemEx@@@@UAEXPAUDialogItemEx@@H@Z 00428a30 f i DlgBuilder.obj
 0001:00027a70       ?SaveValue@?$RadioButtonBinding@UDialogItemEx@@@@UAEXPAUDialogItemEx@@H@Z 00428a70 f i DlgBuilder.obj
 0001:00027a90       ?SaveValue@?$ComboBoxBinding@UDialogItemEx@@@@UAEXPAUDialogItemEx@@H@Z 00428a90 f i DlgBuilder.obj
 0001:00027ab0       ?SaveValue@EditFieldBinding@@UAEXPAUDialogItemEx@@H@Z 00428ab0 f i DlgBuilder.obj
 0001:00027ad0       ??0EditFieldIntBinding@@QAE@PAHH@Z 00428ad0 f i DlgBuilder.obj
 0001:00027b30       ?SaveValue@EditFieldIntBinding@@UAEXPAUDialogItemEx@@H@Z 00428b30 f i DlgBuilder.obj
 0001:00027b60       ?InitDialogItem@DialogBuilder@@MAEXPAUDialogItemEx@@PB_W@Z 00428b60 f   DlgBuilder.obj
 0001:00027bc0       ?TextWidth@DialogBuilder@@MAEHABUDialogItemEx@@@Z 00428bc0 f   DlgBuilder.obj
 0001:00027bd0       ?CreateCheckBoxBinding@DialogBuilder@@MAEPAU?$DialogItemBinding@UDialogItemEx@@@@PAHH@Z 00428bd0 f   DlgBuilder.obj
 0001:00027c10       ?CreateRadioButtonBinding@DialogBuilder@@MAEPAU?$DialogItemBinding@UDialogItemEx@@@@PAH@Z 00428c10 f   DlgBuilder.obj
 0001:00027c40       ?LinkFlags@DialogBuilder@@QAEXPAUDialogItemEx@@0W4FarDialogItemFlags@@_N@Z 00428c40 f   DlgBuilder.obj
 0001:00027d60       ??1?$DialogBuilderBase@UDialogItemEx@@@@IAE@XZ 00428d60 f i DlgBuilder.obj
 0001:00027e40       ??0DialogBuilder@@QAE@HPB_W@Z 00428e40 f   DlgBuilder.obj
 0001:00027ee0       ??1DialogBuilder@@QAE@XZ   00428ee0 f   DlgBuilder.obj
 0001:00027ef0       ?AddEditField@DialogBuilder@@QAEPAUDialogItemEx@@PAVUnicodeString@@HPB_WH@Z 00428ef0 f   DlgBuilder.obj
 0001:00027fe0       ?AddIntEditField@DialogBuilder@@UAEPAUDialogItemEx@@PAHH@Z 00428fe0 f   DlgBuilder.obj
 0001:00028140       ?AddComboBox@DialogBuilder@@QAEPAUDialogItemEx@@PAHHPAUDialogBuilderListItem@@HK@Z 00429140 f   DlgBuilder.obj
 0001:00028280       ?SetOvertypeMode@Edit@@QAEXH@Z 00429280 f i dlgedit.obj
 0001:000282a0       ?ProcessKey@DlgEdit@@UAEHH@Z 004292a0 f   dlgedit.obj
 0001:000282b0       ?ProcessMouse@DlgEdit@@UAEHPAU_MOUSE_EVENT_RECORD@@@Z 004292b0 f   dlgedit.obj
 0001:000282c0       ?DisplayObject@DlgEdit@@EAEXXZ 004292c0 f   dlgedit.obj
 0001:000282d0       ?SetPosition@DlgEdit@@UAEXHHHH@Z 004292d0 f   dlgedit.obj
 0001:000282e0       ?Show@DlgEdit@@UAEXXZ      004292e0 f   dlgedit.obj
 0001:000282f0       ?GetPosition@DlgEdit@@UAEXAAH000@Z 004292f0 f   dlgedit.obj
 0001:00028300       ?SetDialogParent@DlgEdit@@QAEXK@Z 00429300 f   dlgedit.obj
 0001:00028310       ?SetDropDownBox@DlgEdit@@QAEXH@Z 00429310 f   dlgedit.obj
 0001:00028340       ?GetMaxLength@DlgEdit@@QAEHXZ 00429340 f   dlgedit.obj
 0001:00028350       ?SetMaxLength@DlgEdit@@QAEXH@Z 00429350 f   dlgedit.obj
 0001:00028370       ?SetPasswordMode@DlgEdit@@QAEXH@Z 00429370 f   dlgedit.obj
 0001:000283a0       ?SetOvertypeMode@DlgEdit@@QAEXH@Z 004293a0 f   dlgedit.obj
 0001:000283d0       ?GetOvertypeMode@DlgEdit@@QAEHXZ 004293d0 f   dlgedit.obj
 0001:000283e0       ?SetInputMask@DlgEdit@@QAEXPB_W@Z 004293e0 f   dlgedit.obj
 0001:00028400       ?SetEditBeyondEnd@DlgEdit@@QAEXH@Z 00429400 f   dlgedit.obj
 0001:00028430       ?SetClearFlag@DlgEdit@@QAEXH@Z 00429430 f   dlgedit.obj
 0001:00028460       ?GetClearFlag@DlgEdit@@QAEHXZ 00429460 f   dlgedit.obj
 0001:00028470       ?GetStringAddr@DlgEdit@@QAEPB_WXZ 00429470 f   dlgedit.obj
 0001:00028480       ?SetHiString@DlgEdit@@QAEXPB_W@Z 00429480 f   dlgedit.obj
 0001:00028490       ?SetString@DlgEdit@@QAEXPB_W@Z 00429490 f   dlgedit.obj
 0001:000284b0       ?GetString@DlgEdit@@QAEXAAVUnicodeString@@H@Z 004294b0 f   dlgedit.obj
 0001:000284d0       ?SetCurPos@DlgEdit@@QAEXHH@Z 004294d0 f   dlgedit.obj
 0001:000284f0       ?GetCurPos@DlgEdit@@QAEHXZ 004294f0 f   dlgedit.obj
 0001:00028500       ?GetTabCurPos@DlgEdit@@QAEHXZ 00429500 f   dlgedit.obj
 0001:00028510       ?SetTabCurPos@DlgEdit@@QAEXH@Z 00429510 f   dlgedit.obj
 0001:00028520       ?SetPersistentBlocks@DlgEdit@@QAEXH@Z 00429520 f   dlgedit.obj
 0001:00028550       ?SetDelRemovesBlocks@DlgEdit@@QAEXH@Z 00429550 f   dlgedit.obj
 0001:00028580       ?SetObjectColor@DlgEdit@@QAEXHHH@Z 00429580 f   dlgedit.obj
 0001:00028590       ?FastShow@DlgEdit@@QAEXXZ  00429590 f   dlgedit.obj
 0001:000285a0       ?GetLeftPos@DlgEdit@@QAEHXZ 004295a0 f   dlgedit.obj
 0001:000285b0       ?SetLeftPos@DlgEdit@@QAEXHH@Z 004295b0 f   dlgedit.obj
 0001:000285c0       ?GetLength@DlgEdit@@QAEHXZ 004295c0 f   dlgedit.obj
 0001:000285d0       ?Select@DlgEdit@@QAEXHH@Z  004295d0 f   dlgedit.obj
 0001:000285e0       ?GetSelection@DlgEdit@@QAEXAAH0@Z 004295e0 f   dlgedit.obj
 0001:000285f0       ?Xlat@DlgEdit@@QAEX_N@Z    004295f0 f   dlgedit.obj
 0001:00028600       ?GetStrSize@DlgEdit@@QAEHH@Z 00429600 f   dlgedit.obj
 0001:00028610       ?SetCursorType@DlgEdit@@QAEX_NK@Z 00429610 f   dlgedit.obj
 0001:00028620       ?GetCursorType@DlgEdit@@QAEXAA_NAAK@Z 00429620 f   dlgedit.obj
 0001:00028630       ?GetReadOnly@DlgEdit@@QAEHXZ 00429630 f   dlgedit.obj
 0001:00028640       ?SetReadOnly@DlgEdit@@QAEXH@Z 00429640 f   dlgedit.obj
 0001:00028670       ?Flags@DlgEdit@@QAEAAVBitFlags@@XZ 00429670 f   dlgedit.obj
 0001:00028680       ?Hide@DlgEdit@@UAEXXZ      00429680 f   dlgedit.obj
 0001:00028690       ?Hide0@DlgEdit@@UAEXXZ     00429690 f   dlgedit.obj
 0001:000286a0       ?ShowConsoleTitle@DlgEdit@@UAEXXZ 004296a0 f   dlgedit.obj
 0001:000286b0       ?SetScreenPosition@DlgEdit@@UAEXXZ 004296b0 f   dlgedit.obj
 0001:000286c0       ?ResizeConsole@DlgEdit@@UAEXXZ 004296c0 f   dlgedit.obj
 0001:000286d0       ?VMProcess@DlgEdit@@UAE_JHPAX_J@Z 004296d0 f   dlgedit.obj
 0001:00028700       ?HistoryGetSimilar@DlgEdit@@QAE_NAAVUnicodeString@@H_N@Z 00429700 f   dlgedit.obj
 0001:00028720       ?EditChange@DlgEdit@@CAXPAX@Z 00429720 f   dlgedit.obj
 0001:00028750       ??0DlgEdit@@QAE@PAVDialog@@IW4DLGEDITTYPE@@@Z 00429750 f   dlgedit.obj
 0001:000288f0       ??_EDlgEdit@@UAEPAXI@Z     004298f0 f i dlgedit.obj
 0001:000288f0       ??_GDlgEdit@@UAEPAXI@Z     004298f0 f i dlgedit.obj
 0001:00028960       ??0CDList@@IAE@XZ          00429960 f   DList.obj
 0001:00028980       ?Clear@CDList@@QAEXXZ      00429980 f   DList.obj
 0001:000289b0       ?CSwap@CDList@@IAEXAAV1@@Z 004299b0 f   DList.obj
 0001:00028a10       ?CInsertBefore@CDList@@IAEPAXPAX0@Z 00429a10 f   DList.obj
 0001:00028a50       ?CInsertAfter@CDList@@IAEPAXPAX0@Z 00429a50 f   DList.obj
 0001:00028aa0       ?CMoveAfter@CDList@@IAEXPAX0@Z 00429aa0 f   DList.obj
 0001:00028b00       ?CDelete@CDList@@IAEPAXPAX@Z 00429b00 f   DList.obj
 0001:00028b40       ?FarGetLogicalDrives@@YGKXZ 00429b40 f   drivemix.obj
 0001:00028be0       ?IsDriveTypeRemote@@YA_NI@Z 00429be0 f   drivemix.obj
 0001:00028c00       ?CheckDisksProps@@YAHPB_W0H@Z 00429c00 f   drivemix.obj
 0001:00029150       ?Swap@BitFlags@@QAEKK@Z    0042a150 f i edit.obj
 0001:00029170       ?IsSelection@Edit@@QAEHXZ  0042a170 f i edit.obj
 0001:00029190       _wmemchr                   0042a190 f i edit.obj
 0001:000291b0       ?IsWordDiv@@YA_NPB_W_W@Z   0042a1b0 f i edit.obj
 0001:000291d0       ??0Edit@@QAE@PAVScreenObject@@PAUCallback@0@_N@Z 0042a1d0 f   edit.obj
 0001:00029320       ??1Edit@@UAE@XZ            0042a320 f   edit.obj
 0001:00029370       ?SetCodePage@Edit@@QAEKI@Z 0042a370 f   edit.obj
 0001:000294f0       ?SetCursorType@Edit@@QAEX_NK@Z 0042a4f0 f   edit.obj
 0001:00029530       ?GetCursorType@Edit@@QAEXAA_NAAK@Z 0042a530 f   edit.obj
 0001:00029550       ?RecurseProcessKey@Edit@@AAEHH@Z 0042a550 f   edit.obj
 0001:00029570       ?IsEol@@YAH_W@Z            0042a570 f i edit.obj
 0001:00029590       ?SetObjectColor@Edit@@QAEXHHH@Z 0042a590 f   edit.obj
 0001:000295b0       ?GetString@Edit@@QAEXAAVUnicodeString@@@Z 0042a5b0 f   edit.obj
 0001:000295f0       ?GetStringAddr@Edit@@QAEPB_WXZ 0042a5f0 f   edit.obj
 0001:00029600       ?SetEOL@Edit@@QAEXPB_W@Z   0042a600 f   edit.obj
 0001:00029670       ?GetEOL@Edit@@QAEPB_WXZ    0042a670 f   edit.obj
 0001:00029680       ?GetBinaryString@Edit@@QAEXPAPB_W0AAH@Z 0042a680 f   edit.obj
 0001:000296c0       ?GetSelString@Edit@@QAEHAAVUnicodeString@@@Z 0042a6c0 f   edit.obj
 0001:00029730       ?GetLength@Edit@@QAEHXZ    0042a730 f   edit.obj
 0001:00029740       ?InsertTab@Edit@@QAEXXZ    0042a740 f   edit.obj
 0001:00029810       ?ReplaceTabs@Edit@@QAEXXZ  0042a810 f   edit.obj
 0001:00029930       ?TabPosToReal@Edit@@QAEHH@Z 0042a930 f   edit.obj
 0001:000299b0       ?Select@Edit@@QAEXHH@Z     0042a9b0 f   edit.obj
 0001:000299f0       ?AddSelect@Edit@@QAEXHH@Z  0042a9f0 f   edit.obj
 0001:00029a50       ?GetSelection@Edit@@QAEXAAH0@Z 0042aa50 f   edit.obj
 0001:00029a80       ?GetRealSelection@Edit@@QAEXAAH0@Z 0042aa80 f   edit.obj
 0001:00029aa0       ?AddColor@Edit@@QAEXPAUColorItem@@@Z 0042aaa0 f   edit.obj
 0001:00029af0       ?DeleteColor@Edit@@QAEHH@Z 0042aaf0 f   edit.obj
 0001:00029b90       ?GetColor@Edit@@QAEHPAUColorItem@@H@Z 0042ab90 f   edit.obj
 0001:00029bd0       ?Xlat@Edit@@QAEX_N@Z       0042abd0 f   edit.obj
 0001:00029d80       ?KeyMatchedMask@Edit@@AAEHH@Z 0042ad80 f   edit.obj
 0001:00029e90       ?CheckCharMask@Edit@@AAEH_W@Z 0042ae90 f   edit.obj
 0001:00029ed0       ?SetDialogParent@Edit@@QAEXK@Z 0042aed0 f   edit.obj
 0001:00029f30       ?Changed@Edit@@UAEX_N@Z    0042af30 f   edit.obj
 0001:00029f50       ??0EditControl@@QAE@PAVScreenObject@@PAUCallback@Edit@@_NPAVHistory@@PAUFarList@@K@Z 0042af50 f   edit.obj
 0001:00029fc0       ?Show@EditControl@@UAEXXZ  0042afc0 f   edit.obj
 0001:00029fe0       ?EnableAC@EditControl@@QAEX_N@Z 0042afe0 f   edit.obj
 0001:0002a020       ?DisableAC@EditControl@@QAEX_N@Z 0042b020 f   edit.obj
 0001:0002a060       ??_EEdit@@UAEPAXI@Z        0042b060 f i edit.obj
 0001:0002a060       ??_GEdit@@UAEPAXI@Z        0042b060 f i edit.obj
 0001:0002a060       ??_GEditControl@@UAEPAXI@Z 0042b060 f i edit.obj
 0001:0002a060       ??_EEditControl@@UAEPAXI@Z 0042b060 f i edit.obj
 0001:0002a0c0       ?GetNextCursorPos@Edit@@AAEHHH@Z 0042b0c0 f   edit.obj
 0001:0002a1f0       ?GetSelString@Edit@@QAEHPA_WH@Z 0042b1f0 f   edit.obj
 0001:0002a260       ?RefreshStrByMask@Edit@@AAEXH@Z 0042b260 f   edit.obj
 0001:0002a340       ?Search@Edit@@QAEHABVUnicodeString@@AAV2@HHHHHPAH@Z 0042b340 f   edit.obj
 0001:0002a640       ?SetTabCurPos@Edit@@QAEXH@Z 0042b640 f   edit.obj
 0001:0002a6e0       ?RealPosToTab@Edit@@AAEHHHHPAH@Z 0042b6e0 f   edit.obj
 0001:0002a7a0       ?DeleteBlock@Edit@@AAEXXZ  0042b7a0 f   edit.obj
 0001:0002a8c0       ?SetMenuPos@EditControl@@AAEXAAVVMenu@@@Z 0042b8c0 f   edit.obj
 0001:0002a990       ?DisplayObject@Edit@@EAEXXZ 0042b990 f   edit.obj
 0001:0002aa60       ?VMProcess@Edit@@UAE_JHPAX_J@Z 0042ba60 f   edit.obj
 0001:0002acc0       ?InsertKey@Edit@@AAEHH@Z   0042bcc0 f   edit.obj
 0001:0002afa0       ?SetBinaryString@Edit@@QAEXPB_WH@Z 0042bfa0 f   edit.obj
 0001:0002b180       ?InsertBinaryString@Edit@@QAEXPB_WH@Z 0042c180 f   edit.obj
 0001:0002b400       ?SetInputMask@Edit@@QAEXPB_W@Z 0042c400 f   edit.obj
 0001:0002b450       ?ProcessMouse@Edit@@UAEHPAU_MOUSE_EVENT_RECORD@@@Z 0042c450 f   edit.obj
 0001:0002b580       ?RealPosToTab@Edit@@QAEHH@Z 0042c580 f   edit.obj
 0001:0002b5a0       ?ApplyColor@Edit@@AAEXXZ   0042c5a0 f   edit.obj
 0001:0002b740       ?ProcessMouse@EditControl@@UAEHPAU_MOUSE_EVENT_RECORD@@@Z 0042c740 f   edit.obj
 0001:0002b870       ?ProcessCtrlQ@Edit@@AAEHXZ 0042c870 f   edit.obj
 0001:0002b8d0       ?SetHiString@Edit@@QAEXPB_W@Z 0042c8d0 f   edit.obj
 0001:0002b960       ?SetString@Edit@@QAEXPB_WH@Z 0042c960 f   edit.obj
 0001:0002b9b0       ?InsertString@Edit@@QAEXPB_W@Z 0042c9b0 f   edit.obj
 0001:0002ba00       ?GetTabCurPos@Edit@@QAEHXZ 0042ca00 f   edit.obj
 0001:0002ba10       ?AutoCompleteProc@EditControl@@AAEH_N0AAH@Z 0042ca10 f   edit.obj
 0001:0002c380       ?AutoComplete@EditControl@@QAEX_N0@Z 0042d380 f   edit.obj
 0001:0002c3f0       ?FastShow@Edit@@UAEXXZ     0042d3f0 f   edit.obj
 0001:0002c8a0       ?ProcessInsPath@Edit@@AAEHHHH@Z 0042d8a0 f   edit.obj
 0001:0002ca50       ?ProcessInsPlainText@Edit@@AAEHPB_W@Z 0042da50 f   edit.obj
 0001:0002cab0       ?Changed@EditControl@@UAEX_N@Z 0042dab0 f   edit.obj
 0001:0002caf0       ?ProcessKey@Edit@@UAEHH@Z  0042daf0 f   edit.obj
 0001:0002e1a0       ?SetCharCodeBase@Editor@@QAEXH@Z 0042f1a0 f i editor.obj
 0001:0002e1d0       ?TextChanged@Editor@@AAEXH@Z 0042f1d0 f   editor.obj
 0001:0002e200       ?CheckLine@Editor@@AAE_NPAVEdit@@@Z 0042f200 f   editor.obj
 0001:0002e230       ?Contains@UnicodeString@@QBE_N_WI@Z 0042f230 f i editor.obj
 0001:0002e260       ?CalcDistance@Editor@@AAEHPAVEdit@@0H@Z 0042f260 f   editor.obj
 0001:0002e2a0       ?Down@Editor@@AAEXXZ       0042f2a0 f   editor.obj
 0001:0002e300       ?ScrollDown@Editor@@AAEXXZ 0042f300 f   editor.obj
 0001:0002e370       ?Up@Editor@@AAEXXZ         0042f370 f   editor.obj
 0001:0002e3b0       ?ScrollUp@Editor@@AAEXXZ   0042f3b0 f   editor.obj
 0001:0002e400       ?Block2Text@Editor@@AAEPA_WPA_W@Z 0042f400 f   editor.obj
 0001:0002e580       ?UnmarkBlock@Editor@@AAEXXZ 0042f580 f   editor.obj
 0001:0002e640       ?UnmarkEmptyBlock@Editor@@AAEXXZ 0042f640 f   editor.obj
 0001:0002e6c0       ?GoToLine@Editor@@AAEXH@Z  0042f6c0 f   editor.obj
 0001:0002e7e0       ?SelectAll@Editor@@AAEXXZ  0042f7e0 f   editor.obj
 0001:0002e830       ?SetStartPos@Editor@@QAEXHH@Z 0042f830 f   editor.obj
 0001:0002e860       ?IsFileChanged@Editor@@QBEHXZ 0042f860 f   editor.obj
 0001:0002e870       ?IsFileModified@Editor@@QBEHXZ 0042f870 f   editor.obj
 0001:0002e880       ?GetCurPos@Editor@@QAEJXZ  0042f880 f   editor.obj
 0001:0002e8e0       ?VBlock2Text@Editor@@AAEPA_WPA_W@Z 0042f8e0 f   editor.obj
 0001:0002eab0       ?SetBookmark@Editor@@AAEHK@Z 0042fab0 f   editor.obj
 0001:0002eb60       ?GotoBookmark@Editor@@AAEHK@Z 0042fb60 f   editor.obj
 0001:0002ec20       ?ClearStackBookmarks@Editor@@AAEHXZ 0042fc20 f   editor.obj
 0001:0002eca0       ?DeleteStackBookmark@Editor@@AAEHPAUInternalEditorStackBookMark@@@Z 0042fca0 f   editor.obj
 0001:0002ed00       ?RestoreStackBookmark@Editor@@AAEHXZ 0042fd00 f   editor.obj
 0001:0002edb0       ?AddStackBookmark@Editor@@AAEHH@Z 0042fdb0 f   editor.obj
 0001:0002eea0       ?PointerToStackBookmark@Editor@@AAEPAUInternalEditorStackBookMark@@H@Z 0042fea0 f   editor.obj
 0001:0002eee0       ?PrevStackBookmark@Editor@@AAEHXZ 0042fee0 f   editor.obj
 0001:0002ef00       ?NextStackBookmark@Editor@@AAEHXZ 0042ff00 f   editor.obj
 0001:0002ef20       ?GotoStackBookmark@Editor@@AAEHH@Z 0042ff20 f   editor.obj
 0001:0002ef80       ?PushStackBookMark@Editor@@AAEHXZ 0042ff80 f   editor.obj
 0001:0002efb0       ?PopStackBookMark@Editor@@AAEHXZ 0042ffb0 f   editor.obj
 0001:0002f000       ?CurrentStackBookmarkIdx@Editor@@AAEHXZ 00430000 f   editor.obj
 0001:0002f030       ?GetStackBookmark@Editor@@AAEHHPAUEditorBookMarks@@@Z 00430030 f   editor.obj
 0001:0002f0c0       ?GetStackBookmarks@Editor@@AAEHPAUEditorBookMarks@@@Z 004300c0 f   editor.obj
 0001:0002f180       ?GetStringByNumber@Editor@@AAEPAVEdit@@H@Z 00430180 f   editor.obj
 0001:0002f270       ?SetReplaceMode@Editor@@SAXH@Z 00430270 f   editor.obj
 0001:0002f280       ?BeginVBlockMarking@Editor@@QAEXXZ 00430280 f   editor.obj
 0001:0002f2d0       ?AdjustVBlock@Editor@@QAEXH@Z 004302d0 f   editor.obj
 0001:0002f350       ?SetTabSize@Editor@@QAEXH@Z 00430350 f   editor.obj
 0001:0002f390       ?SetConvertTabs@Editor@@QAEXH@Z 00430390 f   editor.obj
 0001:0002f3d0       ?SetDelRemovesBlocks@Editor@@QAEXH@Z 004303d0 f   editor.obj
 0001:0002f410       ?SetShowWhiteSpace@Editor@@QAEXH@Z 00430410 f   editor.obj
 0001:0002f450       ?SetPersistentBlocks@Editor@@QAEXH@Z 00430450 f   editor.obj
 0001:0002f490       ?SetCursorBeyondEOL@Editor@@QAEXH@Z 00430490 f   editor.obj
 0001:0002f4f0       ?SetSavePosMode@Editor@@QAEXHH@Z 004304f0 f   editor.obj
 0001:0002f520       ?CreateString@Editor@@QAEPAVEdit@@PB_WH@Z 00430520 f   editor.obj
 0001:0002f610       ?InsertString@Editor@@QAEPAVEdit@@PB_WHPAV2@H@Z 00430610 f   editor.obj
 0001:0002f690       ?SetCacheParams@Editor@@QAEXPAUEditorCacheParams@@@Z 00430690 f   editor.obj
 0001:0002f850       ?GetCacheParams@Editor@@QAEXPAUEditorCacheParams@@@Z 00430850 f   editor.obj
 0001:0002f900       ?SetCodePage@Editor@@QAE_NI@Z 00430900 f   editor.obj
 0001:0002f960       ?GetCodePage@Editor@@QAEIXZ 00430960 f   editor.obj
 0001:0002f970       ?DrawScrollbar@Editor@@QAEXXZ 00430970 f   editor.obj
 0001:0002f9f0       ?CopyTo@EditorOptions@@QAEXAAU1@@Z 004309f0 f i editor.obj
 0001:0002fab0       ?SetData@EditorUndoData@@QAEXHPB_W0HHH@Z 00430ab0 f i editor.obj
 0001:0002fb70       ?SetWordDiv@Editor@@QAEXPB_W@Z 00430b70 f i editor.obj
 0001:0002fbc0       ?FreeAllocatedData@Editor@@QAEX_N@Z 00430bc0 f   editor.obj
 0001:0002fc20       ?KeepInitParameters@Editor@@QAEXXZ 00430c20 f   editor.obj
 0001:0002fca0       ?ShowEditor@Editor@@AAEXH@Z 00430ca0 f   editor.obj
 0001:0002fff0       ?BlockStart2NumLine@Editor@@AAEHPAH@Z 00430ff0 f   editor.obj
 0001:00030080       ?BlockEnd2NumLine@Editor@@AAEHPAH@Z 00431080 f   editor.obj
 0001:00030190       ?ProcessMouse@Editor@@UAEHPAU_MOUSE_EVENT_RECORD@@@Z 00431190 f   editor.obj
 0001:00030590       ?GetRowCol@Editor@@QAEXPB_WPAH1@Z 00431590 f   editor.obj
 0001:00030720       ?VCopy@Editor@@AAEXH@Z     00431720 f   editor.obj
 0001:000307a0       ?BackStackBookmark@Editor@@AAEHXZ 004317a0 f   editor.obj
 0001:00030810       ?AllocNode@?$DList@UEditorUndoData@@@@EAEPAUNode@CDList@@PAX@Z 00431810 f i editor.obj
 0001:00030860       ?Prev@?$DList@UEditorUndoData@@@@QAEPAUEditorUndoData@@PBU2@@Z 00431860 f i editor.obj
 0001:00030890       ??1Editor@@UAE@XZ          00431890 f   editor.obj
 0001:00030900       ?DisplayObject@Editor@@EAEXXZ 00431900 f   editor.obj
 0001:00030910       ?Copy@Editor@@AAEXH@Z      00431910 f   editor.obj
 0001:00030980       ?AddUndoData@Editor@@AAEXHPB_W0HHH@Z 00431980 f   editor.obj
 0001:00030b70       ?DeleteVBlock@Editor@@AAEXXZ 00431b70 f   editor.obj
 0001:00030de0       ?VPaste@Editor@@AAEXPA_W@Z 00431de0 f   editor.obj
 0001:00031010       ?VBlockShift@Editor@@AAEXH@Z 00432010 f   editor.obj
 0001:00031340       ?Xlat@Editor@@QAEXXZ       00432340 f   editor.obj
 0001:00031610       ?EditorShowMsg@Editor@@CAXPB_W00H@Z 00432610 f   editor.obj
 0001:000318c0       ?PR_EditorShowMsg@Editor@@SAXXZ 004328c0 f   editor.obj
 0001:000318f0       ?DeleteNode@?$DList@UEditorUndoData@@@@EAEXPAUNode@CDList@@@Z 004328f0 f i editor.obj
 0001:00031920       ??0Editor@@QAE@PAVScreenObject@@_N@Z 00432920 f   editor.obj
 0001:00031af0       ??_EEditor@@UAEPAXI@Z      00432af0 f i editor.obj
 0001:00031af0       ??_GEditor@@UAEPAXI@Z      00432af0 f i editor.obj
 0001:00031b20       ?DeleteString@Editor@@AAEXPAVEdit@@HHH@Z 00432b20 f   editor.obj
 0001:00031f30       ?InsertString@Editor@@AAEXXZ 00432f30 f   editor.obj
 0001:00032630       ?Search@Editor@@AAEHH@Z    00433630 f   editor.obj
 0001:000333c0       ?Paste@Editor@@AAEXPB_W@Z  004343c0 f   editor.obj
 0001:00033630       ?DeleteBlock@Editor@@AAEXXZ 00434630 f   editor.obj
 0001:00033990       ?Undo@Editor@@AAEXH@Z      00434990 f   editor.obj
 0001:00033c60       ?BlockLeft@Editor@@AAEXXZ  00434c60 f   editor.obj
 0001:00033eb0       ?BlockRight@Editor@@AAEXXZ 00434eb0 f   editor.obj
 0001:000340a0       ?EditorControl@Editor@@QAEHHPAX@Z 004350a0 f   editor.obj
 0001:00034cd0       ?VMProcess@Editor@@UAE_JHPAX_J@Z 00435cd0 f   editor.obj
 0001:000353d0       ?GoToPosition@Editor@@AAEXXZ 004363d0 f   editor.obj
 0001:00035510       ?ProcessKey@Editor@@UAEHH@Z 00436510 f   editor.obj
 0001:000381e0       ?IsEjectableMedia@@YA_N_WIH@Z 004391e0 f   eject.obj
 0001:000382a0       ?EjectVolume@@YAH_WK@Z     004392a0 f   eject.obj
 0001:00038650       ?IsProperProgID@@YA_NPB_W@Z 00439650 f   execute.obj
 0001:00038690       ?CheckCmdLineForHelp@CommandLine@@AAE_NPB_W@Z 00439690 f   execute.obj
 0001:000386e0       ?CheckCmdLineForSet@CommandLine@@AAE_NABVUnicodeString@@@Z 004396e0 f   execute.obj
 0001:00038720       ?SearchExtHandlerFromList@@YA_NPAUHKEY__@@AAVUnicodeString@@@Z 00439720 f   execute.obj
 0001:00038840       ?PartCmdLine@@YAHPB_WAAVUnicodeString@@1@Z 00439840 f   execute.obj
 0001:00038960       ?ProcessOSAliases@@YA_NAAVUnicodeString@@@Z 00439960 f   execute.obj
 0001:00038b90       ?GetShellType@@YA_NPB_WAAVUnicodeString@@W4ASSOCIATIONTYPE@@@Z 00439b90 f   execute.obj
 0001:00038e10       ?RunAsSupported@@YA_NPB_W@Z 00439e10 f   execute.obj
 0001:00038ee0       ?IntChDir@CommandLine@@AAEHPB_WH_N@Z 00439ee0 f   execute.obj
 0001:00039280       ?Push@?$TStack@UPushPopRecord@@@@QAEPAUPushPopRecord@@ABU2@@Z 0043a280 f i execute.obj
 0001:000392d0       ?GetShellAction@@YAPB_WPB_WAAK1@Z 0043a2d0 f   execute.obj
 0001:00039870       ?FindModule@@YG_NPB_WAAVUnicodeString@@AAK@Z 0043a870 f   execute.obj
 0001:00039f30       ?PrepareOSIfExist@@YAPB_WPB_W@Z 0043af30 f   execute.obj
 0001:0003a410       ?IsBatchExtType@@YA_NPB_W@Z 0043b410 f   execute.obj
 0001:0003a4a0       ?Pop@?$TStack@UPushPopRecord@@@@QAEPAUPushPopRecord@@AAU2@@Z 0043b4a0 f i execute.obj
 0001:0003a510       ?Execute@@YAHPB_W_N111111@Z 0043b510 f   execute.obj
 0001:0003b330       ?ProcessOSCommands@CommandLine@@AAEHPB_W_NAA_N@Z 0043c330 f   execute.obj
 0001:0003bcb0       ?CmdExecute@CommandLine@@AAEHPB_W_N11111@Z 0043ccb0 f   execute.obj
 0001:0003bfc0       ?GetFunctionName@@YAPB_WH@Z 0043cfc0 f   farexcpt.obj
 0001:0003c150       ?ExcDlgProc@@YGJPAXHHJ@Z   0043d150 f   farexcpt.obj
 0001:0003c240       ?ExcDialog@@YA_NPB_W0PAX@Z 0043d240 f   farexcpt.obj
 0001:0003cf60       ?xfilter@@YGKHPAU_EXCEPTION_POINTERS@@PAVPlugin@@K@Z 0043df60 f   farexcpt.obj
 0001:0003cfe0       ?Peek@?$FarQueue@K@@QBEKXZ 0043dfe0 f i farqueue.obj
 0001:0003d000       ?Get@?$FarQueue@K@@QAEKXZ  0043e000 f i farqueue.obj
 0001:0003d030       ?Put@?$FarQueue@K@@QAEHABK@Z 0043e030 f i farqueue.obj
 0001:0003d070       ??0?$FarQueue@K@@QAE@H@Z   0043e070 f i farqueue.obj
 0001:0003d0c0       _xf_malloc                 0043e0c0 f   farrtl.obj
 0001:0003d180       _xf_realloc                0043e180 f   farrtl.obj
 0001:0003d250       ??_V@YAXPAX@Z              0043e250 f   farrtl.obj
 0001:0003d250       _PR_Free                   0043e250 f   prmem.obj
 0001:0003d250       ??3@YAXPAX@Z               0043e250 f   farrtl.obj
 0001:0003d250       _xf_free                   0043e250 f   farrtl.obj
 0001:0003d260       ??2@YAPAXI@Z               0043e260 f   farrtl.obj
 0001:0003d260       ??_U@YAPAXI@Z              0043e260 f   farrtl.obj
 0001:0003d270       _xf_strdup                 0043e270 f   farrtl.obj
 0001:0003d2c0       _xf_wcsdup                 0043e2c0 f   farrtl.obj
 0001:0003d320       _xstrncpy                  0043e320 f   farrtl.obj
 0001:0003d350       _xwcsncpy                  0043e350 f   farrtl.obj
 0001:0003d3f0       _xf_realloc_nomove         0043e3f0 f   farrtl.obj
 0001:0003d440       _qsortex                   0043e440 f   farrtl.obj
 0001:0003d730       ?qsort_b@@YAXPAXIIP6AHPBX1@Z@Z 0043e730 f   farrtl.obj
 0001:0003d990       ?qsort_m@@YAXPAXIIP6AHPBX1@Z@Z 0043e990 f   farrtl.obj
 0001:0003dbf0       _far_qsort                 0043ebf0 f   farrtl.obj
 0001:0003dc20       ?Read@File@@QAE_NPAXKPAKPAU_OVERLAPPED@@@Z 0043ec20 f   farwinapi.obj
 0001:0003dc50       ?Write@File@@QBE_NPBXKPAKPAU_OVERLAPPED@@@Z 0043ec50 f   farwinapi.obj
 0001:0003dc80       ?SetPointer@File@@QAE_N_JPA_JK@Z 0043ec80 f   farwinapi.obj
 0001:0003dcb0       ?SetEnd@File@@QAE_NXZ      0043ecb0 f   farwinapi.obj
 0001:0003dcc0       ?FlushBuffers@File@@QAE_NXZ 0043ecc0 f   farwinapi.obj
 0001:0003dcd0       ?GetInformation@File@@QAE_NAAU_BY_HANDLE_FILE_INFORMATION@@@Z 0043ecd0 f   farwinapi.obj
 0001:0003dcf0       ?IoControl@File@@QAE_NKPAXK0KPAKPAU_OVERLAPPED@@@Z 0043ecf0 f   farwinapi.obj
 0001:0003dd30       ?GetStorageDependencyInformation@File@@QAE_NW4_GET_STORAGE_DEPENDENCY_FLAG@@KPAU_STORAGE_DEPENDENCY_INFO@@PAK@Z 0043ed30 f   farwinapi.obj
 0001:0003dd80       ?Close@File@@QAE_NXZ       0043ed80 f   farwinapi.obj
 0001:0003dda0       ?GetLastNtStatus@@YAJXZ    0043eda0 f   farwinapi.obj
 0001:0003ddb0       ?apiWNetGetConnection@@YAKPB_WAAVUnicodeString@@@Z 0043edb0 f   farwinapi.obj
 0001:0003de10       ?apiGetVolumeInformation@@YAHPB_WPAVUnicodeString@@PAK221@Z 0043ee10 f   farwinapi.obj
 0001:0003dea0       ?apiFreeFindData@@YAXPAUFAR_FIND_DATA@@@Z 0043eea0 f   farwinapi.obj
 0001:0003dec0       ?apiRegEnumKeyEx@@YAHPAUHKEY__@@KAAVUnicodeString@@PAU_FILETIME@@@Z 0043eec0 f   farwinapi.obj
 0001:0003df20       ?apiFindNextFileName@@YAHPAXAAVUnicodeString@@@Z 0043ef20 f   farwinapi.obj
 0001:0003dfa0       ?CreateSymbolicLinkInternal@@YA_NPB_W0K@Z 0043efa0 f   farwinapi.obj
 0001:0003dff0       ?apiFindNextStream@@YAHPAX0@Z 0043eff0 f   farwinapi.obj
 0001:0003e090       ?apiFindStreamClose@@YAHPAX@Z 0043f090 f   farwinapi.obj
 0001:0003e0d0       ?apiGetLogicalDriveStrings@@YA_NAAVUnicodeString@@@Z 0043f0d0 f   farwinapi.obj
 0001:0003e130       ?apiSearchPath@@YA_NPB_W00AAVUnicodeString@@@Z 0043f130 f   farwinapi.obj
 0001:0003e190       ?apiQueryDosDevice@@YA_NPB_WAAVUnicodeString@@@Z 0043f190 f   farwinapi.obj
 0001:0003e210       ?apiEnableLowFragmentationHeap@@YAXXZ 0043f210 f   farwinapi.obj
 0001:0003e290       ?GetFileTimeEx@@YA_NPAXPAU_FILETIME@@111@Z 0043f290 f   farwinapi.obj
 0001:0003e350       ?SetFileTimeEx@@YA_NPAXPBU_FILETIME@@111@Z 0043f350 f   farwinapi.obj
 0001:0003e400       ??4FAR_FIND_DATA_EX@@QAEAAU0@ABU0@@Z 0043f400 f i farwinapi.obj
 0001:0003e490       ??0File@@QAE@XZ            0043f490 f   farwinapi.obj
 0001:0003e4a0       ??1File@@QAE@XZ            0043f4a0 f   farwinapi.obj
 0001:0003e4c0       ?SetTime@File@@QAE_NPBU_FILETIME@@000@Z 0043f4c0 f   farwinapi.obj
 0001:0003e4f0       ?GetSize@File@@QAE_NAA_K@Z 0043f4f0 f   farwinapi.obj
 0001:0003e550       ?NtQueryDirectoryFile@File@@QAE_NPAXKW4_FILE_INFORMATION_CLASS@@_NPB_W2@Z 0043f550 f   farwinapi.obj
 0001:0003e5e0       ?Eof@File@@QAE_NXZ         0043f5e0 f   farwinapi.obj
 0001:0003e670       ?apiGetEnvironmentVariable@@YAKPB_WAAVUnicodeString@@@Z 0043f670 f   farwinapi.obj
 0001:0003e6f0       ?apiGetTempPath@@YAKAAVUnicodeString@@@Z 0043f6f0 f   farwinapi.obj
 0001:0003e770       ?apiGetModuleFileNameEx@@YAKPAXPAUHINSTANCE__@@AAVUnicodeString@@@Z 0043f770 f   farwinapi.obj
 0001:0003e7e0       ?apiFindDataToDataEx@@YAXPBUFAR_FIND_DATA@@PAUFAR_FIND_DATA_EX@@@Z 0043f7e0 f   farwinapi.obj
 0001:0003e8b0       ?apiFindDataExToData@@YAXPBUFAR_FIND_DATA_EX@@PAUFAR_FIND_DATA@@@Z 0043f8b0 f   farwinapi.obj
 0001:0003e920       ?FindNextFileInternal@@YA_NPAXAAUFAR_FIND_DATA_EX@@@Z 0043f920 f   farwinapi.obj
 0001:0003ea80       ??1FindFile@@QAE@XZ        0043fa80 f   farwinapi.obj
 0001:0003eb00       ?Get@FindFile@@QAE_NAAUFAR_FIND_DATA_EX@@@Z 0043fb00 f   farwinapi.obj
 0001:0003eb80       ?apiDeleteFile@@YAHPB_W@Z  0043fb80 f   farwinapi.obj
 0001:0003ec30       ?apiRemoveDirectory@@YAHPB_W@Z 0043fc30 f   farwinapi.obj
 0001:0003ece0       ?apiCreateFile@@YAPAXPB_WKKPAU_SECURITY_ATTRIBUTES@@KKPAX_N@Z 0043fce0 f   farwinapi.obj
 0001:0003ee30       ?apiCopyFileEx@@YAHPB_W0P6GKT_LARGE_INTEGER@@111KKPAX22@Z2PAHK@Z 0043fe30 f   farwinapi.obj
 0001:0003ef60       ?apiMoveFile@@YAHPB_W0@Z   0043ff60 f   farwinapi.obj
 0001:0003f080       ?apiMoveFileEx@@YAHPB_W0K@Z 00440080 f   farwinapi.obj
 0001:0003f1a0       ?apiGetModuleFileName@@YAKPAUHINSTANCE__@@AAVUnicodeString@@@Z 004401a0 f   farwinapi.obj
 0001:0003f1c0       ?apiExpandEnvironmentStrings@@YA_NPB_WAAVUnicodeString@@@Z 004401c0 f   farwinapi.obj
 0001:0003f2b0       ?apiIsDiskInDrive@@YAHPB_W@Z 004402b0 f   farwinapi.obj
 0001:0003f3a0       ?apiGetFileTypeByName@@YAHPB_W@Z 004403a0 f   farwinapi.obj
 0001:0003f3f0       ?apiGetDiskSize@@YAHPB_WPA_K11@Z 004403f0 f   farwinapi.obj
 0001:0003f4d0       ?apiFindFirstFileName@@YAPAXPB_WKAAVUnicodeString@@@Z 004404d0 f   farwinapi.obj
 0001:0003f5d0       ?apiCreateDirectoryEx@@YAHPB_W0PAU_SECURITY_ATTRIBUTES@@@Z 004405d0 f   farwinapi.obj
 0001:0003f710       ?apiGetFileAttributes@@YAKPB_W@Z 00440710 f   farwinapi.obj
 0001:0003f7c0       ?apiSetFileAttributes@@YAHPB_WK@Z 004407c0 f   farwinapi.obj
 0001:0003f870       ?apiCreateSymbolicLink@@YA_NPB_W0K@Z 00440870 f   farwinapi.obj
 0001:0003f950       ?apiGetCompressedFileSize@@YA_NPB_WAA_K@Z 00440950 f   farwinapi.obj
 0001:0003f9d0       ?apiCreateHardLink@@YAHPB_W0PAU_SECURITY_ATTRIBUTES@@@Z 004409d0 f   farwinapi.obj
 0001:0003fac0       ?apiFindFirstStream@@YAPAXPB_WW4_STREAM_INFO_LEVELS@@PAXK@Z 00440ac0 f   farwinapi.obj
 0001:0003fc60       ?internalNtQueryGetFinalPathNameByHandle@@YA_NPAXAAVUnicodeString@@@Z 00440c60 f   farwinapi.obj
 0001:0003ff20       ?apiGetFinalPathNameByHandle@@YA_NPAXAAVUnicodeString@@@Z 00440f20 f   farwinapi.obj
 0001:00040080       ?apiGetVolumeNameForVolumeMountPoint@@YA_NPB_WAAVUnicodeString@@@Z 00441080 f   farwinapi.obj
 0001:00040140       ?Open@File@@QAE_NPB_WKKPAU_SECURITY_ATTRIBUTES@@KKPAX_N@Z 00441140 f   farwinapi.obj
 0001:00040180       ?strCurrentDirectory@@YAAAVUnicodeString@@XZ 00441180 f   farwinapi.obj
 0001:000401b0       ?apiGetCurrentDirectory@@YAKAAVUnicodeString@@@Z 004411b0 f   farwinapi.obj
 0001:00040230       ?apiCreateDirectory@@YAHPB_WPAU_SECURITY_ATTRIBUTES@@@Z 00441230 f   farwinapi.obj
 0001:00040250       ?FindFirstFileInternal@@YAPAXPB_WAAUFAR_FIND_DATA_EX@@@Z 00441250 f   farwinapi.obj
 0001:000404d0       ??0FindFile@@QAE@PB_W_N@Z  004414d0 f   farwinapi.obj
 0001:000406a0       ?apiGetFindDataEx@@YAHPB_WAAUFAR_FIND_DATA_EX@@_N@Z 004416a0 f   farwinapi.obj
 0001:00040850       ?apiSetCurrentDirectory@@YAHPB_W_N@Z 00441850 f   farwinapi.obj
 0001:00040b00       ?InitCurrentDirectory@@YAXXZ 00441b00 f   farwinapi.obj
 0001:00040d80       ?GetShortcutFolder@@YAHHPAVUnicodeString@@000@Z 00441d80 f   ffolders.obj
 0001:00040f80       ?SaveFolderShortcut@@YAHHPAVUnicodeString@@000@Z 00441f80 f   ffolders.obj
 0001:00041910       ?ShowFolderShortcut@@YAXXZ 00442910 f   ffolders.obj
 0001:00041930       ?ESetFileAttributes@@YAHPB_WKH@Z 00442930 f   fileattr.obj
 0001:00041ac0       ?ESetFileSparse@@YAHPB_W_NKH@Z 00442ac0 f   fileattr.obj
 0001:00041c30       ?ESetFileOwner@@YAHPB_W0H@Z 00442c30 f   fileattr.obj
 0001:00041d20       ?ESetFileTime@@YAHPB_WPAU_FILETIME@@111KH@Z 00442d20 f   fileattr.obj
 0001:00042010       ?ESetFileEncryption@@YAHPB_WHKHH@Z 00443010 f   fileattr.obj
 0001:00042150       ?ESetFileCompression@@YAHPB_WHKH@Z 00443150 f   fileattr.obj
 0001:00042290       ?IsUnicodeCodePage@@YA_NI@Z 00443290 f i fileedit.obj
 0001:000422b0       ?hndOpenEditor@@YGJPAXHHJ@Z 004432b0 f   fileedit.obj
 0001:00042340       ?hndSaveFileAs@@YGJPAXHHJ@Z 00443340 f   fileedit.obj
 0001:000424a0       ?InitKeyBar@FileEditor@@EAEXXZ 004434a0 f   fileedit.obj
 0001:00042720       ?SetNamesList@FileEditor@@QAEXPAVNamesList@@@Z 00443720 f   fileedit.obj
 0001:00042770       ?Show@FileEditor@@UAEXXZ   00443770 f   fileedit.obj
 0001:00042820       ?DisplayObject@FileEditor@@EAEXXZ 00443820 f   fileedit.obj
 0001:00042870       ?VMProcess@FileEditor@@UAE_JHPAX_J@Z 00443870 f   fileedit.obj
 0001:000429b0       ?GetTypeAndName@FileEditor@@UAEHAAVUnicodeString@@0@Z 004439b0 f   fileedit.obj
 0001:00042a10       ?SetScreenPosition@FileEditor@@EAEXXZ 00443a10 f   fileedit.obj
 0001:00042a40       ?OnDestroy@FileEditor@@EAEXXZ 00443a40 f   fileedit.obj
 0001:00042ad0       ?GetCanLoseFocus@FileEditor@@EAEHH@Z 00443ad0 f   fileedit.obj
 0001:00042b00       ?SetLockEditor@FileEditor@@QAEXH@Z 00443b00 f   fileedit.obj
 0001:00042b30       ?FastHide@FileEditor@@EAEHXZ 00443b30 f   fileedit.obj
 0001:00042b40       ?ResizeConsole@FileEditor@@EAEXXZ 00443b40 f   fileedit.obj
 0001:00042b50       ?ProcessEditorInput@FileEditor@@AAEHPAU_INPUT_RECORD@@@Z 00443b50 f   fileedit.obj
 0001:00042b70       ?SetPluginTitle@FileEditor@@QAEXPB_W@Z 00443b70 f   fileedit.obj
 0001:00042bc0       ?ChangeEditKeyBar@FileEditor@@AAEXXZ 00443bc0 f   fileedit.obj
 0001:00042c20       ?GetTitle@FileEditor@@EAEAAVUnicodeString@@AAV2@HH@Z 00443c20 f   fileedit.obj
 0001:00042c90       ?EditorGetFileAttributes@FileEditor@@AAEKPB_W@Z 00443c90 f   fileedit.obj
 0001:00042d10       ?SetDeleteOnClose@FileEditor@@AAEXH@Z 00443d10 f   fileedit.obj
 0001:00042d40       ?SetEditorOptions@FileEditor@@QAEXAAUEditorOptions@@@Z 00443d40 f   fileedit.obj
 0001:00042e10       ?OnChangeFocus@FileEditor@@EAEXH@Z 00443e10 f   fileedit.obj
 0001:00042e60       ?SetCodePage@FileEditor@@QAEXI@Z 00443e60 f   fileedit.obj
 0001:00042f00       ?AskOverwrite@FileEditor@@AAE_NABVUnicodeString@@@Z 00443f00 f   fileedit.obj
 0001:00042fa0       ?ProcessMouse@FileEditor@@EAEHPAU_MOUSE_EVENT_RECORD@@@Z 00443fa0 f   fileedit.obj
 0001:00043010       ?ShowConsoleTitle@FileEditor@@EAEXXZ 00444010 f   fileedit.obj
 0001:00043090       ?SetFileName@FileEditor@@AAEHPB_W@Z 00444090 f   fileedit.obj
 0001:00043250       ?UpdateFileList@FileEditor@@AAEHXZ 00444250 f   fileedit.obj
 0001:00043390       ?GetEditorOptions@FileEditor@@QAEXAAUEditorOptions@@@Z 00444390 f   fileedit.obj
 0001:000433a0       ?LoadFromCache@FileEditor@@AAE_NPAUEditorCacheParams@@@Z 004443a0 f   fileedit.obj
 0001:00043590       ?SaveToCache@FileEditor@@AAEXXZ 00444590 f   fileedit.obj
 0001:00043760       ??_EKeyBar@@UAEPAXI@Z      00444760 f i fileedit.obj
 0001:00043760       ??_GKeyBar@@UAEPAXI@Z      00444760 f i fileedit.obj
 0001:000437d0       ?dlgSaveFileAs@@YA_NAAVUnicodeString@@AAHAAIAA_N@Z 004447d0 f   fileedit.obj
 0001:00043de0       ??1FileEditor@@UAE@XZ      00444de0 f   fileedit.obj
 0001:00044040       ?GetMacroMode@Frame@@UAEHXZ 00445040 f i fileedit.obj
 0001:00044050       ?IsFileModified@FileEditor@@UBEHXZ 00445050 f i fileedit.obj
 0001:00044060       ?GetTypeName@FileEditor@@EAEPB_WXZ 00445060 f i fileedit.obj
 0001:00044070       ?GetType@FileEditor@@EAEHXZ 00445070 f i fileedit.obj
 0001:00044080       ?LoadFile@FileEditor@@AAEHPB_WAAH@Z 00445080 f   fileedit.obj
 0001:00044930       ?SaveFile@FileEditor@@AAEHPB_WH_NHI1@Z 00445930 f   fileedit.obj
 0001:00045650       ?ShowStatus@FileEditor@@QAEXXZ 00446650 f   fileedit.obj
 0001:00045bc0       ?dlgOpenEditor@@YA_NAAVUnicodeString@@AAI@Z 00446bc0 f   fileedit.obj
 0001:00045f50       ??_GFileEditor@@UAEPAXI@Z  00446f50 f i fileedit.obj
 0001:00045f50       ??_EFileEditor@@UAEPAXI@Z  00446f50 f i fileedit.obj
 0001:00045f80       ?Init@FileEditor@@AAEXPB_WI0KHH0HH@Z 00446f80 f   fileedit.obj
 0001:000466c0       ?ProcessQuitKey@FileEditor@@AAEHHH@Z 004476c0 f   fileedit.obj
 0001:000468b0       ??0FileEditor@@QAE@PB_WIKHH0H@Z 004478b0 f   fileedit.obj
 0001:00046980       ??0FileEditor@@QAE@PB_WIKHH0HHHHHH@Z 00447980 f   fileedit.obj
 0001:00046ae0       ?ReProcessKey@FileEditor@@AAEHHH@Z 00447ae0 f   fileedit.obj
 0001:000478b0       ?EditorControl@FileEditor@@QAEHHPAX@Z 004488b0 f   fileedit.obj
 0001:00047fd0       ?ProcessKey@FileEditor@@EAEHH@Z 00448fd0 f   fileedit.obj
 0001:00047ff0       ?GetFFFT@FileFilter@@AAE?AW4enumFileFilterFlagsType@@XZ 00448ff0 f   filefilter.obj
 0001:00048070       ?UpdateCurrentTime@FileFilter@@QAEXXZ 00449070 f   filefilter.obj
 0001:000480b0       ?swapItems@?$TPointerArray@VFileFilterParams@@@@QAE_NII@Z 004490b0 f i filefilter.obj
 0001:000480f0       ??0FileFilter@@QAE@PAVPanel@@W4FAR_FILE_FILTER_TYPE@@@Z 004490f0 f   filefilter.obj
 0001:00048140       ?FileInFilter@FileFilter@@QAE_NABUFAR_FIND_DATA_EX@@PAW4enumFileInFilterType@@@Z 00449140 f   filefilter.obj
 0001:00048390       ?IsEnabledOnPanel@FileFilter@@QAE_NXZ 00449390 f   filefilter.obj
 0001:00048410       ?SwapFilter@FileFilter@@SAXXZ 00449410 f   filefilter.obj
 0001:000484b0       ?FileInFilter@FileFilter@@QAE_NABUFileListItem@@PAW4enumFileInFilterType@@@Z 004494b0 f   filefilter.obj
 0001:000485a0       ?FileInFilter@FileFilter@@QAE_NABUFAR_FIND_DATA@@PAW4enumFileInFilterType@@@Z 004495a0 f   filefilter.obj
 0001:00048630       ?SaveFilters@FileFilter@@SAXXZ 00449630 f   filefilter.obj
 0001:000489a0       ?ParseAndAddMasks@FileFilter@@AAEHPAPA_WPB_WKAAHH@Z 004499a0 f   filefilter.obj
 0001:00048b20       ??_GFileFilterParams@@QAEPAXI@Z 00449b20 f i filefilter.obj
 0001:00048b80       ?Free@?$TPointerArray@VFileFilterParams@@@@QAEXXZ 00449b80 f i filefilter.obj
 0001:00048c10       ?insertItem@?$TPointerArray@VFileFilterParams@@@@QAEPAVFileFilterParams@@I@Z 00449c10 f i filefilter.obj
 0001:00048ca0       ?deleteItem@?$TPointerArray@VFileFilterParams@@@@QAE_NI@Z 00449ca0 f i filefilter.obj
 0001:00048d40       ?ProcessSelection@FileFilter@@AAEXPAVVMenu@@@Z 00449d40 f   filefilter.obj
 0001:00049050       ?CloseFilter@FileFilter@@SAXXZ 0044a050 f   filefilter.obj
 0001:00049070       ?FilterEdit@FileFilter@@QAE_NXZ 0044a070 f   filefilter.obj
 0001:0004a1d0       ?InitFilter@FileFilter@@SAXXZ 0044b1d0 f   filefilter.obj
 0001:0004a6c0       ?SetDate@FileFilterParams@@QAEX_NKU_FILETIME@@10@Z 0044b6c0 f   filefilterparams.obj
 0001:0004a700       ?SetSize@FileFilterParams@@QAEX_NPB_W1@Z 0044b700 f   filefilterparams.obj
 0001:0004a760       ?SetAttr@FileFilterParams@@QAEX_NKK@Z 0044b760 f   filefilterparams.obj
 0001:0004a790       ?SetColors@FileFilterParams@@QAEXPAUHighlightDataColor@@@Z 0044b790 f   filefilterparams.obj
 0001:0004a7d0       ?GetDate@FileFilterParams@@QBE_NPAKPAU_FILETIME@@1PA_N@Z 0044b7d0 f   filefilterparams.obj
 0001:0004a820       ?GetSize@FileFilterParams@@QBE_NPAPB_W0@Z 0044b820 f   filefilterparams.obj
 0001:0004a850       ?GetAttr@FileFilterParams@@QBE_NPAK0@Z 0044b850 f   filefilterparams.obj
 0001:0004a880       ?GetColors@FileFilterParams@@QBEXPAUHighlightDataColor@@@Z 0044b880 f   filefilterparams.obj
 0001:0004a8c0       ?HighlightDlgUpdateUserControl@@YAXPAU_CHAR_INFO@@AAUHighlightDataColor@@@Z 0044b8c0 f   filefilterparams.obj
 0001:0004aa00       ?FilterDlgRelativeDateItemsUpdate@@YAXPAX_N@Z 0044ba00 f   filefilterparams.obj
 0001:0004ab10       ?SetTitle@FileFilterParams@@QAEXPB_W@Z 0044bb10 f   filefilterparams.obj
 0001:0004ab50       ?GetTitle@FileFilterParams@@QBEPB_WXZ 0044bb50 f   filefilterparams.obj
 0001:0004ab60       ?GetMask@FileFilterParams@@QBE_NPAPB_W@Z 0044bb60 f   filefilterparams.obj
 0001:0004ab80       ?FileInFilter@FileFilterParams@@QAE_NABUFAR_FIND_DATA_EX@@_K@Z 0044bb80 f   filefilterparams.obj
 0001:0004ace0       ?MenuString@@YAXAAVUnicodeString@@PAVFileFilterParams@@_NH2PB_W3@Z 0044bce0 f   filefilterparams.obj
 0001:0004b030       ?FileFilterConfigDlgProc@@YGJPAXHHJ@Z 0044c030 f   filefilterparams.obj
 0001:0004b5e0       ?Add_PATHEXT@@YAAAVUnicodeString@@AAV1@@Z 0044c5e0 f   filefilterparams.obj
 0001:0004b740       ?SetMask@FileFilterParams@@QAEX_NPB_W@Z 0044c740 f   filefilterparams.obj
 0001:0004b920       ?FileInFilter@FileFilterParams@@QAE_NABUFileListItem@@_K@Z 0044c920 f   filefilterparams.obj
 0001:0004ba10       ?FileFilterConfig@@YA_NPAVFileFilterParams@@_N@Z 0044ca10 f   filefilterparams.obj
 0001:0004dbb0       ??0FileFilterParams@@QAE@XZ 0044ebb0 f   filefilterparams.obj
 0001:0004dca0       ??4FileFilterParams@@QAEABV0@ABV0@@Z 0044eca0 f   filefilterparams.obj
 0001:0004dde0       ?ChangeNumericSort@Panel@@UAEXH@Z 0044ede0 f i filelist.obj
 0001:0004ddf0       ?ChangeCaseSensitiveSort@Panel@@UAEXH@Z 0044edf0 f i filelist.obj
 0001:0004de00       ?ChangeDirectoriesFirst@Panel@@UAEXH@Z 0044ee00 f i filelist.obj
 0001:0004de10       ?ChangeSortOrder@Panel@@UAEXH@Z 0044ee10 f i filelist.obj
 0001:0004de20       ?Up@FileList@@AAEXH@Z      0044ee20 f   filelist.obj
 0001:0004de40       ?Down@FileList@@AAEXH@Z    0044ee40 f   filelist.obj
 0001:0004de70       ?NumStrCmpN@@YAHPB_WH0H@Z  0044ee70 f i filelist.obj
 0001:0004de90       ?NumStrCmpNI@@YAHPB_WH0H@Z 0044ee90 f i filelist.obj
 0001:0004deb0       ?NumStrCmp@@YAHPB_W0@Z     0044eeb0 f i filelist.obj
 0001:0004ded0       ?Scroll@FileList@@AAEXH@Z  0044eed0 f   filelist.obj
 0001:0004df20       ?NumStrCmpI@@YAHPB_W0@Z    0044ef20 f i filelist.obj
 0001:0004df40       ?CorrectPosition@FileList@@AAEXXZ 0044ef40 f   filelist.obj
 0001:0004dfc0       ?SetFocus@FileList@@UAEXXZ 0044efc0 f   filelist.obj
 0001:0004dfe0       ?SendKeyToPlugin@FileList@@UAEHKH@Z 0044efe0 f   filelist.obj
 0001:0004e080       ?Select@FileList@@AAEXPAUFileListItem@@H@Z 0044f080 f   filelist.obj
 0001:0004e100       ?MoveToMouse@FileList@@UAEXPAU_MOUSE_EVENT_RECORD@@@Z 0044f100 f   filelist.obj
 0001:0004e270       ?ChangeNumericSort@FileList@@UAEXH@Z 0044f270 f   filelist.obj
 0001:0004e2a0       ?ChangeCaseSensitiveSort@FileList@@UAEXH@Z 0044f2a0 f   filelist.obj
 0001:0004e2d0       ?ChangeDirectoriesFirst@FileList@@UAEXH@Z 0044f2d0 f   filelist.obj
 0001:0004e300       ?GoToFile@FileList@@UAEHJ@Z 0044f300 f   filelist.obj
 0001:0004e330       ?FindFile@FileList@@UAEJPB_WH@Z 0044f330 f   filelist.obj
 0001:0004e3e0       ?FindNext@FileList@@UAEJHPB_W@Z 0044f3e0 f   filelist.obj
 0001:0004e460       ?IsSelected@FileList@@UAEHPB_W@Z 0044f460 f   filelist.obj
 0001:0004e4b0       ?IsSelected@FileList@@UAEHJ@Z 0044f4b0 f   filelist.obj
 0001:0004e4e0       ?FileInFilter@FileList@@UAE_NJ@Z 0044f4e0 f   filelist.obj
 0001:0004e530       ?GetSelCount@FileList@@EAEHXZ 0044f530 f   filelist.obj
 0001:0004e580       ?GetRealSelCount@FileList@@UAEHXZ 0044f580 f   filelist.obj
 0001:0004e5a0       ?GetSelName@FileList@@EAEHPAVUnicodeString@@AAK0PAUFAR_FIND_DATA_EX@@@Z 0044f5a0 f   filelist.obj
 0001:0004e910       ?ClearLastGetSelection@FileList@@EAEXXZ 0044f910 f   filelist.obj
 0001:0004e980       ?UngetSelName@FileList@@EAEXXZ 0044f980 f   filelist.obj
 0001:0004e990       ?GetLastSelectedSize@FileList@@EAE_KXZ 0044f990 f   filelist.obj
 0001:0004e9c0       ?GetCurName@FileList@@EAEHAAVUnicodeString@@0@Z 0044f9c0 f   filelist.obj
 0001:0004ea50       ?ClearSelection@FileList@@UAEXXZ 0044fa50 f   filelist.obj
 0001:0004eae0       ?SaveSelection@FileList@@UAEXXZ 0044fae0 f   filelist.obj
 0001:0004eb10       ?RestoreSelection@FileList@@UAEXXZ 0044fb10 f   filelist.obj
 0001:0004ebf0       ?GetFileName@FileList@@UAEHAAVUnicodeString@@HAAK@Z 0044fbf0 f   filelist.obj
 0001:0004ec40       ?GetCurrentPos@TreeList@@UAEHXZ 0044fc40 f   treelist.obj
 0001:0004ec40       ?GetCurrentPos@FileList@@UAEHXZ 0044fc40 f   filelist.obj
 0001:0004ec50       ?EditFilter@FileList@@UAEXXZ 0044fc50 f   filelist.obj
 0001:0004eca0       ?SelectSortMode@FileList@@AAEXXZ 0044fca0 f   filelist.obj
 0001:0004f360       ?DeleteDiz@FileList@@UAEXPB_W0@Z 00450360 f   filelist.obj
 0001:0004f380       ?FlushDiz@FileList@@UAEXXZ 00450380 f   filelist.obj
 0001:0004f3a0       ?GetDizName@FileList@@UAEXAAVUnicodeString@@@Z 004503a0 f   filelist.obj
 0001:0004f3c0       ?CopyDiz@FileList@@UAEXPB_W000PAVDizList@@@Z 004503c0 f   filelist.obj
 0001:0004f3d0       ?SetReturnCurrentFile@FileList@@UAEXH@Z 004503d0 f   filelist.obj
 0001:0004f3e0       ?CountDirSize@FileList@@AAEXK@Z 004503e0 f   filelist.obj
 0001:0004f7c0       ?SetSelectedFirstMode@FileList@@EAEXH@Z 004507c0 f   filelist.obj
 0001:0004f7e0       ?ChangeSortOrder@FileList@@UAEXH@Z 004507e0 f   filelist.obj
 0001:0004f810       ?UpdateKeyBar@FileList@@UAEHXZ 00450810 f   filelist.obj
 0001:0004f960       ?AddPluginPrefix@FileList@@SAAAVUnicodeString@@PAV1@AAV2@@Z 00450960 f   filelist.obj
 0001:0004fa10       ??4FileListItem@@QAEAAU0@ABU0@@Z 00450a10 f i filelist.obj
 0001:00050290       ?SetViewMode@FileList@@UAEXH@Z 00451290 f   filelist.obj
 0001:000505f0       ?SetSortMode@FileList@@UAEXH@Z 004515f0 f   filelist.obj
 0001:00050640       ?FindPartName@FileList@@UAEHPB_WHHH@Z 00451640 f   filelist.obj
 0001:00050900       ?GetLastSelectedItem@FileList@@EAEHPAUFileListItem@@@Z 00451900 f   filelist.obj
 0001:00050940       ?UpdateViewPanel@FileList@@UAEXXZ 00451940 f   filelist.obj
 0001:00050b40       ?CompareDir@FileList@@UAEXXZ 00451b40 f   filelist.obj
 0001:000511a0       ?CreateFullPathName@FileList@@QAEAAVUnicodeString@@PB_W0KAAV2@HH@Z 004521a0 f   filelist.obj
 0001:00051370       ?SetTitle@FileList@@UAEXXZ 00452370 f   filelist.obj
 0001:000514d0       ?DescribeFiles@FileList@@AAEXXZ 004524d0 f   filelist.obj
 0001:00051830       ?ProcessCopyKeys@FileList@@AAEXH@Z 00452830 f   filelist.obj
 0001:00051b40       ?PluginPanelHelp@FileList@@QAEHPAX@Z 00452b40 f   filelist.obj
 0001:00051ce0       ?IfGoHome@FileList@@UAEX_W@Z 00452ce0 f   filelist.obj
 0001:00051df0       ?GetItem@FileList@@UAEHHPAX@Z 00452df0 f   filelist.obj
 0001:00051e40       ?AllocNode@?$DList@PAUSIDCacheItem@@@@EAEPAUNode@CDList@@PAX@Z 00452e40 f i fileowner.obj
 0001:00051e40       ?AllocNode@?$DList@PAUPluginsListItem@@@@EAEPAUNode@CDList@@PAX@Z 00452e40 f i filelist.obj
 0001:00051e40       ?AllocNode@?$DList@PAUDialogData@@@@EAEPAUNode@CDList@@PAX@Z 00452e40 f i PluginA.obj
 0001:00051e40       ?AllocNode@?$DList@PAUPrevDataItem@@@@EAEPAUNode@CDList@@PAX@Z 00452e40 f i filelist.obj
 0001:00051e70       ??0FileList@@QAE@XZ        00452e70 f   filelist.obj
 0001:00052070       ?SetOpion@nsBig5Prober@@UAEXXZ 00453070 f i nsMBCSGroupProber.obj
 0001:00052070       ??1UserMenu@@QAE@XZ        00453070 f i usermenu.obj
 0001:00052070       ?SetPluginModified@Panel@@UAEXXZ 00453070 f i infolist.obj
 0001:00052070       ?SetOpion@nsSBCSGroupProber@@UAEXXZ 00453070 f i nsSBCSGroupProber.obj
 0001:00052070       ?InitKeyBar@Frame@@UAEXXZ  00453070 f i dialog.obj
 0001:00052070       ?ResizeConsole@KeyBar@@UAEXXZ 00453070 f i keybar.obj
 0001:00052070       ?SetOpion@nsHebrewProber@@UAEXXZ 00453070 f i nsSBCSGroupProber.obj
 0001:00052070       ?FlushDiz@Panel@@UAEXXZ    00453070 f i infolist.obj
 0001:00052070       ?DisplayObject@ScreenObject@@EAEXXZ 00453070 f i frame.obj
 0001:00052070       ?SetOpion@nsEUCTWProber@@UAEXXZ 00453070 f i nsMBCSGroupProber.obj
 0001:00052070       ?EditFilter@Panel@@UAEXXZ  00453070 f i infolist.obj
 0001:00052070       ?ResizeConsole@ScreenObject@@UAEXXZ 00453070 f i edit.obj
 0001:00052070       ?SetOpion@nsLatin1Prober@@UAEXXZ 00453070 f i nsUniversalDetector.obj
 0001:00052070       ?SetOpion@nsUTF8Prober@@UAEXXZ 00453070 f i nsMBCSGroupProber.obj
 0001:00052070       ?GetDialogObjectsData@Modal@@UAEXXZ 00453070 f i grabber.obj
 0001:00052070       ?CloseFile@Panel@@UAEXXZ   00453070 f i filelist.obj
 0001:00052070       ?QViewDelTempName@Panel@@UAEXXZ 00453070 f i filelist.obj
 0001:00052070       ?SetOpion@nsEUCJPProber@@UAEXXZ 00453070 f i nsMBCSGroupProber.obj
 0001:00052070       ?SetOpion@nsSJISProber@@UAEXXZ 00453070 f i nsMBCSGroupProber.obj
 0001:00052070       ?SetOpion@nsSingleByteCharSetProber@@UAEXXZ 00453070 f i nsSBCSGroupProber.obj
 0001:00052070       ?ShowConsoleTitle@ScreenObject@@UAEXXZ 00453070 f i cmdline.obj
 0001:00052070       ?RestoreSelection@Panel@@UAEXXZ 00453070 f i infolist.obj
 0001:00052070       ?CloseChangeNotification@Panel@@UAEXXZ 00453070 f i infolist.obj
 0001:00052070       ?UpdateViewPanel@Panel@@UAEXXZ 00453070 f i infolist.obj
 0001:00052070       ??1FileFilter@@QAE@XZ      00453070 f i filefilter.obj
 0001:00052070       ?OnCreate@Frame@@UAEXXZ    00453070 f i dialog.obj
 0001:00052070       ?ClearAllItem@Panel@@MAEXXZ 00453070 f i infolist.obj
 0001:00052070       ?SetOpion@nsEUCKRProber@@UAEXXZ 00453070 f i nsMBCSGroupProber.obj
 0001:00052070       ?UpdateIfRequired@Panel@@UAEXXZ 00453070 f i infolist.obj
 0001:00052070       ?SetOpion@nsGB18030Prober@@UAEXXZ 00453070 f i nsMBCSGroupProber.obj
 0001:00052070       ?ClearSelection@Panel@@UAEXXZ 00453070 f i infolist.obj
 0001:00052070       ?SetOpion@nsMBCSGroupProber@@UAEXXZ 00453070 f i nsMBCSGroupProber.obj
 0001:00052070       ?ClearLastGetSelection@Panel@@UAEXXZ 00453070 f i infolist.obj
 0001:00052070       ?CompareDir@Panel@@UAEXXZ  00453070 f i infolist.obj
 0001:00052070       ?SaveSelection@Panel@@UAEXXZ 00453070 f i infolist.obj
 0001:00052070       ?UngetSelName@Panel@@UAEXXZ 00453070 f i infolist.obj
 0001:00052070       ?SetOpion@nsEscCharSetProber@@UAEXXZ 00453070 f i nsEscCharsetProber.obj
 0001:00052080       ?GetSelectedFirstMode@FileList@@EAEHXZ 00453080 f i filelist.obj
 0001:00052090       ?GetColumnsCount@FileList@@UAEHXZ 00453090 f i filelist.obj
 0001:000520a0       ?GetFileCount@FileList@@UAEJXZ 004530a0 f i filelist.obj
 0001:000520b0       ??1FileListItem@@QAE@XZ    004530b0 f i filelist.obj
 0001:00052130       ?SortFileList@FileList@@UAEXH@Z 00453130 f   filelist.obj
 0001:00052270       ?GetCurBaseName@FileList@@EAEHAAVUnicodeString@@0@Z 00453270 f   filelist.obj
 0001:00052340       ?SelectFiles@FileList@@AAEJHPB_W@Z 00453340 f   filelist.obj
 0001:00052d10       ?CopyFiles@FileList@@AAEXXZ 00453d10 f   filelist.obj
 0001:00052f00       ?CopyNames@FileList@@AAEX_N0@Z 00453f00 f   filelist.obj
 0001:000533d0       ?ApplyCommand@FileList@@AAE_NXZ 004543d0 f   filelist.obj
 0001:000538c0       ?GetPrevViewMode@FileList@@UAEHXZ 004548c0 f   filelist.obj
 0001:000538f0       ?GetPrevSortMode@FileList@@UAEHXZ 004548f0 f   filelist.obj
 0001:00053920       ?GetPrevSortOrder@FileList@@UAEHXZ 00454920 f   filelist.obj
 0001:00053950       ?GetPrevNumericSort@FileList@@UAEHXZ 00454950 f   filelist.obj
 0001:00053980       ?GetPrevCaseSensitiveSort@FileList@@UAEHXZ 00454980 f   filelist.obj
 0001:000539b0       ?GetPrevDirectoriesFirst@FileList@@UAEHXZ 004549b0 f   filelist.obj
 0001:000539e0       ?OpenFilePlugin@FileList@@QAEPAXPB_WHW4OPENFILEPLUGINTYPE@@@Z 004549e0 f   filelist.obj
 0001:00053b40       ?DeleteListData@FileList@@AAEXAAPAPAUFileListItem@@AAH@Z 00454b40 f   filelist.obj
 0001:00053c30       ?VMProcess@FileList@@UAE_JHPAX_J@Z 00454c30 f   filelist.obj
 0001:000542d0       ?ChangeDir@FileList@@AAEHPB_WH@Z 004552d0 f   filelist.obj
 0001:00054ed0       ?ClearAllItem@FileList@@MAEXXZ 00455ed0 f   filelist.obj
 0001:00054f40       ??1FileList@@UAE@XZ        00455f40 f   filelist.obj
 0001:00055080       ?ProcessEnter@FileList@@AAEX_N000W4OPENFILEPLUGINTYPE@@@Z 00456080 f   filelist.obj
 0001:000555f0       ?SetCurDir@FileList@@UAEHPB_WH@Z 004565f0 f   filelist.obj
 0001:000556c0       ?ProcessMouse@FileList@@UAEHPAU_MOUSE_EVENT_RECORD@@@Z 004566c0 f   filelist.obj
 0001:00055ba0       ??_GFileList@@UAEPAXI@Z    00456ba0 f i filelist.obj
 0001:00055ba0       ??_EFileList@@UAEPAXI@Z    00456ba0 f i filelist.obj
 0001:00055bd0       ?ProcessKey@FileList@@UAEHH@Z 00456bd0 f   filelist.obj
 0001:00058820       ?Free@FileMasksProcessor@@QAEXXZ 00459820 f   FileMasksProcessor.obj
 0001:00058860       ?Set@FileMasksProcessor@@UAE_NPB_WK@Z 00459860 f   FileMasksProcessor.obj
 0001:00058960       ?IsEmpty@FileMasksProcessor@@UAE_NXZ 00459960 f   FileMasksProcessor.obj
 0001:00058990       ?IsOemPlugin@PluginA@@UAE_NXZ 00459990 f i PluginA.obj
 0001:00058990       ?ProcessEvents@Frame@@UAE_NXZ 00459990 f i fileedit.obj
 0001:00058990       ?IsEmpty@BaseFileMask@@UAE_NXZ 00459990 f i FileMasksProcessor.obj
 0001:000589a0       ??_EBaseFileMask@@UAEPAXI@Z 004599a0 f i FileMasksProcessor.obj
 0001:000589a0       ??_GBaseFileMask@@UAEPAXI@Z 004599a0 f i FileMasksProcessor.obj
 0001:000589d0       ?Compare@FileMasksProcessor@@UAE_NPB_W@Z 004599d0 f   FileMasksProcessor.obj
 0001:00058a90       ??0FileMasksProcessor@@QAE@XZ 00459a90 f   FileMasksProcessor.obj
 0001:00058ac0       ??1FileMasksProcessor@@UAE@XZ 00459ac0 f i FileMasksProcessor.obj
 0001:00058b20       ??_EFileMasksProcessor@@UAEPAXI@Z 00459b20 f i FileMasksProcessor.obj
 0001:00058b20       ??_GFileMasksProcessor@@UAEPAXI@Z 00459b20 f i FileMasksProcessor.obj
 0001:00058b50       ?FindExcludeChar@FileMasksWithExclude@@CAPB_WPB_W@Z 00459b50 f   FileMasksWithExclude.obj
 0001:00058bc0       ?Compare@FileMasksWithExclude@@UAE_NPB_W@Z 00459bc0 f   FileMasksWithExclude.obj
 0001:00058c00       ?IsEmpty@FileMasksWithExclude@@UAE_NXZ 00459c00 f   FileMasksWithExclude.obj
 0001:00058c30       ?IsExcludeMask@FileMasksWithExclude@@SA_NPB_W@Z 00459c30 f   FileMasksWithExclude.obj
 0001:00058c50       ?Set@FileMasksWithExclude@@UAE_NPB_WK@Z 00459c50 f   FileMasksWithExclude.obj
 0001:00058d70       ??0FileMasksWithExclude@@QAE@XZ 00459d70 f   FileMasksWithExclude.obj
 0001:00058d90       ??1FileMasksWithExclude@@UAE@XZ 00459d90 f i FileMasksWithExclude.obj
 0001:00058e00       ??_GFileMasksWithExclude@@UAEPAXI@Z 00459e00 f i FileMasksWithExclude.obj
 0001:00058e00       ??_EFileMasksWithExclude@@UAEPAXI@Z 00459e00 f i FileMasksWithExclude.obj
 0001:00058e30       ?SetOwnerInternal@@YA_NPB_W0@Z 00459e30 f   fileowner.obj
 0001:00058f30       ??0SIDCacheItem@@QAE@PB_WPAX@Z 00459f30 f i fileowner.obj
 0001:000590a0       ?AddSIDToCache@@YAPB_WPB_WPAX@Z 0045a0a0 f   fileowner.obj
 0001:00059140       ?GetNameFromSIDCache@@YAPB_WPAX@Z 0045a140 f   fileowner.obj
 0001:000591a0       ?SetOwner@@YA_NPB_W0@Z     0045a1a0 f   fileowner.obj
 0001:00059250       ?SIDCacheFlush@@YAXXZ      0045a250 f   fileowner.obj
 0001:000592d0       ?GetFileOwner@@YG_NPB_W0AAVUnicodeString@@@Z 0045a2d0 f   fileowner.obj
 0001:000593e0       ??_GMenuBar@@UAEPAXI@Z     0045a3e0 f i filepanels.obj
 0001:000593e0       ??_EMenuBar@@UAEPAXI@Z     0045a3e0 f i filepanels.obj
 0001:00059410       ?RedrawKeyBar@FilePanels@@UAEXXZ 0045a410 f   filepanels.obj
 0001:00059430       ?CreatePanel@FilePanels@@QAEPAVPanel@@H@Z 0045a430 f   filepanels.obj
 0001:000594f0       ?SetAnhoterPanelFocus@FilePanels@@QAEHXZ 0045a4f0 f   filepanels.obj
 0001:00059520       ?SwapPanels@FilePanels@@QAEHXZ 0045a520 f   filepanels.obj
 0001:00059610       ?VMProcess@FilePanels@@UAE_JHPAX_J@Z 0045a610 f   filepanels.obj
 0001:00059640       ?GetAnotherPanel@FilePanels@@QAEPAVPanel@@PAV2@@Z 0045a640 f   filepanels.obj
 0001:00059660       ?OnChangeFocus@FilePanels@@UAEXH@Z 0045a660 f   filepanels.obj
 0001:000596b0       ?DisplayObject@FilePanels@@EAEXXZ 0045a6b0 f   filepanels.obj
 0001:00059740       ?ProcessMouse@FilePanels@@UAEHPAU_MOUSE_EVENT_RECORD@@@Z 0045a740 f   filepanels.obj
 0001:000597a0       ?ShowConsoleTitle@FilePanels@@UAEXXZ 0045a7a0 f   filepanels.obj
 0001:000597c0       ?ResizeConsole@FilePanels@@UAEXXZ 0045a7c0 f   filepanels.obj
 0001:00059800       ?FastHide@FilePanels@@UAEHXZ 0045a800 f   filepanels.obj
 0001:00059810       ?GetMacroMode@FilePanels@@UAEHXZ 0045a810 f   filepanels.obj
 0001:000598e0       ?SetPanelPositions@FilePanels@@QAEXHH@Z 0045a8e0 f   filepanels.obj
 0001:00059a80       ?SetScreenPosition@FilePanels@@UAEXXZ 0045aa80 f   filepanels.obj
 0001:00059b30       ?ChangePanel@FilePanels@@QAEPAVPanel@@PAV2@HHH@Z 0045ab30 f   filepanels.obj
 0001:00059fe0       ?GetTypeAndName@FilePanels@@UAEHAAVUnicodeString@@0@Z 0045afe0 f   filepanels.obj
 0001:0005a0c0       ?GoToFile@FilePanels@@QAEXPB_W@Z 0045b0c0 f   filepanels.obj
 0001:0005a310       ??0FilePanels@@QAE@XZ      0045b310 f   filepanels.obj
 0001:0005a3a0       ?GetTypeName@FilePanels@@UAEPB_WXZ 0045b3a0 f i filepanels.obj
 0001:0005a3b0       ?Init@FilePanels@@QAEXXZ   0045b3b0 f   filepanels.obj
 0001:0005a750       ??1FilePanels@@UAE@XZ      0045b750 f   filepanels.obj
 0001:0005a860       ?ChangePanelToFilled@FilePanels@@QAEPAVPanel@@PAV2@H@Z 0045b860 f   filepanels.obj
 0001:0005ad60       ??_EFilePanels@@UAEPAXI@Z  0045bd60 f i filepanels.obj
 0001:0005ad60       ??_GFilePanels@@UAEPAXI@Z  0045bd60 f i filepanels.obj
 0001:0005ad90       ?ChangePanelViewMode@FilePanels@@QAEHPAVPanel@@HH@Z 0045bd90 f   filepanels.obj
 0001:0005ae00       ?ProcessKey@FilePanels@@UAEHH@Z 0045be00 f   filepanels.obj
 0001:0005be60       ??0nsUniversalDetectorEx@@QAE@XZ 0045ce60 f i filestr.obj
 0001:0005be80       ?Report@nsUniversalDetectorEx@@MAEXPBD@Z 0045ce80 f i filestr.obj
 0001:0005c300       ??0OldGetFileString@@QAE@PAU_iobuf@@@Z 0045d300 f   filestr.obj
 0001:0005c360       ??1OldGetFileString@@QAE@XZ 0045d360 f   filestr.obj
 0001:0005c390       ?GetAnsiString@OldGetFileString@@AAEHPAPADAAH@Z 0045d390 f   filestr.obj
 0001:0005c530       ?GetUnicodeString@OldGetFileString@@AAEHPAPA_WAAH_N@Z 0045d530 f   filestr.obj
 0001:0005c6f0       ?IsTextUTF8@@YA_NQAEI@Z    0045d6f0 f   filestr.obj
 0001:0005c750       ?OldGetFileFormat@@YA_NPAU_iobuf@@AAIPA_N_N@Z 0045d750 f   filestr.obj
 0001:0005c920       ??0GetFileString@@QAE@AAVFile@@@Z 0045d920 f   filestr.obj
 0001:0005c990       ??1GetFileString@@QAE@XZ   0045d990 f   filestr.obj
 0001:0005c9c0       ?GetAnsiString@GetFileString@@AAEHPAPADAAH@Z 0045d9c0 f   filestr.obj
 0001:0005cb60       ?GetUnicodeString@GetFileString@@AAEHPAPA_WAAH_N@Z 0045db60 f   filestr.obj
 0001:0005cd30       ?GetFileFormat@@YA_NAAVFile@@AAIPA_N_N@Z 0045dd30 f   filestr.obj
 0001:0005cf30       ??_EnsUniversalDetectorEx@@UAEPAXI@Z 0045df30 f i filestr.obj
 0001:0005cf30       ??_GnsUniversalDetectorEx@@UAEPAXI@Z 0045df30 f i filestr.obj
 0001:0005cf60       ?GetString@OldGetFileString@@QAEHPAPA_WHAAH@Z 0045df60 f   filestr.obj
 0001:0005d0f0       ?ReadString@@YAPA_WPAU_iobuf@@PA_WHH@Z 0045e0f0 f   filestr.obj
 0001:0005d2b0       ?GetString@GetFileString@@QAEHPAPA_WIAAH@Z 0045e2b0 f   filestr.obj
 0001:0005d460       ?PeekString@GetFileString@@QAEHPAPA_WIAAH@Z 0045e460 f   filestr.obj
 0001:0005d4b0       ?ExtractIfExistCommand@@YA_NAAVUnicodeString@@@Z 0045e4b0 f   filetype.obj
 0001:0005d540       ?EditTypeRecordDlgProc@@YGJPAXHHJ@Z 0045e540 f   filetype.obj
 0001:0005d600       ?GetDescriptionWidth@@YAHPB_W0@Z 0045e600 f   filetype.obj
 0001:0005d8c0       ?ProcessGlobalFileTypes@@YAXPB_W_N1@Z 0045e8c0 f   filetype.obj
 0001:0005d980       ?ProcessExternal@@YAXPB_W00_N@Z 0045e980 f   filetype.obj
 0001:0005e280       ?MoveMenuItem@@YAXHH@Z     0045f280 f   filetype.obj
 0001:0005e3a0       ?DeleteTypeRecord@@YA_NH@Z 0045f3a0 f   filetype.obj
 0001:0005e4e0       ?ProcessLocalFileTypes@@YA_NPB_W0H_N@Z 0045f4e0 f   filetype.obj
 0001:0005ee80       ?EditTypeRecord@@YA_NHH_N@Z 0045fe80 f   filetype.obj
 0001:0005f730       ?EditFileTypes@@YAXXZ      00460730 f   filetype.obj
 0001:0005f970       ?SetEnableF6@FileEditor@@QAEXH@Z 00460970 f i fileview.obj
 0001:0005f9a0       ?DisplayObject@FileViewer@@EAEXXZ 004609a0 f   fileview.obj
 0001:0005f9b0       ?VMProcess@FileViewer@@UAE_JHPAX_J@Z 004609b0 f   fileview.obj
 0001:0005f9e0       ?ProcessMouse@FileViewer@@UAEHPAU_MOUSE_EVENT_RECORD@@@Z 004609e0 f   fileview.obj
 0001:0005fa30       ?ShowConsoleTitle@FileViewer@@UAEXXZ 00460a30 f   fileview.obj
 0001:0005fa50       ?SetTempViewName@FileViewer@@QAEXPB_WH@Z 00460a50 f   fileview.obj
 0001:0005fa60       ?FastHide@FileViewer@@UAEHXZ 00460a60 f   fileview.obj
 0001:0005fa70       ?GetTitle@FileViewer@@UAEAAVUnicodeString@@AAV2@HH@Z 00460a70 f   fileview.obj
 0001:0005fa80       ?OnChangeFocus@FileViewer@@UAEXH@Z 00460a80 f   fileview.obj
 0001:0005fad0       ?Init@FileViewer@@QAEXPB_WHHJ0PAVNamesList@@H@Z 00460ad0 f   fileview.obj
 0001:0005fc80       ?InitKeyBar@FileViewer@@UAEXXZ 00460c80 f   fileview.obj
 0001:0005fe70       ?GetTypeAndName@FileViewer@@UAEHAAVUnicodeString@@0@Z 00460e70 f   fileview.obj
 0001:0005fed0       ??0FileViewer@@QAE@PB_WHHHJ0PAVNamesList@@HI@Z 00460ed0 f   fileview.obj
 0001:0005ff60       ?GetTypeName@FileViewer@@UAEPB_WXZ 00460f60 f i fileview.obj
 0001:0005ff70       ?GetType@FileViewer@@UAEHXZ 00460f70 f i fileview.obj
 0001:0005ff80       ??0FileViewer@@QAE@PB_WHH0HHHHI@Z 00460f80 f   fileview.obj
 0001:000600a0       ?ProcessKey@FileViewer@@UAEHH@Z 004610a0 f   fileview.obj
 0001:00060630       ??1FileViewer@@UAE@XZ      00461630 f   fileview.obj
 0001:000606c0       ?OnDestroy@FileViewer@@UAEXXZ 004616c0 f   fileview.obj
 0001:00060760       ?ShowStatus@FileViewer@@QAEXXZ 00461760 f   fileview.obj
 0001:00060970       ??_GFileViewer@@UAEPAXI@Z  00461970 f i fileview.obj
 0001:00060970       ??_EFileViewer@@UAEPAXI@Z  00461970 f i fileview.obj
 0001:000609a0       ?Show@FileViewer@@EAEXXZ   004619a0 f   fileview.obj
 0001:00060a60       ?ReleaseInFileSearch@@YAXXZ 00461a60 f   findfile.obj
 0001:00060b20       ?IsWordDiv@@YA_N_W@Z       00461b20 f   findfile.obj
 0001:00060b70       ?AdvancedDlgProc@@YGJPAXHHJ@Z 00461b70 f   findfile.obj
 0001:00060c10       ?FindStringBMH@@YA?BHPB_WI@Z 00461c10 f   findfile.obj
 0001:00060cd0       ?FindStringBMH@@YA?BHPBEI@Z 00461cd0 f   findfile.obj
 0001:00060d50       ?GetFindListItem@InterThreadData@@QAEXIAAUFINDLIST@@@Z 00461d50 f i findfile.obj
 0001:00060da0       ?SetFindListItem@InterThreadData@@QAEXIABUFINDLIST@@@Z 00461da0 f i findfile.obj
 0001:00060df0       ?GetArcListItem@InterThreadData@@QAEXIAAUARCLIST@@@Z 00461df0 f i findfile.obj
 0001:00060e50       ?SetArcListItem@InterThreadData@@QAEXIABUARCLIST@@@Z 00461e50 f i findfile.obj
 0001:00060eb0       ?FindListGrow@InterThreadData@@QAE_NXZ 00461eb0 f i findfile.obj
 0001:00060f00       ?ArcListGrow@InterThreadData@@QAE_NXZ 00461f00 f i findfile.obj
 0001:00060f50       ?InitInFileSearch@@YAXXZ   00461f50 f   findfile.obj
 0001:00061490       ?PrepareDriveNameStr@@YAAAVUnicodeString@@AAV1@@Z 00462490 f   findfile.obj
 0001:000615f0       ?SetPluginDirectory@@YAXPB_WPAX_N@Z 004625f0 f   findfile.obj
 0001:00061740       ?LookForString@@YAHPB_W@Z  00462740 f   findfile.obj
 0001:00061c90       ??1ARCLIST@@QAE@XZ         00462c90 f i findfile.obj
 0001:00061cd0       ?AdvancedDialog@@YAXXZ     00462cd0 f   findfile.obj
 0001:00062170       ?MainDlgProc@@YGJPAXHHJ@Z  00463170 f   findfile.obj
 0001:00062920       ?GetPluginFile@@YA_NIABUFAR_FIND_DATA_EX@@PB_WAAVUnicodeString@@@Z 00463920 f   findfile.obj
 0001:00062c10       ?IsFileIncluded@@YA_NPAUPluginPanelItem@@PB_WK@Z 00463c10 f   findfile.obj
 0001:00062e90       ?AllocNode@?$DList@VUnicodeString@@@@EAEPAUNode@CDList@@PAX@Z 00463e90 f i findfile.obj
 0001:00062ed0       ?AddArcListItem@InterThreadData@@QAEIPB_WPAXK0@Z 00463ed0 f i findfile.obj
 0001:00063000       ??1FAR_FIND_DATA_EX@@QAE@XZ 00464000 f i copy.obj
 0001:00063000       ??1FINDLIST@@QAE@XZ        00464000 f i findfile.obj
 0001:00063040       ?FindDlgProc@@YGJPAXHHJ@Z  00464040 f   findfile.obj
 0001:000641d0       ?ArchiveSearch@@YAXPAXPB_W@Z 004651d0 f   findfile.obj
 0001:000644f0       ?DeleteNode@?$DList@VUnicodeString@@@@EAEXPAUNode@CDList@@@Z 004654f0 f i findfile.obj
 0001:00064530       ?AddFindListItem@InterThreadData@@QAEIABUFAR_FIND_DATA_EX@@@Z 00465530 f i findfile.obj
 0001:000645d0       ?AddMenuRecord@@YAXPAXPB_WABUFAR_FIND_DATA_EX@@@Z 004655d0 f   findfile.obj
 0001:000650d0       ?AddMenuRecord@@YAXPAXPB_WABUFAR_FIND_DATA@@@Z 004660d0 f   findfile.obj
 0001:00065150       ?ScanPluginTree@@YAXPAX0KAAH@Z 00466150 f   findfile.obj
 0001:000656b0       ?DoPreparePluginList@@YAXPAX_N@Z 004666b0 f   findfile.obj
 0001:00065930       ?ClearAllLists@InterThreadData@@QAEXXZ 00466930 f i findfile.obj
 0001:00065a50       ??1FindFiles@@QAE@XZ       00466a50 f   findfile.obj
 0001:00065a90       ?DoScanTree@@YAXPAXAAVUnicodeString@@@Z 00466a90 f   findfile.obj
 0001:000661d0       ?DoPrepareFileList@@YAXPAX@Z 004671d0 f   findfile.obj
 0001:00066570       ?ThreadRoutine@@YGKPAX@Z   00467570 f   findfile.obj
 0001:00066610       ?FindFilesProcess@@YA_NAAUVars@@@Z 00467610 f   findfile.obj
 0001:00067970       ??0FindFiles@@QAE@XZ       00468970 f   findfile.obj
 0001:00068900       ?FillREPARSE_DATA_BUFFER@@YA_NPAU_REPARSE_DATA_BUFFER@@PB_WI1I@Z 00469900 f   flink.obj
 0001:00068a10       ?SetREPARSE_DATA_BUFFER@@YA_NPB_WPAU_REPARSE_DATA_BUFFER@@@Z 00469a10 f   flink.obj
 0001:00068b30       ?GetREPARSE_DATA_BUFFER@@YA_NPB_WPAU_REPARSE_DATA_BUFFER@@@Z 00469b30 f   flink.obj
 0001:00068bd0       ?GetReparsePointInfo@@YGKPB_WAAVUnicodeString@@PAK@Z 00469bd0 f   flink.obj
 0001:00068cb0       ?GetNumberOfLinks@@YGHPB_W@Z 00469cb0 f   flink.obj
 0001:00068d20       ?MkHardLink@@YGHPB_W0@Z    00469d20 f   flink.obj
 0001:00068d40       ?EnumStreams@@YA_NPB_WAA_KAAK@Z 00469d40 f   flink.obj
 0001:00068df0       ?DuplicateReparsePoint@@YA_NPB_W0@Z 00469df0 f   flink.obj
 0001:00068e40       ?GetVHDName@@YA_NPB_WAAVUnicodeString@@@Z 00469e40 f   flink.obj
 0001:00068f30       ?NormalizeSymlinkName@@YAXAAVUnicodeString@@@Z 00469f30 f   flink.obj
 0001:00068fb0       ?CreateVolumeMountPoint@@YG_NPB_W0@Z 00469fb0 f   flink.obj
 0001:00069020       ?CreateReparsePoint@@YG_NPB_W0K@Z 0046a020 f   flink.obj
 0001:000692e0       ?DeleteReparsePoint@@YG_NPB_W@Z 0046a2e0 f   flink.obj
 0001:000693a0       ?GetSubstName@@YA_NHPB_WAAVUnicodeString@@@Z 0046a3a0 f   flink.obj
 0001:000694a0       ?GetPathRoot@@YAXPB_WAAVUnicodeString@@@Z 0046a4a0 f   flink.obj
 0001:00069520       ?ModifyReparsePoint@@YA_NPB_W0@Z 0046a520 f   flink.obj
 0001:000696e0       ?MkSymLink@@YAHPB_W0W4ReparsePointTypes@@K@Z 0046a6e0 f   flink.obj
 0001:00069d70       ?DelSubstDrive@@YA_NPB_W@Z 0046ad70 f   flink.obj
 0001:00069ef0       ?FarMkLink@@YGHPB_W0K@Z    0046aef0 f   flink.obj
 0001:00069fc0       ?ReadPanelModes@FileList@@SAXXZ 0046afc0 f   flmodes.obj
 0001:0006a350       ?SavePanelModes@FileList@@SAXXZ 0046b350 f   flmodes.obj
 0001:0006a5c0       ?SetFilePanelModes@FileList@@SAXXZ 0046b5c0 f   flmodes.obj
 0001:0006b040       ?FreePluginPanelItem@FileList@@SAXPAUPluginPanelItem@@@Z 0046c040 f   flplugin.obj
 0001:0006b070       ?OpenPluginForFile@FileList@@AAEPAXPB_WKW4OPENFILEPLUGINTYPE@@@Z 0046c070 f   flplugin.obj
 0001:0006b0d0       ?DeletePluginItemList@FileList@@AAEXAAPAUPluginPanelItem@@AAH@Z 0046c0d0 f   flplugin.obj
 0001:0006b130       ?GetOpenPluginInfo@FileList@@UAEXPAUOpenPluginInfo@@@Z 0046c130 f   flplugin.obj
 0001:0006b170       ?PluginGetPanelInfo@FileList@@QAEXAAUPanelInfo@@@Z 0046c170 f   flplugin.obj
 0001:0006b1c0       ?PluginGetColumnTypesAndWidths@FileList@@QAEXAAVUnicodeString@@0@Z 0046c1c0 f   flplugin.obj
 0001:0006b1f0       ?PluginBeginSelection@FileList@@QAEXXZ 0046c1f0 f   flplugin.obj
 0001:0006b200       ?PluginSetSelection@FileList@@QAEXH_N@Z 0046c200 f   flplugin.obj
 0001:0006b220       ?PluginClearSelection@FileList@@QAEXH@Z 0046c220 f   flplugin.obj
 0001:0006b2c0       ?PluginEndSelection@FileList@@QAEXXZ 0046c2c0 f   flplugin.obj
 0001:0006b2e0       ?GetPluginHandle@FileList@@UAEPAXXZ 0046c2e0 f   flplugin.obj
 0001:0006b2f0       ?ProcessPluginEvent@FileList@@UAEHHPAX@Z 0046c2f0 f   flplugin.obj
 0001:0006b330       ?FileListToPluginItem@FileList@@SAXPAUFileListItem@@PAUPluginPanelItem@@@Z 0046c330 f   flplugin.obj
 0001:0006b430       ?FileListToPluginItem2@FileList@@QAEIPAUFileListItem@@PAUPluginPanelItem@@@Z 0046c430 f   flplugin.obj
 0001:0006b6f0       ?PluginToFileListItem@FileList@@SAXPAUPluginPanelItem@@PAUFileListItem@@@Z 0046c6f0 f   flplugin.obj
 0001:0006b960       ?PluginGetPanelItem@FileList@@QAEIHPAUPluginPanelItem@@@Z 0046c960 f   flplugin.obj
 0001:0006b990       ?PluginGetSelectedPanelItem@FileList@@QAEIHPAUPluginPanelItem@@@Z 0046c990 f   flplugin.obj
 0001:0006baa0       ?ProcessPluginCommand@FileList@@AAEXXZ 0046caa0 f   flplugin.obj
 0001:0006baf0       ?PluginClearSelection@FileList@@AAEXPAUPluginPanelItem@@H@Z 0046caf0 f   flplugin.obj
 0001:0006bbc0       ?CreatePluginItemList@FileList@@AAEXAAPAUPluginPanelItem@@AAHH@Z 0046cbc0 f   flplugin.obj
 0001:0006bd40       ?PluginHostGetFiles@FileList@@AAEXXZ 0046cd40 f   flplugin.obj
 0001:0006c070       ?ProcessOneHostFile@FileList@@AAEHH@Z 0046d070 f   flplugin.obj
 0001:0006c1b0       ?SetPluginModified@FileList@@UAEXXZ 0046d1b0 f   flplugin.obj
 0001:0006c1f0       ?PushPlugin@FileList@@AAEXPAXPB_W@Z 0046d1f0 f   flplugin.obj
 0001:0006c2f0       ?FileNameToPluginItem@FileList@@SAHPB_WPAUPluginPanelItem@@@Z 0046d2f0 f   flplugin.obj
 0001:0006c480       ?PutDizToPlugin@FileList@@AAEXPAV1@PAUPluginPanelItem@@HHHPAVDizList@@2@Z 0046d480 f   flplugin.obj
 0001:0006c910       ?PluginGetFiles@FileList@@AAEXPAPB_WH@Z 0046d910 f   flplugin.obj
 0001:0006cbe0       ?PluginToPluginFiles@FileList@@AAEXH@Z 0046dbe0 f   flplugin.obj
 0001:0006ce80       ?PluginPutFilesToAnother@FileList@@AAEHHPAVPanel@@@Z 0046de80 f   flplugin.obj
 0001:0006cfc0       ?ProcessHostFile@FileList@@QAEXXZ 0046dfc0 f   flplugin.obj
 0001:0006d1a0       ?SetPluginMode@FileList@@UAEXPAXPB_W_N@Z 0046e1a0 f   flplugin.obj
 0001:0006d290       ?PopPlugin@FileList@@AAEHH@Z 0046e290 f   flplugin.obj
 0001:0006d540       ?PluginDelete@FileList@@AAEXXZ 0046e540 f   flplugin.obj
 0001:0006d610       ?PluginPutFilesToNew@FileList@@AAEXXZ 0046e610 f   flplugin.obj
 0001:0006d710       ?GetShowColor@FileList@@AAEHHH@Z 0046e710 f   flshow.obj
 0001:0006d7a0       ?PrepareColumnWidths@FileList@@AAEHPAIPAH1AAHH@Z 0046e7a0 f   flshow.obj
 0001:0006da80       ?IsModeFullScreen@FileList@@SAHH@Z 0046ea80 f   flshow.obj
 0001:0006daa0       ?IsDizDisplayed@FileList@@UAEHXZ 0046eaa0 f   flshow.obj
 0001:0006dab0       ?IsColumnDisplayed@FileList@@UAEHH@Z 0046eab0 f   flshow.obj
 0001:0006db20       ?ConvertName@FileList@@AAEHPB_WAAVUnicodeString@@HHHK@Z 0046eb20 f   flshow.obj
 0001:0006dd00       ?PreparePanelView@FileList@@AAEHPAUPanelViewSettings@@@Z 0046ed00 f   flshow.obj
 0001:0006dd60       ?ShowSelectedSize@FileList@@AAEXXZ 0046ed60 f   flshow.obj
 0001:0006df50       ?ShowTotalSize@FileList@@AAEXAAUOpenPluginInfo@@@Z 0046ef50 f   flshow.obj
 0001:0006e300       ?PrepareViewSettings@FileList@@AAEXHPAUOpenPluginInfo@@@Z 0046f300 f   flshow.obj
 0001:0006e580       ?ShowList@FileList@@AAEXHH@Z 0046f580 f   flshow.obj
 0001:0006f240       ?ShowFileList@FileList@@AAEXH@Z 00470240 f   flshow.obj
 0001:0006fb50       ?DisplayObject@FileList@@EAEXXZ 00470b50 f   flshow.obj
 0001:0006fbc0       ?Clear@FileListItem@@QAEXXZ 00470bc0 f i flupdate.obj
 0001:0006fc60       ?UpdateIfRequired@FileList@@UAEXXZ 00470c60 f   flupdate.obj
 0001:0006fc90       ?ReadFileNamesMsg@@YAXPB_W@Z 00470c90 f   flupdate.obj
 0001:0006fd30       ?UpdateIfChanged@FileList@@UAEHH@Z 00470d30 f   flupdate.obj
 0001:0006fe20       ?CloseChangeNotification@FileList@@UAEXXZ 00470e20 f   flupdate.obj
 0001:0006fe80       ?ReadSortGroups@FileList@@AAEX_N@Z 00470e80 f   flupdate.obj
 0001:0006ff00       ?CreateChangeNotification@FileList@@QAEXH@Z 00470f00 f   flupdate.obj
 0001:0006ffd0       ?MoveSelection@FileList@@AAEXPAPAUFileListItem@@J0J@Z 00470fd0 f   flupdate.obj
 0001:000700a0       ??0FileListItem@@QAE@XZ    004710a0 f i flupdate.obj
 0001:000700d0       ?ReadDiz@FileList@@UAEXPAUPluginPanelItem@@HK@Z 004710d0 f   flupdate.obj
 0001:00070460       ?AddParentPoint@FileList@@AAEXPAUFileListItem@@JPAU_FILETIME@@VUnicodeString@@@Z 00471460 f   flupdate.obj
 0001:00070500       ?ReadFileNames@FileList@@AAEXHHH@Z 00471500 f   flupdate.obj
 0001:00071540       ?UpdatePlugin@FileList@@AAEXHH@Z 00472540 f   flupdate.obj
 0001:00071ce0       ?Update@FileList@@UAEXH@Z  00472ce0 f   flupdate.obj
 0001:00071ff0       ??1TSubstData@@QAE@XZ      00472ff0 f i fnparce.obj
 0001:000720c0       ?MakeListFile@Panel@@QAE_NAAVUnicodeString@@_NPB_W@Z 004730c0 f   fnparce.obj
 0001:00073730       ?SubstFileName@@YAHAAVUnicodeString@@PB_W1PAV1@222H1@Z 00474730 f   fnparce.obj
 0001:00073a30       ?Reset@BaseFormat@@AAEXXZ  00474a30 f   format.obj
 0001:00073a50       ??6BaseFormat@@QAEAAV0@ABVWidth@fmt@@@Z 00474a50 f   format.obj
 0001:00073a70       ??6BaseFormat@@QAEAAV0@ABVPrecision@fmt@@@Z 00474a70 f   format.obj
 0001:00073a90       ??6BaseFormat@@QAEAAV0@ABVFillChar@fmt@@@Z 00474a90 f   format.obj
 0001:00073ab0       ??6BaseFormat@@QAEAAV0@ABVLeftAlign@fmt@@@Z 00474ab0 f   format.obj
 0001:00073ac0       ?Commit@FormatScreen@@EAEXABVUnicodeString@@@Z 00474ac0 f   format.obj
 0001:00073ae0       ?Put@BaseFormat@@AAEXPB_WI@Z 00474ae0 f   format.obj
 0001:00073bd0       ??6BaseFormat@@QAEAAV0@_W@Z 00474bd0 f   format.obj
 0001:00073bf0       ??6BaseFormat@@QAEAAV0@_J@Z 00474bf0 f   format.obj
 0001:00073c40       ??6BaseFormat@@QAEAAV0@_K@Z 00474c40 f   format.obj
 0001:00073c90       ??6BaseFormat@@QAEAAV0@PB_W@Z 00474c90 f   format.obj
 0001:00073cd0       ??6BaseFormat@@QAEAAV0@AAVUnicodeString@@@Z 00474cd0 f   format.obj
 0001:00073cf0       ?SetCoords@FolderTree@@AAEXXZ 00474cf0 f   foldtree.obj
 0001:00073d70       ?OnChangeFocus@FolderTree@@UAEXH@Z 00474d70 f   foldtree.obj
 0001:00073d90       ?ResizeConsole@FolderTree@@UAEXXZ 00474d90 f   foldtree.obj
 0001:00073de0       ?SetScreenPosition@FolderTree@@UAEXXZ 00474de0 f   foldtree.obj
 0001:00073e10       ?InitKeyBar@FolderTree@@UAEXXZ 00474e10 f   foldtree.obj
 0001:00073ed0       ?GetTypeAndName@FolderTree@@UAEHAAVUnicodeString@@0@Z 00474ed0 f   foldtree.obj
 0001:00073f30       ?DrawEdit@FolderTree@@AAEXXZ 00474f30 f   foldtree.obj
 0001:00074040       ??0FolderTree@@QAE@AAVUnicodeString@@HHH@Z 00475040 f   foldtree.obj
 0001:000741f0       ?GetTypeName@FolderTree@@UAEPB_WXZ 004751f0 f i foldtree.obj
 0001:00074200       ?GetType@FolderTree@@UAEHXZ 00475200 f i foldtree.obj
 0001:00074210       ??1FolderTree@@UAE@XZ      00475210 f   foldtree.obj
 0001:000742e0       ?DisplayObject@FolderTree@@EAEXXZ 004752e0 f   foldtree.obj
 0001:000743b0       ?ProcessKey@FolderTree@@UAEHH@Z 004753b0 f   foldtree.obj
 0001:00074740       ?ProcessMouse@FolderTree@@UAEHPAU_MOUSE_EVENT_RECORD@@@Z 00475740 f   foldtree.obj
 0001:00074850       ??_GFolderTree@@UAEPAXI@Z  00475850 f i foldtree.obj
 0001:00074850       ??_EFolderTree@@UAEPAXI@Z  00475850 f i foldtree.obj
 0001:00074880       ??0Frame@@QAE@XZ           00475880 f   frame.obj
 0001:000748c0       ?GetTypeName@Frame@@UAEPB_WXZ 004758c0 f i frame.obj
 0001:000748d0       ?SetKeyBar@Frame@@QAEXPAVKeyBar@@@Z 004758d0 f   frame.obj
 0001:000748e0       ?UpdateKeyBar@Frame@@QAEXXZ 004758e0 f   frame.obj
 0001:00074900       ?IsTopFrame@Frame@@QAEHXZ  00475900 f   frame.obj
 0001:00074910       ?OnChangeFocus@Frame@@UAEXH@Z 00475910 f   frame.obj
 0001:00074970       ?Push@Frame@@QAEXPAV1@@Z   00475970 f   frame.obj
 0001:000749a0       ?GetType@FilePanels@@UAEHXZ 004759a0 f   filepanels.obj
 0001:000749a0       ?GetColumnsCount@Panel@@UAEHXZ 004759a0 f   infolist.obj
 0001:000749a0       ?FastHide@Frame@@UAEHXZ    004759a0 f   frame.obj
 0001:000749a0       ?GetSelCount@TreeList@@EAEHXZ 004759a0 f   treelist.obj
 0001:000749b0       ?DestroyAllModal@Frame@@QAEXXZ 004759b0 f   frame.obj
 0001:000749b0       ?OnDestroy@Frame@@UAEXXZ   004759b0 f   frame.obj
 0001:000749e0       ?RemoveModal@Frame@@QAE_NPAV1@@Z 004759e0 f   frame.obj
 0001:00074a30       ?ResizeConsole@Frame@@UAEXXZ 00475a30 f   frame.obj
 0001:00074a40       ?HasSaveScreen@Frame@@QAE_NXZ 00475a40 f   frame.obj
 0001:00074a60       ??1Frame@@UAE@XZ           00475a60 f   frame.obj
 0001:00074a90       ??_EFrame@@UAEPAXI@Z       00475a90 f i frame.obj
 0001:00074a90       ??_GFrame@@UAEPAXI@Z       00475a90 f i frame.obj
 0001:00074ad0       ?Reset@Grabber@@AAEXXZ     00475ad0 f   grabber.obj
 0001:00074b10       ?CopyGrabbedArea@Grabber@@AAEXHH@Z 00475b10 f   grabber.obj
 0001:00074f80       ?DisplayObject@Grabber@@EAEXXZ 00475f80 f   grabber.obj
 0001:00075230       ?ProcessKey@Grabber@@EAEHH@Z 00476230 f   grabber.obj
 0001:00075a40       ?ProcessMouse@Grabber@@EAEHPAU_MOUSE_EVENT_RECORD@@@Z 00476a40 f   grabber.obj
 0001:00075b70       ??_GModal@@UAEPAXI@Z       00476b70 f i grabber.obj
 0001:00075b70       ??_EModal@@UAEPAXI@Z       00476b70 f i grabber.obj
 0001:00075bc0       ??0Grabber@@QAE@XZ         00476bc0 f   grabber.obj
 0001:00075d10       ?RunGraber@@YA_NXZ         00476d10 f   grabber.obj
 0001:00075da0       ??_GGrabber@@UAEPAXI@Z     00476da0 f i grabber.obj
 0001:00075da0       ??_EGrabber@@UAEPAXI@Z     00476da0 f i grabber.obj
 0001:00075e00       ?Hide@Help@@UAEXXZ         00476e00 f   help.obj
 0001:00075e10       ?CorrectPosition@Help@@AAEXXZ 00476e10 f   help.obj
 0001:00075f00       ?SetScreenPosition@Help@@UAEXXZ 00476f00 f   help.obj
 0001:00075f70       ?InitKeyBar@Help@@UAEXXZ   00476f70 f   help.obj
 0001:00076050       ?OnChangeFocus@Help@@UAEXH@Z 00477050 f   help.obj
 0001:00076070       ?FastHide@Help@@UAEHXZ     00477070 f   help.obj
 0001:00076080       ?GetTypeAndName@Help@@UAEHAAVUnicodeString@@0@Z 00477080 f   help.obj
 0001:000760e0       ?setSize@?$TArray@VHelpRecord@@@@QAE_NI@Z 004770e0 f i help.obj
 0001:000761f0       ?OutString@Help@@AAEXPB_W@Z 004771f0 f   help.obj
 0001:000765f0       ?StringLen@Help@@AAEHPB_W@Z 004775f0 f   help.obj
 0001:000766e0       ?VMProcess@Help@@UAE_JHPAX_J@Z 004776e0 f   help.obj
 0001:00076750       ?MkTopic@Help@@SAAAVUnicodeString@@HPB_WAAV2@@Z 00477750 f   help.obj
 0001:00076c00       ?Free@?$TArray@VHelpRecord@@@@QAEXXZ 00477c00 f i help.obj
 0001:00076c60       ?setItem@?$TArray@VHelpRecord@@@@QAEPAVHelpRecord@@IABV2@@Z 00477c60 f i help.obj
 0001:00076d10       ?CmpItems@?$TArray@VHelpRecord@@@@CAHPAPBVHelpRecord@@0@Z 00477d10 f i help.obj
 0001:00076d80       ??0ListNode@CallBackStack@@QAE@PBUStackHelpData@@PAU01@@Z 00477d80 f i help.obj
 0001:00076e00       ??1ListNode@CallBackStack@@QAE@XZ 00477e00 f i help.obj
 0001:00076e80       ??1StackHelpData@@QAE@XZ   00477e80 f i help.obj
 0001:00076f00       ?DrawWindowFrame@Help@@AAEXXZ 00477f00 f   help.obj
 0001:00077070       ?Push@CallBackStack@@QAEXPBUStackHelpData@@@Z 00478070 f   help.obj
 0001:000770b0       ?AddLine@Help@@AAEXPB_W@Z  004780b0 f   help.obj
 0001:000771c0       ?FastShow@Help@@AAEXXZ     004781c0 f   help.obj
 0001:00077360       ?ProcessMouse@Help@@UAEHPAU_MOUSE_EVENT_RECORD@@@Z 00478360 f   help.obj
 0001:00077700       ?MoveToReference@Help@@AAEXHH@Z 00478700 f   help.obj
 0001:00077960       ?ReadDocumentsHelp@Help@@AAEXH@Z 00478960 f   help.obj
 0001:00077c80       ?Pop@CallBackStack@@QAEHPAUStackHelpData@@@Z 00478c80 f   help.obj
 0001:00077d10       ?ReadHelp@Help@@AAEHPB_W@Z 00478d10 f   help.obj
 0001:00078d80       ?DisplayObject@Help@@EAEXXZ 00479d80 f   help.obj
 0001:00078ea0       ?JumpTopic@Help@@AAEHPB_W@Z 00479ea0 f   help.obj
 0001:00079510       ?ResizeConsole@Help@@UAEXXZ 0047a510 f   help.obj
 0001:00079620       ?ClearStack@CallBackStack@@QAEXXZ 0047a620 f   help.obj
 0001:00079660       ??0Help@@QAE@PB_W0K@Z      0047a660 f   help.obj
 0001:000799f0       ?GetTypeName@Help@@UAEPB_WXZ 0047a9f0 f i help.obj
 0001:00079a00       ?GetType@Help@@UAEHXZ      0047aa00 f i help.obj
 0001:00079a10       ?ProcessKey@Help@@UAEHH@Z  0047aa10 f   help.obj
 0001:0007a1b0       ??1Help@@UAE@XZ            0047b1b0 f   help.obj
 0001:0007a2e0       ??_EHelp@@UAEPAXI@Z        0047b2e0 f i help.obj
 0001:0007a2e0       ??_GHelp@@UAEPAXI@Z        0047b2e0 f i help.obj
 0001:0007a310       ?ApplyBlackOnBlackColors@@YAXPAUHighlightDataColor@@@Z 0047b310 f   hilight.obj
 0001:0007a3c0       ?ApplyColors@@YAXPAUHighlightDataColor@@0@Z 0047b3c0 f   hilight.obj
 0001:0007a520       ?ApplyFinalColors@@YAXPAUHighlightDataColor@@@Z 0047b520 f   hilight.obj
 0001:0007a700       ?UpdateCurrentTime@HighlightFiles@@QAEXXZ 0047b700 f   hilight.obj
 0001:0007a740       ?MenuPosToRealPos@HighlightFiles@@AAEHHPAPAH_N@Z 0047b740 f   hilight.obj
 0001:0007a800       ?SaveFilterToReg@@YAXPAVFileFilterParams@@PB_W_N@Z 0047b800 f   hilight.obj
 0001:0007aa40       ?GetHiColor@HighlightFiles@@QAEXPAPAUFileListItem@@H_N@Z 0047ba40 f   hilight.obj
 0001:0007ab40       ?GetGroup@HighlightFiles@@QAEHPBUFileListItem@@@Z 0047bb40 f   hilight.obj
 0001:0007abf0       ?ProcessGroups@HighlightFiles@@AAEXXZ 0047bbf0 f   hilight.obj
 0001:0007acf0       ?LoadFilterFromReg@@YAXPAVFileFilterParams@@PB_W1H_N@Z 0047bcf0 f   hilight.obj
 0001:0007afd0       ?SaveHiData@HighlightFiles@@QAEXXZ 0047bfd0 f   hilight.obj
 0001:0007b340       ?SetHighlighting@@YAXXZ    0047c340 f   hilight.obj
 0001:0007b540       ?FillMenu@HighlightFiles@@AAEXPAVVMenu@@H@Z 0047c540 f   hilight.obj
 0001:0007b740       ?ClearData@HighlightFiles@@AAEXXZ 0047c740 f   hilight.obj
 0001:0007b760       ?InitHighlightFiles@HighlightFiles@@AAEXXZ 0047c760 f   hilight.obj
 0001:0007ba10       ??1HighlightFiles@@QAE@XZ  0047ca10 f   hilight.obj
 0001:0007ba30       ?HiEdit@HighlightFiles@@QAEXH@Z 0047ca30 f   hilight.obj
 0001:0007c070       ??0HighlightFiles@@QAE@XZ  0047d070 f   hilight.obj
 0001:0007c0c0       ?SetAddMode@History@@QAEX_NH0@Z 0047d0c0 f   history.obj
 0001:0007c0e0       ?ReadLastItem@History@@SA_NPB_WAAVUnicodeString@@@Z 0047d0e0 f   history.obj
 0001:0007c1a0       ??0History@@QAE@W4enumHISTORYTYPE@@IPB_WPBH_N@Z 0047d1a0 f   history.obj
 0001:0007c230       ??1History@@QAE@XZ         0047d230 f   history.obj
 0001:0007c260       ?SaveHistory@History@@QAE_NXZ 0047d260 f   history.obj
 0001:0007c590       ?ReadHistory@History@@QAE_N_N@Z 0047d590 f   history.obj
 0001:0007ca00       ?GetPrev@History@@QAEXAAVUnicodeString@@@Z 0047da00 f   history.obj
 0001:0007ca60       ?GetNext@History@@QAEXAAVUnicodeString@@@Z 0047da60 f   history.obj
 0001:0007cab0       ?GetSimilar@History@@QAE_NAAVUnicodeString@@H_N@Z 0047dab0 f   history.obj
 0001:0007cbe0       ?GetAllSimilar@History@@QAE_NAAVVMenu@@PB_W@Z 0047dbe0 f   history.obj
 0001:0007cc90       ??0TNode@?$DList@UHistoryRecord@@@@QAE@PAUHistoryRecord@@@Z 0047dc90 f i history.obj
 0001:0007cd00       ?AddToHistoryLocal@History@@AAEXPB_W0H@Z 0047dd00 f   history.obj
 0001:0007cf00       ?ProcessMenu@History@@AAEHAAVUnicodeString@@PB_WAAVVMenu@@HAAHPAVDialog@@@Z 0047df00 f   history.obj
 0001:0007d940       ?AllocNode@?$DList@UHistoryRecord@@@@EAEPAUNode@CDList@@PAX@Z 0047e940 f i history.obj
 0001:0007d960       ?AddToHistory@History@@QAEXPB_WH0_N@Z 0047e960 f   history.obj
 0001:0007d9a0       ?Select@History@@QAEHPB_W0AAVUnicodeString@@AAH@Z 0047e9a0 f   history.obj
 0001:0007da40       ?Select@History@@QAEHAAVVMenu@@HPAVDialog@@AAVUnicodeString@@@Z 0047ea40 f   history.obj
 0001:0007da70       ?DeleteNode@?$DList@UHistoryRecord@@@@EAEXPAUNode@CDList@@@Z 0047ea70 f i history.obj
 0001:0007dab0       ?GetExitCode@HMenu@@QAEXAAH0@Z 0047eab0 f   hmenu.obj
 0001:0007dad0       ?ProcessSubMenu@HMenu@@AAEXPAUMenuDataEx@@HPB_WHHAAH@Z 0047ead0 f   hmenu.obj
 0001:0007dd10       ?Process@HMenu@@UAEXXZ     0047ed10 f   hmenu.obj
 0001:0007dd20       ?ResizeConsole@HMenu@@UAEXXZ 0047ed20 f   hmenu.obj
 0001:0007dd80       ?CheckHighlights@HMenu@@AAEHGH@Z 0047ed80 f   hmenu.obj
 0001:0007dea0       ??0HMenu@@QAE@PAUHMenuData@@H@Z 0047eea0 f   hmenu.obj
 0001:0007df10       ?ShowMenu@HMenu@@AAEXXZ    0047ef10 f   hmenu.obj
 0001:0007e060       ?VMProcess@HMenu@@UAE_JHPAX_J@Z 0047f060 f   hmenu.obj
 0001:0007e400       ?ProcessKey@HMenu@@UAEHH@Z 0047f400 f   hmenu.obj
 0001:0007e910       ?ProcessMouse@HMenu@@UAEHPAU_MOUSE_EVENT_RECORD@@@Z 0047f910 f   hmenu.obj
 0001:0007ea40       ??1HMenu@@UAE@XZ           0047fa40 f   hmenu.obj
 0001:0007eaa0       ??_EHMenu@@UAEPAXI@Z       0047faa0 f i hmenu.obj
 0001:0007eaa0       ??_GHMenu@@UAEPAXI@Z       0047faa0 f i hmenu.obj
 0001:0007ead0       ?DisplayObject@HMenu@@EAEXXZ 0047fad0 f   hmenu.obj
 0001:0007eb10       ?CheckChild@@YA_NK@Z       0047fb10 f   hotplug.obj
 0001:0007ebf0       ?IsHotPlugDevice@@YA_NK@Z  0047fbf0 f   hotplug.obj
 0001:0007eed0       ?DriveMaskFromVolumeName@@YAKPB_W@Z 0047fed0 f   hotplug.obj
 0001:0007efd0       ?GetDriveMaskFromMountPoints@@YAKK@Z 0047ffd0 f   hotplug.obj
 0001:0007f1c0       ?GetRelationDrivesMask@@YAKK@Z 004801c0 f   hotplug.obj
 0001:0007f2a0       ?GetDriveMaskForDeviceInternal@@YAKK@Z 004802a0 f   hotplug.obj
 0001:0007f320       ?GetHotplugDriveDeviceInfoInternal@@YAHKPAPAUDeviceInfo@@H@Z 00480320 f   hotplug.obj
 0001:0007fa10       ?ShowHotplugDevice@@YAXXZ  00480a10 f   hotplug.obj
 0001:0007fcb0       ?ProcessRemoveHotplugDevice@@YAH_WK@Z 00480cb0 f   hotplug.obj
 0001:0007fd70       ??0ImportedFunctions@@QAE@XZ 00480d70 f   imports.obj
 0001:0007ff00       ?ProcessKey@DizViewer@@UAEHH@Z 00480f00 f i infolist.obj
 0001:0007ff20       ?ProcessMouse@DizViewer@@UAEHPAU_MOUSE_EVENT_RECORD@@@Z 00480f20 f i infolist.obj
 0001:0007ff40       ??_EDizViewer@@UAEPAXI@Z   00480f40 f i infolist.obj
 0001:0007ff40       ??_GDizViewer@@UAEPAXI@Z   00480f40 f i infolist.obj
 0001:0007ff70       ?Update@InfoList@@UAEXH@Z  00480f70 f   infolist.obj
 0001:0007ffa0       ?GetTitle@InfoList@@UAEAAVUnicodeString@@AAV2@HH@Z 00480fa0 f   infolist.obj
 0001:0007ffe0       ?VMProcess@InfoList@@UAE_JHPAX_J@Z 00480fe0 f   infolist.obj
 0001:00080030       ?ProcessMouse@InfoList@@UAEHPAU_MOUSE_EVENT_RECORD@@@Z 00481030 f   infolist.obj
 0001:00080130       ?CloseFile@InfoList@@UAEXXZ 00481130 f   infolist.obj
 0001:000801c0       ?PrintText@InfoList@@AAEXH@Z 004811c0 f   infolist.obj
 0001:00080210       ?SetFocus@InfoList@@UAEXXZ 00481210 f   infolist.obj
 0001:00080250       ?KillFocus@InfoList@@UAEXXZ 00481250 f   infolist.obj
 0001:00080290       ?GetCurName@InfoList@@UAEHAAVUnicodeString@@0@Z 00481290 f   infolist.obj
 0001:000802d0       ?DynamicUpdateKeyBar@InfoList@@AAEXXZ 004812d0 f   infolist.obj
 0001:00080450       ??0InfoList@@QAE@XZ        00481450 f   infolist.obj
 0001:000804c0       ?GetRealSelCount@Panel@@UAEHXZ 004814c0 f i infolist.obj
 0001:000804c0       ?GetSelCount@Panel@@UAEHXZ 004814c0 f i infolist.obj
 0001:000804c0       ?GetType@Frame@@UAEHXZ     004814c0 f i frame.obj
 0001:000804c0       ?IsDizDisplayed@Panel@@UAEHXZ 004814c0 f i infolist.obj
 0001:000804c0       ?GetSelectedFirstMode@Panel@@UAEHXZ 004814c0 f i infolist.obj
 0001:000804c0       ?WriteEvent@@YAHKPAU_EXCEPTION_POINTERS@@PAVPlugin@@PAXKKK@Z 004814c0 f i farexcpt.obj
 0001:000804c0       ?UpdateKeyBar@Panel@@UAEHXZ 004814c0 f i panel.obj
 0001:000804c0       ?GetCurrentPos@Panel@@UAEHXZ 004814c0 f i infolist.obj
 0001:000804c0       ?GetFileCount@Panel@@UAEJXZ 004814c0 f i infolist.obj
 0001:000804c0       ?IsFileModified@Frame@@UBEHXZ 004814c0 f i dialog.obj
 0001:000804d0       ?GetLastSelectedSize@Panel@@UAE_KXZ 004814d0 f i infolist.obj
 0001:000804e0       ?GetFileName@Panel@@UAEHAAVUnicodeString@@HAAK@Z 004814e0 f i infolist.obj
 0001:000804f0       ?GoToFile@Panel@@UAEHJ@Z   004814f0 f i infolist.obj
 0001:00080500       ?GoToFile@Panel@@UAEHPB_WH@Z 00481500 f i infolist.obj
 0001:00080510       ?FindNext@Panel@@UAEJHPB_W@Z 00481510 f i infolist.obj
 0001:00080510       ?FindFile@Panel@@UAEJPB_WH@Z 00481510 f i infolist.obj
 0001:00080520       ?TextWidth@?$DialogBuilderBase@UDialogItemEx@@@@MAEHABUDialogItemEx@@@Z 00481520 f i DlgBuilder.obj
 0001:00080520       ?FindFirst@Panel@@UAEJPB_W@Z 00481520 f i infolist.obj
 0001:00080530       ?MoveToMouse@Panel@@UAEXPAU_MOUSE_EVENT_RECORD@@@Z 00481530 f i infolist.obj
 0001:00080530       ?GetDizName@Panel@@UAEXAAVUnicodeString@@@Z 00481530 f i infolist.obj
 0001:00080530       ?SetReturnCurrentFile@Panel@@UAEXH@Z 00481530 f i infolist.obj
 0001:00080530       ?GetOpenPluginInfo@Panel@@UAEXPAUOpenPluginInfo@@@Z 00481530 f i infolist.obj
 0001:00080530       ?SetSelectedFirstMode@Panel@@UAEXH@Z 00481530 f i infolist.obj
 0001:00080530       ?IfGoHome@Panel@@UAEX_W@Z  00481530 f i infolist.obj
 0001:00080530       ?SortFileList@Panel@@UAEXH@Z 00481530 f i infolist.obj
 0001:00080530       ?Update@Panel@@UAEXH@Z     00481530 f i panel.obj
 0001:00080530       ?FreeCustomData@PluginA@@UAEXPA_W@Z 00481530 f i PluginA.obj
 0001:00080540       ?GetPrevViewMode@Panel@@UAEHXZ 00481540 f i infolist.obj
 0001:00080550       ?GetSysID@PluginA@@UAEKXZ  00481550 f i PluginA.obj
 0001:00080550       ?GetSysID@PluginW@@UAEKXZ  00481550 f i PluginW.obj
 0001:00080550       ?GetPrevSortMode@Panel@@UAEHXZ 00481550 f i infolist.obj
 0001:00080560       ?GetPrevSortOrder@Panel@@UAEHXZ 00481560 f i infolist.obj
 0001:00080570       ?GetPrevNumericSort@Panel@@UAEHXZ 00481570 f i infolist.obj
 0001:00080580       ?GetPrevCaseSensitiveSort@Panel@@UAEHXZ 00481580 f i infolist.obj
 0001:00080590       ?GetPrevDirectoriesFirst@Panel@@UAEHXZ 00481590 f i infolist.obj
 0001:000805a0       ?SetSortMode@Panel@@UAEXH@Z 004815a0 f i infolist.obj
 0001:000805a0       ?SetExitCode@Frame@@UAEXH@Z 004815a0 f i fileedit.obj
 0001:000805b0       ?FileInFilter@Panel@@UAE_NJ@Z 004815b0 f i infolist.obj
 0001:000805c0       ?CopyDiz@Panel@@UAEXPB_W000PAVDizList@@@Z 004815c0 f i infolist.obj
 0001:000805d0       ?IsFullScreen@FileList@@UAEHXZ 004815d0 f i flshow.obj
 0001:000805d0       ?IsFullScreen@Panel@@UAEHXZ 004815d0 f i infolist.obj
 0001:000805e0       ?SetPluginMode@Panel@@UAEXPAXPB_W_N@Z 004815e0 f i infolist.obj
 0001:000805e0       ?ReadDiz@Panel@@UAEXPAUPluginPanelItem@@HK@Z 004815e0 f i infolist.obj
 0001:000805f0       ??1InfoList@@UAE@XZ        004815f0 f   infolist.obj
 0001:00080650       ?ProcessKey@InfoList@@UAEHH@Z 00481650 f   infolist.obj
 0001:000809d0       ?PrintInfo@InfoList@@AAEXPB_W@Z 004819d0 f   infolist.obj
 0001:00080ad0       ?ShowPluginDescription@InfoList@@AAEXXZ 00481ad0 f   infolist.obj
 0001:00080d60       ?OpenDizFile@InfoList@@AAEHPB_WH@Z 00481d60 f   infolist.obj
 0001:00080ff0       ?UpdateKeyBar@InfoList@@UAEHXZ 00481ff0 f   infolist.obj
 0001:00081090       ??_GInfoList@@UAEPAXI@Z    00482090 f i infolist.obj
 0001:00081090       ??_EInfoList@@UAEPAXI@Z    00482090 f i infolist.obj
 0001:000810c0       ?ShowDirDescription@InfoList@@AAEXH@Z 004820c0 f   infolist.obj
 0001:000813d0       ?DisplayObject@InfoList@@EAEXXZ 004823d0 f   infolist.obj
 0001:000823b0       ?ChangeConsoleMode@@YAXH@Z 004833b0 f   interf.obj
 0001:000823f0       ?SaveConsoleWindowRect@@YAXXZ 004833f0 f   interf.obj
 0001:00082400       ?RestoreConsoleWindowRect@@YAXXZ 00483400 f   interf.obj
 0001:00082470       ?FlushInputBuffer@@YAXXZ   00483470 f   interf.obj
 0001:00082490       ?GenerateWINDOW_BUFFER_SIZE_EVENT@@YAXHH@Z 00483490 f   interf.obj
 0001:00082500       ?GetVideoMode@@YAXAAU_COORD@@@Z 00483500 f   interf.obj
 0001:000825a0       ?CtrlHandler@@YGHK@Z       004835a0 f   interf.obj
 0001:000826e0       ?GotoXY@@YAXHH@Z           004836e0 f   interf.obj
 0001:00082700       ?WhereX@@YAHXZ             00483700 f   interf.obj
 0001:00082710       ?WhereY@@YAHXZ             00483710 f   interf.obj
 0001:00082720       ?MoveCursor@@YAXHH@Z       00483720 f   interf.obj
 0001:00082740       ?GetCursorPos@@YAXAAF0@Z   00483740 f   interf.obj
 0001:00082760       ?SetInitialCursorType@@YAXXZ 00483760 f   interf.obj
 0001:00082780       ?GetCursorType@@YAXAA_NAAK@Z 00483780 f   interf.obj
 0001:000827a0       ?MoveRealCursor@@YAXHH@Z   004837a0 f   interf.obj
 0001:000827d0       ?GetRealCursorPos@@YAXAAF0@Z 004837d0 f   interf.obj
 0001:00082800       ?InitRecodeOutTable@@YAXXZ 00483800 f   interf.obj
 0001:00082a70       ?SetScreen@@YAXHHHH_WH@Z   00483a70 f   interf.obj
 0001:00082ae0       ?MakeShadow@@YAXHHHH@Z     00483ae0 f   interf.obj
 0001:00082b30       ?ChangeBlockColor@@YAXHHHHH@Z 00483b30 f   interf.obj
 0001:00082ba0       ?SetColor@@YAXH@Z          00483ba0 f   interf.obj
 0001:00082bc0       ?SetRealColor@@YAXH@Z      00483bc0 f   interf.obj
 0001:00082bf0       ?ClearScreen@@YAXH@Z       00483bf0 f   interf.obj
 0001:00082c60       ?GetColor@@YAHXZ           00483c60 f   interf.obj
 0001:00082c70       ?ScrollScreen@@YAXH@Z      00483c70 f   interf.obj
 0001:00082cc0       ?GetText@@YAXHHHHPAXH@Z    00483cc0 f   interf.obj
 0001:00082cf0       ?PutText@@YAXHHHHPBX@Z     00483cf0 f   interf.obj
 0001:00082d30       ?ScrollBarRequired@@YA_NI_K@Z 00483d30 f   interf.obj
 0001:00082d70       ?MakeSeparator@@YAPA_WHPA_WHPB_W@Z 00483d70 f   interf.obj
 0001:00082f00       ?HiStrlen@@YAHPB_W@Z       00483f00 f   interf.obj
 0001:00082f60       ?HiFindRealPos@@YAHPB_WHH@Z 00483f60 f   interf.obj
 0001:00082fc0       ?HiFindNextVisualPos@@YAHPB_WHH@Z 00483fc0 f   interf.obj
 0001:00083050       ?IsFullscreen@@YA_NXZ      00484050 f   interf.obj
 0001:00083080       ?CloseConsole@@YAXXZ       00484080 f   interf.obj
 0001:00083190       ?SetFarConsoleMode@@YAXH@Z 00484190 f   interf.obj
 0001:00083200       ?ChangeVideoMode@@YAXHH@Z  00484200 f   interf.obj
 0001:00083300       ?SetCursorType@@YAX_NK@Z   00484300 f   interf.obj
 0001:00083360       ?Text@@YAXPB_W@Z           00484360 f   interf.obj
 0001:00083420       ?Text@@YAXH@Z              00484420 f   interf.obj
 0001:00083440       ?VText@@YAXPB_W@Z          00484440 f   interf.obj
 0001:000834b0       ?mprintf@@YAXPB_WZZ        004844b0 f   interf.obj
 0001:000834f0       ?vmprintf@@YAXPB_WZZ       004844f0 f   interf.obj
 0001:00083530       ?BoxText@@YAXPB_WH@Z       00484530 f   interf.obj
 0001:00083560       ?Box@@YAXHHHHHH@Z          00484560 f   interf.obj
 0001:00083780       ?ScrollBarEx@@YA_NIII_K0@Z 00484780 f   interf.obj
 0001:00083980       ?ScrollBar@@YAXHHHKK@Z     00484980 f   interf.obj
 0001:00083a80       ?DrawLine@@YAXHHPB_W@Z     00484a80 f   interf.obj
 0001:00083b20       ?ChangeVideoMode@@YAXH@Z   00484b20 f   interf.obj
 0001:00083bb0       ?ShowTime@@YAXH@Z          00484bb0 f   interf.obj
 0001:00083d40       ?Text@@YAXHHHPB_W@Z        00484d40 f   interf.obj
 0001:00083d80       ?HiText@@YAXPB_WHH@Z       00484d80 f   interf.obj
 0001:00083fa0       ?BoxText@@YAX_W@Z          00484fa0 f   interf.obj
 0001:00083fc0       ?HiText2Str@@YAAAVUnicodeString@@AAV1@PB_W@Z 00484fc0 f   interf.obj
 0001:000840e0       ?InitConsole@@YAXH@Z       004850e0 f   interf.obj
 0001:000843c0       ?SetVideoMode@@YAXXZ       004853c0 f   interf.obj
 0001:00084450       ?SetOwner@KeyBar@@QAEXPAVScreenObject@@@Z 00485450 f   keybar.obj
 0001:00084460       ?SetAllRegGroup@KeyBar@@QAEXXZ 00485460 f   keybar.obj
 0001:000844a0       ?SetGroup@KeyBar@@QAEXHPBQB_WH@Z 004854a0 f   keybar.obj
 0001:00084500       ?Change@KeyBar@@QAEXHPB_WH@Z 00485500 f   keybar.obj
 0001:00084530       ?SetAllGroup@KeyBar@@QAEXHHH@Z 00485530 f   keybar.obj
 0001:000845b0       ?ProcessMouse@KeyBar@@UAEHPAU_MOUSE_EVENT_RECORD@@@Z 004855b0 f   keybar.obj
 0001:00084750       ?RedrawIfChanged@KeyBar@@QAEXXZ 00485750 f   keybar.obj
 0001:00084780       ?DisplayObject@KeyBar@@EAEXXZ 00485780 f   keybar.obj
 0001:000849e0       ?ProcessKey@KeyBar@@UAEHH@Z 004859e0 f   keybar.obj
 0001:00084a30       ??0KeyBar@@QAE@XZ          00485a30 f   keybar.obj
 0001:00084ae0       ?ReadRegGroup@KeyBar@@QAEXPB_W0@Z 00485ae0 f   keybar.obj
 0001:00084db0       ?KeyToKeyLayoutCompare@@YA_NHH@Z 00485db0 f   keyboard.obj
 0001:00084df0       ?KeyToKeyLayout@@YAHH@Z    00485df0 f   keyboard.obj
 0001:00084e20       ?SetFLockState@@YAHIH@Z    00485e20 f   keyboard.obj
 0001:00084f10       ?WriteInput@@YAHHK@Z       00485f10 f   keyboard.obj
 0001:00084fc0       ?ConfirmAbortOp@@YAHXZ     00485fc0 f   keyboard.obj
 0001:00084fe0       ?TranslateKeyToVK@@YAHHAAH0PAU_INPUT_RECORD@@@Z 00485fe0 f   keyboard.obj
 0001:000850f0       ?IsNavKey@@YAHK@Z          004860f0 f   keyboard.obj
 0001:00085130       ?IsShiftKey@@YAHK@Z        00486130 f   keyboard.obj
 0001:00085160       ?InitKeysArray@@YAXXZ      00486160 f   keyboard.obj
 0001:00085570       ?CalcKeyCode@@YAKPAU_INPUT_RECORD@@HPAH@Z 00486570 f   keyboard.obj
 0001:00087260       ?InputRecordToKey@@YGHPBU_INPUT_RECORD@@@Z 00488260 f   keyboard.obj
 0001:000872b0       ?ReloadEnvironment@@YAXXZ  004882b0 f   keyboard.obj
 0001:00087580       ?GetInputRecord@@YAKPAU_INPUT_RECORD@@_N11@Z 00488580 f   keyboard.obj
 0001:00088690       ?PeekInputRecord@@YAKPAU_INPUT_RECORD@@_N@Z 00489690 f   keyboard.obj
 0001:00088730       ?WaitKey@@YAKKK_N@Z        00489730 f   keyboard.obj
 0001:00088870       ?CheckForEscSilent@@YAHXZ  00489870 f   keyboard.obj
 0001:00088990       ?CheckForEsc@@YAHXZ        00489990 f   keyboard.obj
 0001:000889b0       ?KeyToText@@YGHHAAVUnicodeString@@@Z 004899b0 f   keyboard.obj
 0001:00088c00       ?IsMouseButtonPressed@@YAKXZ 00489c00 f   keyboard.obj
 0001:00088ca0       ?KeyNameToKey@@YGHPB_W@Z   00489ca0 f   keyboard.obj
 0001:00088f50       ?Free@Language@@AAEXXZ     00489f50 f   language.obj
 0001:00088fb0       ?Close@Language@@QAEXXZ    00489fb0 f   language.obj
 0001:00089030       ?ConvertString@Language@@AAEXPB_WAAVUnicodeString@@@Z 0048a030 f   language.obj
 0001:000891d0       ?GetLangParam@@YAHPAU_iobuf@@PB_WPAVUnicodeString@@2I@Z 0048a1d0 f   language.obj
 0001:000893c0       ?GetOptionsParam@@YAHPAU_iobuf@@PB_WAAVUnicodeString@@I@Z 0048a3c0 f   language.obj
 0001:00089580       ??0Language@@QAE@XZ        0048a580 f   language.obj
 0001:000895b0       ??1Language@@QAE@XZ        0048a5b0 f   language.obj
 0001:000895e0       ?CheckMsgId@Language@@ABE_NH@Z 0048a5e0 f   language.obj
 0001:00089740       ?GetMsg@Language@@QBEPB_WH@Z 0048a740 f   language.obj
 0001:000897a0       ?GetMsgA@Language@@QBEPBDH@Z 0048a7a0 f   language.obj
 0001:00089800       ?Select@@YAHHPAPAVVMenu@@@Z 0048a800 f   language.obj
 0001:00089d20       ?OpenLangFile@@YAPAU_iobuf@@PB_W00AAVUnicodeString@@AAIHPAV2@@Z 0048ad20 f   language.obj
 0001:00089fd0       ?Init@Language@@QAE_NPB_W_NH@Z 0048afd0 f   language.obj
 0001:0008a460       ?StrStr@@YAPB_WPB_W0@Z     0048b460 f   local.obj
 0001:0008a4c0       ?StrStrI@@YAPB_WPB_W0@Z    0048b4c0 f   local.obj
 0001:0008a560       ?RevStrStrI@@YAPB_WPB_W0@Z 0048b560 f   local.obj
 0001:0008a640       ?RevStrStr@@YAPB_WPB_W0@Z  0048b640 f   local.obj
 0001:0008a6e0       ?NumStrCmp@@YAHPB_WI0I_N@Z 0048b6e0 f   local.obj
 0001:0008a920       ?LocalUpperInit@@YAXXZ     0048b920 f   localOEM.obj
 0001:0008aa00       ?LocalIslower@@YGHI@Z      0048ba00 f   localOEM.obj
 0001:0008aa30       ?LocalIsupper@@YGHI@Z      0048ba30 f   localOEM.obj
 0001:0008aa60       ?LocalIsalpha@@YGHI@Z      0048ba60 f   localOEM.obj
 0001:0008aaa0       ?LocalIsalphanum@@YGHI@Z   0048baa0 f   localOEM.obj
 0001:0008aae0       ?LocalUpper@@YGII@Z        0048bae0 f   localOEM.obj
 0001:0008ab00       ?LocalUpperBuf@@YGXPADH@Z  0048bb00 f   localOEM.obj
 0001:0008ab30       ?LocalLower@@YGII@Z        0048bb30 f   localOEM.obj
 0001:0008ab50       ?LocalStrupr@@YGXPAD@Z     0048bb50 f   localOEM.obj
 0001:0008ab80       ?LocalStrlwr@@YGXPAD@Z     0048bb80 f   localOEM.obj
 0001:0008abb0       ?LocalStricmp@@YAHPBD0@Z   0048bbb0 f   localOEM.obj
 0001:0008ac10       ?LocalStrnicmp@@YAHPBD0H@Z 0048bc10 f   localOEM.obj
 0001:0008ac70       ?LStricmp@@YGHPBD0@Z       0048bc70 f   localOEM.obj
 0001:0008ac90       ?LStrnicmp@@YGHPBD0H@Z     0048bc90 f   localOEM.obj
 0001:0008ad20       ?InitLCIDSort@@YAXXZ       0048bd20 f   localOEM.obj
 0001:0008aea0       ?LocalLowerBuf@@YGXPADH@Z  0048bea0 f   localOEM.obj
 0001:0008aed0       ??0LockScreen@@QAE@XZ      0048bed0 f   lockscrn.obj
 0001:0008aef0       ??1LockScreen@@QAE@XZ      0048bef0 f   lockscrn.obj
 0001:0008af10       ??YTVar@@QAEAAV0@ABV0@@Z   0048bf10 f i macro.obj
 0001:0008af50       ??ZTVar@@QAEAAV0@ABV0@@Z   0048bf50 f i macro.obj
 0001:0008af90       ??XTVar@@QAEAAV0@ABV0@@Z   0048bf90 f i macro.obj
 0001:0008afd0       ??_0TVar@@QAEAAV0@ABV0@@Z  0048bfd0 f i macro.obj
 0001:0008b010       ??_4TVar@@QAEAAV0@ABV0@@Z  0048c010 f i macro.obj
 0001:0008b050       ??_5TVar@@QAEAAV0@ABV0@@Z  0048c050 f i macro.obj
 0001:0008b090       ??_6TVar@@QAEAAV0@ABV0@@Z  0048c090 f i macro.obj
 0001:0008b0d0       ??_2TVar@@QAEAAV0@ABV0@@Z  0048c0d0 f i macro.obj
 0001:0008b110       ??_3TVar@@QAEAAV0@ABV0@@Z  0048c110 f i macro.obj
 0001:0008b150       ?IsMenuArea@@YA_NH@Z       0048c150 f i macro.obj
 0001:0008b180       ?InitInternalLIBVars@KeyMacro@@AAEXXZ 0048c180 f   macro.obj
 0001:0008b250       ?ReleaseWORKBuffer@KeyMacro@@AAEXH@Z 0048c250 f   macro.obj
 0001:0008b590       ?eStackAsString@@YAPB_WH@Z 0048c590 f   macro.obj
 0001:0008b5b0       ?SetMacroConst@KeyMacro@@SAXPB_WVTVar@@@Z 0048c5b0 f   macro.obj
 0001:0008b5e0       ?GetMacroFunction@KeyMacro@@SAPBUTMacroFunction@@I@Z 0048c5e0 f   macro.obj
 0001:0008b610       ?GetCountMacroFunction@KeyMacro@@SAIXZ 0048c610 f   macro.obj
 0001:0008b620       ?PostNewMacro@KeyMacro@@QAEHPAUMacroRecord@@HH@Z 0048c620 f   macro.obj
 0001:0008b740       ?PushState@KeyMacro@@QAEH_N@Z 0048c740 f   macro.obj
 0001:0008b800       ?PopState@KeyMacro@@QAEHXZ 0048c800 f   macro.obj
 0001:0008b850       ?GetIndex@KeyMacro@@QAEHHH_N@Z 0048c850 f   macro.obj
 0001:0008b980       ?GetSubKey@KeyMacro@@SAPB_WH@Z 0048c980 f   macro.obj
 0001:0008b9a0       ?GetSubKey@KeyMacro@@SAHPB_W@Z 0048c9a0 f   macro.obj
 0001:0008ba00       ?CheckEditSelected@KeyMacro@@AAEHK@Z 0048ca00 f   macro.obj
 0001:0008bad0       ?CheckCurMacroFlags@KeyMacro@@QAEHK@Z 0048cad0 f   macro.obj
 0001:0008bb00       ?GetCurRecord@KeyMacro@@QAEHPAUMacroRecord@@PAH@Z 0048cb00 f   macro.obj
 0001:0008bbf0       ?Sort@KeyMacro@@AAEXXZ     0048cbf0 f   macro.obj
 0001:0008bc70       ?CheckWaitKeyFunc@KeyMacro@@QAE_NXZ 0048cc70 f   macro.obj
 0001:0008bcb0       ?SetOpCode@KeyMacro@@AAEKPAUMacroRecord@@HK@Z 0048ccb0 f   macro.obj
 0001:0008bce0       ?IsExecutingLastKey@KeyMacro@@QAEHXZ 0048cce0 f   macro.obj
 0001:0008bd00       ?checkMacroConst@@YA_NPB_W@Z 0048cd00 f   macro.obj
 0001:0008bd20       ?initMacroVarTable@@YAXH@Z 0048cd20 f   macro.obj
 0001:0008bd50       ?doneMacroVarTable@@YAXH@Z 0048cd50 f   macro.obj
 0001:0008bd80       ?GetMacroParseError@KeyMacro@@QAEHPAKPAU_COORD@@PAVUnicodeString@@@Z 0048cd80 f   macro.obj
 0001:0008bda0       ?GetMacroParseError@KeyMacro@@QAEHPAVUnicodeString@@000@Z 0048cda0 f   macro.obj
 0001:0008be90       ?KeyNameMacroToKey@@YGHPB_W@Z 0048ce90 f   macro.obj
 0001:0008bf00       ??0KeyMacro@@QAE@XZ        0048cf00 f   macro.obj
 0001:0008bf90       ?GetPlainText@KeyMacro@@QAE_NAAVUnicodeString@@@Z 0048cf90 f   macro.obj
 0001:0008c020       ?FARPseudoVariable@KeyMacro@@AAE?AVTVar@@KKAAK@Z 0048d020 f   macro.obj
 0001:0008d7b0       ?PeekKey@KeyMacro@@QAEHXZ  0048e7b0 f   macro.obj
 0001:0008d7e0       ?MkRegKeyName@KeyMacro@@AAEAAVUnicodeString@@HAAV2@@Z 0048e7e0 f   macro.obj
 0001:0008d8f0       ?MkTextSequence@KeyMacro@@SAPA_WPAKHPB_W@Z 0048e8f0 f   macro.obj
 0001:0008dad0       ?SaveMacros@KeyMacro@@QAEXH@Z 0048ead0 f   macro.obj
 0001:0008dcd0       ?ReadVarsConst@KeyMacro@@AAEHHAAVUnicodeString@@@Z 0048ecd0 f   macro.obj
 0001:0008e080       ?RegisterMacroFunction@KeyMacro@@SAPAUTMacroFunction@@PBU2@@Z 0048f080 f   macro.obj
 0001:0008e1b0       ?AssignMacroDlgProc@KeyMacro@@CGJPAXHHJ@Z 0048f1b0 f   macro.obj
 0001:0008e810       ?ParseMacroString@KeyMacro@@QAEHPAUMacroRecord@@PB_WH@Z 0048f810 f   macro.obj
 0001:0008ea90       ?GetMacroKeyInfo@KeyMacro@@SAH_NHHAAVUnicodeString@@1@Z 0048fa90 f   macro.obj
 0001:0008efe0       ?CheckFileFolder@KeyMacro@@AAEHPAVPanel@@KH@Z 0048ffe0 f   macro.obj
 0001:0008f0d0       ?CheckAll@KeyMacro@@AAEHHK@Z 004900d0 f   macro.obj
 0001:0008f270       ?Push@?$TStack@VTVar@@@@QAEPAVTVar@@ABV2@@Z 00490270 f i macro.obj
 0001:0008f2c0       ??1TreeItem@@QAE@XZ        004902c0 f i macro.obj
 0001:0008f2f0       ?RegisterMacroIntFunction@KeyMacro@@SAXXZ 004902f0 f   macro.obj
 0001:0008f490       ?ReadMacros@KeyMacro@@AAEHHAAVUnicodeString@@@Z 00490490 f   macro.obj
 0001:0008f940       ?RunStartMacro@KeyMacro@@QAEXXZ 00490940 f   macro.obj
 0001:0008fa40       ?AssignMacroKey@KeyMacro@@AAEKXZ 00490a40 f   macro.obj
 0001:0008fc90       ?ParamMacroDlgProc@KeyMacro@@CGJPAXHHJ@Z 00490c90 f   macro.obj
 0001:0008fda0       ?GetMacroSettings@KeyMacro@@AAEHHAAK@Z 00490da0 f   macro.obj
 0001:00090810       ?PostNewMacro@KeyMacro@@QAEHPB_WKKH@Z 00491810 f   macro.obj
 0001:000909c0       ?Free@?$TStack@VTVar@@@@QAEXXZ 004919c0 f i macro.obj
 0001:00090a00       ?Pop@TVMStack@@QAEABVTVar@@XZ 00491a00 f i macro.obj
 0001:00090a70       ?Pop@TVMStack@@QAEAAVTVar@@AAV2@@Z 00491a70 f i macro.obj
 0001:00090ad0       ?InitInternalVars@KeyMacro@@AAEXH@Z 00491ad0 f   macro.obj
 0001:00090b50       ?ProcessKey@KeyMacro@@QAEHH@Z 00491b50 f   macro.obj
 0001:000971a0       ?GetKey@KeyMacro@@QAEHXZ   004981a0 f   macro.obj
 0001:00099410       ?ReadMacroFunction@KeyMacro@@AAEHHAAVUnicodeString@@@Z 0049a410 f   macro.obj
 0001:000997c0       ??1KeyMacro@@QAE@XZ        0049a7c0 f   macro.obj
 0001:00099860       ?LoadMacros@KeyMacro@@QAEHHH@Z 0049a860 f   macro.obj
 0001:0009a0a0       ?MainProcessSEH@@YAHAAVUnicodeString@@000HH@Z 0049b0a0 f   main.obj
 0001:0009a150       _wmain                     0049b150 f   main.obj
 0001:0009aa30       ??0Manager@@QAE@XZ         0049ba30 f   manager.obj
 0001:0009aa90       ??1Manager@@QAE@XZ         0049ba90 f   manager.obj
 0001:0009aac0       ?InsertFrame@Manager@@QAEXPAVFrame@@H@Z 0049bac0 f   manager.obj
 0001:0009aad0       ?DeleteFrame@Manager@@QAEXPAVFrame@@@Z 0049bad0 f   manager.obj
 0001:0009ab20       ?GetFrameCountByType@Manager@@QAEHH@Z 0049bb20 f   manager.obj
 0001:0009ab80       ?ShowBackground@Manager@@QAEHXZ 0049bb80 f   manager.obj
 0001:0009aba0       ?ExecuteFrame@Manager@@QAEXPAVFrame@@@Z 0049bba0 f   manager.obj
 0001:0009abb0       ?HaveAnyFrame@Manager@@QAEHXZ 0049bbb0 f   manager.obj
 0001:0009abf0       ?SetLastInputRecord@Manager@@QAEXPAU_INPUT_RECORD@@@Z 0049bbf0 f   manager.obj
 0001:0009ac20       ?IsPanelsActive@Manager@@QAEHXZ 0049bc20 f   manager.obj
 0001:0009ac40       ??AManager@@QAEPAVFrame@@H@Z 0049bc40 f   manager.obj
 0001:0009ac70       ?IndexOfStack@Manager@@QAEHPAVFrame@@@Z 0049bc70 f   manager.obj
 0001:0009aca0       ?IndexOf@Manager@@QAEHPAVFrame@@@Z 0049bca0 f   manager.obj
 0001:0009ace0       ?DeactivateCommit@Manager@@AAEXXZ 0049bce0 f   manager.obj
 0001:0009ad60       ?ActivateCommit@Manager@@AAEXXZ 0049bd60 f   manager.obj
 0001:0009ade0       ?InsertCommit@Manager@@AAEXXZ 0049bde0 f   manager.obj
 0001:0009ae40       ?RefreshCommit@Manager@@AAEXXZ 0049be40 f   manager.obj
 0001:0009af30       ?ModalizeCommit@Manager@@AAEXXZ 0049bf30 f   manager.obj
 0001:0009af50       ?UnmodalizeCommit@Manager@@AAEXXZ 0049bf50 f   manager.obj
 0001:0009afa0       ?ResizeAllModal@Manager@@QAEXPAVFrame@@@Z 0049bfa0 f   manager.obj
 0001:0009afd0       ?InitKeyBar@Manager@@QAEXXZ 0049bfd0 f   manager.obj
 0001:0009b000       ?GetTopModal@Manager@@QAEPAVFrame@@XZ 0049c000 f   manager.obj
 0001:0009b020       ?DeleteFrame@Manager@@QAEXH@Z 0049c020 f   manager.obj
 0001:0009b090       ?ModalizeFrame@Manager@@QAEXPAVFrame@@H@Z 0049c090 f   manager.obj
 0001:0009b0c0       ?UnmodalizeFrame@Manager@@QAEXPAVFrame@@@Z 0049c0c0 f   manager.obj
 0001:0009b0e0       ?ActivateFrame@Manager@@QAEXPAVFrame@@@Z 0049c0e0 f   manager.obj
 0001:0009b140       ?ActivateFrame@Manager@@QAEXH@Z 0049c140 f   manager.obj
 0001:0009b170       ?DeactivateFrame@Manager@@QAEXPAVFrame@@H@Z 0049c170 f   manager.obj
 0001:0009b1e0       ?DeleteCommit@Manager@@AAEXXZ 0049c1e0 f   manager.obj
 0001:0009b4b0       ?CloseAll@Manager@@QAEXXZ  0049c4b0 f   manager.obj
 0001:0009b590       ?CountFramesWithName@Manager@@QAEHPB_WH@Z 0049c590 f   manager.obj
 0001:0009b650       ?FindFrameByFile@Manager@@QAEHHPB_W0@Z 0049c650 f   manager.obj
 0001:0009b8c0       ?PluginsMenu@Manager@@QAEXXZ 0049c8c0 f   manager.obj
 0001:0009b9f0       ?UpdateCommit@Manager@@AAEXXZ 0049c9f0 f   manager.obj
 0001:0009ba90       ?FrameMenu@Manager@@AAEPAVFrame@@XZ 0049ca90 f   manager.obj
 0001:0009bd80       ?Commit@Manager@@AAEHXZ    0049cd80 f   manager.obj
 0001:0009bea0       ?PluginCommit@Manager@@QAEHXZ 0049cea0 f   manager.obj
 0001:0009beb0       ?ExitAll@Manager@@QAEHXZ   0049ceb0 f   manager.obj
 0001:0009bfa0       ?IsAnyFrameModified@Manager@@QAEHH@Z 0049cfa0 f   manager.obj
 0001:0009c060       ?RefreshFrame@Manager@@QAEXPAVFrame@@@Z 0049d060 f   manager.obj
 0001:0009c0e0       ?ExitMainLoop@Manager@@QAEXH@Z 0049d0e0 f   manager.obj
 0001:0009c1c0       ?ImmediateHide@Manager@@QAEXXZ 0049d1c0 f   manager.obj
 0001:0009c320       ?ResizeAllFrame@Manager@@QAEXXZ 0049d320 f   manager.obj
 0001:0009c400       ?ProcessKey@Manager@@QAEHK@Z 0049d400 f   manager.obj
 0001:0009c990       ?ProcessMainLoop@Manager@@QAEXXZ 0049d990 f   manager.obj
 0001:0009cac0       ?ExecuteNonModal@Manager@@QAEXXZ 0049dac0 f   manager.obj
 0001:0009cb70       ?ExecuteModal@Manager@@QAEXPAVFrame@@@Z 0049db70 f   manager.obj
 0001:0009cbd0       ?EnterMainLoop@Manager@@QAEXXZ 0049dbd0 f   manager.obj
 0001:0009cc10       ?DisplayObject@MenuBar@@EAEXXZ 0049dc10 f   menubar.obj
 0001:0009cee0       ?MsgDlgProc@@YGJPAXHHJ@Z   0049dee0 f   message.obj
 0001:0009d040       ?GetMessagePosition@@YAXAAH000@Z 0049e040 f   message.obj
 0001:0009d070       ?GetErrorString@@YA_NAAVUnicodeString@@@Z 0049e070 f   message.obj
 0001:0009d150       ?SetMessageHelp@@YAXPB_W@Z 0049e150 f   message.obj
 0001:0009d190       ?Message@@YAHKHPB_WPBQB_WHH@Z 0049e190 f   message.obj
 0001:0009de40       ?Message@@YAHKHPB_W00000000000000H@Z 0049ee40 f   message.obj
 0001:0009dee0       ?Message@@YAHKHPB_W0000H@Z 0049eee0 f   message.obj
 0001:0009df30       ?Message@@YAHKHPB_W0000000H@Z 0049ef30 f   message.obj
 0001:0009df80       ?Message@@YAHKHPB_W0000000000H@Z 0049ef80 f   message.obj
 0001:0009dff0       ?AbortMessage@@YAHXZ       0049eff0 f   message.obj
 0001:0009e0b0       ?ToPercent@@YAHKK@Z        0049f0b0 f   mix.obj
 0001:0009e100       ?ToPercent64@@YAH_K0@Z     0049f100 f   mix.obj
 0001:0009e190       ?FarMkTempEx@@YAAAVUnicodeString@@AAV1@PB_WH1@Z 0049f190 f   mix.obj
 0001:0009e2c0       _FarMkTemp@12              0049f2c0 f   mix.obj
 0001:0009e340       _FarRecursiveSearch@20     0049f340 f   mix.obj
 0001:0009e4a0       ?MkDirDlgProc@@YGJPAXHHJ@Z 0049f4a0 f   mkdir.obj
 0001:0009e620       ?ShellMakeDir@@YAXPAVPanel@@@Z 0049f620 f   mkdir.obj
 0001:0009ef00       ?ReadInput@Modal@@UAEHPAU_INPUT_RECORD@@@Z 0049ff00 f   modal.obj
 0001:0009efb0       ?WriteInput@Modal@@QAEXH@Z 0049ffb0 f   modal.obj
 0001:0009efc0       ?ProcessInput@Modal@@QAEXXZ 0049ffc0 f   modal.obj
 0001:0009efe0       ?Done@Modal@@QAEHXZ        0049ffe0 f   modal.obj
 0001:0009eff0       ?ClearDone@Modal@@QAEXXZ   0049fff0 f   modal.obj
 0001:0009f000       ?GetExitCode@Modal@@QAEHXZ 004a0000 f   modal.obj
 0001:0009f010       ?SetExitCode@Modal@@UAEXH@Z 004a0010 f   modal.obj
 0001:0009f030       ?Process@Modal@@UAEXXZ     004a0030 f   modal.obj
 0001:0009f080       ?SetHelp@Modal@@QAEXPB_W@Z 004a0080 f   modal.obj
 0001:0009f0d0       ?ShowHelp@Modal@@QAEXXZ    004a00d0 f   modal.obj
 0001:0009f110       ??0Modal@@QAE@XZ           004a0110 f   modal.obj
 0001:0009f140       ?AddName@NamesList@@QAEXPB_W0@Z 004a0140 f   namelist.obj
 0001:0009f1d0       ?MoveData@NamesList@@QAEXAAV1@@Z 004a01d0 f   namelist.obj
 0001:0009f220       ?GetCurDir@NamesList@@QAEXAAVUnicodeString@@@Z 004a0220 f   namelist.obj
 0001:0009f240       ?SetCurDir@NamesList@@QAEXPB_W@Z 004a0240 f   namelist.obj
 0001:0009f2c0       ??0NamesList@@QAE@XZ       004a02c0 f   namelist.obj
 0001:0009f300       ??1NamesList@@QAE@XZ       004a0300 f   namelist.obj
 0001:0009f330       ?GetNextName@NamesList@@QAE_NAAVUnicodeString@@0@Z 004a0330 f   namelist.obj
 0001:0009f380       ?GetPrevName@NamesList@@QAE_NAAVUnicodeString@@0@Z 004a0380 f   namelist.obj
 0001:0009f3d0       ?SetCurName@NamesList@@QAEXPB_W@Z 004a03d0 f   namelist.obj
 0001:0009f440       ?AllocNode@?$DList@UOneName@NamesList@@@@EAEPAUNode@CDList@@PAX@Z 004a0440 f i namelist.obj
 0001:0009f4a0       ?DeleteNode@?$DList@UOneName@NamesList@@@@EAEXPAUNode@CDList@@@Z 004a04a0 f i namelist.obj
 0001:0009f4f0       ?GetStoredUserName@@YAX_WAAVUnicodeString@@@Z 004a04f0 f   network.obj
 0001:0009f570       ?AddSavedNetworkDisks@@YAXAAK0@Z 004a0570 f   network.obj
 0001:0009f6c0       ?CurPath2ComputerName@@YAAAVUnicodeString@@PB_WAAV1@@Z 004a06c0 f   network.obj
 0001:0009f7d0       ?DriveLocalToRemoteName@@YAAAVUnicodeString@@H_WAAV1@@Z 004a07d0 f   network.obj
 0001:0009f8b0       ?ConnectToNetworkDrive@@YAXPB_W@Z 004a08b0 f   network.obj
 0001:0009fa80       ?SetLeftRightMenuChecks@@YAXPAUMenuDataEx@@_N@Z 004a0a80 f   options.obj
 0001:0009fb60       ?ShellOptions@@YAXHPAU_MOUSE_EVENT_RECORD@@@Z 004a0b60 f   options.obj
 0001:000a1410       ?FarColorToReal@@YAEH@Z    004a2410 f   palette.obj
 0001:000a1440       ?SetViewMode@Panel@@UAEXH@Z 004a2440 f   panel.obj
 0001:000a1450       ?ChDiskDlgProc@@YGJPAXHHJ@Z 004a2450 f   panel.obj
 0001:000a14a0       ?FastFindProcessName@Panel@@AAEXPAVEdit@@PB_WAAVUnicodeString@@2@Z 004a24a0 f   panel.obj
 0001:000a1640       ?VMProcess@Panel@@UAE_JHPAX_J@Z 004a2640 f   panel.obj
 0001:000a1640       ?VMProcess@ScreenObject@@UAE_JHPAX_J@Z 004a2640 f   fileedit.obj
 0001:000a1680       ?FastFindShow@Panel@@AAEXHH@Z 004a2680 f   panel.obj
 0001:000a1710       ?SetFocus@Panel@@UAEXXZ    004a2710 f   panel.obj
 0001:000a17a0       ?KillFocus@Panel@@UAEXXZ   004a27a0 f   panel.obj
 0001:000a17c0       ?IsDragging@Panel@@IAEHXZ  004a27c0 f   panel.obj
 0001:000a17d0       ?EndDrag@Panel@@SAXXZ      004a27d0 f   panel.obj
 0001:000a1810       ?GetCurDir@Panel@@UAEHAAVUnicodeString@@@Z 004a2810 f   panel.obj
 0001:000a1830       ?SetCurDir@Panel@@UAEHPB_WH@Z 004a2830 f   panel.obj
 0001:000a18c0       ?InitCurDir@Panel@@QAEXPB_W@Z 004a28c0 f   panel.obj
 0001:000a1940       ?Hide@Panel@@UAEXXZ        004a2940 f   panel.obj
 0001:000a19b0       ?DrawSeparator@Panel@@IAEXH@Z 004a29b0 f   panel.obj
 0001:000a19f0       ?GetCurBaseName@Panel@@UAEHAAVUnicodeString@@0@Z 004a29f0 f   panel.obj
 0001:000a19f0       ?GetCurName@Panel@@UAEHAAVUnicodeString@@0@Z 004a29f0 f   panel.obj
 0001:000a1a10       ?NeedUpdatePanel@Panel@@QAEHPAV1@@Z 004a2a10 f   panel.obj
 0001:000a1a70       ??4MenuItemEx@@QAEABU0@ABU0@@Z 004a2a70 f i panel.obj
 0001:000a1ad0       ?RemoveHotplugDevice@Panel@@AAEXPAUPanelMenuItem@@AAVVMenu@@@Z 004a2ad0 f   panel.obj
 0001:000a1cd0       ?FastFind@Panel@@IAEXH@Z   004a2cd0 f   panel.obj
 0001:000a23b0       ?DragMessage@Panel@@AAEXHHH@Z 004a33b0 f   panel.obj
 0001:000a2630       ?ShowScreensCount@Panel@@IAEXXZ 004a3630 f   panel.obj
 0001:000a27b0       ?SetTitle@Panel@@UAEXXZ    004a37b0 f   panel.obj
 0001:000a28b0       ?GetTitle@Panel@@UAEAAVUnicodeString@@AAV2@HH@Z 004a38b0 f   panel.obj
 0001:000a3000       ?SaveShortcutFolder@Panel@@QAE_NH@Z 004a4000 f   panel.obj
 0001:000a3250       ?ExecShortcutFolder@Panel@@QAE_NH@Z 004a4250 f   panel.obj
 0001:000a3760       ?CmpItems@?$TArray@VChDiskPluginItem@@@@CAHPAPBVChDiskPluginItem@@0@Z 004a4760 f i panel.obj
 0001:000a37f0       ??0Panel@@QAE@XZ           004a47f0 f   panel.obj
 0001:000a3870       ??1Panel@@UAE@XZ           004a4870 f   panel.obj
 0001:000a38f0       ?ChangeDirToCurrent@Panel@@UAEXXZ 004a48f0 f   panel.obj
 0001:000a3950       ?ProcessDelDisk@Panel@@AAEH_WHPAVVMenu@@@Z 004a4950 f   panel.obj
 0001:000a3f00       ?PanelProcessMouse@Panel@@QAEHPAU_MOUSE_EVENT_RECORD@@AAH@Z 004a4f00 f   panel.obj
 0001:000a4220       ?Show@Panel@@UAEXXZ        004a5220 f   panel.obj
 0001:000a42d0       ??_EPanel@@UAEPAXI@Z       004a52d0 f i panel.obj
 0001:000a42d0       ??_GPanel@@UAEPAXI@Z       004a52d0 f i panel.obj
 0001:000a4300       ?DisconnectDrive@Panel@@AAEHPAUPanelMenuItem@@AAVVMenu@@@Z 004a5300 f   panel.obj
 0001:000a4560       ?deleteItem@?$TArray@VChDiskPluginItem@@@@AAE_NI@Z 004a5560 f i panel.obj
 0001:000a45c0       ?setSize@?$TArray@VChDiskPluginItem@@@@QAE_NI@Z 004a55c0 f i panel.obj
 0001:000a46e0       ?Free@?$TArray@VChDiskPluginItem@@@@QAEXXZ 004a56e0 f i panel.obj
 0001:000a4750       ?setItem@?$TArray@VChDiskPluginItem@@@@QAEPAVChDiskPluginItem@@IABV2@@Z 004a5750 f i panel.obj
 0001:000a4810       ?Pack@?$TArray@VChDiskPluginItem@@@@QAE_NXZ 004a5810 f i panel.obj
 0001:000a4f20       ?ChangeDiskMenu@Panel@@AAEHHH@Z 004a5f20 f   panel.obj
 0001:000a6cb0       ?ChangeDisk@Panel@@QAEXXZ  004a7cb0 f   panel.obj
 0001:000a6d10       ?SetCurPath@Panel@@QAEHXZ  004a7d10 f   panel.obj
 0001:000a6ff0       ?SetPluginCommand@Panel@@QAEHHHJ@Z 004a7ff0 f   panel.obj
 0001:000a76b0       ?ShellUpdatePanels@@YAXPAVPanel@@H@Z 004a86b0 f   panelmix.obj
 0001:000a77c0       ?CheckUpdateAnotherPanel@@YAHPAVPanel@@PB_W@Z 004a87c0 f   panelmix.obj
 0001:000a7900       ?_MakePath1@@YAHKAAVUnicodeString@@PB_WH@Z 004a8900 f   panelmix.obj
 0001:000a7c00       ?TextToViewSettings@@YAXPB_W0PAIPAH2AAH@Z 004a8c00 f   panelmix.obj
 0001:000a8030       ?ViewSettingsToText@@YAXPAIPAH1HAAVUnicodeString@@2@Z 004a9030 f   panelmix.obj
 0001:000a8310       ?FormatStr_DateTime@@YA?BVUnicodeString@@PBU_FILETIME@@HKH@Z 004a9310 f   panelmix.obj
 0001:000a85a0       ?FormatStr_Size@@YA?BVUnicodeString@@_J00V1@KKKHKH@Z 004a95a0 f   panelmix.obj
 0001:000a87b0       ?FormatStr_Attribute@@YA?BVUnicodeString@@KH@Z 004a97b0 f   panelmix.obj
 0001:000a8950       ?IsLocalPath@@YA_NPB_W@Z   004a9950 f   pathmix.obj
 0001:000a8980       ?IsLocalRootPath@@YA_NPB_W@Z 004a9980 f   pathmix.obj
 0001:000a89c0       ?HasPathPrefix@@YA_NPB_W@Z 004a99c0 f   pathmix.obj
 0001:000a8a00       ?IsLocalPrefixPath@@YA_NPB_W@Z 004a9a00 f   pathmix.obj
 0001:000a8a60       ?IsLocalPrefixRootPath@@YA_NPB_W@Z 004a9a60 f   pathmix.obj
 0001:000a8ac0       ?IsLocalVolumePath@@YA_NPB_W@Z 004a9ac0 f   pathmix.obj
 0001:000a8b20       ?IsLocalVolumeRootPath@@YA_NPB_W@Z 004a9b20 f   pathmix.obj
 0001:000a8b60       ?TestParentFolderName@@YA_NPB_W@Z 004a9b60 f   pathmix.obj
 0001:000a8ba0       ?PointToName@@YAPB_WPB_W0@Z 004a9ba0 f   pathmix.obj
 0001:000a8c10       ?PointToFolderNameIfFolder@@YGPB_WPB_W@Z 004a9c10 f   pathmix.obj
 0001:000a8c70       ?PointToExt@@YAPB_WPB_W0@Z 004a9c70 f   pathmix.obj
 0001:000a8ce0       ?CutToNameUNC@@YAAAVUnicodeString@@AAV1@@Z 004a9ce0 f   pathmix.obj
 0001:000a8d90       ?CutToFolderNameIfFolder@@YAAAVUnicodeString@@AAV1@@Z 004a9d90 f   pathmix.obj
 0001:000a8e10       ?PointToNameUNC@@YAPB_WPB_W@Z 004a9e10 f   pathmix.obj
 0001:000a8eb0       ?FirstSlash@@YAPB_WPB_W@Z  004a9eb0 f   pathmix.obj
 0001:000a8ee0       ?LastSlash@@YAPB_WPB_W@Z   004a9ee0 f   pathmix.obj
 0001:000a8f40       ?IsNetworkPath@@YA_NPB_W@Z 004a9f40 f   pathmix.obj
 0001:000a8fc0       ?IsNetworkServerPath@@YA_NPB_W@Z 004a9fc0 f   pathmix.obj
 0001:000a9040       ?PathCanHoldRegularFile@@YA_NPB_W@Z 004aa040 f   pathmix.obj
 0001:000a90a0       ?IsPluginPrefixPath@@YA_NPB_W@Z 004aa0a0 f   pathmix.obj
 0001:000a90f0       ?PointToName@@YGPB_WPB_W@Z 004aa0f0 f   pathmix.obj
 0001:000a9110       ?PointToName@@YAPB_WAAVUnicodeString@@@Z 004aa110 f   pathmix.obj
 0001:000a9130       ?PointToExt@@YAPB_WPB_W@Z  004aa130 f   pathmix.obj
 0001:000a9160       ?PointToExt@@YAPB_WAAVUnicodeString@@@Z 004aa160 f   pathmix.obj
 0001:000a9180       ?AddEndSlash@@YAHPA_W_W@Z  004aa180 f   pathmix.obj
 0001:000a9250       ?AddEndSlash@@YGHPA_W@Z    004aa250 f   pathmix.obj
 0001:000a9270       ?AddEndSlash@@YAHAAVUnicodeString@@_W@Z 004aa270 f   pathmix.obj
 0001:000a92b0       ?DeleteEndSlash@@YA_NPA_W_N@Z 004aa2b0 f   pathmix.obj
 0001:000a9300       ?DeleteEndSlash@@YGHAAVUnicodeString@@_N@Z 004aa300 f   pathmix.obj
 0001:000a9370       ?ReplaceSlashToBSlash@@YAAAVUnicodeString@@AAV1@@Z 004aa370 f   pathmix.obj
 0001:000a93b0       ?FindSlash@@YA_NAAIABVUnicodeString@@I@Z 004aa3b0 f   pathmix.obj
 0001:000a93f0       ?FindLastSlash@@YA_NAAIABVUnicodeString@@@Z 004aa3f0 f   pathmix.obj
 0001:000a9430       ?GetPathRootLength@@YAIABVUnicodeString@@@Z 004aa430 f   pathmix.obj
 0001:000a9550       ?IsRootPath@@YA_NABVUnicodeString@@@Z 004aa550 f   pathmix.obj
 0001:000a9590       ??0NTPath@@QAE@PB_W@Z      004aa590 f   pathmix.obj
 0001:000a9710       ?IsAbsolutePath@@YA_NPB_W@Z 004aa710 f   pathmix.obj
 0001:000a9770       ?TestCurrentDirectory@@YA_NPB_W@Z 004aa770 f   pathmix.obj
 0001:000a9800       ?AddEndSlash@@YAHAAVUnicodeString@@@Z 004aa800 f   pathmix.obj
 0001:000a9840       ?CutToSlash@@YA_NAAVUnicodeString@@_N@Z 004aa840 f   pathmix.obj
 0001:000a98c0       ?ExtractPathRoot@@YA?AVUnicodeString@@ABV1@@Z 004aa8c0 f   pathmix.obj
 0001:000a9970       ?ExtractFilePath@@YA?AVUnicodeString@@ABV1@@Z 004aa970 f   pathmix.obj
 0001:000a9a80       ?PathStartsWith@@YA_NABVUnicodeString@@0@Z 004aaa80 f   pathmix.obj
 0001:000a9b50       ?MatchNtPathRoot@@YAHABVUnicodeString@@PB_W@Z 004aab50 f   pathmix.obj
 0001:000a9e60       ?ShowProcessList@@YAXXZ    004aae60 f   plist.obj
 0001:000aa250       ??1PreserveLongName@@QAE@XZ 004ab250 f   plognmn.obj
 0001:000aa3d0       ??0PreserveLongName@@QAE@PB_WH@Z 004ab3d0 f   plognmn.obj
 0001:000aa4b0       ?RevertAC@CommandLine@@QAEXXZ 004ab4b0 f i plugapi.obj
 0001:000aa4d0       ?FarItoa@@YGPA_WHPA_WH@Z   004ab4d0 f   plugapi.obj
 0001:000aa500       ?FarItoa64@@YGPA_W_JPA_WH@Z 004ab500 f   plugapi.obj
 0001:000aa530       ?FarAtoi@@YGHPB_W@Z        004ab530 f   plugapi.obj
 0001:000aa550       ?FarAtoi64@@YG_JPB_W@Z     004ab550 f   plugapi.obj
 0001:000aa570       ?FarQsort@@YGXPAXIIP6AHPBX1@Z@Z 004ab570 f   plugapi.obj
 0001:000aa5a0       ?FarQsortEx@@YGXPAXIIP6AHPBX10@Z0@Z 004ab5a0 f   plugapi.obj
 0001:000aa5d0       ?FarBsearch@@YGPAXPBX0IIP6AH00@Z@Z 004ab5d0 f   plugapi.obj
 0001:000aa610       ?FarDefDlgProc@@YGJPAXHHJ@Z 004ab610 f   plugapi.obj
 0001:000aa640       ?FarSendDlgMessage@@YGJPAXHHJ@Z 004ab640 f   plugapi.obj
 0001:000aa720       ?FarDialogInit@@YGPAXHHHHHPB_WPAUFarDialogItem@@IKKP6GJPAXHHJ@ZJ@Z 004ab720 f   plugapi.obj
 0001:000aa830       ?FarDialogRun@@YGHPAX@Z    004ab830 f   plugapi.obj
 0001:000aa8c0       ?FarDialogFree@@YGXPAX@Z   004ab8c0 f   plugapi.obj
 0001:000aa8e0       ?FarSaveScreen@@YGPAXHHHH@Z 004ab8e0 f   plugapi.obj
 0001:000aaa20       ?FarFreeDirList@@YGXPAUFAR_FIND_DATA@@H@Z 004aba20 f   plugapi.obj
 0001:000aaa60       ?FarFreePluginDirList@@YGXPAUPluginPanelItem@@H@Z 004aba60 f   plugapi.obj
 0001:000aaac0       ?FarViewer@@YGHPB_W0HHHHKI@Z 004abac0 f   plugapi.obj
 0001:000aac90       ?FarEditor@@YGHPB_W0HHHHKHHI@Z 004abc90 f   plugapi.obj
 0001:000aaf50       ?FarCmpName@@YGHPB_W0H@Z   004abf50 f   plugapi.obj
 0001:000aaf80       ?FarText@@YGXHHHPB_W@Z     004abf80 f   plugapi.obj
 0001:000aafe0       ?FarEditorControl@@YGHHPAX@Z 004abfe0 f   plugapi.obj
 0001:000ab010       ?FarViewerControl@@YGHHPAX@Z 004ac010 f   plugapi.obj
 0001:000ab040       ?farUpperBuf@@YGXPA_WH@Z   004ac040 f   plugapi.obj
 0001:000ab050       ?farLowerBuf@@YGXPA_WH@Z   004ac050 f   plugapi.obj
 0001:000ab060       ?farStrUpper@@YGXPA_W@Z    004ac060 f   plugapi.obj
 0001:000ab090       ?farStrLower@@YGXPA_W@Z    004ac090 f   plugapi.obj
 0001:000ab0c0       ?farUpper@@YG_W_W@Z        004ac0c0 f   plugapi.obj
 0001:000ab0e0       ?farLower@@YG_W_W@Z        004ac0e0 f   plugapi.obj
 0001:000ab100       ?farStrCmpNI@@YGHPB_W0H@Z  004ac100 f   plugapi.obj
 0001:000ab130       ?farStrCmpI@@YGHPB_W0@Z    004ac130 f   plugapi.obj
 0001:000ab160       ?farIsLower@@YGH_W@Z       004ac160 f   plugapi.obj
 0001:000ab170       ?farIsUpper@@YGH_W@Z       004ac170 f   plugapi.obj
 0001:000ab180       ?farIsAlpha@@YGH_W@Z       004ac180 f   plugapi.obj
 0001:000ab190       ?farIsAlphaNum@@YGH_W@Z    004ac190 f   plugapi.obj
 0001:000ab1a0       ?farRegExpControl@@YGHPAXHJ@Z 004ac1a0 f   plugapi.obj
 0001:000ab2c0       ?FarGetMsgFn@@YGPB_WHH@Z   004ac2c0 f   plugapi.obj
 0001:000ab370       ?FarMessageFn@@YGHHKPB_WPBQB_WHH@Z 004ac370 f   plugapi.obj
 0001:000ab700       ?FarControl@@YGHPAXHHJ@Z   004ac700 f   plugapi.obj
 0001:000abaf0       ?FarRestoreScreen@@YGXPAX@Z 004acaf0 f   plugapi.obj
 0001:000abc60       ?ScanPluginDir@@YAXXZ      004acc60 f   plugapi.obj
 0001:000ac0f0       ?farGetFileOwner@@YGHPB_W0PA_WH@Z 004ad0f0 f   plugapi.obj
 0001:000ac160       ?farGetReparsePointInfo@@YGHPB_WPA_WH@Z 004ad160 f   plugapi.obj
 0001:000ac250       ?farGetPathRoot@@YGHPB_WPA_WH@Z 004ad250 f   plugapi.obj
 0001:000ac340       ?farPluginsControl@@YGHPAXHHJ@Z 004ad340 f   plugapi.obj
 0001:000ac3f0       ?farFileFilterControl@@YGHPAXHHJ@Z 004ad3f0 f   plugapi.obj
 0001:000ac510       ?farGetCurrentDirectory@@YGKKPA_W@Z 004ad510 f   plugapi.obj
 0001:000ac580       ?FarInputBox@@YGHPB_W000PA_WH0K@Z 004ad580 f   plugapi.obj
 0001:000ac610       ?FarShowHelp@@YGHPB_W0K@Z  004ad610 f   plugapi.obj
 0001:000ac8b0       ?FarMenuFn@@YGHHHHHKPB_W00PBHPAHPBUFarMenuItem@@H@Z 004ad8b0 f   plugapi.obj
 0001:000acd80       ?FarGetPluginDirList@@YGHHPAXPB_WPAPAUPluginPanelItem@@PAH@Z 004add80 f   plugapi.obj
 0001:000ad070       ?farConvertPath@@YGHW4CONVERTPATHMODES@@PB_WPA_WH@Z 004ae070 f   plugapi.obj
 0001:000ad190       ?FarAdvControl@@YGHHHPAX@Z 004ae190 f   plugapi.obj
 0001:000adbb0       ?FarGetDirList@@YGHPB_WPAPAUFAR_FIND_DATA@@PAH@Z 004aebb0 f   plugapi.obj
 0001:000ade10       ??_GPlugin@@UAEPAXI@Z      004aee10 f i PluginA.obj
 0001:000ade10       ??_EPlugin@@UAEPAXI@Z      004aee10 f i PluginA.obj
 0001:000ade40       ?FirstSlashA@@YAPBDPBD@Z   004aee40 f   PluginA.obj
 0001:000ade60       ?AnsiToUnicodeBin@@YAPA_WPBDHI@Z 004aee60 f   PluginA.obj
 0001:000adec0       ?AnsiToUnicode@@YAPA_WPBDI@Z 004aeec0 f   PluginA.obj
 0001:000adef0       ?UnicodeToAnsiBin@@YAPADPB_WHI@Z 004aeef0 f   PluginA.obj
 0001:000adf50       ?ArrayAnsiToUnicode@@YAPAPA_WPAPADH@Z 004aef50 f   PluginA.obj
 0001:000adfd0       ?FreeArrayUnicode@@YAXPAPA_W@Z 004aefd0 f   PluginA.obj
 0001:000ae010       ?OldKeyToKey@@YAKK@Z       004af010 f   PluginA.obj
 0001:000ae0a0       ?KeyToOldKey@@YAKK@Z       004af0a0 f   PluginA.obj
 0001:000ae130       ?ConvertInfoPanelLinesA@@YAXPBUInfoPanelLine@oldfar@@PAPAU1@H@Z 004af130 f   PluginA.obj
 0001:000ae250       ?FreeUnicodeInfoPanelLines@@YAXPAUInfoPanelLine@@H@Z 004af250 f   PluginA.obj
 0001:000ae2a0       ?ConvertPanelModesA@@YAXPBUPanelMode@oldfar@@PAPAU1@H@Z 004af2a0 f   PluginA.obj
 0001:000ae480       ?FreeUnicodePanelModes@@YAXPAUPanelMode@@H@Z 004af480 f   PluginA.obj
 0001:000ae530       ?ConvertKeyBarTitlesA@@YAXPBUKeyBarTitles@oldfar@@PAU1@_N@Z 004af530 f   PluginA.obj
 0001:000ae6d0       ?FreeUnicodeKeyBarTitles@@YAXPAUKeyBarTitles@@@Z 004af6d0 f   PluginA.obj
 0001:000ae770       ?ConvertPanelItemA@@YAXPBUPluginPanelItem@oldfar@@PAPAU1@H@Z 004af770 f   PluginA.obj
 0001:000aea70       ?FreeUnicodePanelItem@@YAXPAUPluginPanelItem@@H@Z 004afa70 f   PluginA.obj
 0001:000aeb00       ?FreePanelItemA@@YAXPAUPluginPanelItem@oldfar@@H_N@Z 004afb00 f   PluginA.obj
 0001:000aebb0       ?RemoveTrailingSpacesA@@YGPADPAD@Z 004afbb0 f   PluginA.obj
 0001:000aec10       ?FarItoaA@@YGPADHPADH@Z    004afc10 f   PluginA.obj
 0001:000aec40       ?FarItoa64A@@YGPAD_JPADH@Z 004afc40 f   PluginA.obj
 0001:000aec70       ?FarAtoiA@@YGHPBD@Z        004afc70 f   PluginA.obj
 0001:000aec90       ?FarAtoi64A@@YG_JPBD@Z     004afc90 f   PluginA.obj
 0001:000aecb0       ?PointToNameA@@YGPADPAD@Z  004afcb0 f   PluginA.obj
 0001:000aed00       ?UnquoteA@@YGXPAD@Z        004afd00 f   PluginA.obj
 0001:000aed30       ?RemoveLeadingSpacesA@@YGPADPAD@Z 004afd30 f   PluginA.obj
 0001:000aed80       ?RemoveExternalSpacesA@@YGPADPAD@Z 004afd80 f   PluginA.obj
 0001:000aeda0       ?TruncStrA@@YGPADPADH@Z    004afda0 f   PluginA.obj
 0001:000aee20       ?TruncPathStrA@@YGPADPADH@Z 004afe20 f   PluginA.obj
 0001:000aef00       ?QuoteSpaceOnlyA@@YGPADPAD@Z 004aff00 f   PluginA.obj
 0001:000aef60       ?AddEndSlashA@@YAHPADD@Z   004aff60 f   PluginA.obj
 0001:000af010       ?AddEndSlashA@@YGHPAD@Z    004b0010 f   PluginA.obj
 0001:000af030       ?CopyToClipboardA@@YGHPBD@Z 004b0030 f   PluginA.obj
 0001:000af080       ?DeleteBuffer@@YGXPAX@Z    004b0080 f   plugapi.obj
 0001:000af080       ?DeleteBufferA@@YGXPAX@Z   004b0080 f   PluginA.obj
 0001:000af0a0       ?InputRecordToKeyA@@YGHPBU_INPUT_RECORD@@@Z 004b00a0 f   PluginA.obj
 0001:000af1c0       ?UnicodeListItemToAnsi@@YAXPAUFarListItem@@PAU1oldfar@@@Z 004b01c0 f   PluginA.obj
 0001:000af260       ?AnsiVBufToUnicode@@YAXPAU_CHAR_INFO@@0I_N@Z 004b0260 f   PluginA.obj
 0001:000af2d0       ?AnsiVBufToUnicode@@YAPAU_CHAR_INFO@@AAUFarDialogItem@oldfar@@@Z 004b02d0 f   PluginA.obj
 0001:000af340       ?AnsiListItemToUnicode@@YAXPAUFarListItem@oldfar@@PAU1@@Z 004b0340 f   PluginA.obj
 0001:000af3e0       ?AnsiDialogItemToUnicode@@YAXAAUFarDialogItem@oldfar@@AAU1@AAUFarList@@@Z 004b03e0 f   PluginA.obj
 0001:000af680       ?FreeUnicodeDialogItem@@YAXAAUFarDialogItem@@@Z 004b0680 f   PluginA.obj
 0001:000af840       ?FreeAnsiDialogItem@@YAXAAUFarDialogItem@oldfar@@@Z 004b0840 f   PluginA.obj
 0001:000af8b0       ?UnicodeDialogItemToAnsiSafe@@YAXAAUFarDialogItem@@AAU1oldfar@@@Z 004b08b0 f   PluginA.obj
 0001:000af8b0       ?AnsiDialogItemToUnicodeSafe@@YAXAAUFarDialogItem@oldfar@@AAU1@@Z 004b08b0 f   PluginA.obj
 0001:000afb60       ?FarDefDlgProcA@@YGJPAXHHJ@Z 004b0b60 f   PluginA.obj
 0001:000afb70       ?ConvertUnicodePanelInfoToAnsi@@YAXPAUPanelInfo@@PAU1oldfar@@@Z 004b0b70 f   PluginA.obj
 0001:000afd80       ?FreeAnsiPanelInfo@@YAXPAUPanelInfo@oldfar@@@Z 004b0d80 f   PluginA.obj
 0001:000afdd0       ?FarFreeDirListA@@YGXPBUPluginPanelItem@oldfar@@@Z 004b0dd0 f   PluginA.obj
 0001:000afe00       ?GetEditorCodePageA@@YAIXZ 004b0e00 f   PluginA.obj
 0001:000afe60       ?MultiByteRecode@@YAXIIPADH@Z 004b0e60 f   PluginA.obj
 0001:000afec0       ?IsPanelPlugin@PluginA@@UAE_NXZ 004b0ec0 f   PluginA.obj
 0001:000aff70       ?ProcessEditorInput@PluginA@@UAEHPBU_INPUT_RECORD@@@Z 004b0f70 f   PluginA.obj
 0001:000b00d0       ?ProcessEditorEvent@PluginA@@UAEHHPAX@Z 004b10d0 f   PluginA.obj
 0001:000b01f0       ?ProcessViewerEvent@PluginA@@UAEHHPAX@Z 004b11f0 f   PluginA.obj
 0001:000b0310       ?ProcessDialogEvent@PluginA@@UAEHHPAX@Z 004b1310 f   PluginA.obj
 0001:000b0440       ?GetVirtualFindData@PluginA@@UAEHPAXPAPAUPluginPanelItem@@PAHPB_W@Z 004b1440 f   PluginA.obj
 0001:000b05e0       ?FreeVirtualFindData@PluginA@@UAEXPAXPAUPluginPanelItem@@H@Z 004b15e0 f   PluginA.obj
 0001:000b0710       ?MakeDirectory@PluginA@@UAEHPAXPAPB_WH@Z 004b1710 f   PluginA.obj
 0001:000b0880       ?GetFindData@PluginA@@UAEHPAXPAPAUPluginPanelItem@@PAHH@Z 004b1880 f   PluginA.obj
 0001:000b09d0       ?FreeFindData@PluginA@@UAEXPAXPAUPluginPanelItem@@H@Z 004b19d0 f   PluginA.obj
 0001:000b0b00       ?ProcessKey@PluginA@@UAEHPAXHI@Z 004b1b00 f   PluginA.obj
 0001:000b0c30       ?FreeOpenPluginInfo@PluginA@@AAEXXZ 004b1c30 f   PluginA.obj
 0001:000b0d10       ?ConvertOpenPluginInfo@PluginA@@AAEXAAUOpenPluginInfo@oldfar@@PAU2@@Z 004b1d10 f   PluginA.obj
 0001:000b0ee0       ?GetOpenPluginInfo@PluginA@@UAEXPAXPAUOpenPluginInfo@@@Z 004b1ee0 f   PluginA.obj
 0001:000b1010       ?Configure@PluginA@@UAEHH@Z 004b2010 f   PluginA.obj
 0001:000b1130       ?FreePluginInfo@PluginA@@AAEXXZ 004b2130 f   PluginA.obj
 0001:000b11f0       ?ConvertPluginInfo@PluginA@@AAEXAAUPluginInfo@oldfar@@PAU2@@Z 004b21f0 f   PluginA.obj
 0001:000b14a0       ?GetPluginInfo@PluginA@@UAE_NPAUPluginInfo@@@Z 004b24a0 f   PluginA.obj
 0001:000b1600       ?ExitFAR@PluginA@@UAEXXZ   004b2600 f   PluginA.obj
 0001:000b16f0       ?ClearExports@PluginA@@AAEXXZ 004b26f0 f   PluginA.obj
 0001:000b17a0       ?UnicodeToAnsi@@YAPADPB_WI@Z 004b27a0 f   PluginA.obj
 0001:000b1810       ?ConvertPanelItemToAnsi@@YAXABUPluginPanelItem@@AAU1oldfar@@@Z 004b2810 f   PluginA.obj
 0001:000b19e0       ?ConvertPanelItemsArrayToAnsi@@YAXPBUPluginPanelItem@@AAPAU1oldfar@@H@Z 004b29e0 f   PluginA.obj
 0001:000b1cb0       ?GetPathRootA@@YGXPBDPAD@Z 004b2cb0 f   PluginA.obj
 0001:000b1d50       ?PasteFromClipboardA@@YGPADXZ 004b2d50 f   PluginA.obj
 0001:000b1d70       ?ProcessNameA@@YGHPBDPADK@Z 004b2d70 f   PluginA.obj
 0001:000b1eb0       ?KeyNameToKeyA@@YGHPBD@Z   004b2eb0 f   PluginA.obj
 0001:000b1f10       ?FarKeyToNameA@@YGHHPADH@Z 004b2f10 f   PluginA.obj
 0001:000b1f90       ?FarMkTempA@@YGPADPADPBD@Z 004b2f90 f   PluginA.obj
 0001:000b2040       ?FarMkLinkA@@YGHPBD0K@Z    004b3040 f   PluginA.obj
 0001:000b2140       ?GetNumberOfLinksA@@YGHPBD@Z 004b3140 f   PluginA.obj
 0001:000b21a0       ?ConvertNameToRealA@@YGHPBDPADH@Z 004b31a0 f   PluginA.obj
 0001:000b2280       ?FarGetReparsePointInfoA@@YGHPBDPADH@Z 004b3280 f   PluginA.obj
 0001:000b2340       ?FarRecursiveSearchA@@YGXPBD0P6GHPBU_WIN32_FIND_DATAA@@0PAX@ZK2@Z 004b3340 f   PluginA.obj
 0001:000b2410       ?ExpandEnvironmentStrA@@YGKPBDPADI@Z 004b3410 f   PluginA.obj
 0001:000b24c0       ?FarViewerA@@YGHPBD0HHHHK@Z 004b34c0 f   PluginA.obj
 0001:000b2570       ?FarEditorA@@YGHPBD0HHHHKHH@Z 004b3570 f   PluginA.obj
 0001:000b2630       ?FarCmpNameA@@YGHPBD0H@Z   004b3630 f   PluginA.obj
 0001:000b26d0       ?FarTextA@@YGXHHHPBD@Z     004b36d0 f   PluginA.obj
 0001:000b2750       ?FarShowHelpA@@YGHPBD0K@Z  004b3750 f   PluginA.obj
 0001:000b27f0       ?FarInputBoxA@@YGHPBD000PADH0K@Z 004b37f0 f   PluginA.obj
 0001:000b29d0       ?FarMessageFnA@@YGHHKPBDPBQBDHH@Z 004b39d0 f   PluginA.obj
 0001:000b2b60       ?FarGetMsgFnA@@YGPBDHH@Z   004b3b60 f   PluginA.obj
 0001:000b2c10       ?FarMenuFnA@@YGHHHHHKPBD00PBHPAHPBUFarMenuItem@oldfar@@H@Z 004b3c10 f   PluginA.obj
 0001:000b2f80       ?FarControlA@@YGHPAXH0@Z   004b3f80 f   PluginA.obj
 0001:000b3790       ?FarGetDirListA@@YGHPBDPAPAUPluginPanelItem@oldfar@@PAH@Z 004b4790 f   PluginA.obj
 0001:000b39d0       ?FarGetPluginDirListA@@YGHHPAXPBDPAPAUPluginPanelItem@oldfar@@PAH@Z 004b49d0 f   PluginA.obj
 0001:000b3b10       ?FarAdvControlA@@YGHHHPAX@Z 004b4b10 f   PluginA.obj
 0001:000b4410       ?GetEditorCodePageFavA@@YAHXZ 004b5410 f   PluginA.obj
 0001:000b4520       ?ConvertCharTableToCodePage@@YAIH@Z 004b5520 f   PluginA.obj
 0001:000b4630       ?FarEditorControlA@@YGHHPAX@Z 004b5630 f   PluginA.obj
 0001:000b4f00       ?FarViewerControlA@@YGHHPAX@Z 004b5f00 f   PluginA.obj
 0001:000b51b0       ?XlatA@@YGPADPADHHPBUCharTableSet@oldfar@@K@Z 004b61b0 f   PluginA.obj
 0001:000b5260       ?GetFileOwnerA@@YGHPBD0PAD@Z 004b6260 f   PluginA.obj
 0001:000b53d0       ??0PluginA@@QAE@PAVPluginManager@@PB_W@Z 004b63d0 f   PluginA.obj
 0001:000b54d0       ?HasOpenPlugin@PluginA@@UAE_NXZ 004b64d0 f i PluginA.obj
 0001:000b54e0       ?HasMakeDirectory@PluginA@@UAE_NXZ 004b64e0 f i PluginA.obj
 0001:000b54f0       ?HasDeleteFiles@PluginA@@UAE_NXZ 004b64f0 f i PluginA.obj
 0001:000b5500       ?HasPutFiles@PluginA@@UAE_NXZ 004b6500 f i PluginA.obj
 0001:000b5510       ?HasGetFiles@PluginA@@UAE_NXZ 004b6510 f i PluginA.obj
 0001:000b5520       ?HasSetStartupInfo@PluginA@@UAE_NXZ 004b6520 f i PluginA.obj
 0001:000b5530       ?HasOpenFilePlugin@PluginA@@UAE_NXZ 004b6530 f i PluginA.obj
 0001:000b5540       ?HasClosePlugin@PluginA@@UAE_NXZ 004b6540 f i PluginA.obj
 0001:000b5550       ?HasGetPluginInfo@PluginA@@UAE_NXZ 004b6550 f i PluginA.obj
 0001:000b5560       ?HasGetOpenPluginInfo@PluginA@@UAE_NXZ 004b6560 f i PluginA.obj
 0001:000b5570       ?HasGetFindData@PluginA@@UAE_NXZ 004b6570 f i PluginA.obj
 0001:000b5580       ?HasFreeFindData@PluginA@@UAE_NXZ 004b6580 f i PluginA.obj
 0001:000b5590       ?HasGetVirtualFindData@PluginA@@UAE_NXZ 004b6590 f i PluginA.obj
 0001:000b55a0       ?HasFreeVirtualFindData@PluginA@@UAE_NXZ 004b65a0 f i PluginA.obj
 0001:000b55b0       ?HasSetDirectory@PluginA@@UAE_NXZ 004b65b0 f i PluginA.obj
 0001:000b55c0       ?HasProcessHostFile@PluginA@@UAE_NXZ 004b65c0 f i PluginA.obj
 0001:000b55d0       ?HasSetFindList@PluginA@@UAE_NXZ 004b65d0 f i PluginA.obj
 0001:000b55e0       ?HasConfigure@PluginA@@UAE_NXZ 004b65e0 f i PluginA.obj
 0001:000b55f0       ?HasExitFAR@PluginA@@UAE_NXZ 004b65f0 f i PluginA.obj
 0001:000b5600       ?HasProcessKey@PluginA@@UAE_NXZ 004b6600 f i PluginA.obj
 0001:000b5610       ?HasProcessEvent@PluginA@@UAE_NXZ 004b6610 f i PluginA.obj
 0001:000b5620       ?HasProcessEditorEvent@PluginA@@UAE_NXZ 004b6620 f i PluginA.obj
 0001:000b5630       ?HasCompare@PluginA@@UAE_NXZ 004b6630 f i PluginA.obj
 0001:000b5640       ?HasProcessEditorInput@PluginA@@UAE_NXZ 004b6640 f i PluginA.obj
 0001:000b5650       ?HasMinFarVersion@PluginA@@UAE_NXZ 004b6650 f i PluginA.obj
 0001:000b5660       ?HasProcessViewerEvent@PluginA@@UAE_NXZ 004b6660 f i PluginA.obj
 0001:000b5670       ?HasProcessDialogEvent@PluginA@@UAE_NXZ 004b6670 f i PluginA.obj
 0001:000b5680       ?HasProcessSynchroEvent@PluginA@@UAE_NXZ 004b6680 f i PluginA.obj
 0001:000b5680       ?HasFreeCustomData@PluginA@@UAE_NXZ 004b6680 f i PluginA.obj
 0001:000b5680       ?IsOemPlugin@PluginW@@UAE_NXZ 004b6680 f i PluginW.obj
 0001:000b5680       ?HasAnalyse@PluginA@@UAE_NXZ 004b6680 f i PluginA.obj
 0001:000b5680       ?HasGetCustomData@PluginA@@UAE_NXZ 004b6680 f i PluginA.obj
 0001:000b5690       ?GetModuleName@PluginW@@UAEABVUnicodeString@@XZ 004b6690 f i PluginW.obj
 0001:000b5690       ?GetModuleName@PluginA@@UAEABVUnicodeString@@XZ 004b6690 f i PluginA.obj
 0001:000b56a0       ?GetWorkFlags@PluginA@@UAEKXZ 004b66a0 f i PluginA.obj
 0001:000b56a0       ?GetWorkFlags@PluginW@@UAEKXZ 004b66a0 f i PluginW.obj
 0001:000b56b0       ?InitLang@PluginA@@UAE_NPB_W@Z 004b66b0 f i PluginA.obj
 0001:000b56d0       ?GetCacheName@PluginA@@UAEPB_WXZ 004b66d0 f i PluginA.obj
 0001:000b56d0       ?GetCacheName@PluginW@@UAEPB_WXZ 004b66d0 f i PluginW.obj
 0001:000b56e0       ??1PluginA@@UAE@XZ         004b66e0 f   PluginA.obj
 0001:000b5780       ?LoadFromCache@PluginA@@UAE_NABUFAR_FIND_DATA_EX@@@Z 004b6780 f   PluginA.obj
 0001:000b5a80       ?Load@PluginA@@UAE_NXZ     004b6a80 f   PluginA.obj
 0001:000b5f50       ?CheckMinFarVersion@PluginA@@UAE_NAA_N@Z 004b6f50 f   PluginA.obj
 0001:000b60d0       ?Unload@PluginA@@UAEH_N@Z  004b70d0 f   PluginA.obj
 0001:000b6120       ?OpenPlugin@PluginA@@UAEPAXHH@Z 004b7120 f   PluginA.obj
 0001:000b62f0       ?OpenFilePlugin@PluginA@@UAEPAXPB_WPBEHH@Z 004b72f0 f   PluginA.obj
 0001:000b6450       ?SetFindList@PluginA@@UAEHPAXPBUPluginPanelItem@@H@Z 004b7450 f   PluginA.obj
 0001:000b65a0       ?GetFiles@PluginA@@UAEHPAXPAUPluginPanelItem@@HHPAPB_WH@Z 004b75a0 f   PluginA.obj
 0001:000b6750       ?PutFiles@PluginA@@UAEHPAXPAUPluginPanelItem@@HHH@Z 004b7750 f   PluginA.obj
 0001:000b68b0       ?DeleteFiles@PluginA@@UAEHPAXPAUPluginPanelItem@@HH@Z 004b78b0 f   PluginA.obj
 0001:000b6a00       ?ProcessHostFile@PluginA@@UAEHPAXPAUPluginPanelItem@@HH@Z 004b7a00 f   PluginA.obj
 0001:000b6b50       ?ProcessEvent@PluginA@@UAEHPAXH0@Z 004b7b50 f   PluginA.obj
 0001:000b6cb0       ?Compare@PluginA@@UAEHPAXPBUPluginPanelItem@@1K@Z 004b7cb0 f   PluginA.obj
 0001:000b6e20       ?ClosePlugin@PluginA@@UAEXPAX@Z 004b7e20 f   PluginA.obj
 0001:000b6f20       ?SetDirectory@PluginA@@UAEHPAXPB_WH@Z 004b7f20 f   PluginA.obj
 0001:000b7060       ?FindCurrentDialogData@@YAPAUDialogData@@PAX@Z 004b8060 f   PluginA.obj
 0001:000b70a0       ?CurrentDialogItem@@YAPAUFarDialogItem@@PAXH@Z 004b80a0 f   PluginA.obj
 0001:000b70d0       ?CurrentList@@YAPAUFarList@@PAXH@Z 004b80d0 f   PluginA.obj
 0001:000b7100       ?CurrentDlgProc@@YGJPAXHHJ@Z 004b8100 f   PluginA.obj
 0001:000b7140       ?UnicodeDialogItemToAnsi@@YAPAUFarDialogItem@oldfar@@AAU1@PAXH@Z 004b8140 f   PluginA.obj
 0001:000b72c0       ?DlgProcA@@YGJPAXHHJ@Z     004b82c0 f   PluginA.obj
 0001:000b7560       ?FarSendDlgMessageA@@YGJPAXHHJ@Z 004b8560 f   PluginA.obj
 0001:000b8260       ?FarDialogExA@@YGHHHHHHPBDPAUFarDialogItem@oldfar@@HKKP6GJPAXHHJ@ZJ@Z 004b9260 f   PluginA.obj
 0001:000b8880       ?FarDialogFnA@@YGHHHHHHPBDPAUFarDialogItem@oldfar@@H@Z 004b9880 f   PluginA.obj
 0001:000b88c0       ?FarCharTableA@@YGHHPADH@Z 004b98c0 f   PluginA.obj
 0001:000b8be0       ??_EPluginA@@UAEPAXI@Z     004b9be0 f i PluginA.obj
 0001:000b8be0       ??_GPluginA@@UAEPAXI@Z     004b9be0 f i PluginA.obj
 0001:000b8c10       ?SaveToCache@PluginA@@UAE_NXZ 004b9c10 f   PluginA.obj
 0001:000b93a0       ?SetStartupInfo@PluginA@@UAE_NAA_N@Z 004ba3a0 f   PluginA.obj
 0001:000b9520       ?CRC32@@YAKKPBDI@Z         004ba520 f   plugins.obj
 0001:000b9620       ?IsModulePlugin2@@YA?AW4PluginType@@PAE@Z 004ba620 f   plugins.obj
 0001:000b97f0       ?IsModulePlugin@@YA?AW4PluginType@@PB_W@Z 004ba7f0 f   plugins.obj
 0001:000b9870       ??0PluginManager@@QAE@XZ   004ba870 f   plugins.obj
 0001:000b9890       ??1PluginManager@@QAE@XZ   004ba890 f   plugins.obj
 0001:000b98e0       ?RemovePlugin@PluginManager@@AAE_NPAVPlugin@@@Z 004ba8e0 f   plugins.obj
 0001:000b9950       ?LoadPlugin@PluginManager@@AAE_NPB_WABUFAR_FIND_DATA_EX@@_N@Z 004ba950 f   plugins.obj
 0001:000b9a50       ?UnloadPlugin@PluginManager@@QAEHPAVPlugin@@K_N@Z 004baa50 f   plugins.obj
 0001:000b9b60       ?GetPlugin@PluginManager@@QAEPAVPlugin@@H@Z 004bab60 f   plugins.obj
 0001:000b9b80       ?ClosePlugin@PluginManager@@QAEXPAX@Z 004bab80 f   plugins.obj
 0001:000b9bc0       ?ProcessEditorInput@PluginManager@@QAEHPAU_INPUT_RECORD@@@Z 004babc0 f   plugins.obj
 0001:000b9c20       ?ProcessEditorEvent@PluginManager@@QAEHHPAX@Z 004bac20 f   plugins.obj
 0001:000b9c80       ?ProcessViewerEvent@PluginManager@@QAEHHPAX@Z 004bac80 f   plugins.obj
 0001:000b9ce0       ?ProcessDialogEvent@PluginManager@@QAEHHPAX@Z 004bace0 f   plugins.obj
 0001:000b9d40       ?GetFindData@PluginManager@@QAEHPAXPAPAUPluginPanelItem@@PAHH@Z 004bad40 f   plugins.obj
 0001:000b9d90       ?FreeFindData@PluginManager@@QAEXPAXPAUPluginPanelItem@@H@Z 004bad90 f   plugins.obj
 0001:000b9dc0       ?GetVirtualFindData@PluginManager@@QAEHPAXPAPAUPluginPanelItem@@PAHPB_W@Z 004badc0 f   plugins.obj
 0001:000b9e10       ?FreeVirtualFindData@PluginManager@@QAEXPAXPAUPluginPanelItem@@H@Z 004bae10 f   plugins.obj
 0001:000b9e40       ?SetDirectory@PluginManager@@QAEHPAXPB_WH@Z 004bae40 f   plugins.obj
 0001:000b9e80       ?GetFiles@PluginManager@@QAEHPAXPAUPluginPanelItem@@HHPAPB_WH@Z 004bae80 f   plugins.obj
 0001:000b9ed0       ?GetOpenPluginInfo@PluginManager@@QAEXPAXPAUOpenPluginInfo@@@Z 004baed0 f   plugins.obj
 0001:000b9f60       ?ProcessKey@PluginManager@@QAEHPAXHI@Z 004baf60 f   plugins.obj
 0001:000b9f90       ?ProcessEvent@PluginManager@@QAEHPAXH0@Z 004baf90 f   plugins.obj
 0001:000b9fc0       ?Compare@PluginManager@@QAEHPAXPBUPluginPanelItem@@1I@Z 004bafc0 f   plugins.obj
 0001:000b9ff0       ?ConfigureCurrent@PluginManager@@QAEXPAVPlugin@@H@Z 004baff0 f   plugins.obj
 0001:000ba0a0       ?UseFarCommand@PluginManager@@QAEHPAXH@Z 004bb0a0 f   plugins.obj
 0001:000ba160       ?LoadIfCacheAbsent@PluginManager@@AAEXXZ 004bb160 f   plugins.obj
 0001:000ba1a0       ?ReadUserBackgound@PluginManager@@AAEXPAVSaveScreen@@@Z 004bb1a0 f   plugins.obj
 0001:000ba210       ?FindPlugin@PluginManager@@QAEPAVPlugin@@K@Z 004bb210 f   plugins.obj
 0001:000ba260       ?OpenPlugin@PluginManager@@QAEPAXPAVPlugin@@HH@Z 004bb260 f   plugins.obj
 0001:000ba2b0       ?Free@?$TPointerArray@UPluginData@@@@QAEXXZ 004bb2b0 f i plugins.obj
 0001:000ba300       ?setSize@?$TPointerArray@VFileFilterParams@@@@AAE_NI@Z 004bb300 f i filefilter.obj
 0001:000ba300       ?setSize@?$TPointerArray@UScanTreeData@@@@AAE_NI@Z 004bb300 f i scantree.obj
 0001:000ba300       ?setSize@?$TPointerArray@UPluginHandle@@@@AAE_NI@Z 004bb300 f i plugins.obj
 0001:000ba300       ?setSize@?$TPointerArray@UPluginData@@@@AAE_NI@Z 004bb300 f i plugins.obj
 0001:000ba3b0       ?GetPlugin@PluginManager@@QAEPAVPlugin@@PB_W@Z 004bb3b0 f   plugins.obj
 0001:000ba470       ?DeleteFiles@PluginManager@@QAEHPAXPAUPluginPanelItem@@HH@Z 004bb470 f   plugins.obj
 0001:000ba4e0       ?MakeDirectory@PluginManager@@QAEHPAXPAPB_WH@Z 004bb4e0 f   plugins.obj
 0001:000ba550       ?ProcessHostFile@PluginManager@@QAEHPAXPAUPluginPanelItem@@HH@Z 004bb550 f   plugins.obj
 0001:000ba5c0       ?PutFiles@PluginManager@@QAEHPAXPAUPluginPanelItem@@HHH@Z 004bb5c0 f   plugins.obj
 0001:000ba640       ?GetHotKeyRegKey@PluginManager@@QAEXPAVPlugin@@HAAVUnicodeString@@@Z 004bb640 f   plugins.obj
 0001:000ba770       ?GetPluginHotKey@PluginManager@@AAEXPAVPlugin@@HPB_WAAVUnicodeString@@@Z 004bb770 f   plugins.obj
 0001:000ba7e0       ?GetDiskMenuItem@PluginManager@@QAE_NPAVPlugin@@HAA_NAA_WAAVUnicodeString@@@Z 004bb7e0 f   plugins.obj
 0001:000ba9b0       ?ReloadLanguage@PluginManager@@QAEXXZ 004bb9b0 f   plugins.obj
 0001:000baa10       ?CallPlugin@PluginManager@@QAEHKHPAXPAH@Z 004bba10 f   plugins.obj
 0001:000bab80       ?insertItem@?$TPointerArray@UPluginData@@@@QAEPAUPluginData@@I@Z 004bbb80 f i plugins.obj
 0001:000bab80       ?insertItem@?$TPointerArray@UPluginHandle@@@@QAEPAUPluginHandle@@I@Z 004bbb80 f i plugins.obj
 0001:000bac00       ?UnloadPluginExternal@PluginManager@@QAEHPB_W@Z 004bbc00 f   plugins.obj
 0001:000bac40       ?LoadPluginsFromCache@PluginManager@@AAEXXZ 004bbc40 f   plugins.obj
 0001:000bad70       ?GetFile@PluginManager@@QAEHPAXPAUPluginPanelItem@@PB_WAAVUnicodeString@@H@Z 004bbd70 f   plugins.obj
 0001:000bafd0       ?SetHotKeyDialog@PluginManager@@QAE_NPB_W00@Z 004bbfd0 f   plugins.obj
 0001:000bb260       ?GetCustomData@PluginManager@@QAEXPAUFileListItem@@@Z 004bc260 f   plugins.obj
 0001:000bb3d0       ?LoadPluginExternal@PluginManager@@QAE_NPB_W_N@Z 004bc3d0 f   plugins.obj
 0001:000bb4d0       ?OpenFilePlugin@PluginManager@@QAEPAXPB_WHW4OPENFILEPLUGINTYPE@@@Z 004bc4d0 f   plugins.obj
 0001:000bbb60       ?OpenFindListPlugin@PluginManager@@QAEPAXPBUPluginPanelItem@@H@Z 004bcb60 f   plugins.obj
 0001:000bbe70       ?Configure@PluginManager@@QAEXH@Z 004bce70 f   plugins.obj
 0001:000bc600       ?CommandsMenu@PluginManager@@QAEHHHPB_W@Z 004bd600 f   plugins.obj
 0001:000bcfd0       ?ProcessCommandLine@PluginManager@@QAEHPB_WPAVPanel@@@Z 004bdfd0 f   plugins.obj
 0001:000bd6b0       ?LoadPlugins@PluginManager@@QAEXXZ 004be6b0 f   plugins.obj
 0001:000bda70       ?swprintf@@YAHPA_WPB_WZZ   004bea70 f i PluginW.obj
 0001:000bda90       ?IsPanelPlugin@PluginW@@UAE_NXZ 004bea90 f   PluginW.obj
 0001:000bdb10       ?Analyse@PluginW@@UAEHPBUAnalyseData@@@Z 004beb10 f   PluginW.obj
 0001:000bdc20       ?OpenFilePlugin@PluginW@@UAEPAXPB_WPBEHH@Z 004bec20 f   PluginW.obj
 0001:000bdd20       ?SetFindList@PluginW@@UAEHPAXPBUPluginPanelItem@@H@Z 004bed20 f   PluginW.obj
 0001:000bde20       ?ProcessEditorInput@PluginW@@UAEHPBU_INPUT_RECORD@@@Z 004bee20 f   PluginW.obj
 0001:000bdf00       ?ProcessEditorEvent@PluginW@@UAEHHPAX@Z 004bef00 f   PluginW.obj
 0001:000bdfe0       ?ProcessViewerEvent@PluginW@@UAEHHPAX@Z 004befe0 f   PluginW.obj
 0001:000be0c0       ?ProcessDialogEvent@PluginW@@UAEHHPAX@Z 004bf0c0 f   PluginW.obj
 0001:000be1a0       ?ProcessSynchroEvent@PluginW@@UAEHHPAX@Z 004bf1a0 f   PluginW.obj
 0001:000be280       ?GetVirtualFindData@PluginW@@UAEHPAXPAPAUPluginPanelItem@@PAHPB_W@Z 004bf280 f   PluginW.obj
 0001:000be380       ?FreeVirtualFindData@PluginW@@UAEXPAXPAUPluginPanelItem@@H@Z 004bf380 f   PluginW.obj
 0001:000be470       ?GetFiles@PluginW@@UAEHPAXPAUPluginPanelItem@@HHPAPB_WH@Z 004bf470 f   PluginW.obj
 0001:000be590       ?DeleteFiles@PluginW@@UAEHPAXPAUPluginPanelItem@@HH@Z 004bf590 f   PluginW.obj
 0001:000be6a0       ?MakeDirectory@PluginW@@UAEHPAXPAPB_WH@Z 004bf6a0 f   PluginW.obj
 0001:000be7a0       ?ProcessHostFile@PluginW@@UAEHPAXPAUPluginPanelItem@@HH@Z 004bf7a0 f   PluginW.obj
 0001:000be8b0       ?ProcessEvent@PluginW@@UAEHPAXH0@Z 004bf8b0 f   PluginW.obj
 0001:000be9b0       ?Compare@PluginW@@UAEHPAXPBUPluginPanelItem@@1K@Z 004bf9b0 f   PluginW.obj
 0001:000beac0       ?GetFindData@PluginW@@UAEHPAXPAPAUPluginPanelItem@@PAHH@Z 004bfac0 f   PluginW.obj
 0001:000bebc0       ?FreeFindData@PluginW@@UAEXPAXPAUPluginPanelItem@@H@Z 004bfbc0 f   PluginW.obj
 0001:000becb0       ?ProcessKey@PluginW@@UAEHPAXHI@Z 004bfcb0 f   PluginW.obj
 0001:000bedb0       ?ClosePlugin@PluginW@@UAEXPAX@Z 004bfdb0 f   PluginW.obj
 0001:000bee80       ?SetDirectory@PluginW@@UAEHPAXPB_WH@Z 004bfe80 f   PluginW.obj
 0001:000bef80       ?GetOpenPluginInfo@PluginW@@UAEXPAXPAUOpenPluginInfo@@@Z 004bff80 f   PluginW.obj
 0001:000bf060       ?Configure@PluginW@@UAEHH@Z 004c0060 f   PluginW.obj
 0001:000bf140       ?GetPluginInfo@PluginW@@UAE_NPAUPluginInfo@@@Z 004c0140 f   PluginW.obj
 0001:000bf220       ?GetCustomData@PluginW@@UAEHPB_WPAPA_W@Z 004c0220 f   PluginW.obj
 0001:000bf340       ?FreeCustomData@PluginW@@UAEXPA_W@Z 004c0340 f   PluginW.obj
 0001:000bf430       ?ExitFAR@PluginW@@UAEXXZ   004c0430 f   PluginW.obj
 0001:000bf4f0       ?ClearExports@PluginW@@AAEXXZ 004c04f0 f   PluginW.obj
 0001:000bf590       ?Unload@PluginW@@UAEH_N@Z  004c0590 f   PluginW.obj
 0001:000bf5e0       ?OpenPlugin@PluginW@@UAEPAXHH@Z 004c05e0 f   PluginW.obj
 0001:000bf7f0       ?KeyNameToKeyW@@YGHPB_W@Z  004c07f0 f   PluginW.obj
 0001:000bf870       ??0PluginW@@QAE@PAVPluginManager@@PB_W@Z 004c0870 f   PluginW.obj
 0001:000bf960       ?HasOpenPlugin@PluginW@@UAE_NXZ 004c0960 f i PluginW.obj
 0001:000bf970       ?HasMakeDirectory@PluginW@@UAE_NXZ 004c0970 f i PluginW.obj
 0001:000bf980       ?HasDeleteFiles@PluginW@@UAE_NXZ 004c0980 f i PluginW.obj
 0001:000bf990       ?HasPutFiles@PluginW@@UAE_NXZ 004c0990 f i PluginW.obj
 0001:000bf9a0       ?HasGetFiles@PluginW@@UAE_NXZ 004c09a0 f i PluginW.obj
 0001:000bf9b0       ?HasSetStartupInfo@PluginW@@UAE_NXZ 004c09b0 f i PluginW.obj
 0001:000bf9c0       ?HasOpenFilePlugin@PluginW@@UAE_NXZ 004c09c0 f i PluginW.obj
 0001:000bf9d0       ?HasClosePlugin@PluginW@@UAE_NXZ 004c09d0 f i PluginW.obj
 0001:000bf9e0       ?HasGetPluginInfo@PluginW@@UAE_NXZ 004c09e0 f i PluginW.obj
 0001:000bf9f0       ?HasGetOpenPluginInfo@PluginW@@UAE_NXZ 004c09f0 f i PluginW.obj
 0001:000bfa00       ?HasGetFindData@PluginW@@UAE_NXZ 004c0a00 f i PluginW.obj
 0001:000bfa10       ?HasFreeFindData@PluginW@@UAE_NXZ 004c0a10 f i PluginW.obj
 0001:000bfa20       ?HasGetVirtualFindData@PluginW@@UAE_NXZ 004c0a20 f i PluginW.obj
 0001:000bfa30       ?HasFreeVirtualFindData@PluginW@@UAE_NXZ 004c0a30 f i PluginW.obj
 0001:000bfa40       ?HasSetDirectory@PluginW@@UAE_NXZ 004c0a40 f i PluginW.obj
 0001:000bfa50       ?HasProcessHostFile@PluginW@@UAE_NXZ 004c0a50 f i PluginW.obj
 0001:000bfa60       ?HasSetFindList@PluginW@@UAE_NXZ 004c0a60 f i PluginW.obj
 0001:000bfa70       ?HasConfigure@PluginW@@UAE_NXZ 004c0a70 f i PluginW.obj
 0001:000bfa80       ?HasExitFAR@PluginW@@UAE_NXZ 004c0a80 f i PluginW.obj
 0001:000bfa90       ?HasProcessKey@PluginW@@UAE_NXZ 004c0a90 f i PluginW.obj
 0001:000bfaa0       ?HasProcessEvent@PluginW@@UAE_NXZ 004c0aa0 f i PluginW.obj
 0001:000bfab0       ?HasProcessEditorEvent@PluginW@@UAE_NXZ 004c0ab0 f i PluginW.obj
 0001:000bfac0       ?HasCompare@PluginW@@UAE_NXZ 004c0ac0 f i PluginW.obj
 0001:000bfad0       ?HasProcessEditorInput@PluginW@@UAE_NXZ 004c0ad0 f i PluginW.obj
 0001:000bfae0       ?HasMinFarVersion@PluginW@@UAE_NXZ 004c0ae0 f i PluginW.obj
 0001:000bfaf0       ?HasProcessViewerEvent@PluginW@@UAE_NXZ 004c0af0 f i PluginW.obj
 0001:000bfb00       ?HasProcessDialogEvent@PluginW@@UAE_NXZ 004c0b00 f i PluginW.obj
 0001:000bfb10       ?HasProcessSynchroEvent@PluginW@@UAE_NXZ 004c0b10 f i PluginW.obj
 0001:000bfb20       ?HasAnalyse@PluginW@@UAE_NXZ 004c0b20 f i PluginW.obj
 0001:000bfb30       ?HasGetCustomData@PluginW@@UAE_NXZ 004c0b30 f i PluginW.obj
 0001:000bfb40       ?HasFreeCustomData@PluginW@@UAE_NXZ 004c0b40 f i PluginW.obj
 0001:000bfb50       ?CheckWorkFlags@PluginA@@UAE_NK@Z 004c0b50 f i PluginA.obj
 0001:000bfb50       ?CheckWorkFlags@PluginW@@UAE_NK@Z 004c0b50 f i PluginW.obj
 0001:000bfb70       ?GetFuncFlags@PluginW@@UAEKXZ 004c0b70 f i PluginW.obj
 0001:000bfb70       ?GetFuncFlags@PluginA@@UAEKXZ 004c0b70 f i PluginA.obj
 0001:000bfb80       ?InitLang@PluginW@@UAE_NPB_W@Z 004c0b80 f i PluginW.obj
 0001:000bfba0       ?CloseLang@PluginA@@UAEXXZ 004c0ba0 f i PluginA.obj
 0001:000bfba0       ?CloseLang@PluginW@@UAEXXZ 004c0ba0 f i PluginW.obj
 0001:000bfbb0       ??1PluginW@@UAE@XZ         004c0bb0 f   PluginW.obj
 0001:000bfc30       ?LoadFromCache@PluginW@@UAE_NABUFAR_FIND_DATA_EX@@@Z 004c0c30 f   PluginW.obj
 0001:000bff70       ?Load@PluginW@@UAE_NXZ     004c0f70 f   PluginW.obj
 0001:000c0350       ?CreatePluginStartupInfo@@YAXPAVPlugin@@PAUPluginStartupInfo@@PAUFarStandardFunctions@@@Z 004c1350 f   PluginW.obj
 0001:000c06c0       ?SetStartupInfo@PluginW@@UAE_NAA_N@Z 004c16c0 f   PluginW.obj
 0001:000c0930       ?CheckMinFarVersion@PluginW@@UAE_NAA_N@Z 004c1930 f   PluginW.obj
 0001:000c0a60       ?PutFiles@PluginW@@UAEHPAXPAUPluginPanelItem@@HHH@Z 004c1a60 f   PluginW.obj
 0001:000c0bc0       ??_EPluginW@@UAEPAXI@Z     004c1bc0 f i PluginW.obj
 0001:000c0bc0       ??_GPluginW@@UAEPAXI@Z     004c1bc0 f i PluginW.obj
 0001:000c0c00       ?SaveToCache@PluginW@@UAE_NXZ 004c1c00 f   PluginW.obj
 0001:000c10a0       ??0FilePositionCache@@QAE@XZ 004c20a0 f   poscache.obj
 0001:000c11f0       ?FindPosition@FilePositionCache@@AAEHPB_W@Z 004c21f0 f   poscache.obj
 0001:000c1280       ??1FilePositionCache@@QAE@XZ 004c2280 f   poscache.obj
 0001:000c1300       ?AddPosition@FilePositionCache@@QAEXPB_WAAUPosCache@@@Z 004c2300 f   poscache.obj
 0001:000c1470       ?GetPosition@FilePositionCache@@QAE_NPB_WAAUPosCache@@@Z 004c2470 f   poscache.obj
 0001:000c15d0       ?Save@FilePositionCache@@QAE_NPB_W@Z 004c25d0 f   poscache.obj
 0001:000c1910       ?Read@FilePositionCache@@QAE_NPB_W@Z 004c2910 f   poscache.obj
 0001:000c1dc0       ?PrintFiles@@YAXPAVPanel@@@Z 004c2dc0 f   print.obj
 0001:000c2500       ??0Privilege@@QAE@PB_W@Z   004c3500 f   privilege.obj
 0001:000c25a0       ??1Privilege@@QAE@XZ       004c35a0 f   privilege.obj
 0001:000c2910       ?CmpName@@YAHPB_W0_N1@Z    004c3910 f   processname.obj
 0001:000c2950       ?ConvertWildcards@@YAHPB_WAAVUnicodeString@@H@Z 004c3950 f   processname.obj
 0001:000c2d70       ?ProcessName@@YGHPB_WPA_WKK@Z 004c3d70 f   processname.obj
 0001:000c2f00       ?VMProcess@QuickView@@UAE_JHPAX_J@Z 004c3f00 f   qview.obj
 0001:000c2f60       ?ProcessMouse@QuickView@@UAEHPAU_MOUSE_EVENT_RECORD@@@Z 004c3f60 f   qview.obj
 0001:000c2fd0       ?CloseFile@QuickView@@UAEXXZ 004c3fd0 f   qview.obj
 0001:000c3060       ?GetTitle@QuickView@@UAEAAVUnicodeString@@AAV2@HH@Z 004c4060 f   qview.obj
 0001:000c30f0       ?Update@QuickView@@UAEXH@Z 004c40f0 f   qview.obj
 0001:000c3140       ?QViewDelTempName@QuickView@@UAEXXZ 004c4140 f   qview.obj
 0001:000c3210       ?PrintText@QuickView@@AAEXPB_W@Z 004c4210 f   qview.obj
 0001:000c3270       ?SetFocus@QuickView@@UAEXXZ 004c4270 f   qview.obj
 0001:000c32b0       ?KillFocus@QuickView@@UAEXXZ 004c42b0 f   qview.obj
 0001:000c32f0       ?GetCurName@QuickView@@UAEHAAVUnicodeString@@0@Z 004c42f0 f   qview.obj
 0001:000c3340       ?DynamicUpdateKeyBar@QuickView@@AAEXXZ 004c4340 f   qview.obj
 0001:000c34e0       ??0QuickView@@QAE@XZ       004c44e0 f   qview.obj
 0001:000c3570       ??1QuickView@@UAE@XZ       004c4570 f   qview.obj
 0001:000c3620       ?ProcessKey@QuickView@@UAEHH@Z 004c4620 f   qview.obj
 0001:000c3800       ?ShowFile@QuickView@@QAEXPB_WHPAX@Z 004c4800 f   qview.obj
 0001:000c3b80       ?UpdateIfChanged@QuickView@@UAEHH@Z 004c4b80 f   qview.obj
 0001:000c3c40       ?SetTitle@QuickView@@UAEXXZ 004c4c40 f   qview.obj
 0001:000c3d60       ?UpdateKeyBar@QuickView@@UAEHXZ 004c4d60 f   qview.obj
 0001:000c3e00       ??_EQuickView@@UAEPAXI@Z   004c4e00 f i qview.obj
 0001:000c3e00       ??_GQuickView@@UAEPAXI@Z   004c4e00 f i qview.obj
 0001:000c3e30       ?DisplayObject@QuickView@@EAEXXZ 004c4e30 f   qview.obj
 0001:000c47a0       ??0RedrawDesktop@@QAE@H@Z  004c57a0 f   rdrwdsk.obj
 0001:000c48e0       ??1RedrawDesktop@@QAE@XZ   004c58e0 f   rdrwdsk.obj
 0001:000c49c0       ??0UndoGlobalSaveScrPtr@@QAE@PAVSaveScreen@@@Z 004c59c0 f   RefreshFrameManager.obj
 0001:000c49e0       ??1UndoGlobalSaveScrPtr@@QAE@XZ 004c59e0 f   RefreshFrameManager.obj
 0001:000c49f0       ??0RefreshFrameManager@@QAE@HHHH@Z 004c59f0 f   RefreshFrameManager.obj
 0001:000c4a10       ??1RefreshFrameManager@@QAE@XZ 004c5a10 f   RefreshFrameManager.obj
 0001:000c4a80       ?isType@@YAH_WH@Z          004c5a80 f   RegExp.obj
 0001:000c4b40       ??0UniSet@@QAE@XZ          004c5b40 f i RegExp.obj
 0001:000c4b70       ?Reset@UniSet@@QAEXXZ      004c5b70 f i RegExp.obj
 0001:000c4bb0       ?CheckType@UniSet@@QBE_NH_W@Z 004c5bb0 f i RegExp.obj
 0001:000c4ca0       ?GetBit@UniSet@@QBE_N_W@Z  004c5ca0 f i RegExp.obj
 0001:000c4d60       ?SetBit@UniSet@@QAEX_W@Z   004c5d60 f i RegExp.obj
 0001:000c4dc0       ??0RegExp@@QAE@XZ          004c5dc0 f   RegExp.obj
 0001:000c4e80       ?CalcLength@RegExp@@AAEHPB_WH@Z 004c5e80 f   RegExp.obj
 0001:000c5110       ?GetNum@RegExp@@AAEHPB_WAAH@Z 004c6110 f   RegExp.obj
 0001:000c52a0       ?InnerCompile@RegExp@@AAEHPB_WHH@Z 004c62a0 f   RegExp.obj
 0001:000c6370       ?PushState@RegExp@@AAEXXZ  004c7370 f i RegExp.obj
 0001:000c6420       ?PopState@RegExp@@AAEHXZ   004c7420 f i RegExp.obj
 0001:000c6470       ?GetState@RegExp@@AAEPAUStateStackItem@@XZ 004c7470 f i RegExp.obj
 0001:000c64a0       ?FindStateByPos@RegExp@@AAEPAUStateStackItem@@PAUREOpCode@@H@Z 004c74a0 f i RegExp.obj
 0001:000c6500       ?StrCmp@RegExp@@AAEHAAPB_WPB_W1@Z 004c7500 f i RegExp.obj
 0001:000c65a0       ?InnerMatch@RegExp@@AAEHPB_W0PAURegExpMatch@@AAH@Z 004c75a0 f   RegExp.obj
 0001:000ca070       ?TrimTail@RegExp@@AAEXAAPB_W@Z 004cb070 f   RegExp.obj
 0001:000ca480       ?CleanStack@RegExp@@QAEXXZ 004cb480 f   RegExp.obj
 0001:000ca4b0       ??1REOpCode@@QAE@XZ        004cb4b0 f   RegExp.obj
 0001:000ca530       ?MatchEx@RegExp@@QAEHPB_W00PAURegExpMatch@@AAH@Z 004cb530 f   RegExp.obj
 0001:000ca620       ?Optimize@RegExp@@QAEHXZ   004cb620 f   RegExp.obj
 0001:000cac80       ?Search@RegExp@@QAEHPB_W0PAURegExpMatch@@AAH@Z 004cbc80 f   RegExp.obj
 0001:000cae30       ?SearchEx@RegExp@@QAEHPB_W00PAURegExpMatch@@AAH@Z 004cbe30 f   RegExp.obj
 0001:000cb000       ??1RegExp@@UAE@XZ          004cc000 f   RegExp.obj
 0001:000cb0b0       ?Compile@RegExp@@QAEHPB_WH@Z 004cc0b0 f   RegExp.obj
 0001:000cb3c0       ??_GRegExp@@UAEPAXI@Z      004cc3c0 f i RegExp.obj
 0001:000cb3c0       ??_ERegExp@@UAEPAXI@Z      004cc3c0 f i RegExp.obj
 0001:000cb3f0       ?SetRegRootKey@@YAXPAUHKEY__@@@Z 004cc3f0 f   registry.obj
 0001:000cb400       ?CloseSameRegKey@@YAXXZ    004cc400 f   registry.obj
 0001:000cb450       ?CmpItems@?$TArray@VKeyRecordItem@@@@CAHPAPBVKeyRecordItem@@0@Z 004cc450 f i registry.obj
 0001:000cb480       ?setSize@?$TArray@VKeyRecordItem@@@@QAE_NI@Z 004cc480 f i registry.obj
 0001:000cb580       ?UseSameRegKey@@YAXXZ      004cc580 f   registry.obj
 0001:000cb650       ?RegQueryStringValueEx@@YAHPAUHKEY__@@PB_WAAVUnicodeString@@1@Z 004cc650 f   registry.obj
 0001:000cb700       ?RegQueryStringValue@@YAHPAUHKEY__@@PB_WAAVUnicodeString@@1@Z 004cc700 f   registry.obj
 0001:000cb7d0       ?DeleteRegKey@@YAXPB_W@Z   004cc7d0 f   registry.obj
 0001:000cb830       ?DeleteRegValue@@YAXPB_W0@Z 004cc830 f   registry.obj
 0001:000cba80       ?DeleteEmptyKey@@YAHPAUHKEY__@@PB_W@Z 004cca80 f   registry.obj
 0001:000cbbd0       ?CheckRegKey@@YAHPB_W@Z    004ccbd0 f   registry.obj
 0001:000cbc60       ?CreateRegKey@@YAPAUHKEY__@@PB_W@Z 004ccc60 f   registry.obj
 0001:000cbd00       ?OpenRegKey@@YAPAUHKEY__@@PB_W@Z 004ccd00 f   registry.obj
 0001:000cbdc0       ?DeleteFullKeyTree@@YAXPB_W@Z 004ccdc0 f   registry.obj
 0001:000cbf80       ?CheckRegValue@@YAHPB_W0PAK1@Z 004ccf80 f   registry.obj
 0001:000cc010       ?EnumRegKey@@YAHPB_WKAAVUnicodeString@@@Z 004cd010 f   registry.obj
 0001:000cc110       ?EnumRegValueEx@@YAHPB_WKAAVUnicodeString@@1PAKPA_J2@Z 004cd110 f   registry.obj
 0001:000cc2e0       ?SetRegKey@@YAJPB_W0QB_WHK@Z 004cd2e0 f   registry.obj
 0001:000cc330       ?SetRegKey@@YAJPB_W0QB_W@Z 004cd330 f   registry.obj
 0001:000cc3a0       ?SetRegKey@@YAJPB_W0K@Z    004cd3a0 f   registry.obj
 0001:000cc3f0       ?SetRegKey64@@YAJPB_W0_K@Z 004cd3f0 f   registry.obj
 0001:000cc440       ?SetRegKey@@YAJPB_W0PBEK@Z 004cd440 f   registry.obj
 0001:000cc490       ?GetRegKey@@YAHPB_W0AAVUnicodeString@@0PAK@Z 004cd490 f   registry.obj
 0001:000cc590       ?GetRegKey@@YAHPB_W0AAHK@Z 004cd590 f   registry.obj
 0001:000cc600       ?GetRegKey@@YAHPB_W0K@Z    004cd600 f   registry.obj
 0001:000cc670       ?GetRegKey64@@YAHPB_W0AA_J_K@Z 004cd670 f   registry.obj
 0001:000cc6e0       ?GetRegKey64@@YA_JPB_W0_K@Z 004cd6e0 f   registry.obj
 0001:000cc710       ?GetRegKey@@YAHPB_W0PAEPBEKPAK@Z 004cd710 f   registry.obj
 0001:000cc800       ?CopyKeyTree@@YAHPB_W00@Z  004cd800 f   registry.obj
 0001:000ccc90       ?CopyLocalKeyTree@@YAHPB_W0@Z 004cdc90 f   registry.obj
 0001:000ccd30       ?DeleteKeyTree@@YAXPB_W@Z  004cdd30 f   registry.obj
 0001:000ccd80       ?EnumRegValue@@YAHPB_WKAAVUnicodeString@@PAEKPAKPA_J@Z 004cdd80 f   registry.obj
 0001:000cce10       ?DeleteKeyRecord@@YAXPB_WH@Z 004cde10 f   registry.obj
 0001:000ccf10       ?InsertKeyRecord@@YAXPB_WHH@Z 004cdf10 f   registry.obj
 0001:000cd020       ?RenumKeyRecord@@YAXPB_W00@Z 004ce020 f   registry.obj
 0001:000cd300       ?RestoreArea@SaveScreen@@QAEXH@Z 004ce300 f   savescr.obj
 0001:000cd350       ?CorrectRealScreenCoord@SaveScreen@@QAEXXZ 004ce350 f   savescr.obj
 0001:000cd390       ?AppendArea@SaveScreen@@QAEXPAV1@@Z 004ce390 f   savescr.obj
 0001:000cd440       ??1SaveScreen@@QAE@XZ      004ce440 f   savescr.obj
 0001:000cd490       ?SaveArea@SaveScreen@@QAEXHHHH@Z 004ce490 f   savescr.obj
 0001:000cd530       ?SaveArea@SaveScreen@@QAEXXZ 004ce530 f   savescr.obj
 0001:000cd590       ?Resize@SaveScreen@@QAEXHHK_N@Z 004ce590 f   savescr.obj
 0001:000cdac0       ??0SaveScreen@@QAE@XZ      004ceac0 f   savescr.obj
 0001:000cdaf0       ??0SaveScreen@@QAE@HHHH@Z  004ceaf0 f   savescr.obj
 0001:000cdba0       ?getItem@?$TPointerArray@UScanTreeData@@@@QAEPAUScanTreeData@@I@Z 004ceba0 f i scantree.obj
 0001:000cdba0       ?getItem@?$TPointerArray@VFileFilterParams@@@@QAEPAVFileFilterParams@@I@Z 004ceba0 f i filefilter.obj
 0001:000cdbc0       ?lastItem@?$TPointerArray@UScanTreeData@@@@QAEPAUScanTreeData@@XZ 004cebc0 f i scantree.obj
 0001:000cdbe0       ?insertItem@?$TPointerArray@UScanTreeData@@@@QAEPAUScanTreeData@@I@Z 004cebe0 f i scantree.obj
 0001:000cdcb0       ?deleteItem@?$TPointerArray@UScanTreeData@@@@QAE_NI@Z 004cecb0 f i scantree.obj
 0001:000cdd40       ?SetFindPath@ScanTree@@QAEXPB_W0K@Z 004ced40 f   scantree.obj
 0001:000cde30       ?GetNextName@ScanTree@@QAE_NPAUFAR_FIND_DATA_EX@@AAVUnicodeString@@@Z 004cee30 f   scantree.obj
 0001:000ce240       ?SkipDir@ScanTree@@QAEXXZ  004cf240 f   scantree.obj
 0001:000ce2b0       ??0ScanTree@@QAE@HHH@Z     004cf2b0 f   scantree.obj
 0001:000ce330       ?Lock@ScreenBuf@@QAEXXZ    004cf330 f   scrbuf.obj
 0001:000ce340       ?Unlock@ScreenBuf@@QAEXXZ  004cf340 f   scrbuf.obj
 0001:000ce350       ?ResetShadow@ScreenBuf@@QAEXXZ 004cf350 f   scrbuf.obj
 0001:000ce360       ?GetCursorPos@ScreenBuf@@QAEXAAF0@Z 004cf360 f   scrbuf.obj
 0001:000ce380       ?SetCursorType@ScreenBuf@@QAEX_NK@Z 004cf380 f   scrbuf.obj
 0001:000ce3a0       ?GetCursorType@ScreenBuf@@QAEXAA_NAAK@Z 004cf3a0 f   scrbuf.obj
 0001:000ce3c0       ?AllocBuf@ScreenBuf@@QAEXHH@Z 004cf3c0 f   scrbuf.obj
 0001:000ce4c0       ?FillBuf@ScreenBuf@@QAEXXZ 004cf4c0 f   scrbuf.obj
 0001:000ce570       ?Write@ScreenBuf@@QAEXHHPBU_CHAR_INFO@@H@Z 004cf570 f   scrbuf.obj
 0001:000ce660       ?Read@ScreenBuf@@QAEXHHHHPAU_CHAR_INFO@@H@Z 004cf660 f   scrbuf.obj
 0001:000ce700       ?ApplyColorMask@ScreenBuf@@QAEXHHHHG@Z 004cf700 f   scrbuf.obj
 0001:000ce790       ?ApplyColor@ScreenBuf@@QAEXHHHHG@Z 004cf790 f   scrbuf.obj
 0001:000ce890       ?ApplyColor@ScreenBuf@@QAEXHHHHHG@Z 004cf890 f   scrbuf.obj
 0001:000ce9a0       ?FillRect@ScreenBuf@@QAEXHHHH_WG@Z 004cf9a0 f   scrbuf.obj
 0001:000cea40       ?MoveCursor@ScreenBuf@@QAEXHH@Z 004cfa40 f   scrbuf.obj
 0001:000ceab0       ?RestoreMacroChar@ScreenBuf@@QAEXXZ 004cfab0 f   scrbuf.obj
 0001:000cead0       ?RestoreElevationChar@ScreenBuf@@QAEXXZ 004cfad0 f   scrbuf.obj
 0001:000ceb00       ?Scroll@ScreenBuf@@QAEXH@Z 004cfb00 f   scrbuf.obj
 0001:000ceb50       ?AllocNode@?$DList@U_SMALL_RECT@@@@EAEPAUNode@CDList@@PAX@Z 004cfb50 f i scrbuf.obj
 0001:000ceb80       ?Flush@ScreenBuf@@QAEXXZ   004cfb80 f   scrbuf.obj
 0001:000cf100       ??0ScreenObject@@QAE@XZ    004d0100 f   scrobj.obj
 0001:000cf130       ?Lock@ScreenObject@@QAEXXZ 004d0130 f   scrobj.obj
 0001:000cf140       ?Unlock@ScreenObject@@QAEXXZ 004d0140 f   scrobj.obj
 0001:000cf160       ?Locked@ScreenObject@@QAE_NXZ 004d0160 f   scrobj.obj
 0001:000cf180       ?SetOwner@ScreenObject@@QAEXPAV1@@Z 004d0180 f   scrobj.obj
 0001:000cf190       ?SetPosition@ScreenObject@@UAEXHHHH@Z 004d0190 f   scrobj.obj
 0001:000cf1f0       ?SetScreenPosition@ScreenObject@@UAEXXZ 004d01f0 f   scrobj.obj
 0001:000cf200       ?GetPosition@ScreenObject@@UAEXAAH000@Z 004d0200 f   scrobj.obj
 0001:000cf230       ?Hide@ScreenObject@@UAEXXZ 004d0230 f   scrobj.obj
 0001:000cf280       ?Hide0@ScreenObject@@UAEXXZ 004d0280 f   scrobj.obj
 0001:000cf290       ?SavePrevScreen@ScreenObject@@QAEXXZ 004d0290 f   scrobj.obj
 0001:000cf2e0       ?Redraw@ScreenObject@@QAEXXZ 004d02e0 f   scrobj.obj
 0001:000cf2f0       ?Shadow@ScreenObject@@QAEX_N@Z 004d02f0 f   scrobj.obj
 0001:000cf3d0       ??1ScreenObject@@UAE@XZ    004d03d0 f   scrobj.obj
 0001:000cf430       ?Show@ScreenObject@@UAEXXZ 004d0430 f   scrobj.obj
 0001:000cf470       ??_EScreenObject@@UAEPAXI@Z 004d0470 f i scrobj.obj
 0001:000cf470       ??_GScreenObject@@UAEPAXI@Z 004d0470 f i scrobj.obj
 0001:000cf8a0       ?ScreenSaver@@YAHH@Z       004d08a0 f   scrsaver.obj
 0001:000cfa50       ??1SetAttrDlgParam@@QAE@XZ 004d0a50 f i setattr.obj
 0001:000cfa90       ?ShellSetFileAttributesMsg@@YAXPB_W@Z 004d0a90 f   setattr.obj
 0001:000cfc00       ?ReadFileTime@@YA_NHPB_WAAU_FILETIME@@00@Z 004d0c00 f   setattr.obj
 0001:000cfe90       ?PR_ShellSetFileAttributesMsg@@YAXXZ 004d0e90 f   setattr.obj
 0001:000cfec0       ?SetAttrDlgProc@@YGJPAXHHJ@Z 004d0ec0 f   setattr.obj
 0001:000d0780       ?ShellSetFileAttributes@@YA_NPAVPanel@@PB_W@Z 004d1780 f   setattr.obj
 0001:000d3b10       ?GetColorDialog@@YAHAAG_N1@Z 004d4b10 f   setcolor.obj
 0001:000d4b00       ?SetColors@@YAXXZ          004d5b00 f   setcolor.obj
 0001:000d5a80       ?GetString@@YGHPB_W000AAVUnicodeString@@0KPAH0@Z 004d6a80 f   stddlg.obj
 0001:000d6140       ?GetSearchReplaceString@@YGHHPAVUnicodeString@@0PB_W1PAH22221@Z 004d7140 f   stddlg.obj
 0001:000d6dc0       ?GetNameAndPassword@@YGHPB_WAAVUnicodeString@@10K@Z 004d7dc0 f   stddlg.obj
 0001:000d7190       ?RemoveChar@@YAAAVUnicodeString@@AAV1@_WH@Z 004d8190 f   strmix.obj
 0001:000d7200       ?Unquote@@YGXPA_W@Z        004d8200 f   strmix.obj
 0001:000d7240       ?Unquote@@YGXAAVUnicodeString@@@Z 004d8240 f   strmix.obj
 0001:000d7290       ?PrepareUnitStr@@YAXXZ     004d8290 f   strmix.obj
 0001:000d7300       ?CheckFileSizeStringFormat@@YA_NPB_W@Z 004d8300 f   strmix.obj
 0001:000d7370       ?GetDecimalSeparator@@YA_WXZ 004d8370 f   strmix.obj
 0001:000d73a0       ?InsertQuote@@YGPA_WPA_W@Z 004d83a0 f   strmix.obj
 0001:000d7400       ?InsertQuote@@YAAAVUnicodeString@@AAV1@@Z 004d8400 f   strmix.obj
 0001:000d7470       ?InsertRegexpQuote@@YAAAVUnicodeString@@AAV1@@Z 004d8470 f   strmix.obj
 0001:000d74f0       ?QuoteSpace@@YAAAVUnicodeString@@AAV1@@Z 004d84f0 f   strmix.obj
 0001:000d7520       ?QuoteSpaceOnly@@YGPA_WPA_W@Z 004d8520 f   strmix.obj
 0001:000d7550       ?QuoteSpaceOnly@@YGAAVUnicodeString@@AAV1@@Z 004d8550 f   strmix.obj
 0001:000d7580       ?TruncStrFromEnd@@YGPA_WPA_WH@Z 004d8580 f   strmix.obj
 0001:000d75f0       ?TruncStr@@YGPA_WPA_WH@Z   004d85f0 f   strmix.obj
 0001:000d7690       ?TruncStr@@YGAAVUnicodeString@@AAV1@H@Z 004d8690 f   strmix.obj
 0001:000d76c0       ?TruncStrFromCenter@@YAPA_WPA_WH@Z 004d86c0 f   strmix.obj
 0001:000d7760       ?TruncStrFromCenter@@YAAAVUnicodeString@@AAV1@H@Z 004d8760 f   strmix.obj
 0001:000d7790       ?TruncPathStr@@YGPA_WPA_WH@Z 004d8790 f   strmix.obj
 0001:000d78d0       ?TruncPathStr@@YGAAVUnicodeString@@AAV1@H@Z 004d88d0 f   strmix.obj
 0001:000d7900       ?RemoveLeadingSpaces@@YGPA_WPA_W@Z 004d8900 f   strmix.obj
 0001:000d7970       ?RemoveLeadingSpaces@@YGAAVUnicodeString@@AAV1@@Z 004d8970 f   strmix.obj
 0001:000d79c0       ?RemoveTrailingSpaces@@YGPA_WPA_W@Z 004d89c0 f   strmix.obj
 0001:000d7a30       ?RemoveTrailingSpaces@@YGAAVUnicodeString@@AAV1@@Z 004d8a30 f   strmix.obj
 0001:000d7ab0       ?RemoveExternalSpaces@@YGPA_WPA_W@Z 004d8ab0 f   strmix.obj
 0001:000d7ad0       ?RemoveExternalSpaces@@YGAAVUnicodeString@@AAV1@@Z 004d8ad0 f   strmix.obj
 0001:000d7af0       ?RemoveUnprintableCharacters@@YGAAVUnicodeString@@AAV1@@Z 004d8af0 f   strmix.obj
 0001:000d7b50       ?GetCommaWord@@YAPB_WPB_WAAVUnicodeString@@_W@Z 004d8b50 f   strmix.obj
 0001:000d7be0       ?IsCaseMixed@@YAHABVUnicodeString@@@Z 004d8be0 f   strmix.obj
 0001:000d7c60       ?UnquoteExternal@@YAXAAVUnicodeString@@@Z 004d8c60 f   strmix.obj
 0001:000d7ca0       ?ReplaceStrings@@YAHAAVUnicodeString@@PB_W1HH@Z 004d8ca0 f   strmix.obj
 0001:000d7e40       ?ConvertFileSizeString@@YA_KPB_W@Z 004d8e40 f   strmix.obj
 0001:000d7f50       ?FormatNumber@@YAAAVUnicodeString@@PB_WAAV1@H@Z 004d8f50 f   strmix.obj
 0001:000d80b0       ?InsertCommas@@YAAAVUnicodeString@@_KAAV1@@Z 004d90b0 f   strmix.obj
 0001:000d80e0       ?TruncStrFromEnd@@YGAAVUnicodeString@@AAV1@H@Z 004d90e0 f   strmix.obj
 0001:000d8110       ?FileSizeToStr@@YGAAVUnicodeString@@AAV1@_KHH@Z 004d9110 f   strmix.obj
 0001:000d8540       ?FarFormatText@@YGAAVUnicodeString@@PB_WHAAV1@0K@Z 004d9540 f   strmix.obj
 0001:000d89e0       ?CalcWordFromString@@YAQB_WPB_WHPAH10@Z 004d99e0 f   strmix.obj
 0001:000d8ba0       ?Transform@@YAXAAVUnicodeString@@PB_W_W@Z 004d9ba0 f   strmix.obj
 0001:000d8cd0       ?ReplaceBrackets@@YA?AVUnicodeString@@ABV1@0PAURegExpMatch@@H@Z 004d9cd0 f   strmix.obj
 0001:000d8e10       ?CenterStr@@YAAAVUnicodeString@@PB_WAAV1@H@Z 004d9e10 f   strmix.obj
 0001:000d8f60       ?DeleteNode@?$DList@PAUPrevDataItem@@@@EAEXPAUNode@CDList@@@Z 004d9f60 f i filelist.obj
 0001:000d8f60       ?DeleteNode@?$DList@PAUSIDCacheItem@@@@EAEXPAUNode@CDList@@@Z 004d9f60 f i fileowner.obj
 0001:000d8f60       ?DeleteNode@?$DList@U_SMALL_RECT@@@@EAEXPAUNode@CDList@@@Z 004d9f60 f i scrbuf.obj
 0001:000d8f60       ?DeleteNode@?$DList@PAUPluginsListItem@@@@EAEXPAUNode@CDList@@@Z 004d9f60 f i filelist.obj
 0001:000d8f60       ?DeleteNode@?$DList@PAUDialogData@@@@EAEXPAUNode@CDList@@@Z 004d9f60 f i PluginA.obj
 0001:000d8f60       ?DeleteNode@?$DList@USynchroData@PluginSynchro@@@@EAEXPAUNode@CDList@@@Z 004d9f60 f i synchro.obj
 0001:000d8f80       ?Synchro@PluginSynchro@@QAEX_NHPAX@Z 004d9f80 f   synchro.obj
 0001:000d8fd0       ?AllocNode@?$DList@USynchroData@PluginSynchro@@@@EAEPAUNode@CDList@@PAX@Z 004d9fd0 f i synchro.obj
 0001:000d9010       ?Process@PluginSynchro@@QAE_NXZ 004da010 f   synchro.obj
 0001:000d90c0       ?findnearloop@TExec@@QAEHPAPAUTExecItem@@@Z 004da0c0 f   syntax.obj
 0001:000d9100       ?add@TExec@@QAEHW4TExecMode@@KK@Z 004da100 f   syntax.obj
 0001:000d9150       ?del@TExec@@QAEHXZ         004da150 f   syntax.obj
 0001:000d9350       ?__getMacroErrorCode@@YAHPAH@Z 004da350 f   syntax.obj
 0001:000da3a0       ?__getMacroParseError@@YAHPAKPAU_COORD@@PAVUnicodeString@@@Z 004db3a0 f   syntax.obj
 0001:000da400       ?__getMacroParseError@@YAHPAVUnicodeString@@000@Z 004db400 f   syntax.obj
 0001:000daf20       ?__parseMacroString@@YAHAAPAKAAHPB_W@Z 004dbf20 f   syntax.obj
 0001:000dbba0       ?SetProgressState@TaskBarCore@@QAEXW4TBPFLAG@@@Z 004dcba0 f   TaskBar.obj
 0001:000dbbe0       ?SetProgressValue@TaskBarCore@@QAEX_K0@Z 004dcbe0 f   TaskBar.obj
 0001:000dbc30       ?Flash@TaskBarCore@@QAEXXZ 004dcc30 f   TaskBar.obj
 0001:000dbcb0       ??0TaskBar@@QAE@_N@Z       004dccb0 f   TaskBar.obj
 0001:000dbd00       ??1TaskBar@@QAE@XZ         004dcd00 f   TaskBar.obj
 0001:000dbd50       ??0TaskBarPause@@QAE@XZ    004dcd50 f   TaskBar.obj
 0001:000dbde0       ??1TaskBarError@@QAE@XZ    004dcde0 f   TaskBar.obj
 0001:000dbde0       ??1TaskBarPause@@QAE@XZ    004dcde0 f   TaskBar.obj
 0001:000dbe10       ??0TaskBarError@@QAE@XZ    004dce10 f   TaskBar.obj
 0001:000dbea0       ?Pop@TPreRedrawFunc@@QAE?AUPreRedrawItem@@XZ 004dcea0 f   TPreRedrawFunc.obj
 0001:000dbf10       ?Peek@TPreRedrawFunc@@QAE?AUPreRedrawItem@@XZ 004dcf10 f   TPreRedrawFunc.obj
 0001:000dbf40       ?SetParam@TPreRedrawFunc@@QAE?AUPreRedrawItem@@UPreRedrawParamStruct@@@Z 004dcf40 f   TPreRedrawFunc.obj
 0001:000dbf90       ?Push@TPreRedrawFunc@@QAE?AUPreRedrawItem@@ABU2@@Z 004dcf90 f   TPreRedrawFunc.obj
 0001:000dc010       ?Push@TPreRedrawFunc@@QAE?AUPreRedrawItem@@P6AXXZPAUPreRedrawParamStruct@@@Z 004dd010 f   TPreRedrawFunc.obj
 0001:000dc070       ??0TPreRedrawFuncGuard@@QAE@P6AXXZ@Z 004dd070 f   TPreRedrawFunc.obj
 0001:000dc0c0       ??1TPreRedrawFuncGuard@@QAE@XZ 004dd0c0 f   TPreRedrawFunc.obj
 0001:000dc0f0       ?Insert@TreeListCache@@QAEXHPB_W@Z 004dd0f0 f i treelist.obj
 0001:000dc170       ?Clean@TreeListCache@@QAEXXZ 004dd170 f i treelist.obj
 0001:000dc1d0       ?Copy@TreeListCache@@QAEXPAU1@@Z 004dd1d0 f i treelist.obj
 0001:000dc260       ?GetTitle@TreeList@@UAEAAVUnicodeString@@AAV2@HH@Z 004dd260 f   treelist.obj
 0001:000dc2b0       ?GetRootPanel@TreeList@@AAEPAVPanel@@XZ 004dd2b0 f   treelist.obj
 0001:000dc310       ?MsgReadTree@TreeList@@CAHHAAH@Z 004dd310 f   treelist.obj
 0001:000dc400       ?VMProcess@TreeList@@UAE_JHPAX_J@Z 004dd400 f   treelist.obj
 0001:000dc490       ?GetNextNavPos@TreeList@@AAEHXZ 004dd490 f   treelist.obj
 0001:000dc4e0       ?GetPrevNavPos@TreeList@@AAEHXZ 004dd4e0 f   treelist.obj
 0001:000dc520       ?CorrectPosition@TreeList@@AAEXXZ 004dd520 f   treelist.obj
 0001:000dc5a0       ?SetDirPosition@TreeList@@AAEHPB_W@Z 004dd5a0 f   treelist.obj
 0001:000dc620       ?GetCurDir@TreeList@@UAEHAAVUnicodeString@@@Z 004dd620 f   treelist.obj
 0001:000dc680       ?MoveToMouse@TreeList@@UAEXPAU_MOUSE_EVENT_RECORD@@@Z 004dd680 f   treelist.obj
 0001:000dc6a0       ?GetSelName@TreeList@@UAEHPAVUnicodeString@@AAK0PAUFAR_FIND_DATA_EX@@@Z 004dd6a0 f   treelist.obj
 0001:000dc710       ?GetCurName@TreeList@@UAEHAAVUnicodeString@@0@Z 004dd710 f   treelist.obj
 0001:000dc760       ?ClearCache@TreeList@@SAXH@Z 004dd760 f   treelist.obj
 0001:000dc770       ?GoToFile@TreeList@@UAEHJ@Z 004dd770 f   treelist.obj
 0001:000dc7a0       ?GoToFile@FileList@@UAEHPB_WH@Z 004dd7a0 f   filelist.obj
 0001:000dc7a0       ?GoToFile@TreeList@@UAEHPB_WH@Z 004dd7a0 f   treelist.obj
 0001:000dc7d0       ?FindFile@TreeList@@UAEJPB_WH@Z 004dd7d0 f   treelist.obj
 0001:000dc880       ?FindFirst@TreeList@@UAEJPB_W@Z 004dd880 f   treelist.obj
 0001:000dc880       ?FindFirst@FileList@@UAEJPB_W@Z 004dd880 f   filelist.obj
 0001:000dc8a0       ?FindNext@TreeList@@UAEJHPB_W@Z 004dd8a0 f   treelist.obj
 0001:000dc920       ?GetFileName@TreeList@@UAEHAAVUnicodeString@@HAAK@Z 004dd920 f   treelist.obj
 0001:000dca70       ?MustBeCached@TreeList@@SAHPB_W@Z 004dda70 f   treelist.obj
 0001:000dcaf0       ?MkTreeFileName@TreeList@@CAAAVUnicodeString@@PB_WAAV2@@Z 004ddaf0 f   treelist.obj
 0001:000dcb50       ?MkTreeCacheFolderName@TreeList@@CAAAVUnicodeString@@PB_WAAV2@@Z 004ddb50 f   treelist.obj
 0001:000dcbb0       ?SetRootDir@TreeList@@QAEXPB_W@Z 004ddbb0 f   treelist.obj
 0001:000dcc30       ?DisplayTreeName@TreeList@@AAEXPB_WH@Z 004ddc30 f   treelist.obj
 0001:000dcd70       ?PR_MsgReadTree@TreeList@@SAXXZ 004ddd70 f   treelist.obj
 0001:000dcda0       ?FillLastData@TreeList@@AAE_NXZ 004ddda0 f   treelist.obj
 0001:000dcf90       ?SetCurDir@TreeList@@UAEHPB_WH@Z 004ddf90 f   treelist.obj
 0001:000dd010       ?UpdateViewPanel@TreeList@@UAEXXZ 004de010 f   treelist.obj
 0001:000dd0e0       ?SetFocus@TreeList@@UAEXXZ 004de0e0 f   treelist.obj
 0001:000dd120       ?UpdateKeyBar@TreeList@@UAEHXZ 004de120 f   treelist.obj
 0001:000dd1e0       ?SetTitle@TreeList@@UAEXXZ 004de1e0 f   treelist.obj
 0001:000dd360       ?GetItem@TreeList@@UAEHHPAX@Z 004de360 f   treelist.obj
 0001:000dd3c0       ??0TreeList@@QAE@H@Z       004de3c0 f   treelist.obj
 0001:000dd460       ?GetFileCount@TreeList@@UAEJXZ 004de460 f i treelist.obj
 0001:000dd470       ??_ETreeItem@@QAEPAXI@Z    004de470 f i treelist.obj
 0001:000dd520       ?DisplayTree@TreeList@@AAEXH@Z 004de520 f   treelist.obj
 0001:000dd9a0       ?GetCacheTreeName@TreeList@@CAHPB_WAAVUnicodeString@@H@Z 004de9a0 f   treelist.obj
 0001:000ddbf0       ?GetRoot@TreeList@@AAEXXZ  004debf0 f   treelist.obj
 0001:000ddc80       ?FindPartName@TreeList@@UAEHPB_WHHH@Z 004dec80 f   treelist.obj
 0001:000dde80       ?FlushCache@TreeList@@SAXXZ 004dee80 f   treelist.obj
 0001:000ddfe0       ?SaveState@TreeList@@AAE_NXZ 004defe0 f   treelist.obj
 0001:000de140       ?RestoreState@TreeList@@AAE_NXZ 004df140 f   treelist.obj
 0001:000de300       ??1TreeList@@UAE@XZ        004df300 f   treelist.obj
 0001:000de450       ?SaveTreeFile@TreeList@@AAEXXZ 004df450 f   treelist.obj
 0001:000de690       ?ReadTreeFile@TreeList@@AAEHXZ 004df690 f   treelist.obj
 0001:000dec20       ?ReadCache@TreeList@@SAXPB_W@Z 004dfc20 f   treelist.obj
 0001:000dee60       ??_GTreeList@@UAEPAXI@Z    004dfe60 f i treelist.obj
 0001:000dee60       ??_ETreeList@@UAEPAXI@Z    004dfe60 f i treelist.obj
 0001:000dee90       ?AddTreeName@TreeList@@SAXPB_W@Z 004dfe90 f   treelist.obj
 0001:000defd0       ?DelTreeName@TreeList@@SAXPB_W@Z 004dffd0 f   treelist.obj
 0001:000df130       ?KillFocus@TreeList@@UAEXXZ 004e0130 f   treelist.obj
 0001:000df1c0       ?ProcessEnter@TreeList@@QAEXXZ 004e01c0 f   treelist.obj
 0001:000df270       ?ReadSubTree@TreeList@@SAXPB_W@Z 004e0270 f   treelist.obj
 0001:000df500       ?ReadTree@TreeList@@QAEHXZ 004e0500 f   treelist.obj
 0001:000dfbc0       ?SyncDir@TreeList@@AAEXXZ  004e0bc0 f   treelist.obj
 0001:000dfc60       ?ProcessKey@TreeList@@UAEHH@Z 004e0c60 f   treelist.obj
 0001:000e0580       ?ProcessMouse@TreeList@@UAEHPAU_MOUSE_EVENT_RECORD@@@Z 004e1580 f   treelist.obj
 0001:000e0840       ?RenTreeName@TreeList@@SAXPB_W0@Z 004e1840 f   treelist.obj
 0001:000e0ac0       ?DisplayObject@TreeList@@EAEXXZ 004e1ac0 f   treelist.obj
 0001:000e0b70       ?Update@TreeList@@UAEXH@Z  004e1b70 f   treelist.obj
 0001:000e0f50       ??1TVar@@QAE@XZ            004e1f50 f   tvar.obj
 0001:000e0f60       ??0TVar@@QAE@_J@Z          004e1f60 f   tvar.obj
 0001:000e0f90       ??0TVar@@QAE@H@Z           004e1f90 f   tvar.obj
 0001:000e0fc0       ??0TVar@@QAE@N@Z           004e1fc0 f   tvar.obj
 0001:000e0fe0       ?i@TVar@@QBE_JXZ           004e1fe0 f   tvar.obj
 0001:000e1010       ?d@TVar@@QBENXZ            004e2010 f   tvar.obj
 0001:000e1050       ?toInteger@TVar@@QAE_JXZ   004e2050 f   tvar.obj
 0001:000e10b0       ?getInteger@TVar@@QBE_JXZ  004e20b0 f   tvar.obj
 0001:000e10f0       ?varEnum@@YAPAVTVarSet@@QAPAV1@HH@Z 004e20f0 f   tvar.obj
 0001:000e1120       ?initVTable@@YAXQAPAVTVarSet@@@Z 004e2120 f   tvar.obj
 0001:000e1170       ??0TAbstractSet@@QAE@PB_W@Z 004e2170 f i tvar.obj
 0001:000e1270       ??0TVar@@QAE@PB_W@Z        004e2270 f   tvar.obj
 0001:000e12a0       ??0TVar@@QAE@ABV0@@Z       004e22a0 f   tvar.obj
 0001:000e12e0       ??4TVar@@QAEAAV0@ABV0@@Z   004e22e0 f   tvar.obj
 0001:000e1330       ?s@TVar@@QBEPB_WXZ         004e2330 f   tvar.obj
 0001:000e13a0       ?toString@TVar@@QAEPB_WXZ  004e23a0 f   tvar.obj
 0001:000e1700       ?CompAB@TVar@@CAHABV1@0P6AHW4TVarType@@PBX2@Z@Z 004e2700 f   tvar.obj
 0001:000e1880       ??9@YAHABVTVar@@0@Z        004e2880 f   tvar.obj
 0001:000e18a0       ??8@YAHABVTVar@@0@Z        004e28a0 f   tvar.obj
 0001:000e18c0       ??M@YAHABVTVar@@0@Z        004e28c0 f   tvar.obj
 0001:000e18e0       ??N@YAHABVTVar@@0@Z        004e28e0 f   tvar.obj
 0001:000e1900       ??O@YAHABVTVar@@0@Z        004e2900 f   tvar.obj
 0001:000e1920       ??P@YAHABVTVar@@0@Z        004e2920 f   tvar.obj
 0001:000e1940       ??G@YA?AVTVar@@ABV0@0@Z    004e2940 f   tvar.obj
 0001:000e1b30       ??D@YA?AVTVar@@ABV0@0@Z    004e2b30 f   tvar.obj
 0001:000e1d60       ??K@YA?AVTVar@@ABV0@0@Z    004e2d60 f   tvar.obj
 0001:000e2060       ??L@YA?AVTVar@@ABV0@0@Z    004e3060 f   tvar.obj
 0001:000e2370       ??U@YA?AVTVar@@ABV0@0@Z    004e3370 f   tvar.obj
 0001:000e25a0       ??I@YA?AVTVar@@ABV0@0@Z    004e35a0 f   tvar.obj
 0001:000e27d0       ??T@YA?AVTVar@@ABV0@0@Z    004e37d0 f   tvar.obj
 0001:000e2a00       ??5@YA?AVTVar@@ABV0@0@Z    004e3a00 f   tvar.obj
 0001:000e2bd0       ??6@YA?AVTVar@@ABV0@0@Z    004e3bd0 f   tvar.obj
 0001:000e2da0       ??W@YA?AVTVar@@ABV0@0@Z    004e3da0 f   tvar.obj
 0001:000e2f70       ??V@YA?AVTVar@@ABV0@0@Z    004e3f70 f   tvar.obj
 0001:000e3130       ?xor_op@@YA?AVTVar@@ABV1@0@Z 004e4130 f   tvar.obj
 0001:000e33f0       ??GTVar@@QAE?AV0@XZ        004e43f0 f   tvar.obj
 0001:000e3470       ??7TVar@@QAE?AV0@XZ        004e4470 f   tvar.obj
 0001:000e3510       ??STVar@@QAE?AV0@XZ        004e4510 f   tvar.obj
 0001:000e35a0       ?varLook@@YAPAVTVarSet@@QAPAV1@PB_W_N@Z 004e45a0 f   tvar.obj
 0001:000e3680       ?deleteVTable@@YAXQAPAVTVarSet@@@Z 004e4680 f   tvar.obj
 0001:000e3840       ?AppendStr@TVar@@QAEAAV1@_W@Z 004e4840 f   tvar.obj
 0001:000e38d0       ??H@YA?AVTVar@@ABV0@0@Z    004e48d0 f   tvar.obj
 0001:000e3ba0       ??1UserDefinedListItem@@QAE@XZ 004e4ba0 f   udlist.obj
 0001:000e3bb0       ??4UserDefinedListItem@@QAEABV0@PB_W@Z 004e4bb0 f   udlist.obj
 0001:000e3bf0       ?CmpItems@UserDefinedList@@CAHPAPBVUserDefinedListItem@@0@Z 004e4bf0 f   udlist.obj
 0001:000e3c20       ?Reset@UserDefinedList@@QAEXXZ 004e4c20 f   udlist.obj
 0001:000e3c30       ?setSize@?$TArray@VUserDefinedListItem@@@@QAE_NI@Z 004e4c30 f i udlist.obj
 0001:000e3d40       ??MUserDefinedListItem@@QBEHABV0@@Z 004e4d40 f   udlist.obj
 0001:000e3d90       ?set@UserDefinedListItem@@QAEPA_WPB_WI@Z 004e4d90 f   udlist.obj
 0001:000e3df0       ?Skip@UserDefinedList@@AAEPB_WPB_WAAH1AA_N@Z 004e4df0 f   udlist.obj
 0001:000e3fa0       ?IsEmpty@UserDefinedList@@QAE_NXZ 004e4fa0 f   udlist.obj
 0001:000e3fc0       ?GetNext@UserDefinedList@@QAEPB_WXZ 004e4fc0 f   udlist.obj
 0001:000e3ff0       ?setItem@?$TArray@VUserDefinedListItem@@@@QAEPAVUserDefinedListItem@@IABV2@@Z 004e4ff0 f i udlist.obj
 0001:000e40d0       ?Pack@?$TArray@VUserDefinedListItem@@@@QAE_NXZ 004e50d0 f i udlist.obj
 0001:000e4190       ?CmpItems@?$TArray@VUserDefinedListItem@@@@CAHPAPBVUserDefinedListItem@@0@Z 004e5190 f i udlist.obj
 0001:000e41f0       ?Free@UserDefinedList@@QAEXXZ 004e51f0 f   udlist.obj
 0001:000e4210       ?SetParameters@UserDefinedList@@QAE_NGGK@Z 004e5210 f   udlist.obj
 0001:000e4310       ?Set@UserDefinedList@@QAE_NPB_W_N@Z 004e5310 f   udlist.obj
 0001:000e4700       ??0UserDefinedList@@QAE@XZ 004e5700 f   udlist.obj
 0001:000e4730       ??0UserDefinedList@@QAE@GGK@Z 004e5730 f   udlist.obj
 0001:000e4770       ?AllocData@UnicodeStringData@@AAEPA_WIPAI@Z 004e5770 f i UnicodeString.obj
 0001:000e47d0       ??0UnicodeStringData@@QAE@II@Z 004e57d0 f i UnicodeString.obj
 0001:000e4850       ?Inflate@UnicodeStringData@@QAEXI@Z 004e5850 f i UnicodeString.obj
 0001:000e48c0       ?eus@@YAPAVUnicodeStringData@@XZ 004e58c0 f   UnicodeString.obj
 0001:000e4940       ?SetEUS@UnicodeString@@AAEXXZ 004e5940 f   UnicodeString.obj
 0001:000e4950       ?GetCharString@UnicodeString@@QBEIPADII@Z 004e5950 f   UnicodeString.obj
 0001:000e49a0       ?Equal@UnicodeString@@QBE_NIIPB_WI@Z 004e59a0 f   UnicodeString.obj
 0001:000e4a20       ?ReleaseBuffer@UnicodeString@@QAEXI@Z 004e5a20 f   UnicodeString.obj
 0001:000e4a60       ?Pos@UnicodeString@@QBE_NAAI_WI@Z 004e5a60 f   UnicodeString.obj
 0001:000e4aa0       ?Pos@UnicodeString@@QBE_NAAIPB_WI@Z 004e5aa0 f   UnicodeString.obj
 0001:000e4ae0       ?PosI@UnicodeString@@QBE_NAAIPB_WI@Z 004e5ae0 f   UnicodeString.obj
 0001:000e4b20       ?RPos@UnicodeString@@QBE_NAAI_WI@Z 004e5b20 f   UnicodeString.obj
 0001:000e4b60       ?Inflate@UnicodeString@@QAEXI@Z 004e5b60 f   UnicodeString.obj
 0001:000e4c60       ?Replace@UnicodeString@@QAEAAV1@IIPB_WI@Z 004e5c60 f   UnicodeString.obj
 0001:000e4e60       ?Append@UnicodeString@@QAEAAV1@PBDI@Z 004e5e60 f   UnicodeString.obj
 0001:000e4ee0       ?Copy@UnicodeString@@QAEAAV1@ABV1@@Z 004e5ee0 f   UnicodeString.obj
 0001:000e4f20       ?Copy@UnicodeString@@QAEAAV1@PBDI@Z 004e5f20 f   UnicodeString.obj
 0001:000e4fd0       ?GetBuffer@UnicodeString@@QAEPA_WI@Z 004e5fd0 f   UnicodeString.obj
 0001:000e5000       ?SetLength@UnicodeString@@QAEII@Z 004e6000 f   UnicodeString.obj
 0001:000e5070       ?Clear@UnicodeString@@QAEAAV1@XZ 004e6070 f   UnicodeString.obj
 0001:000e50c0       ?Lower@UnicodeString@@QAEAAV1@II@Z 004e60c0 f   UnicodeString.obj
 0001:000e5100       ?Upper@UnicodeString@@QAEAAV1@II@Z 004e6100 f   UnicodeString.obj
 0001:000e5140       ??H@YA?BVUnicodeString@@ABV0@0@Z 004e6140 f   UnicodeString.obj
 0001:000e5200       ??H@YA?BVUnicodeString@@ABV0@PB_W@Z 004e6200 f   UnicodeString.obj
 0001:000e52e0       ?Format@UnicodeString@@QAAHPB_WZZ 004e62e0 f   UnicodeString.obj
 0001:000e5380       ?SubStr@UnicodeString@@QAE?AV1@II@Z 004e6380 f   UnicodeString.obj
 0001:000e53f0       ?EditMenuDlgProc@@YGJPAXHHJ@Z 004e63f0 f   usermenu.obj
 0001:000e5540       ?MenuRegToFile@@YAXPB_WAAVFile@@AAVCachedWrite@@_N@Z 004e6540 f   usermenu.obj
 0001:000e58b0       ?MenuFileToReg@@YAXPB_WAAVFile@@AAVGetFileString@@_NI@Z 004e68b0 f   usermenu.obj
 0001:000e5ca0       ?EditMenu@UserMenu@@AAE_NPB_WHH_N@Z 004e6ca0 f   usermenu.obj
 0001:000e6670       ?DeleteMenuRecord@UserMenu@@AAEHPB_WH@Z 004e7670 f   usermenu.obj
 0001:000e68a0       ?MoveMenuItem@UserMenu@@AAE_NPB_WHH@Z 004e78a0 f   usermenu.obj
 0001:000e6a50       ?FillUserMenu@@YAHAAVVMenu@@PB_WHPAH11@Z 004e7a50 f   usermenu.obj
 0001:000e6e60       ?ProcessSingleMenu@UserMenu@@AAEHPB_WH00@Z 004e7e60 f   usermenu.obj
 0001:000e7d70       ?ProcessUserMenu@UserMenu@@AAEX_N@Z 004e8d70 f   usermenu.obj
 0001:000e8430       ??0UserMenu@@QAE@_N@Z      004e9430 f   usermenu.obj
 0001:000e8450       ?DrawScrollbar@Viewer@@AAEXXZ 004e9450 f   viewer.obj
 0001:000e85e0       ?SetStatusMode@Viewer@@QAEXH@Z 004e95e0 f   viewer.obj
 0001:000e85f0       ?CalcStrSize@Viewer@@AAEHPB_WH@Z 004e95f0 f   viewer.obj
 0001:000e8640       ?ChangeViewKeyBar@Viewer@@AAEXXZ 004e9640 f   viewer.obj
 0001:000e8750       ?GetWrapMode@Viewer@@QAEHXZ 004e9750 f   viewer.obj
 0001:000e8760       ?SetWrapMode@Viewer@@QAEXH@Z 004e9760 f   viewer.obj
 0001:000e8770       ?EnableHideCursor@Viewer@@QAEXH@Z 004e9770 f   viewer.obj
 0001:000e8780       ?GetWrapType@Viewer@@QAEHXZ 004e9780 f   viewer.obj
 0001:000e8790       ?SetWrapType@Viewer@@QAEXH@Z 004e9790 f   viewer.obj
 0001:000e87a0       ?GetFileName@Viewer@@QAEXAAVUnicodeString@@@Z 004e97a0 f   viewer.obj
 0001:000e87c0       ?SetTempViewName@Viewer@@QAEXPB_WH@Z 004e97c0 f   viewer.obj
 0001:000e8810       ?SetTitle@Viewer@@QAEXPB_W@Z 004e9810 f   viewer.obj
 0001:000e8860       ?SetFilePos@Viewer@@QAEX_J@Z 004e9860 f   viewer.obj
 0001:000e8880       ?SetPluginData@Viewer@@QAEXPB_W@Z 004e9880 f   viewer.obj
 0001:000e88d0       ?SetNamesList@Viewer@@QAEXPAVNamesList@@@Z 004e98d0 f   viewer.obj
 0001:000e88f0       ?vseek@Viewer@@AAEH_JH@Z   004e98f0 f   viewer.obj
 0001:000e8950       ?vtell@Viewer@@AAE_JXZ     004e9950 f   viewer.obj
 0001:000e89c0       ?SetFileSize@Viewer@@AAEXXZ 004e99c0 f   viewer.obj
 0001:000e8a40       ?GetSelectedParam@Viewer@@QAEXAA_J0AAK@Z 004e9a40 f   viewer.obj
 0001:000e8a80       ?isTemporary@Viewer@@QAEHXZ 004e9a80 f   viewer.obj
 0001:000e8ab0       ?ProcessHexMode@Viewer@@QAEHH_N@Z 004e9ab0 f   viewer.obj
 0001:000e8b20       ?ProcessTypeWrapMode@Viewer@@QAEHH_N@Z 004e9b20 f   viewer.obj
 0001:000e8ba0       ?KeepInitParameters@Viewer@@QAEXXZ 004e9ba0 f   viewer.obj
 0001:000e8c20       ?VMProcess@Viewer@@UAE_JHPAX_J@Z 004e9c20 f   viewer.obj
 0001:000e8d80       ?SetViewKeyBar@Viewer@@QAEXPAVKeyBar@@@Z 004e9d80 f   viewer.obj
 0001:000e8da0       ?ViewerSearchDlgProc@@YGJPAXHHJ@Z 004e9da0 f   viewer.obj
 0001:000e8f80       ?ShowConsoleTitle@Viewer@@UAEXXZ 004e9f80 f   viewer.obj
 0001:000e8ff0       ?vread@Viewer@@AAEHPA_WH_N@Z 004e9ff0 f   viewer.obj
 0001:000e9210       ??1Viewer@@UAE@XZ          004ea210 f   viewer.obj
 0001:000e95b0       ?SetCRSym@Viewer@@AAEXXZ   004ea5b0 f   viewer.obj
 0001:000e9660       ?ShowHex@Viewer@@AAEXXZ    004ea660 f   viewer.obj
 0001:000e9ee0       ?GetTitle@Viewer@@QAEAAVUnicodeString@@AAV2@HH@Z 004eaee0 f   viewer.obj
 0001:000e9fd0       ?ReadString@Viewer@@AAEXPAUViewerString@@HH@Z 004eafd0 f   viewer.obj
 0001:000ea680       ?Up@Viewer@@AAEXXZ         004eb680 f   viewer.obj
 0001:000eace0       ?AdjustFilePos@Viewer@@AAEXXZ 004ebce0 f   viewer.obj
 0001:000eaea0       ?SelectText@Viewer@@QAEXAB_J0K@Z 004ebea0 f   viewer.obj
 0001:000eb240       ?ProcessWrapMode@Viewer@@QAEHH_N@Z 004ec240 f   viewer.obj
 0001:000eb2d0       ??0Viewer@@QAE@_NI@Z       004ec2d0 f   viewer.obj
 0001:000eb560       ??_EViewer@@UAEPAXI@Z      004ec560 f i viewer.obj
 0001:000eb560       ??_GViewer@@UAEPAXI@Z      004ec560 f i viewer.obj
 0001:000eb590       ?OpenFile@Viewer@@QAEHPB_WH@Z 004ec590 f   viewer.obj
 0001:000ebc20       ?ShowPage@Viewer@@AAEXH@Z  004ecc20 f   viewer.obj
 0001:000ec3f0       ?DisplayObject@Viewer@@EAEXXZ 004ed3f0 f   viewer.obj
 0001:000ec410       ?ProcessMouse@Viewer@@UAEHPAU_MOUSE_EVENT_RECORD@@@Z 004ed410 f   viewer.obj
 0001:000ec8c0       ?Search@Viewer@@AAEXHH@Z   004ed8c0 f   viewer.obj
 0001:000ed920       ?GoTo@Viewer@@QAEXH_JK@Z   004ee920 f   viewer.obj
 0001:000ee160       ?ViewerControl@Viewer@@QAEHHPAX@Z 004ef160 f   viewer.obj
 0001:000ee5d0       ?ProcessKey@Viewer@@UAEHH@Z 004ef5d0 f   viewer.obj
 0001:000ef9e0       ?ResetCursor@VMenu@@QAEXXZ 004f09e0 f   vmenu.obj
 0001:000efa00       ?IsFilterEditKey@VMenu@@AAE_NH@Z 004f0a00 f   vmenu.obj
 0001:000efa30       ?ReadInput@VMenu@@UAEHPAU_INPUT_RECORD@@@Z 004f0a30 f   vmenu.obj
 0001:000efa90       ?GetVisualPos@VMenu@@QAEHH@Z 004f0a90 f   vmenu.obj
 0001:000efaf0       ?VisualPosToReal@VMenu@@QAEHH@Z 004f0af0 f   vmenu.obj
 0001:000efb60       ?FindPartName@Panel@@UAEHPB_WHHH@Z 004f0b60 f   infolist.obj
 0001:000efb60       ?DefMenuProc@VMenu@@SGJPAXHHJ@Z 004f0b60 f   vmenu.obj
 0001:000efb60       ?GetSelName@Panel@@UAEHPAVUnicodeString@@AAK0PAUFAR_FIND_DATA_EX@@@Z 004f0b60 f   infolist.obj
 0001:000efb70       ?_SetUserData@VMenu@@CAHPAUMenuItemEx@@PBXH@Z 004f0b70 f   vmenu.obj
 0001:000efc20       ?FarList2MenuItem@VMenu@@SAPAUMenuItemEx@@PBUFarListItem@@PAU2@@Z 004f0c20 f   vmenu.obj
 0001:000efce0       ?UpdateRequired@VMenu@@QAE_NXZ 004f0ce0 f   vmenu.obj
 0001:000efd10       ?SetSelectPos@VMenu@@QAEHHH@Z 004f0d10 f   vmenu.obj
 0001:000efe10       ?SetSelectPos@VMenu@@QAEHPAUFarListPos@@@Z 004f0e10 f   vmenu.obj
 0001:000eff40       ?UpdateSelectPos@VMenu@@AAEXXZ 004f0f40 f   vmenu.obj
 0001:000efff0       ?GetSelectPos@VMenu@@QAEHPAUFarListPos@@@Z 004f0ff0 f   vmenu.obj
 0001:000f0030       ?GetCheck@VMenu@@QAEHH@Z   004f1030 f   vmenu.obj
 0001:000f00c0       ?SetCheck@VMenu@@QAEXHH@Z  004f10c0 f   vmenu.obj
 0001:000f0150       ?RestoreFilteredItems@VMenu@@AAEXXZ 004f1150 f   vmenu.obj
 0001:000f0270       ?FilterStringUpdated@VMenu@@AAEX_N@Z 004f1270 f   vmenu.obj
 0001:000f0380       ?AddToFilter@VMenu@@AAE_NPB_W@Z 004f1380 f   vmenu.obj
 0001:000f0420       ?ShiftItemShowPos@VMenu@@AAE_NHH@Z 004f1420 f   vmenu.obj
 0001:000f04f0       ?Show@VMenu@@UAEXXZ        004f14f0 f   vmenu.obj
 0001:000f0770       ?Hide@VMenu@@UAEXXZ        004f1770 f   vmenu.obj
 0001:000f0810       ?DrawTitles@VMenu@@AAEXXZ  004f1810 f   vmenu.obj
 0001:000f0a80       ?GetHighlights@VMenu@@AAE_WPBUMenuItemEx@@@Z 004f1a80 f   vmenu.obj
 0001:000f0b10       ?AssignHighlights@VMenu@@QAEXH@Z 004f1b10 f   vmenu.obj
 0001:000f0f40       ?SetMaxHeight@VMenu@@QAEXH@Z 004f1f40 f   vmenu.obj
 0001:000f0f80       ?GetTitle@VMenu@@UAEAAVUnicodeString@@AAV2@HH@Z 004f1f80 f   vmenu.obj
 0001:000f0fc0       ?GetBottomTitle@VMenu@@QAEAAVUnicodeString@@AAV2@@Z 004f1fc0 f   vmenu.obj
 0001:000f1000       ?SetBottomTitle@VMenu@@QAEXPB_W@Z 004f2000 f   vmenu.obj
 0001:000f10a0       ?SetTitle@VMenu@@QAEXPB_W@Z 004f20a0 f   vmenu.obj
 0001:000f11d0       ?ResizeConsole@VMenu@@UAEXXZ 004f21d0 f   vmenu.obj
 0001:000f12c0       ?SetBoxType@VMenu@@QAEXH@Z 004f22c0 f   vmenu.obj
 0001:000f12f0       ?SetColors@VMenu@@QAEXPAUFarListColors@@@Z 004f22f0 f   vmenu.obj
 0001:000f1400       ?GetColors@VMenu@@QAEXPAUFarListColors@@@Z 004f2400 f   vmenu.obj
 0001:000f1460       ?GetVMenuInfo@VMenu@@QAEHPAUFarListInfo@@@Z 004f2460 f   vmenu.obj
 0001:000f14f0       ?GetItemPtr@VMenu@@QAEPAUMenuItemEx@@H@Z 004f24f0 f   vmenu.obj
 0001:000f1560       ?_GetUserData@VMenu@@CAPAXPAUMenuItemEx@@PAXH@Z 004f2560 f   vmenu.obj
 0001:000f1600       ?GetUserDataSize@VMenu@@QAEHH@Z 004f2600 f   vmenu.obj
 0001:000f1670       ?SetUserData@VMenu@@QAEHPBXHH@Z 004f2670 f   vmenu.obj
 0001:000f16f0       ?GetUserData@VMenu@@QAEPAXPAXHH@Z 004f26f0 f   vmenu.obj
 0001:000f1770       ?GetTypeAndName@VMenu@@UAEHAAVUnicodeString@@0@Z 004f2770 f   vmenu.obj
 0001:000f1800       ?FindItem@VMenu@@QAEHHPB_WK@Z 004f2800 f   vmenu.obj
 0001:000f1a80       ?SortItems@VMenu@@QAEXHHH@Z 004f2a80 f   vmenu.obj
 0001:000f1b00       ?UpdateItemFlags@VMenu@@AAEXHK@Z 004f2b00 f   vmenu.obj
 0001:000f1c00       ?AddItem@VMenu@@QAEHPBUMenuItemEx@@H@Z 004f2c00 f   vmenu.obj
 0001:000f1e30       ?UpdateItem@VMenu@@QAEHPBUFarListUpdate@@@Z 004f2e30 f   vmenu.obj
 0001:000f1f20       ?ShowMenu@VMenu@@AAEX_N@Z  004f2f20 f   vmenu.obj
 0001:000f2b40       ?CheckHighlights@VMenu@@AAEH_WH@Z 004f3b40 f   vmenu.obj
 0001:000f2c50       ?CheckKeyHiOrAcc@VMenu@@AAE_NKHH@Z 004f3c50 f   vmenu.obj
 0001:000f2d60       ??0VMenu@@QAE@PB_WPAUMenuDataEx@@HHKP6GJPAXHHJ@ZPAVDialog@@@Z 004f3d60 f   vmenu.obj
 0001:000f3090       ?GetTypeName@VMenu@@UAEPB_WXZ 004f4090 f i vmenu.obj
 0001:000f30a0       ?GetType@VMenu@@UAEHXZ     004f40a0 f i vmenu.obj
 0001:000f30c0       ?InsertItem@VMenu@@QAEHPBUFarListInsert@@@Z 004f40c0 f   vmenu.obj
 0001:000f3170       ?AddItem@VMenu@@QAEHPBUFarList@@@Z 004f4170 f   vmenu.obj
 0001:000f3220       ?AddItem@VMenu@@QAEHPB_W@Z 004f4220 f   vmenu.obj
 0001:000f32a0       ?DeleteItems@VMenu@@QAEXXZ 004f42a0 f   vmenu.obj
 0001:000f33f0       ?VMProcess@VMenu@@UAE_JHPAX_J@Z 004f43f0 f   vmenu.obj
 0001:000f3830       ?ProcessKey@VMenu@@UAEHH@Z 004f4830 f   vmenu.obj
 0001:000f41d0       ?ProcessMouse@VMenu@@UAEHPAU_MOUSE_EVENT_RECORD@@@Z 004f51d0 f   vmenu.obj
 0001:000f4830       ?DisplayObject@VMenu@@EAEXXZ 004f5830 f   vmenu.obj
 0001:000f4a70       ?EnumFiles@@YAXAAVVMenu@@PB_W@Z 004f5a70 f   vmenu.obj
 0001:000f4f00       ??1VMenu@@UAE@XZ           004f5f00 f   vmenu.obj
 0001:000f5020       ?DeleteItem@VMenu@@QAEHHH@Z 004f6020 f   vmenu.obj
 0001:000f51c0       ??_GVMenu@@UAEPAXI@Z       004f61c0 f i vmenu.obj
 0001:000f51c0       ??_EVMenu@@UAEPAXI@Z       004f61c0 f i vmenu.obj
 0001:000f51f0       ?WndProc@@YGJPAUHWND__@@IIJ@Z 004f61f0 f   window.obj
 0001:000f5310       ?WindowThreadRoutine@@YGKPAX@Z 004f6310 f   window.obj
 0001:000f53f0       ?Check@WindowHandler@@QAEXXZ 004f63f0 f   window.obj
 0001:000f5430       ?Xlat@@YGPA_WPA_WHHK@Z     004f6430 f   xlat.obj
 0001:000f56c0       _wow_restore               004f66c0 f   hook_wow64.obj
 0001:000f56e0       _wow_disable               004f66e0 f   hook_wow64.obj
 0001:000f5910       dummy                      004f6910 f   vc10.obj
 0001:000f5920       _PR_Malloc                 004f6920 f   prmem.obj
 0001:000f5930       ?GetConfidence@CharDistributionAnalysis@@QAEMXZ 004f6930 f   CharDistribution.obj
 0001:000f59a0       ??0EUCTWDistributionAnalysis@@QAE@XZ 004f69a0 f   CharDistribution.obj
 0001:000f59d0       ?GetOrder@EUCTWDistributionAnalysis@@MAEHPBD@Z 004f69d0 f i CharDistribution.obj
 0001:000f5a00       ??0EUCKRDistributionAnalysis@@QAE@XZ 004f6a00 f   CharDistribution.obj
 0001:000f5a30       ?GetOrder@EUCKRDistributionAnalysis@@MAEHPBD@Z 004f6a30 f i CharDistribution.obj
 0001:000f5a60       ??0GB2312DistributionAnalysis@@QAE@XZ 004f6a60 f   CharDistribution.obj
 0001:000f5a90       ?GetOrder@GB2312DistributionAnalysis@@MAEHPBD@Z 004f6a90 f i CharDistribution.obj
 0001:000f5ac0       ??0Big5DistributionAnalysis@@QAE@XZ 004f6ac0 f   CharDistribution.obj
 0001:000f5af0       ?GetOrder@Big5DistributionAnalysis@@MAEHPBD@Z 004f6af0 f i CharDistribution.obj
 0001:000f5b30       ??0SJISDistributionAnalysis@@QAE@XZ 004f6b30 f   CharDistribution.obj
 0001:000f5b60       ?GetOrder@SJISDistributionAnalysis@@MAEHPBD@Z 004f6b60 f i CharDistribution.obj
 0001:000f5bb0       ??0EUCJPDistributionAnalysis@@QAE@XZ 004f6bb0 f   CharDistribution.obj
 0001:000f5be0       ?GetOrder@EUCJPDistributionAnalysis@@MAEHPBD@Z 004f6be0 f i CharDistribution.obj
 0001:000f5c10       ?Reset@JapaneseContextAnalysis@@QAEXXZ 004f6c10 f   JpCntx.obj
 0001:000f5c40       ?GetConfidence@JapaneseContextAnalysis@@QAEMXZ 004f6c40 f   JpCntx.obj
 0001:000f5c90       ?GetOrder@SJISContextAnalysis@@MAEHPBDPAI@Z 004f6c90 f   JpCntx.obj
 0001:000f5ce0       ?GetOrder@EUCJPContextAnalysis@@MAEHPBDPAI@Z 004f6ce0 f   JpCntx.obj
 0001:000f5d40       ?FilterWithoutEnglishLetters@nsCharSetProber@@SAHPBDIPAPADAAI@Z 004f6d40 f   nsCharSetProber.obj
 0001:000f5df0       ?FilterWithEnglishLetters@nsCharSetProber@@SAHPBDIPAPADAAI@Z 004f6df0 f   nsCharSetProber.obj
 0001:000f5ea0       ?GetCharSetName@nsEscCharSetProber@@UAEPBDXZ 004f6ea0 f i nsEscCharsetProber.obj
 0001:000f5eb0       ?GetState@nsEscCharSetProber@@UAE?AW4nsProbingState@@XZ 004f6eb0 f i nsEscCharsetProber.obj
 0001:000f5ec0       ?GetConfidence@nsEscCharSetProber@@UAEMXZ 004f6ec0 f i nsEscCharsetProber.obj
 0001:000f5ed0       ?Reset@nsEscCharSetProber@@UAEXXZ 004f6ed0 f   nsEscCharsetProber.obj
 0001:000f5f10       ?HandleData@nsEscCharSetProber@@UAE?AW4nsProbingState@@PBDI@Z 004f6f10 f   nsEscCharsetProber.obj
 0001:000f6030       ??0nsEscCharSetProber@@QAE@I@Z 004f7030 f   nsEscCharsetProber.obj
 0001:000f60f0       ??_EnsEscCharSetProber@@UAEPAXI@Z 004f70f0 f i nsEscCharsetProber.obj
 0001:000f60f0       ??_GnsEscCharSetProber@@UAEPAXI@Z 004f70f0 f i nsEscCharsetProber.obj
 0001:000f6140       ?HandleOneChar@JapaneseContextAnalysis@@QAEXPBDI@Z 004f7140 f i nsEUCJPProber.obj
 0001:000f61b0       ?HandleData@nsEUCJPProber@@UAE?AW4nsProbingState@@PBDI@Z 004f71b0 f   nsEUCJPProber.obj
 0001:000f6330       ?GetConfidence@nsEUCJPProber@@UAEMXZ 004f7330 f   nsEUCJPProber.obj
 0001:000f6330       ?GetConfidence@nsSJISProber@@UAEMXZ 004f7330 f   nsSJISProber.obj
 0001:000f6380       ?GetConfidence@nsEUCKRProber@@UAEMXZ 004f7380 f   nsEUCKRProber.obj
 0001:000f6380       ?GetConfidence@nsGB18030Prober@@UAEMXZ 004f7380 f   nsGB2312Prober.obj
 0001:000f6380       ?GetConfidence@nsBig5Prober@@UAEMXZ 004f7380 f   nsBig5Prober.obj
 0001:000f6380       ?GetConfidence@nsEUCTWProber@@UAEMXZ 004f7380 f   nsEUCTWProber.obj
 0001:000f6390       ?Reset@nsGB18030Prober@@UAEXXZ 004f7390 f   nsGB2312Prober.obj
 0001:000f6390       ?Reset@nsEUCTWProber@@UAEXXZ 004f7390 f   nsEUCTWProber.obj
 0001:000f6390       ?Reset@nsBig5Prober@@UAEXXZ 004f7390 f   nsBig5Prober.obj
 0001:000f6390       ?Reset@nsEUCKRProber@@UAEXXZ 004f7390 f   nsEUCKRProber.obj
 0001:000f63b0       ?HandleData@nsGB18030Prober@@UAE?AW4nsProbingState@@PBDI@Z 004f73b0 f   nsGB2312Prober.obj
 0001:000f63b0       ?HandleData@nsEUCKRProber@@UAE?AW4nsProbingState@@PBDI@Z 004f73b0 f   nsEUCKRProber.obj
 0001:000f63b0       ?HandleData@nsEUCTWProber@@UAE?AW4nsProbingState@@PBDI@Z 004f73b0 f   nsEUCTWProber.obj
 0001:000f63b0       ?HandleData@nsBig5Prober@@UAE?AW4nsProbingState@@PBDI@Z 004f73b0 f   nsBig5Prober.obj
 0001:000f6510       ?HandleData@nsHebrewProber@@UAE?AW4nsProbingState@@PBDI@Z 004f7510 f   nsHebrewProber.obj
 0001:000f65b0       ?GetCharSetName@nsHebrewProber@@UAEPBDXZ 004f75b0 f   nsHebrewProber.obj
 0001:000f6630       ?Reset@nsHebrewProber@@UAEXXZ 004f7630 f   nsHebrewProber.obj
 0001:000f6640       ?GetState@nsHebrewProber@@UAE?AW4nsProbingState@@XZ 004f7640 f   nsHebrewProber.obj
 0001:000f6670       ?Reset@nsLatin1Prober@@UAEXXZ 004f7670 f   nsLatin1Prober.obj
 0001:000f6690       ?HandleData@nsLatin1Prober@@UAE?AW4nsProbingState@@PBDI@Z 004f7690 f   nsLatin1Prober.obj
 0001:000f6730       ?GetConfidence@nsLatin1Prober@@UAEMXZ 004f7730 f   nsLatin1Prober.obj
 0001:000f67f0       ?GetOrder@SJISContextAnalysis@@MAEHPBD@Z 004f77f0 f i nsMBCSGroupProber.obj
 0001:000f6820       ?GetCharSetName@nsUTF8Prober@@UAEPBDXZ 004f7820 f i nsMBCSGroupProber.obj
 0001:000f6830       ??_GnsUTF8Prober@@UAEPAXI@Z 004f7830 f i nsMBCSGroupProber.obj
 0001:000f6830       ??_EnsUTF8Prober@@UAEPAXI@Z 004f7830 f i nsMBCSGroupProber.obj
 0001:000f6870       ?GetOrder@EUCJPContextAnalysis@@MAEHPBD@Z 004f7870 f i nsMBCSGroupProber.obj
 0001:000f68a0       ?GetCharSetName@nsGB18030Prober@@UAEPBDXZ 004f78a0 f i nsMBCSGroupProber.obj
 0001:000f68b0       ??_GnsGB18030Prober@@UAEPAXI@Z 004f78b0 f i nsMBCSGroupProber.obj
 0001:000f68b0       ??_EnsGB18030Prober@@UAEPAXI@Z 004f78b0 f i nsMBCSGroupProber.obj
 0001:000f68f0       ?GetCharSetName@nsEUCKRProber@@UAEPBDXZ 004f78f0 f i nsMBCSGroupProber.obj
 0001:000f6900       ??_EnsEUCKRProber@@UAEPAXI@Z 004f7900 f i nsMBCSGroupProber.obj
 0001:000f6900       ??_GnsEUCKRProber@@UAEPAXI@Z 004f7900 f i nsMBCSGroupProber.obj
 0001:000f6940       ?GetCharSetName@nsBig5Prober@@UAEPBDXZ 004f7940 f i nsMBCSGroupProber.obj
 0001:000f6950       ??_EnsBig5Prober@@UAEPAXI@Z 004f7950 f i nsMBCSGroupProber.obj
 0001:000f6950       ??_GnsBig5Prober@@UAEPAXI@Z 004f7950 f i nsMBCSGroupProber.obj
 0001:000f6990       ?GetCharSetName@nsEUCTWProber@@UAEPBDXZ 004f7990 f i nsMBCSGroupProber.obj
 0001:000f69a0       ?GetState@nsEUCJPProber@@UAE?AW4nsProbingState@@XZ 004f79a0 f i nsMBCSGroupProber.obj
 0001:000f69a0       ?GetState@nsSJISProber@@UAE?AW4nsProbingState@@XZ 004f79a0 f i nsMBCSGroupProber.obj
 0001:000f69a0       ?GetState@nsUTF8Prober@@UAE?AW4nsProbingState@@XZ 004f79a0 f i nsMBCSGroupProber.obj
 0001:000f69a0       ?GetState@nsEUCTWProber@@UAE?AW4nsProbingState@@XZ 004f79a0 f i nsMBCSGroupProber.obj
 0001:000f69a0       ?GetState@nsBig5Prober@@UAE?AW4nsProbingState@@XZ 004f79a0 f i nsMBCSGroupProber.obj
 0001:000f69a0       ?GetState@nsGB18030Prober@@UAE?AW4nsProbingState@@XZ 004f79a0 f i nsMBCSGroupProber.obj
 0001:000f69a0       ?GetState@nsEUCKRProber@@UAE?AW4nsProbingState@@XZ 004f79a0 f i nsMBCSGroupProber.obj
 0001:000f69b0       ??_GnsEUCTWProber@@UAEPAXI@Z 004f79b0 f i nsMBCSGroupProber.obj
 0001:000f69b0       ??_EnsEUCTWProber@@UAEPAXI@Z 004f79b0 f i nsMBCSGroupProber.obj
 0001:000f69f0       ?GetCharSetName@nsMBCSGroupProber@@UAEPBDXZ 004f79f0 f   nsMBCSGroupProber.obj
 0001:000f6a20       ?Reset@nsMBCSGroupProber@@UAEXXZ 004f7a20 f   nsMBCSGroupProber.obj
 0001:000f6a80       ?HandleData@nsMBCSGroupProber@@UAE?AW4nsProbingState@@PBDI@Z 004f7a80 f   nsMBCSGroupProber.obj
 0001:000f6b90       ?GetConfidence@nsMBCSGroupProber@@UAEMXZ 004f7b90 f   nsMBCSGroupProber.obj
 0001:000f6c10       ??0nsSJISProber@@QAE@XZ    004f7c10 f i nsMBCSGroupProber.obj
 0001:000f6c80       ?GetCharSetName@nsSJISProber@@UAEPBDXZ 004f7c80 f i nsMBCSGroupProber.obj
 0001:000f6c90       ??_EnsSJISProber@@UAEPAXI@Z 004f7c90 f i nsMBCSGroupProber.obj
 0001:000f6c90       ??_GnsSJISProber@@UAEPAXI@Z 004f7c90 f i nsMBCSGroupProber.obj
 0001:000f6cd0       ??0nsEUCJPProber@@QAE@XZ   004f7cd0 f i nsMBCSGroupProber.obj
 0001:000f6d40       ?GetCharSetName@nsEUCJPProber@@UAEPBDXZ 004f7d40 f i nsMBCSGroupProber.obj
 0001:000f6d50       ??_EnsEUCJPProber@@UAEPAXI@Z 004f7d50 f i nsMBCSGroupProber.obj
 0001:000f6d50       ??_GnsEUCJPProber@@UAEPAXI@Z 004f7d50 f i nsMBCSGroupProber.obj
 0001:000f6d90       ??0nsMBCSGroupProber@@QAE@I@Z 004f7d90 f   nsMBCSGroupProber.obj
 0001:000f6fe0       ??_EnsMBCSGroupProber@@UAEPAXI@Z 004f7fe0 f i nsMBCSGroupProber.obj
 0001:000f6fe0       ??_GnsMBCSGroupProber@@UAEPAXI@Z 004f7fe0 f i nsMBCSGroupProber.obj
 0001:000f7030       ?HandleData@nsSingleByteCharSetProber@@UAE?AW4nsProbingState@@PBDI@Z 004f8030 f   nsSBCharSetProber.obj
 0001:000f7100       ?Reset@nsSingleByteCharSetProber@@UAEXXZ 004f8100 f   nsSBCharSetProber.obj
 0001:000f7120       ?GetConfidence@nsSingleByteCharSetProber@@UAEMXZ 004f8120 f   nsSBCharSetProber.obj
 0001:000f71b0       ?GetCharSetName@nsSingleByteCharSetProber@@UAEPBDXZ 004f81b0 f   nsSBCharSetProber.obj
 0001:000f71d0       ?GetConfidence@nsHebrewProber@@UAEMXZ 004f81d0 f i nsSBCSGroupProber.obj
 0001:000f71e0       ?GetCharSetName@nsSBCSGroupProber@@UAEPBDXZ 004f81e0 f   nsSBCSGroupProber.obj
 0001:000f7210       ?Reset@nsSBCSGroupProber@@UAEXXZ 004f8210 f   nsSBCSGroupProber.obj
 0001:000f7270       ?HandleData@nsSBCSGroupProber@@UAE?AW4nsProbingState@@PBDI@Z 004f8270 f   nsSBCSGroupProber.obj
 0001:000f7310       ?GetConfidence@nsSBCSGroupProber@@UAEMXZ 004f8310 f   nsSBCSGroupProber.obj
 0001:000f7390       ?GetState@nsSBCSGroupProber@@UAE?AW4nsProbingState@@XZ 004f8390 f i nsSBCSGroupProber.obj
 0001:000f7390       ?GetState@nsLatin1Prober@@UAE?AW4nsProbingState@@XZ 004f8390 f i nsUniversalDetector.obj
 0001:000f7390       ?GetState@nsMBCSGroupProber@@UAE?AW4nsProbingState@@XZ 004f8390 f i nsMBCSGroupProber.obj
 0001:000f7390       ?GetState@nsSingleByteCharSetProber@@UAE?AW4nsProbingState@@XZ 004f8390 f i nsSBCSGroupProber.obj
 0001:000f73a0       ??_EnsCharSetProber@@UAEPAXI@Z 004f83a0 f i nsEscCharsetProber.obj
 0001:000f73a0       ??_EnsSingleByteCharSetProber@@UAEPAXI@Z 004f83a0 f i nsSBCSGroupProber.obj
 0001:000f73a0       ??_GnsLatin1Prober@@UAEPAXI@Z 004f83a0 f i nsUniversalDetector.obj
 0001:000f73a0       ??_GnsCharSetProber@@UAEPAXI@Z 004f83a0 f i nsEscCharsetProber.obj
 0001:000f73a0       ??_GnsSingleByteCharSetProber@@UAEPAXI@Z 004f83a0 f i nsSBCSGroupProber.obj
 0001:000f73a0       ??_EnsLatin1Prober@@UAEPAXI@Z 004f83a0 f i nsUniversalDetector.obj
 0001:000f73a0       ??_GnsHebrewProber@@UAEPAXI@Z 004f83a0 f i nsSBCSGroupProber.obj
 0001:000f73a0       ??_EnsHebrewProber@@UAEPAXI@Z 004f83a0 f i nsSBCSGroupProber.obj
 0001:000f73d0       ??0nsSBCSGroupProber@@QAE@XZ 004f83d0 f   nsSBCSGroupProber.obj
 0001:000f76d0       ??_EnsSBCSGroupProber@@UAEPAXI@Z 004f86d0 f i nsSBCSGroupProber.obj
 0001:000f76d0       ??_GnsSBCSGroupProber@@UAEPAXI@Z 004f86d0 f i nsSBCSGroupProber.obj
 0001:000f7720       ?Reset@nsEUCJPProber@@UAEXXZ 004f8720 f   nsEUCJPProber.obj
 0001:000f7720       ?Reset@nsSJISProber@@UAEXXZ 004f8720 f   nsSJISProber.obj
 0001:000f7750       ?HandleData@nsSJISProber@@UAE?AW4nsProbingState@@PBDI@Z 004f8750 f   nsSJISProber.obj
 0001:000f78d0       ?GetCharSetName@nsLatin1Prober@@UAEPBDXZ 004f88d0 f i nsUniversalDetector.obj
 0001:000f78e0       ??0nsUniversalDetector@@QAE@I@Z 004f88e0 f   nsUniversalDetector.obj
 0001:000f7930       ??1nsUniversalDetector@@UAE@XZ 004f8930 f   nsUniversalDetector.obj
 0001:000f7970       ?Reset@nsUniversalDetector@@MAEXXZ 004f8970 f   nsUniversalDetector.obj
 0001:000f79d0       ?HandleData@nsUniversalDetector@@UAEIPBDI@Z 004f89d0 f   nsUniversalDetector.obj
 0001:000f7ce0       ?DataEnd@nsUniversalDetector@@UAEXXZ 004f8ce0 f   nsUniversalDetector.obj
 0001:000f7d90       ??_EnsUniversalDetector@@UAEPAXI@Z 004f8d90 f i nsUniversalDetector.obj
 0001:000f7d90       ??_GnsUniversalDetector@@UAEPAXI@Z 004f8d90 f i nsUniversalDetector.obj
 0001:000f7df0       ?Reset@nsUTF8Prober@@UAEXXZ 004f8df0 f   nsUTF8Prober.obj
 0001:000f7e00       ?HandleData@nsUTF8Prober@@UAE?AW4nsProbingState@@PBDI@Z 004f8e00 f   nsUTF8Prober.obj
 0001:000f7f00       ?GetConfidence@nsUTF8Prober@@UAEMXZ 004f8f00 f   nsUTF8Prober.obj
 0001:000f7f9e       _GetDefaultPrinterW@8      004f8f9e f   winspool:WINSPOOL.DRV
 0001:000f7fa4       _ClosePrinter@4            004f8fa4 f   winspool:WINSPOOL.DRV
 0001:000f7faa       _EndDocPrinter@4           004f8faa f   winspool:WINSPOOL.DRV
 0001:000f7fb0       _WritePrinter@16           004f8fb0 f   winspool:WINSPOOL.DRV
 0001:000f7fb6       _StartDocPrinterW@12       004f8fb6 f   winspool:WINSPOOL.DRV
 0001:000f7fbc       _OpenPrinterW@12           004f8fbc f   winspool:WINSPOOL.DRV
 0001:000f7fc2       _EnumPrintersW@28          004f8fc2 f   winspool:WINSPOOL.DRV
 0001:000f7fc8       _WNetGetUniversalNameW@16  004f8fc8 f   mpr:MPR.dll
 0001:000f7fce       _WNetGetConnectionW@12     004f8fce f   mpr:MPR.dll
 0001:000f7fd4       _WNetCloseEnum@4           004f8fd4 f   mpr:MPR.dll
 0001:000f7fda       _WNetEnumResourceW@16      004f8fda f   mpr:MPR.dll
 0001:000f7fe0       _WNetOpenEnumW@20          004f8fe0 f   mpr:MPR.dll
 0001:000f7fe6       _WNetAddConnection2W@16    004f8fe6 f   mpr:MPR.dll
 0001:000f7fec       _WNetCancelConnection2W@12 004f8fec f   mpr:MPR.dll
 0001:000f7ff2       _GetModuleFileNameExW@16   004f8ff2 f   psapi:PSAPI.DLL
 0001:000f7ff8       _GetUserNameExW@12         004f8ff8 f   secur32:Secur32.dll
 0001:000f7ffe       ?_New_handler_interface@std@@YAHI@Z 004f8ffe f   libcpmt:stdhndlr.obj
 0001:000f8008       ?set_new_handler@std@@YAP6AXXZP6AXXZ@Z 004f9008 f   libcpmt:stdhndlr.obj
 0001:000f8044       ??0_Init_locks@std@@QAE@XZ 004f9044 f   libcpmt:xlock.obj
 0001:000f8075       ??1_Init_locks@std@@QAE@XZ 004f9075 f   libcpmt:xlock.obj
 0001:000f809e       ??0_Lockit@std@@QAE@H@Z    004f909e f   libcpmt:xlock.obj
 0001:000f80c6       ??1_Lockit@std@@QAE@XZ     004f90c6 f   libcpmt:xlock.obj
 0001:000f80dd       __Mtxinit                  004f90dd f   libcpmt:xmtx.obj
 0001:000f80ed       __Mtxdst                   004f90ed f   libcpmt:xmtx.obj
 0001:000f80fd       __Mtxlock                  004f90fd f   libcpmt:xmtx.obj
 0001:000f810d       __Mtxunlock                004f910d f   libcpmt:xmtx.obj
 0001:000f811d       __purecall                 004f911d f   LIBCMT:purevirt.obj
 0001:000f81fd       ___onexitinit              004f91fd f   LIBCMT:onexit.obj
 0001:000f822e       __onexit                   004f922e f   LIBCMT:onexit.obj
 0001:000f826a       _atexit                    004f926a f   LIBCMT:onexit.obj
 0001:000f8290       _memcpy                    004f9290 f   LIBCMT:memcpy.obj
 0001:000f8600       _memset                    004f9600 f   LIBCMT:memset.obj
 0001:000f8680       _strstr                    004f9680 f   LIBCMT:strstr.obj
 0001:000f8710       __chkstk                   004f9710 f   LIBCMT:chkstk.obj
 0001:000f8710       __alloca_probe             004f9710     LIBCMT:chkstk.obj
 0001:000f873b       _wcschr                    004f973b f   LIBCMT:wcschr.obj
 0001:000f8762       __wtol                     004f9762 f   LIBCMT:wtox.obj
 0001:000f8778       __wtoi                     004f9778 f   LIBCMT:wtox.obj
 0001:000f8783       __wtoi64                   004f9783 f   LIBCMT:wtox.obj
 0001:000f895b       _wcstol                    004f995b f   LIBCMT:wcstol.obj
 0001:000f8975       _wcstoul                   004f9975 f   LIBCMT:wcstol.obj
 0001:000f898f       __vsnwprintf_l             004f998f f   LIBCMT:vsnwprnt.obj
 0001:000f8a60       __vsnwprintf               004f9a60 f   LIBCMT:vsnwprnt.obj
 0001:000f8a7d       _clock                     004f9a7d f   LIBCMT:clock.obj
 0001:000f8ab7       ___inittime                004f9ab7 f   LIBCMT:clock.obj
 0001:000f8af0       __allmul                   004f9af0 f   LIBCMT:llmul.obj
 0001:000f8b30       __aulldiv                  004f9b30 f   LIBCMT:ulldiv.obj
 0001:000f8bee       __itow                     004f9bee f   LIBCMT:xtow.obj
 0001:000f8c9b       __i64tow                   004f9c9b f   LIBCMT:xtow.obj
 0001:000f8cce       __ui64tow                  004f9cce f   LIBCMT:xtow.obj
 0001:000f8ceb       _wcspbrk                   004f9ceb f   LIBCMT:wcspbrk.obj
 0001:000f8d30       _memmove                   004f9d30 f   LIBCMT:memmove.obj
 0001:000f9091       __localtime64_s            004fa091 f   LIBCMT:loctim64.obj
 0001:000f9319       __localtime64              004fa319 f   LIBCMT:loctim64.obj
 0001:000f9340       __time64                   004fa340 f   LIBCMT:time64.obj
 0001:000f9391       __get_daylight             004fa391 f   LIBCMT:timeset.obj
 0001:000f93be       __get_dstbias              004fa3be f   LIBCMT:timeset.obj
 0001:000f93eb       __get_timezone             004fa3eb f   LIBCMT:timeset.obj
 0001:000f9418       ___daylight                004fa418 f   LIBCMT:timeset.obj
 0001:000f941e       ___dstbias                 004fa41e f   LIBCMT:timeset.obj
 0001:000f9424       ___timezone                004fa424 f   LIBCMT:timeset.obj
 0001:000f942a       ___tzname                  004fa42a f   LIBCMT:timeset.obj
 0001:000f9b11       ___tzset                   004fab11 f   LIBCMT:tzset.obj
 0001:000f9b60       __tzset                    004fab60 f   LIBCMT:tzset.obj
 0001:000f9b98       __isindst                  004fab98 f   LIBCMT:tzset.obj
 0001:000f9bd9       ??0_LocaleUpdate@@QAE@PAUlocaleinfo_struct@@@Z 004fabd9 f i LIBCMT:_wctype.obj
 0001:000f9c60       __isleadbyte_l             004fac60 f i LIBCMT:_wctype.obj
 0001:000f9c98       _isleadbyte                004fac98 f i LIBCMT:_wctype.obj
 0001:000f9cab       _iswdigit                  004facab f i LIBCMT:_wctype.obj
 0001:000f9cbe       _iswxdigit                 004facbe f i LIBCMT:_wctype.obj
 0001:000f9cd4       _iswspace                  004facd4 f i LIBCMT:_wctype.obj
 0001:000f9ce7       _iswalnum                  004face7 f i LIBCMT:_wctype.obj
 0001:000f9d00       __aullrem                  004fad00 f   LIBCMT:ullrem.obj
 0001:000f9d75       _bsearch                   004fad75 f   LIBCMT:bsearch.obj
 0001:000f9e29       __snwprintf                004fae29 f   LIBCMT:snwprint.obj
 0001:000f9ef9       _free                      004faef9 f   LIBCMT:free.obj
 0001:000f9f33       _wcscspn                   004faf33 f   LIBCMT:wcscspn.obj
 0001:000f9f79       _wcsrchr                   004faf79 f   LIBCMT:wcsrchr.obj
 0001:000f9faa       _malloc                    004fafaa f   LIBCMT:malloc.obj
 0001:000fa03e       __expand                   004fb03e f   LIBCMT:expand.obj
 0001:000fa0f8       _realloc                   004fb0f8 f   LIBCMT:realloc.obj
 0001:000fa1a5       __ftell_nolock             004fb1a5 f   LIBCMT:ftell.obj
 0001:000fa339       _ftell                     004fb339 f   LIBCMT:ftell.obj
 0001:000fa39e       __fseek_nolock             004fb39e f   LIBCMT:fseek.obj
 0001:000fa428       _fseek                     004fb428 f   LIBCMT:fseek.obj
 0001:000fa4b0       __alloca_probe_16          004fb4b0 f   LIBCMT:alloca16.obj
 0001:000fa4c6       __alloca_probe_8           004fb4c6     LIBCMT:alloca16.obj
 0001:000fa4e8       __except_handler3          004fb4e8 f   LIBCMT:exsup3.obj
 0001:000fa5e6       __seh_longjmp_unwind@4     004fb5e6 f   LIBCMT:exsup3.obj
 0001:000fa601       __swab                     004fb601 f   LIBCMT:swab.obj
 0001:000fa650       __lfind                    004fb650 f   LIBCMT:lfind.obj
 0001:000fa6d9       __fclose_nolock            004fb6d9 f   LIBCMT:fclose.obj
 0001:000fa746       _fclose                    004fb746 f   LIBCMT:fclose.obj
 0001:000fa7ba       __fread_nolock_s           004fb7ba f   LIBCMT:fread.obj
 0001:000fa976       _fread_s                   004fb976 f   LIBCMT:fread.obj
 0001:000faa04       _fread                     004fba04 f   LIBCMT:fread.obj
 0001:000faa21       _fgetws                    004fba21 f   LIBCMT:fgetws.obj
 0001:000faada       _fgets                     004fbada f   LIBCMT:fgets.obj
 0001:000fac12       _wcsncpy                   004fbc12 f   LIBCMT:wcsncpy.obj
 0001:000faca1       __itoa                     004fbca1 f   LIBCMT:xtoa.obj
 0001:000fad3a       __i64toa                   004fbd3a f   LIBCMT:xtoa.obj
 0001:000fad6d       _wcsstr                    004fbd6d f   LIBCMT:wcsstr.obj
 0001:000fadd0       __aulldvrm                 004fbdd0 f   LIBCMT:ulldvrm.obj
 0001:000fae65       __isdigit_l                004fbe65 f i LIBCMT:_ctype.obj
 0001:000faeb6       _isdigit                   004fbeb6 f i LIBCMT:_ctype.obj
 0001:000faee4       __isxdigit_l               004fbee4 f i LIBCMT:_ctype.obj
 0001:000faf3a       _isxdigit                  004fbf3a f i LIBCMT:_ctype.obj
 0001:000faf6a       __isspace_l                004fbf6a f i LIBCMT:_ctype.obj
 0001:000fafbb       _isspace                   004fbfbb f i LIBCMT:_ctype.obj
 0001:000fafeb       ___crtCorExitProcess       004fbfeb f   LIBCMT:crt0dat.obj
 0001:000fb016       ___crtExitProcess          004fc016 f   LIBCMT:crt0dat.obj
 0001:000fb02e       __lockexit                 004fc02e f   LIBCMT:crt0dat.obj
 0001:000fb037       __unlockexit               004fc037 f   LIBCMT:crt0dat.obj
 0001:000fb040       __init_pointers            004fc040 f   LIBCMT:crt0dat.obj
 0001:000fb073       __initterm_e               004fc073 f   LIBCMT:crt0dat.obj
 0001:000fb097       __cinit                    004fc097 f   LIBCMT:crt0dat.obj
 0001:000fb26e       _exit                      004fc26e f   LIBCMT:crt0dat.obj
 0001:000fb284       __exit                     004fc284 f   LIBCMT:crt0dat.obj
 0001:000fb29a       __cexit                    004fc29a f   LIBCMT:crt0dat.obj
 0001:000fb2a9       __c_exit                   004fc2a9 f   LIBCMT:crt0dat.obj
 0001:000fb2b8       __amsg_exit                004fc2b8 f   LIBCMT:crt0dat.obj
 0001:000fb2d6       __wfsopen                  004fc2d6 f   LIBCMT:wfopen.obj
 0001:000fb394       __wfopen                   004fc394 f   LIBCMT:wfopen.obj
 0001:000fb3ab       __cfltcvt_init             004fc3ab f   LIBCMT:_fpinit_.obj
 0001:000fb40b       __fpmath                   004fc40b f   LIBCMT:_fpinit_.obj
 0001:000fb6cb       __wcstoi64                 004fc6cb f   LIBCMT:wcstoq.obj
 0001:000fb6f6       __wcsnicmp_l               004fc6f6 f   LIBCMT:wcsnicmp.obj
 0001:000fb7db       __wcsnicmp                 004fc7db f   LIBCMT:wcsnicmp.obj
 0001:000fb890       _strchr                    004fc890 f   LIBCMT:strchr.obj
 0001:000fb896       ___from_strstr_to_strchr   004fc896     LIBCMT:strchr.obj
 0001:000fb94e       _strtok                    004fc94e f   LIBCMT:strtok.obj
 0001:000fba0b       _atol                      004fca0b f   LIBCMT:atox.obj
 0001:000fba21       _atoi                      004fca21 f   LIBCMT:atox.obj
 0001:000fba2c       __atoi64                   004fca2c f   LIBCMT:atox.obj
 0001:000fba50       __aullshr                  004fca50 f   LIBCMT:ullshr.obj
 0001:000fbadd       _sscanf                    004fcadd f   LIBCMT:sscanf.obj
 0001:000fbaff       __snprintf                 004fcaff f   LIBCMT:snprintf.obj
 0001:000fbbab       _sprintf                   004fcbab f   LIBCMT:sprintf.obj
 0001:000fbc2f       __vswprintf_l              004fcc2f f   LIBCMT:vswprint.obj
 0001:000fbccf       __vswprintf                004fcccf f   LIBCMT:vswprint.obj
 0001:000fbd5d       _swscanf                   004fcd5d f   LIBCMT:swscanf.obj
 0001:000fbd7f       _srand                     004fcd7f f   LIBCMT:rand.obj
 0001:000fbd91       _rand                      004fcd91 f   LIBCMT:rand.obj
 0001:000fbdb2       _wcsncat                   004fcdb2 f   LIBCMT:wcsncat.obj
 0001:000fbdf6       __wcstod_l                 004fcdf6 f   LIBCMT:wcstod.obj
 0001:000fbefe       _wcstod                    004fcefe f   LIBCMT:wcstod.obj
 0001:000fbf15       _clearerr_s                004fcf15 f   LIBCMT:clearerr.obj
 0001:000fbfb9       _clearerr                  004fcfb9 f   LIBCMT:clearerr.obj
 0001:000fbfc4       _fwprintf                  004fcfc4 f   LIBCMT:fwprintf.obj
 0001:000fc050       __ftol2_sse                004fd050 f   LIBCMT:ftol2.obj
 0001:000fc059       __ftol2_pentium4           004fd059 f   LIBCMT:ftol2.obj
 0001:000fc06c       __ftol2_sse_excpt          004fd06c f   LIBCMT:ftol2.obj
 0001:000fc086       __ftol2                    004fd086 f   LIBCMT:ftol2.obj
 0001:000fc100       __alldiv                   004fd100 f   LIBCMT:lldiv.obj
 0001:000fc1b0       __allrem                   004fd1b0 f   LIBCMT:llrem.obj
 0001:000fc270       _fmod                      004fd270 f   LIBCMT:_87fmod_.obj
 0001:000fc27a       __CIfmod                   004fd27a f   LIBCMT:_87fmod_.obj
 0001:000fc2a0       __allshr                   004fd2a0 f   LIBCMT:llshr.obj
 0001:000fc2d0       __allshl                   004fd2d0 f   LIBCMT:llshl.obj
 0001:000fc47a       _wmainCRTStartup           004fd47a f   LIBCMT:wcrt0.obj
 0001:000fc484       __initp_heap_handler       004fd484 f   LIBCMT:handler.obj
 0001:000fc493       ?_set_new_handler@@YAP6AHI@ZP6AHI@Z@Z 004fd493 f   LIBCMT:handler.obj
 0001:000fc4ca       __callnewh                 004fd4ca f   LIBCMT:handler.obj
 0001:000fc4f2       _abort                     004fd4f2 f   LIBCMT:abort.obj
 0001:000fc525       __set_abort_behavior       004fd525 f   LIBCMT:abort.obj
 0001:000fc546       __GET_RTERRMSG             004fd546 f   LIBCMT:crt0msg.obj
 0001:000fc56c       __NMSG_WRITE               004fd56c f   LIBCMT:crt0msg.obj
 0001:000fc71b       __FF_MSGBANNER             004fd71b f   LIBCMT:crt0msg.obj
 0001:000fc754       __initp_misc_purevirt      004fd754 f   LIBCMT:inithelp.obj
 0001:000fc763       __malloc_crt               004fd763 f   LIBCMT:crtheap.obj
 0001:000fc7a8       __calloc_crt               004fd7a8 f   LIBCMT:crtheap.obj
 0001:000fc7f4       __realloc_crt              004fd7f4 f   LIBCMT:crtheap.obj
 0001:000fc842       __recalloc_crt             004fd842 f   LIBCMT:crtheap.obj
 0001:000fc894       __msize                    004fd894 f   LIBCMT:msize.obj
 0001:000fc8d0       __SEH_prolog4              004fd8d0 f   LIBCMT:sehprolg4.obj
 0001:000fc915       __SEH_epilog4              004fd915 f   LIBCMT:sehprolg4.obj
 0001:000fc930       __except_handler4          004fd930 f   LIBCMT:chandler4.obj
 0001:000fcabf       __VEC_memcpy               004fdabf f   LIBCMT:p4_memcpy.obj
 0001:000fcbc2       ___sse2_available_init     004fdbc2 f   LIBCMT:cpu_disp.obj
 0001:000fcbd2       __VEC_memzero              004fdbd2 f   LIBCMT:p4_memset.obj
 0001:000fcc8c       __wchartodigit             004fdc8c f   LIBCMT:wchtodig.obj
 0001:000fce2c       _iswctype                  004fde2c f   LIBCMT:iswctype.obj
 0001:000fce81       __initp_misc_invarg        004fde81 f   LIBCMT:invarg.obj
 0001:000fce90       __call_reportfault         004fde90 f   LIBCMT:invarg.obj
 0001:000fcfb9       __invoke_watson            004fdfb9 f   LIBCMT:invarg.obj
 0001:000fcfde       __invalid_parameter        004fdfde f   LIBCMT:invarg.obj
 0001:000fd00b       __invalid_parameter_noinfo 004fe00b f   LIBCMT:invarg.obj
 0001:000fd01b       __get_errno_from_oserr     004fe01b f   LIBCMT:dosmap.obj
 0001:000fd05d       __errno                    004fe05d f   LIBCMT:dosmap.obj
 0001:000fd070       ___doserrno                004fe070 f   LIBCMT:dosmap.obj
 0001:000fd083       __dosmaperr                004fe083 f   LIBCMT:dosmap.obj
 0001:000fd0a6       __flsbuf                   004fe0a6 f   LIBCMT:_flsbuf.obj
 0001:000fd2b2       __woutput_l                004fe2b2 f   LIBCMT:woutput.obj
 0001:000fde76       __gmtime64_s               004fee76 f   LIBCMT:gmtime64.obj
 0001:000fe0af       ___getgmtimebuf            004ff0af f   LIBCMT:gmtime.obj
 0001:000fe0e6       _strcpy_s                  004ff0e6 f   LIBCMT:strcpy_s.obj
 0001:000fe150       _strlen                    004ff150 f   LIBCMT:strlen.obj
 0001:000fe1db       __mtinitlocks              004ff1db f   LIBCMT:mlock.obj
 0001:000fe225       __mtdeletelocks            004ff225 f   LIBCMT:mlock.obj
 0001:000fe27c       __unlock                   004ff27c f   LIBCMT:mlock.obj
 0001:000fe293       __mtinitlocknum            004ff293 f   LIBCMT:mlock.obj
 0001:000fe355       __lock                     004ff355 f   LIBCMT:mlock.obj
 0001:000fe388       _strncpy_s                 004ff388 f   LIBCMT:strncpy_s.obj
 0001:000fe440       _strcmp                    004ff440 f   LIBCMT:strcmp.obj
 0001:000fe4c8       __getenv_helper_nolock     004ff4c8 f   LIBCMT:getenv.obj
 0001:000fe54f       ____lc_codepage_func       004ff54f f   LIBCMT:initctyp.obj
 0001:000fe798       ___updatetmbcinfo          004ff798 f   LIBCMT:mbctype.obj
 0001:000fe8b8       __setmbcp_nolock           004ff8b8 f   LIBCMT:mbctype.obj
 0001:000feaa1       __setmbcp                  004ffaa1 f   LIBCMT:mbctype.obj
 0001:000fec3b       ___initmbctable            004ffc3b f   LIBCMT:mbctype.obj
 0001:000fec59       ___addlocaleref            004ffc59 f   LIBCMT:localref.obj
 0001:000fece8       ___removelocaleref         004ffce8 f   LIBCMT:localref.obj
 0001:000fed81       ___freetlocinfo            004ffd81 f   LIBCMT:localref.obj
 0001:000feecc       __updatetlocinfoEx_nolock  004ffecc f   LIBCMT:localref.obj
 0001:000fef19       ___updatetlocinfo          004fff19 f   LIBCMT:localref.obj
 0001:000fef92       __encoded_null             004fff92 f   LIBCMT:tidtable.obj
 0001:000fef9b       ___crtTlsAlloc@4           004fff9b f   LIBCMT:tidtable.obj
 0001:000fefa4       ___set_flsgetvalue         004fffa4 f   LIBCMT:tidtable.obj
 0001:000fefd8       __mtterm                   004fffd8 f   LIBCMT:tidtable.obj
 0001:000ff015       __initptd                  00500015 f   LIBCMT:tidtable.obj
 0001:000ff0c9       __getptd_noexit            005000c9 f   LIBCMT:tidtable.obj
 0001:000ff142       __getptd                   00500142 f   LIBCMT:tidtable.obj
 0001:000ff15c       __freefls@4                0050015c f   LIBCMT:tidtable.obj
 0001:000ff28b       __mtinit                   0050028b f   LIBCMT:tidtable.obj
 0001:000ff406       __heap_init                00500406 f   LIBCMT:heapinit.obj
 0001:000ff424       __read_nolock              00500424 f   LIBCMT:read.obj
 0001:000ff9db       __read                     005009db f   LIBCMT:read.obj
 0001:000ffad1       __ioinit                   00500ad1 f   LIBCMT:ioinit.obj
 0001:000ffd16       __lseeki64_nolock          00500d16 f   LIBCMT:lseeki64.obj
 0001:000ffd9b       __lseeki64                 00500d9b f   LIBCMT:lseeki64.obj
 0001:000ffe85       __fileno                   00500e85 f   LIBCMT:fileno.obj
 0001:000ffeab       @__security_check_cookie@4 00500eab f   LIBCMT:secchk.obj
 0001:000ffeba       ___iob_func                00500eba f   LIBCMT:_file.obj
 0001:000ffec0       ___initstdio               00500ec0 f   LIBCMT:_file.obj
 0001:000fff71       ___endstdio                00500f71 f   LIBCMT:_file.obj
 0001:000fff91       __lock_file                00500f91 f   LIBCMT:_file.obj
 0001:000fffd4       __lock_file2               00500fd4 f   LIBCMT:_file.obj
 0001:00100006       __unlock_file              00501006 f   LIBCMT:_file.obj
 0001:00100042       __unlock_file2             00501042 f   LIBCMT:_file.obj
 0001:00100071       __flush                    00501071 f   LIBCMT:fflush.obj
 0001:001000d9       __fflush_nolock            005010d9 f   LIBCMT:fflush.obj
 0001:001001fb       __flushall                 005011fb f   LIBCMT:fflush.obj
 0001:00100204       __lseek_nolock             00501204 f   LIBCMT:lseek.obj
 0001:00100279       __lseek                    00501279 f   LIBCMT:lseek.obj
 0001:0010034d       _CallDestructExceptionObject 0050134d f   LIBCMT:calldtor.obj
 0001:00100390       __global_unwind2           00501390 f   LIBCMT:exsup.obj
 0001:001003f5       __local_unwind2            005013f5 f   LIBCMT:exsup.obj
 0001:00100479       __abnormal_termination     00501479 f   LIBCMT:exsup.obj
 0001:0010049c       __NLG_Notify1              0050149c f   LIBCMT:exsup.obj
 0001:001004a5       __NLG_Notify               005014a5 f   LIBCMT:exsup.obj
 0001:001004bc       __NLG_Dispatch2            005014bc     LIBCMT:exsup.obj
 0001:001004bc       __NLG_Dispatch             005014bc     LIBCMT:exsup.obj
 0001:001004c4       __NLG_Call                 005014c4 f   LIBCMT:exsup.obj
 0001:001004c6       __NLG_Return2              005014c6     LIBCMT:exsup.obj
 0001:00100590       __ValidateEH3RN            00501590 f   LIBCMT:eh3valid.obj
 0001:001008d6       __close_nolock             005018d6 f   LIBCMT:close.obj
 0001:00100972       __close                    00501972 f   LIBCMT:close.obj
 0001:00100a36       __freebuf                  00501a36 f   LIBCMT:_freebuf.obj
 0001:00100a67       __filbuf                   00501a67 f   LIBCMT:_filbuf.obj
 0001:00100b89       _memcpy_s                  00501b89 f   LIBCMT:memcpy_s.obj
 0001:00100bfe       __fgetwc_nolock            00501bfe f   LIBCMT:fgetwc.obj
 0001:00100da9       __isctype_l                00501da9 f   LIBCMT:isctype.obj
 0001:00100e61       ?terminate@@YAXXZ          00501e61 f   LIBCMT:hooks.obj
 0001:00100e9a       __initp_eh_hooks           00501e9a f   LIBCMT:hooks.obj
 0001:00100eab       __initp_misc_winsig        00501eab f   LIBCMT:winsig.obj
 0001:00100f00       ___get_sigabrt             00501f00 f   LIBCMT:winsig.obj
 0001:00100f0d       _raise                     00501f0d f   LIBCMT:winsig.obj
 0001:001010b0       __initp_misc_rand_s        005020b0 f   LIBCMT:rand_s.obj
 0001:001010bf       __RTC_Initialize           005020bf f   LIBCMT:_initsect_.obj
 0001:001010e5       __RTC_Terminate            005020e5 f   LIBCMT:_initsect_.obj
 0001:0010110b       __initp_misc_cfltcvt_tab   0050210b f   LIBCMT:cmiscdat.obj
 0001:00101130       __ValidateImageBase        00502130 f   LIBCMT:pesect.obj
 0001:00101170       __FindPESection            00502170 f   LIBCMT:pesect.obj
 0001:001011c0       __IsNonwritableInCurrentImage 005021c0 f   LIBCMT:pesect.obj
 0001:0010127c       __wopenfile                0050227c f   LIBCMT:_wopen.obj
 0001:00101535       __getstream                00502535 f   LIBCMT:stream.obj
 0001:00101670       __local_unwind4            00502670 f   LIBCMT:exsup4.obj
 0001:00101746       __seh_longjmp_unwind4@4    00502746 f   LIBCMT:exsup4.obj
 0001:00101762       @_EH4_CallFilterFunc@8     00502762 f   LIBCMT:exsup4.obj
 0001:00101779       @_EH4_TransferToHandler@8  00502779 f   LIBCMT:exsup4.obj
 0001:00101792       @_EH4_GlobalUnwind2@8      00502792 f   LIBCMT:exsup4.obj
 0001:001017ab       @_EH4_LocalUnwind@16       005027ab f   LIBCMT:exsup4.obj
 0001:001017c2       __forcdecpt_l              005027c2 f   LIBCMT:cvt.obj
 0001:00101836       __cropzeros_l              00502836 f   LIBCMT:cvt.obj
 0001:001018b8       __positive                 005028b8 f   LIBCMT:cvt.obj
 0001:001018d4       __fassign_l                005028d4 f   LIBCMT:cvt.obj
 0001:00101916       __fassign                  00502916 f   LIBCMT:cvt.obj
 0001:0010194f       __forcdecpt                0050294f f   LIBCMT:cvt.obj
 0001:00101962       __cropzeros                00502962 f   LIBCMT:cvt.obj
 0001:00101ad6       __cftoe_l                  00502ad6 f   LIBCMT:cvt.obj
 0001:00101b9d       __cftoe                    00502b9d f   LIBCMT:cvt.obj
 0001:00101bbd       __cftoa_l                  00502bbd f   LIBCMT:cvt.obj
 0001:00102036       __cftof_l                  00503036 f   LIBCMT:cvt.obj
 0001:001020f7       __cftog_l                  005030f7 f   LIBCMT:cvt.obj
 0001:001021e4       __cfltcvt_l                005031e4 f   LIBCMT:cvt.obj
 0001:0010226c       __cfltcvt                  0050326c f   LIBCMT:cvt.obj
 0001:0010228f       __setdefaultprecision      0050328f f   LIBCMT:fp8.obj
 0001:001022b7       __towlower_l               005032b7 f   LIBCMT:towlower.obj
 0001:00102582       _strtol                    00503582 f   LIBCMT:strtol.obj
 0001:0010284a       __strtoi64                 0050384a f   LIBCMT:strtoq.obj
 0001:0010292c       __input_l                  0050392c f   LIBCMT:input.obj
 0001:001039d7       __output_l                 005049d7 f   LIBCMT:output.obj
 0001:00104583       _wcslen                    00505583 f   LIBCMT:wcslen.obj
 0001:00104678       __winput_l                 00505678 f   LIBCMT:winput.obj
 0001:00105750       __wfltin2                  00506750 f   LIBCMT:_wcfin_.obj
 0001:001057f9       __stbuf                    005067f9 f   LIBCMT:_sftbuf.obj
 0001:00105895       __ftbuf                    00506895 f   LIBCMT:_sftbuf.obj
 0001:001058d0       __cintrindisp2             005068d0 f   LIBCMT:_87cdisp_.obj
 0001:0010590e       __cintrindisp1             0050690e f   LIBCMT:_87cdisp_.obj
 0001:0010594b       __ctrandisp2               0050694b f   LIBCMT:_87cdisp_.obj
 0001:00105ada       __ctrandisp1               00506ada f   LIBCMT:_87cdisp_.obj
 0001:00105b0d       __fload                    00506b0d f   LIBCMT:_87cdisp_.obj
 0001:00105b50       __trandisp1                00506b50 f   LIBCMT:_87disp_.obj
 0001:00105bb7       __trandisp2                00506bb7 f   LIBCMT:_87disp_.obj
 0001:00105c43       __rttospopde               00506c43     LIBCMT:_87disp_.obj
 0001:00105c48       __rttospop                 00506c48     LIBCMT:_87disp_.obj
 0001:00105c4a       __rtnospop                 00506c4a     LIBCMT:_87disp_.obj
 0001:00105c4c       __rttosnpop                00506c4c     LIBCMT:_87disp_.obj
 0001:00105c4d       __rtnospopde               00506c4d     LIBCMT:_87disp_.obj
 0001:00105c54       __rtzeropop                00506c54     LIBCMT:_87disp_.obj
 0001:00105c56       __rtzeronpop               00506c56     LIBCMT:_87disp_.obj
 0001:00105c5b       __rtonepop                 00506c5b     LIBCMT:_87disp_.obj
 0001:00105c5d       __rtonenpop                00506c5d     LIBCMT:_87disp_.obj
 0001:00105c62       __tosnan1                  00506c62     LIBCMT:_87disp_.obj
 0001:00105c8d       __nosnan2                  00506c8d     LIBCMT:_87disp_.obj
 0001:00105c8f       __tosnan2                  00506c8f     LIBCMT:_87disp_.obj
 0001:00105cb7       __nan2                     00506cb7     LIBCMT:_87disp_.obj
 0001:00105cf6       __rtindfpop                00506cf6     LIBCMT:_87disp_.obj
 0001:00105cf8       __rtindfnpop               00506cf8     LIBCMT:_87disp_.obj
 0001:00105d09       __rttosnpopde              00506d09     LIBCMT:_87disp_.obj
 0001:00105d13       __rtchsifneg               00506d13     LIBCMT:_87disp_.obj
 0001:00105d1a       __freea                    00506d1a f i LIBCMT:a_map.obj
 0001:00105f21       ___crtLCMapStringA         00506f21 f   LIBCMT:a_map.obj
 0001:00105f67       __calloc_impl              00506f67 f   LIBCMT:calloc_impl.obj
 0001:00105fe9       ?__CxxUnhandledExceptionFilter@@YGJPAU_EXCEPTION_POINTERS@@@Z 00506fe9 f   LIBCMT:unhandld.obj
 0001:0010602b       ___CxxSetUnhandledExceptionFilter 0050702b f   LIBCMT:unhandld.obj
 0001:00106039       __XcptFilter               00507039 f   LIBCMT:winxfltr.obj
 0001:00106183       __wsetenvp                 00507183 f   LIBCMT:wstdenvp.obj
 0001:001063b5       __wsetargv                 005073b5 f   LIBCMT:wstdargv.obj
 0001:00106463       ___crtGetEnvironmentStringsW 00507463 f   LIBCMT:w_env.obj
 0001:001064bb       ___security_init_cookie    005074bb f   LIBCMT:gs_support.obj
 0001:00106556       ___crtMessageBoxW          00507556 f   LIBCMT:crtmboxw.obj
 0001:001066c2       _wcscat_s                  005076c2 f   LIBCMT:wcscat_s.obj
 0001:00106737       _wcsncpy_s                 00507737 f   LIBCMT:wcsncpy_s.obj
 0001:00106804       _wcscpy_s                  00507804 f   LIBCMT:wcscpy_s.obj
 0001:00106867       __set_error_mode           00507867 f   LIBCMT:errmode.obj
 0001:001068a6       __recalloc                 005078a6 f   LIBCMT:recalloc.obj
 0001:00106914       __crt_debugger_hook        00507914 f   LIBCMT:dbghook.obj
 0001:0010691c       __write_nolock             0050791c f   LIBCMT:write.obj
 0001:00107019       __write                    00508019 f   LIBCMT:write.obj
 0001:001070ed       __getbuf                   005080ed f   LIBCMT:_getbuf.obj
 0001:00107136       __isatty                   00508136 f   LIBCMT:isatty.obj
 0001:0010718c       __fputwc_nolock            0050818c f   LIBCMT:fputwc.obj
 0001:00107313       __get_printf_count_output  00508313 f   LIBCMT:printf.obj
 0001:00107329       __mbtowc_l                 00508329 f   LIBCMT:mbtowc.obj
 0001:0010743f       _mbtowc                    0050843f f   LIBCMT:mbtowc.obj
 0001:00107459       __mbsnbicoll_l             00508459 f   LIBCMT:mbsnbico.obj
 0001:00107537       __mbsnbicoll               00508537 f   LIBCMT:mbsnbico.obj
 0001:00107551       ___wtomb_environ           00508551 f   LIBCMT:wtombenv.obj
 0001:001076cf       ___crtGetStringTypeA       005086cf f   LIBCMT:a_str.obj
 0001:0010770f       ___free_lc_time            0050870f f   LIBCMT:inittime.obj
 0001:00107a86       ___free_lconv_num          00508a86 f   LIBCMT:initnum.obj
 0001:00107aef       ___free_lconv_mon          00508aef f   LIBCMT:initmon.obj
 0001:00107bed       __set_osfhnd               00508bed f   LIBCMT:osfinfo.obj
 0001:00107c6e       __free_osfhnd              00508c6e f   LIBCMT:osfinfo.obj
 0001:00107cf4       __get_osfhandle            00508cf4 f   LIBCMT:osfinfo.obj
 0001:00107d5d       ___lock_fhandle            00508d5d f   LIBCMT:osfinfo.obj
 0001:00107dfc       __unlock_fhandle           00508dfc f   LIBCMT:osfinfo.obj
 0001:00107e23       __alloc_osfhnd             00508e23 f   LIBCMT:osfinfo.obj
 0001:00107fbc       ___report_gsfailure        00508fbc f   LIBCMT:gs_report.obj
 0001:001080c2       __fcloseall                005090c2 f   LIBCMT:closeall.obj
 0001:0010815e       __commit                   0050915e f   LIBCMT:commit.obj
 0001:00108237       __filwbuf                  00509237 f   LIBCMT:_filwbuf.obj
 0001:00108367       __ungetc_nolock            00509367 f   LIBCMT:ungetc.obj
 0001:0010844a       _ungetc                    0050944a f   LIBCMT:ungetc.obj
 0001:001084c0       _strcspn                   005094c0 f   LIBCMT:strcspn.obj
 0001:00108510       _strpbrk                   00509510 f   LIBCMT:strpbrk.obj
 0001:00108550       __fptrap                   00509550 f   LIBCMT:crt0fp.obj
 0001:00108c8e       __wsopen_helper            00509c8e f   LIBCMT:wopen.obj
 0001:00108d52       __wsopen_s                 00509d52 f   LIBCMT:wopen.obj
 0001:00108d72       _wcsncmp                   00509d72 f   LIBCMT:wcsncmp.obj
 0001:00108db0       _strrchr                   00509db0 f   LIBCMT:strrchr.obj
 0001:00108ddd       __tolower_l                00509ddd f   LIBCMT:tolower.obj
 0001:00108ef2       _tolower                   00509ef2 f   LIBCMT:tolower.obj
 0001:00108f1e       __atodbl_l                 00509f1e f   LIBCMT:atodbl.obj
 0001:00108fc6       __atoflt_l                 00509fc6 f   LIBCMT:atodbl.obj
 0001:0010906e       __fptostr                  0050a06e f   LIBCMT:_fptostr.obj
 0001:00109121       ___dtold                   0050a121 f   LIBCMT:_cfout_.obj
 0001:001091d4       __fltout2                  0050a1d4 f   LIBCMT:_cfout_.obj
 0001:00109270       __alldvrm                  0050a270 f   LIBCMT:lldvrm.obj
 0001:0010934f       __controlfp_s              0050a34f f   LIBCMT:_contrlfp_.obj
 0001:001093ae       ___crtLCMapStringW         0050a3ae f   LIBCMT:w_map.obj
 0001:001093dd       __wctomb_s_l               0050a3dd f   LIBCMT:wctomb.obj
 0001:00109532       _wctomb_s                  0050a532 f   LIBCMT:wctomb.obj
 0001:0010954f       __ungetwc_nolock           0050a54f f   LIBCMT:ungetwc.obj
 0001:00109709       __wcstombs_l_helper        0050a709 f   LIBCMT:wcstombs.obj
 0001:00109970       __wcstombs_s_l             0050a970 f   LIBCMT:wcstombs.obj
 0001:00109a22       _wcstombs_s                0050aa22 f   LIBCMT:wcstombs.obj
 0001:00109a42       __ld12tod                  0050aa42 f   LIBCMT:_intrncvt_.obj
 0001:00109f93       __ld12tof                  0050af93 f   LIBCMT:_intrncvt_.obj
 0001:0010a4e4       ___wstrgtold12_l           0050b4e4 f   LIBCMT:_wstrgtold_.obj
 0001:0010ac24       __87except                 0050bc24 f   LIBCMT:_87except_.obj
 0001:0010ad63       __putwch_nolock            0050bd63 f   LIBCMT:putwch.obj
 0001:0010ada5       __flswbuf                  0050bda5 f   LIBCMT:_flswbuf.obj
 0001:0010b187       ___crtCompareStringA       0050c187 f   LIBCMT:a_cmp.obj
 0001:0010b1c9       __strnicoll_l              0050c1c9 f   LIBCMT:strnicol.obj
 0001:0010b365       ___crtsetenv               0050c365 f   LIBCMT:setenv.obj
 0001:0010b5a7       __strnicmp_l               0050c5a7 f   LIBCMT:strnicmp.obj
 0001:0010b689       __chsize_nolock            0050c689 f   LIBCMT:chsize.obj
 0001:0010b83f       __setmode_nolock           0050c83f f   LIBCMT:setmode.obj
 0001:0010b8fa       __get_fmode                0050c8fa f   LIBCMT:setmode.obj
 0001:0010b928       ___strgtold12_l            0050c928 f   LIBCMT:_strgtold_.obj
 0001:0010c004       _$I10_OUTPUT               0050d004 f   LIBCMT:_x10fout_.obj
 0001:0010ca2a       __control87                0050da2a f i LIBCMT:_ieee87_.obj
 0001:0010cd3c       _wcsnlen                   0050dd3c f   LIBCMT:wcslen_s.obj
 0001:0010cd5c       ___mtold12                 0050dd5c f   LIBCMT:_mantold_.obj
 0001:0010cf40       __raise_exc_ex             0050df40 f   LIBCMT:_fpexcept_.obj
 0001:0010d21c       __raise_exc                0050e21c f   LIBCMT:_fpexcept_.obj
 0001:0010d23f       __handle_exc               0050e23f f   LIBCMT:_fpexcept_.obj
 0001:0010d423       __set_errno_from_matherr   0050e423 f   LIBCMT:_fpexcept_.obj
 0001:0010d450       __matherr                  0050e450 f   LIBCMT:_matherr_.obj
 0001:0010d453       __statfp                   0050e453 f   LIBCMT:_fpctrl_.obj
 0001:0010d463       __clrfp                    0050e463 f   LIBCMT:_fpctrl_.obj
 0001:0010d474       __ctrlfp                   0050e474 f   LIBCMT:_fpctrl_.obj
 0001:0010d49f       __set_statfp               0050e49f f   LIBCMT:_fpctrl_.obj
 0001:0010d4f7       ___set_fpsr_sse2           0050e4f7 f   LIBCMT:_fpctrl_.obj
 0001:0010d569       ___initconout              0050e569 f   LIBCMT:initcon.obj
 0001:0010d588       ___termconout              0050e588 f   LIBCMT:initcon.obj
 0001:0010d59f       __strdup                   0050e59f f   LIBCMT:strdup.obj
 0001:0010d5f1       __mbschr_l                 0050e5f1 f   LIBCMT:mbschr.obj
 0001:0010d6a1       __mbschr                   0050e6a1 f   LIBCMT:mbschr.obj
 0001:0010d6c0       ___ascii_strnicmp          0050e6c0 f   LIBCMT:_strnicm.obj
 0001:0010d721       __set_exp                  0050e721 f   LIBCMT:_util_.obj
 0001:0010d74e       __decomp                   0050e74e f   LIBCMT:_util_.obj
 0001:0010d812       _RtlUnwind@16              0050e812 f   kernel32:KERNEL32.dll
 0001:0010ea80       ??__Ftemp@?1??Pop@TVMStack@@QAEABVTVar@@XZ@YAXXZ 0050fa80 f i macro.obj
 0002:00000000       __imp__AllocateAndInitializeSid@44 00510000     advapi32:ADVAPI32.dll
 0002:00000004       __imp__FreeSid@4           00510004     advapi32:ADVAPI32.dll
 0002:00000008       __imp__SetSecurityDescriptorDacl@16 00510008     advapi32:ADVAPI32.dll
 0002:0000000c       __imp__SetEntriesInAclW@16 0051000c     advapi32:ADVAPI32.dll
 0002:00000010       __imp__InitializeSecurityDescriptor@8 00510010     advapi32:ADVAPI32.dll
 0002:00000014       __imp__SetFileSecurityW@12 00510014     advapi32:ADVAPI32.dll
 0002:00000018       __imp__GetFileSecurityW@20 00510018     advapi32:ADVAPI32.dll
 0002:0000001c       __imp__RegCloseKey@4       0051001c     advapi32:ADVAPI32.dll
 0002:00000020       __imp__RegQueryValueExW@24 00510020     advapi32:ADVAPI32.dll
 0002:00000024       __imp__RegOpenKeyExW@20    00510024     advapi32:ADVAPI32.dll
 0002:00000028       __imp__RegOpenKeyW@12      00510028     advapi32:ADVAPI32.dll
 0002:0000002c       __imp__RegEnumValueW@32    0051002c     advapi32:ADVAPI32.dll
 0002:00000030       __imp__RegEnumKeyExW@32    00510030     advapi32:ADVAPI32.dll
 0002:00000034       __imp__DecryptFileW@8      00510034     advapi32:ADVAPI32.dll
 0002:00000038       __imp__EncryptFileW@4      00510038     advapi32:ADVAPI32.dll
 0002:0000003c       __imp__SetNamedSecurityInfoW@28 0051003c     advapi32:ADVAPI32.dll
 0002:00000040       __imp__LookupAccountNameW@28 00510040     advapi32:ADVAPI32.dll
 0002:00000044       __imp__LookupAccountSidW@28 00510044     advapi32:ADVAPI32.dll
 0002:00000048       __imp__CopySid@12          00510048     advapi32:ADVAPI32.dll
 0002:0000004c       __imp__GetLengthSid@4      0051004c     advapi32:ADVAPI32.dll
 0002:00000050       __imp__EqualSid@8          00510050     advapi32:ADVAPI32.dll
 0002:00000054       __imp__IsValidSid@4        00510054     advapi32:ADVAPI32.dll
 0002:00000058       __imp__GetSecurityDescriptorOwner@12 00510058     advapi32:ADVAPI32.dll
 0002:0000005c       __imp__IsTextUnicode@12    0051005c     advapi32:ADVAPI32.dll
 0002:00000060       __imp__RegSetValueExW@24   00510060     advapi32:ADVAPI32.dll
 0002:00000064       __imp__GetUserNameW@8      00510064     advapi32:ADVAPI32.dll
 0002:00000068       __imp__AdjustTokenPrivileges@24 00510068     advapi32:ADVAPI32.dll
 0002:0000006c       __imp__LookupPrivilegeValueW@12 0051006c     advapi32:ADVAPI32.dll
 0002:00000070       __imp__OpenProcessToken@12 00510070     advapi32:ADVAPI32.dll
 0002:00000074       __imp__RegDeleteKeyW@8     00510074     advapi32:ADVAPI32.dll
 0002:00000078       __imp__RegDeleteValueW@8   00510078     advapi32:ADVAPI32.dll
 0002:0000007c       __imp__RegCreateKeyExW@36  0051007c     advapi32:ADVAPI32.dll
 0002:00000080       __imp__CheckTokenMembership@12 00510080     advapi32:ADVAPI32.dll
 0002:00000084       \177ADVAPI32_NULL_THUNK_DATA 00510084     advapi32:ADVAPI32.dll
 0002:00000088       __imp__CreateNamedPipeW@32 00510088     kernel32:KERNEL32.dll
 0002:0000008c       __imp__LocalAlloc@8        0051008c     kernel32:KERNEL32.dll
 0002:00000090       __imp__GetDriveTypeW@4     00510090     kernel32:KERNEL32.dll
 0002:00000094       __imp__SetThreadPriority@8 00510094     kernel32:KERNEL32.dll
 0002:00000098       __imp__GetThreadPriority@4 00510098     kernel32:KERNEL32.dll
 0002:0000009c       __imp__GetCurrentThread@0  0051009c     kernel32:KERNEL32.dll
 0002:000000a0       __imp__GlobalFree@4        005100a0     kernel32:KERNEL32.dll
 0002:000000a4       __imp__GlobalUnlock@4      005100a4     kernel32:KERNEL32.dll
 0002:000000a8       __imp__GlobalLock@4        005100a8     kernel32:KERNEL32.dll
 0002:000000ac       __imp__GlobalAlloc@8       005100ac     kernel32:KERNEL32.dll
 0002:000000b0       __imp__MultiByteToWideChar@24 005100b0     kernel32:KERNEL32.dll
 0002:000000b4       __imp__GetACP@0            005100b4     kernel32:KERNEL32.dll
 0002:000000b8       __imp__GetOEMCP@0          005100b8     kernel32:KERNEL32.dll
 0002:000000bc       __imp__GetCPInfo@8         005100bc     kernel32:KERNEL32.dll
 0002:000000c0       __imp__GetCPInfoExW@12     005100c0     kernel32:KERNEL32.dll
 0002:000000c4       __imp__EnumSystemCodePagesW@8 005100c4     kernel32:KERNEL32.dll
 0002:000000c8       __imp__AllocConsole@0      005100c8     kernel32:KERNEL32.dll
 0002:000000cc       __imp__FreeConsole@0       005100cc     kernel32:KERNEL32.dll
 0002:000000d0       __imp__GetStdHandle@4      005100d0     kernel32:KERNEL32.dll
 0002:000000d4       __imp__GetConsoleWindow@0  005100d4     kernel32:KERNEL32.dll
 0002:000000d8       __imp__GetConsoleScreenBufferInfo@8 005100d8     kernel32:KERNEL32.dll
 0002:000000dc       __imp__SetConsoleWindowInfo@12 005100dc     kernel32:KERNEL32.dll
 0002:000000e0       __imp__SetConsoleTitleW@4  005100e0     kernel32:KERNEL32.dll
 0002:000000e4       __imp__GetConsoleCP@0      005100e4     kernel32:KERNEL32.dll
 0002:000000e8       __imp__SetConsoleCP@4      005100e8     kernel32:KERNEL32.dll
 0002:000000ec       __imp__GetConsoleOutputCP@0 005100ec     kernel32:KERNEL32.dll
 0002:000000f0       __imp__SetConsoleOutputCP@4 005100f0     kernel32:KERNEL32.dll
 0002:000000f4       __imp__SetConsoleCtrlHandler@8 005100f4     kernel32:KERNEL32.dll
 0002:000000f8       __imp__GetConsoleMode@8    005100f8     kernel32:KERNEL32.dll
 0002:000000fc       __imp__SetConsoleMode@8    005100fc     kernel32:KERNEL32.dll
 0002:00000100       __imp__WriteConsoleW@20    00510100     kernel32:KERNEL32.dll
 0002:00000104       __imp__SetConsoleTextAttribute@8 00510104     kernel32:KERNEL32.dll
 0002:00000108       __imp__GetConsoleCursorInfo@8 00510108     kernel32:KERNEL32.dll
 0002:0000010c       __imp__SetConsoleCursorInfo@8 0051010c     kernel32:KERNEL32.dll
 0002:00000110       __imp__FlushConsoleInputBuffer@4 00510110     kernel32:KERNEL32.dll
 0002:00000114       __imp__GetConsoleAliasW@16 00510114     kernel32:KERNEL32.dll
 0002:00000118       __imp__GetConsoleDisplayMode@4 00510118     kernel32:KERNEL32.dll
 0002:0000011c       __imp__GetLargestConsoleWindowSize@4 0051011c     kernel32:KERNEL32.dll
 0002:00000120       __imp__SetConsoleActiveScreenBuffer@4 00510120     kernel32:KERNEL32.dll
 0002:00000124       __imp__ScrollConsoleScreenBufferW@20 00510124     kernel32:KERNEL32.dll
 0002:00000128       __imp__SetConsoleScreenBufferSize@8 00510128     kernel32:KERNEL32.dll
 0002:0000012c       __imp__GetConsoleTitleW@8  0051012c     kernel32:KERNEL32.dll
 0002:00000130       __imp__PeekConsoleInputW@16 00510130     kernel32:KERNEL32.dll
 0002:00000134       __imp__ReadConsoleInputW@16 00510134     kernel32:KERNEL32.dll
 0002:00000138       __imp__WriteConsoleInputW@16 00510138     kernel32:KERNEL32.dll
 0002:0000013c       __imp__ReadConsoleOutputW@20 0051013c     kernel32:KERNEL32.dll
 0002:00000140       __imp__WriteConsoleOutputW@20 00510140     kernel32:KERNEL32.dll
 0002:00000144       __imp__SetConsoleCursorPosition@8 00510144     kernel32:KERNEL32.dll
 0002:00000148       __imp__FillConsoleOutputAttribute@20 00510148     kernel32:KERNEL32.dll
 0002:0000014c       __imp__FillConsoleOutputCharacterW@20 0051014c     kernel32:KERNEL32.dll
 0002:00000150       __imp__GetTickCount@0      00510150     kernel32:KERNEL32.dll
 0002:00000154       __imp__SetThreadExecutionState@4 00510154     kernel32:KERNEL32.dll
 0002:00000158       __imp__GetShortPathNameW@12 00510158     kernel32:KERNEL32.dll
 0002:0000015c       __imp__GetLongPathNameW@12 0051015c     kernel32:KERNEL32.dll
 0002:00000160       __imp__GetCalendarInfoW@24 00510160     kernel32:KERNEL32.dll
 0002:00000164       __imp__GetLocaleInfoW@16   00510164     kernel32:KERNEL32.dll
 0002:00000168       __imp__LocalFileTimeToFileTime@8 00510168     kernel32:KERNEL32.dll
 0002:0000016c       __imp__SystemTimeToFileTime@8 0051016c     kernel32:KERNEL32.dll
 0002:00000170       __imp__FileTimeToSystemTime@8 00510170     kernel32:KERNEL32.dll
 0002:00000174       __imp__FileTimeToLocalFileTime@8 00510174     kernel32:KERNEL32.dll
 0002:00000178       __imp__GetLocalTime@4      00510178     kernel32:KERNEL32.dll
 0002:0000017c       __imp__Sleep@4             0051017c     kernel32:KERNEL32.dll
 0002:00000180       __imp__InterlockedDecrement@4 00510180     kernel32:KERNEL32.dll
 0002:00000184       __imp__InterlockedIncrement@4 00510184     kernel32:KERNEL32.dll
 0002:00000188       __imp__GetDiskFreeSpaceW@20 00510188     kernel32:KERNEL32.dll
 0002:0000018c       __imp__SetEnvironmentVariableW@8 0051018c     kernel32:KERNEL32.dll
 0002:00000190       __imp__WideCharToMultiByte@32 00510190     kernel32:KERNEL32.dll
 0002:00000194       __imp__GetLogicalDrives@0  00510194     kernel32:KERNEL32.dll
 0002:00000198       __imp__SetCurrentDirectoryW@4 00510198     kernel32:KERNEL32.dll
 0002:0000019c       __imp__FreeLibrary@4       0051019c     kernel32:KERNEL32.dll
 0002:000001a0       __imp__GetProcAddress@8    005101a0     kernel32:KERNEL32.dll
 0002:000001a4       __imp__LoadLibraryW@4      005101a4     kernel32:KERNEL32.dll
 0002:000001a8       __imp__SetFilePointerEx@20 005101a8     kernel32:KERNEL32.dll
 0002:000001ac       __imp__SetEndOfFile@4      005101ac     kernel32:KERNEL32.dll
 0002:000001b0       __imp__FlushFileBuffers@4  005101b0     kernel32:KERNEL32.dll
 0002:000001b4       __imp__GetFileInformationByHandle@8 005101b4     kernel32:KERNEL32.dll
 0002:000001b8       __imp__DeviceIoControl@32  005101b8     kernel32:KERNEL32.dll
 0002:000001bc       __imp__GetVolumeInformationW@32 005101bc     kernel32:KERNEL32.dll
 0002:000001c0       __imp__GetFileSizeEx@8     005101c0     kernel32:KERNEL32.dll
 0002:000001c4       __imp__FindClose@4         005101c4     kernel32:KERNEL32.dll
 0002:000001c8       __imp__GetLogicalDriveStringsW@8 005101c8     kernel32:KERNEL32.dll
 0002:000001cc       __imp__SearchPathW@24      005101cc     kernel32:KERNEL32.dll
 0002:000001d0       __imp__QueryDosDeviceW@12  005101d0     kernel32:KERNEL32.dll
 0002:000001d4       __imp__GetProcessHeaps@8   005101d4     kernel32:KERNEL32.dll
 0002:000001d8       __imp__LocalFree@4         005101d8     kernel32:KERNEL32.dll
 0002:000001dc       __imp__GetTempPathW@8      005101dc     kernel32:KERNEL32.dll
 0002:000001e0       __imp__GetModuleFileNameW@12 005101e0     kernel32:KERNEL32.dll
 0002:000001e4       __imp__MoveFileW@8         005101e4     kernel32:KERNEL32.dll
 0002:000001e8       __imp__ExpandEnvironmentStringsW@12 005101e8     kernel32:KERNEL32.dll
 0002:000001ec       __imp__GetFileType@4       005101ec     kernel32:KERNEL32.dll
 0002:000001f0       __imp__GetDiskFreeSpaceExW@16 005101f0     kernel32:KERNEL32.dll
 0002:000001f4       __imp__GetCompressedFileSizeW@8 005101f4     kernel32:KERNEL32.dll
 0002:000001f8       __imp__FindVolumeClose@4   005101f8     kernel32:KERNEL32.dll
 0002:000001fc       __imp__FindNextVolumeW@12  005101fc     kernel32:KERNEL32.dll
 0002:00000200       __imp__FindFirstVolumeW@8  00510200     kernel32:KERNEL32.dll
 0002:00000204       __imp__GetVolumeNameForVolumeMountPointW@12 00510204     kernel32:KERNEL32.dll
 0002:00000208       __imp__GetCurrentDirectoryW@8 00510208     kernel32:KERNEL32.dll
 0002:0000020c       __imp__GetSystemTime@4     0051020c     kernel32:KERNEL32.dll
 0002:00000210       __imp__GetSystemTimeAsFileTime@4 00510210     kernel32:KERNEL32.dll
 0002:00000214       __imp__FileTimeToDosDateTime@12 00510214     kernel32:KERNEL32.dll
 0002:00000218       __imp__ResetEvent@4        00510218     kernel32:KERNEL32.dll
 0002:0000021c       __imp__LCMapStringW@24     0051021c     kernel32:KERNEL32.dll
 0002:00000220       __imp__CreateThread@24     00510220     kernel32:KERNEL32.dll
 0002:00000224       __imp__SetVolumeMountPointW@8 00510224     kernel32:KERNEL32.dll
 0002:00000228       __imp__DefineDosDeviceW@12 00510228     kernel32:KERNEL32.dll
 0002:0000022c       __imp__FindCloseChangeNotification@4 0051022c     kernel32:KERNEL32.dll
 0002:00000230       __imp__FindFirstChangeNotificationW@12 00510230     kernel32:KERNEL32.dll
 0002:00000234       __imp__CreateProcessW@40   00510234     kernel32:KERNEL32.dll
 0002:00000238       __imp__GetModuleHandleW@4  00510238     kernel32:KERNEL32.dll
 0002:0000023c       __imp__GlobalMemoryStatusEx@4 0051023c     kernel32:KERNEL32.dll
 0002:00000240       __imp__GetComputerNameW@8  00510240     kernel32:KERNEL32.dll
 0002:00000244       __imp__GetComputerNameExW@12 00510244     kernel32:KERNEL32.dll
 0002:00000248       __imp__CompareStringA@24   00510248     kernel32:KERNEL32.dll
 0002:0000024c       __imp__GetSystemInfo@4     0051024c     kernel32:KERNEL32.dll
 0002:00000250       __imp__IsDebuggerPresent@0 00510250     kernel32:KERNEL32.dll
 0002:00000254       __imp__GetVersionExW@4     00510254     kernel32:KERNEL32.dll
 0002:00000258       __imp__FormatMessageW@28   00510258     kernel32:KERNEL32.dll
 0002:0000025c       __imp__GetTempFileNameW@16 0051025c     kernel32:KERNEL32.dll
 0002:00000260       __imp__SetFileApisToOEM@0  00510260     kernel32:KERNEL32.dll
 0002:00000264       __imp__SetFileApisToANSI@0 00510264     kernel32:KERNEL32.dll
 0002:00000268       __imp__LoadLibraryExW@12   00510268     kernel32:KERNEL32.dll
 0002:0000026c       __imp__UnmapViewOfFile@4   0051026c     kernel32:KERNEL32.dll
 0002:00000270       __imp__MapViewOfFile@20    00510270     kernel32:KERNEL32.dll
 0002:00000274       __imp__CreateFileMappingW@24 00510274     kernel32:KERNEL32.dll
 0002:00000278       __imp__CompareFileTime@8   00510278     kernel32:KERNEL32.dll
 0002:0000027c       __imp__GetNumberFormatW@24 0051027c     kernel32:KERNEL32.dll
 0002:00000280       __imp__CreateMutexW@12     00510280     kernel32:KERNEL32.dll
 0002:00000284       __imp__ReleaseMutex@4      00510284     kernel32:KERNEL32.dll
 0002:00000288       __imp__SetStdHandle@8      00510288     kernel32:KERNEL32.dll
 0002:0000028c       __imp__WriteProcessMemory@20 0051028c     kernel32:KERNEL32.dll
 0002:00000290       __imp__VirtualProtect@16   00510290     kernel32:KERNEL32.dll
 0002:00000294       __imp__GetProcessHeap@0    00510294     kernel32:KERNEL32.dll
 0002:00000298       __imp__SetEnvironmentVariableA@8 00510298     kernel32:KERNEL32.dll
 0002:0000029c       __imp__RaiseException@16   0051029c     kernel32:KERNEL32.dll
 0002:000002a0       __imp__QueryPerformanceCounter@4 005102a0     kernel32:KERNEL32.dll
 0002:000002a4       __imp__GetEnvironmentStringsW@0 005102a4     kernel32:KERNEL32.dll
 0002:000002a8       __imp__FreeEnvironmentStringsW@4 005102a8     kernel32:KERNEL32.dll
 0002:000002ac       __imp__VirtualQuery@12     005102ac     kernel32:KERNEL32.dll
 0002:000002b0       __imp__RtlUnwind@16        005102b0     kernel32:KERNEL32.dll
 0002:000002b4       __imp__SetFilePointer@16   005102b4     kernel32:KERNEL32.dll
 0002:000002b8       __imp__GetStartupInfoW@4   005102b8     kernel32:KERNEL32.dll
 0002:000002bc       __imp__SetHandleCount@4    005102bc     kernel32:KERNEL32.dll
 0002:000002c0       __imp__HeapCreate@12       005102c0     kernel32:KERNEL32.dll
 0002:000002c4       __imp__TlsFree@4           005102c4     kernel32:KERNEL32.dll
 0002:000002c8       __imp__TlsSetValue@8       005102c8     kernel32:KERNEL32.dll
 0002:000002cc       __imp__TlsGetValue@4       005102cc     kernel32:KERNEL32.dll
 0002:000002d0       __imp__TlsAlloc@0          005102d0     kernel32:KERNEL32.dll
 0002:000002d4       __imp__IsValidCodePage@4   005102d4     kernel32:KERNEL32.dll
 0002:000002d8       __imp__InitializeCriticalSectionAndSpinCount@8 005102d8     kernel32:KERNEL32.dll
 0002:000002dc       __imp__SetUnhandledExceptionFilter@4 005102dc     kernel32:KERNEL32.dll
 0002:000002e0       __imp__UnhandledExceptionFilter@4 005102e0     kernel32:KERNEL32.dll
 0002:000002e4       __imp__GetStringTypeW@16   005102e4     kernel32:KERNEL32.dll
 0002:000002e8       __imp__IsProcessorFeaturePresent@4 005102e8     kernel32:KERNEL32.dll
 0002:000002ec       __imp__HeapSetInformation@16 005102ec     kernel32:KERNEL32.dll
 0002:000002f0       __imp__GetCommandLineW@0   005102f0     kernel32:KERNEL32.dll
 0002:000002f4       __imp__ExitProcess@4       005102f4     kernel32:KERNEL32.dll
 0002:000002f8       __imp__HeapSize@12         005102f8     kernel32:KERNEL32.dll
 0002:000002fc       __imp__HeapReAlloc@16      005102fc     kernel32:KERNEL32.dll
 0002:00000300       __imp__HeapQueryInformation@20 00510300     kernel32:KERNEL32.dll
 0002:00000304       __imp__HeapAlloc@12        00510304     kernel32:KERNEL32.dll
 0002:00000308       __imp__HeapFree@12         00510308     kernel32:KERNEL32.dll
 0002:0000030c       __imp__GetTimeZoneInformation@4 0051030c     kernel32:KERNEL32.dll
 0002:00000310       __imp__ConnectNamedPipe@8  00510310     kernel32:KERNEL32.dll
 0002:00000314       __imp__GetOverlappedResult@16 00510314     kernel32:KERNEL32.dll
 0002:00000318       __imp__TerminateProcess@8  00510318     kernel32:KERNEL32.dll
 0002:0000031c       __imp__SetErrorMode@4      0051031c     kernel32:KERNEL32.dll
 0002:00000320       __imp__WaitNamedPipeW@8    00510320     kernel32:KERNEL32.dll
 0002:00000324       __imp__CreateFileW@28      00510324     kernel32:KERNEL32.dll
 0002:00000328       __imp__GetCurrentProcessId@0 00510328     kernel32:KERNEL32.dll
 0002:0000032c       __imp__DisconnectNamedPipe@4 0051032c     kernel32:KERNEL32.dll
 0002:00000330       __imp__GetCurrentThreadId@0 00510330     kernel32:KERNEL32.dll
 0002:00000334       __imp__OpenProcess@12      00510334     kernel32:KERNEL32.dll
 0002:00000338       __imp__GetCurrentProcess@0 00510338     kernel32:KERNEL32.dll
 0002:0000033c       __imp__DuplicateHandle@28  0051033c     kernel32:KERNEL32.dll
 0002:00000340       __imp__CreateHardLinkW@12  00510340     kernel32:KERNEL32.dll
 0002:00000344       __imp__SetFileAttributesW@8 00510344     kernel32:KERNEL32.dll
 0002:00000348       __imp__GetFileAttributesW@4 00510348     kernel32:KERNEL32.dll
 0002:0000034c       __imp__MoveFileExW@12      0051034c     kernel32:KERNEL32.dll
 0002:00000350       __imp__CopyFileExW@24      00510350     kernel32:KERNEL32.dll
 0002:00000354       __imp__DeleteFileW@4       00510354     kernel32:KERNEL32.dll
 0002:00000358       __imp__RemoveDirectoryW@4  00510358     kernel32:KERNEL32.dll
 0002:0000035c       __imp__CreateDirectoryExW@12 0051035c     kernel32:KERNEL32.dll
 0002:00000360       __imp__CreateDirectoryW@8  00510360     kernel32:KERNEL32.dll
 0002:00000364       __imp__CompareStringW@24   00510364     kernel32:KERNEL32.dll
 0002:00000368       __imp__WriteFile@20        00510368     kernel32:KERNEL32.dll
 0002:0000036c       __imp__ReadFile@20         0051036c     kernel32:KERNEL32.dll
 0002:00000370       __imp__WaitForSingleObject@8 00510370     kernel32:KERNEL32.dll
 0002:00000374       __imp__SetEvent@4          00510374     kernel32:KERNEL32.dll
 0002:00000378       __imp__CloseHandle@4       00510378     kernel32:KERNEL32.dll
 0002:0000037c       __imp__CreateEventW@16     0051037c     kernel32:KERNEL32.dll
 0002:00000380       __imp__SetLastError@4      00510380     kernel32:KERNEL32.dll
 0002:00000384       __imp__GetLastError@0      00510384     kernel32:KERNEL32.dll
 0002:00000388       __imp__LeaveCriticalSection@4 00510388     kernel32:KERNEL32.dll
 0002:0000038c       __imp__EnterCriticalSection@4 0051038c     kernel32:KERNEL32.dll
 0002:00000390       __imp__DeleteCriticalSection@4 00510390     kernel32:KERNEL32.dll
 0002:00000394       __imp__GetEnvironmentVariableW@12 00510394     kernel32:KERNEL32.dll
 0002:00000398       __imp__InitializeCriticalSection@4 00510398     kernel32:KERNEL32.dll
 0002:0000039c       \177KERNEL32_NULL_THUNK_DATA 0051039c     kernel32:KERNEL32.dll
 0002:000003a0       __imp__WNetGetUniversalNameW@16 005103a0     mpr:MPR.dll
 0002:000003a4       __imp__WNetCloseEnum@4     005103a4     mpr:MPR.dll
 0002:000003a8       __imp__WNetEnumResourceW@16 005103a8     mpr:MPR.dll
 0002:000003ac       __imp__WNetOpenEnumW@20    005103ac     mpr:MPR.dll
 0002:000003b0       __imp__WNetAddConnection2W@16 005103b0     mpr:MPR.dll
 0002:000003b4       __imp__WNetCancelConnection2W@12 005103b4     mpr:MPR.dll
 0002:000003b8       __imp__WNetGetConnectionW@12 005103b8     mpr:MPR.dll
 0002:000003bc       \177MPR_NULL_THUNK_DATA    005103bc     mpr:MPR.dll
 0002:000003c0       __imp__GetModuleFileNameExW@16 005103c0     psapi:PSAPI.DLL
 0002:000003c4       \177PSAPI_NULL_THUNK_DATA  005103c4     psapi:PSAPI.DLL
 0002:000003c8       __imp__SetupDiGetClassDevsW@16 005103c8     setupapi:SETUPAPI.dll
 0002:000003cc       __imp__CM_Request_Device_EjectW@20 005103cc     setupapi:SETUPAPI.dll
 0002:000003d0       __imp__SetupDiGetDeviceRegistryPropertyW@28 005103d0     setupapi:SETUPAPI.dll
 0002:000003d4       __imp__SetupDiDestroyDeviceInfoList@4 005103d4     setupapi:SETUPAPI.dll
 0002:000003d8       __imp__CM_Get_Device_IDW@16 005103d8     setupapi:SETUPAPI.dll
 0002:000003dc       __imp__CM_Get_Child@12     005103dc     setupapi:SETUPAPI.dll
 0002:000003e0       __imp__CM_Get_DevNode_Status@16 005103e0     setupapi:SETUPAPI.dll
 0002:000003e4       __imp__SetupDiGetDeviceInterfaceDetailW@24 005103e4     setupapi:SETUPAPI.dll
 0002:000003e8       __imp__SetupDiEnumDeviceInterfaces@20 005103e8     setupapi:SETUPAPI.dll
 0002:000003ec       __imp__CM_Locate_DevNodeW@12 005103ec     setupapi:SETUPAPI.dll
 0002:000003f0       __imp__CM_Get_Device_ID_ListW@16 005103f0     setupapi:SETUPAPI.dll
 0002:000003f4       __imp__CM_Get_Device_ID_List_SizeW@12 005103f4     setupapi:SETUPAPI.dll
 0002:000003f8       __imp__CM_Get_Sibling@12   005103f8     setupapi:SETUPAPI.dll
 0002:000003fc       __imp__SetupDiOpenDeviceInfoW@20 005103fc     setupapi:SETUPAPI.dll
 0002:00000400       \177SETUPAPI_NULL_THUNK_DATA 00510400     setupapi:SETUPAPI.dll
 0002:00000404       __imp__ShellExecuteW@24    00510404     shell32:SHELL32.dll
 0002:00000408       __imp__ExtractIconExW@20   00510408     shell32:SHELL32.dll
 0002:0000040c       __imp__ShellExecuteExW@4   0051040c     shell32:SHELL32.dll
 0002:00000410       __imp__SHFileOperationW@4  00510410     shell32:SHELL32.dll
 0002:00000414       \177SHELL32_NULL_THUNK_DATA 00510414     shell32:SHELL32.dll
 0002:00000418       __imp__GetUserNameExW@12   00510418     secur32:Secur32.dll
 0002:0000041c       \177Secur32_NULL_THUNK_DATA 0051041c     secur32:Secur32.dll
 0002:00000420       __imp__IsWindowVisible@4   00510420     user32:USER32.dll
 0002:00000424       __imp__ShowWindowAsync@8   00510424     user32:USER32.dll
 0002:00000428       __imp__GetWindowPlacement@8 00510428     user32:USER32.dll
 0002:0000042c       __imp__SetForegroundWindow@4 0051042c     user32:USER32.dll
 0002:00000430       __imp__SystemParametersInfoW@16 00510430     user32:USER32.dll
 0002:00000434       __imp__GetWindowThreadProcessId@8 00510434     user32:USER32.dll
 0002:00000438       __imp__EnumWindows@8       00510438     user32:USER32.dll
 0002:0000043c       __imp__IsCharUpperW@4      0051043c     user32:USER32.dll
 0002:00000440       __imp__CharToOemBuffW@12   00510440     user32:USER32.dll
 0002:00000444       __imp__CharLowerW@4        00510444     user32:USER32.dll
 0002:00000448       __imp__GetWindowTextLengthW@4 00510448     user32:USER32.dll
 0002:0000044c       __imp__GetWindowInfo@8     0051044c     user32:USER32.dll
 0002:00000450       __imp__PostQuitMessage@4   00510450     user32:USER32.dll
 0002:00000454       __imp__IsIconic@4          00510454     user32:USER32.dll
 0002:00000458       __imp__IsZoomed@4          00510458     user32:USER32.dll
 0002:0000045c       __imp__IsCharAlphaW@4      0051045c     user32:USER32.dll
 0002:00000460       __imp__CharUpperW@4        00510460     user32:USER32.dll
 0002:00000464       __imp__MessageBeep@4       00510464     user32:USER32.dll
 0002:00000468       __imp__GetDoubleClickTime@0 00510468     user32:USER32.dll
 0002:0000046c       __imp__DefWindowProcW@16   0051046c     user32:USER32.dll
 0002:00000470       __imp__DestroyWindow@4     00510470     user32:USER32.dll
 0002:00000474       __imp__FlashWindowEx@4     00510474     user32:USER32.dll
 0002:00000478       __imp__RegisterClipboardFormatW@4 00510478     user32:USER32.dll
 0002:0000047c       __imp__TranslateMessage@4  0051047c     user32:USER32.dll
 0002:00000480       __imp__DispatchMessageW@4  00510480     user32:USER32.dll
 0002:00000484       __imp__GetMessageW@16      00510484     user32:USER32.dll
 0002:00000488       __imp__CreateWindowExW@48  00510488     user32:USER32.dll
 0002:0000048c       __imp__RegisterClassExW@4  0051048c     user32:USER32.dll
 0002:00000490       __imp__UnregisterClassW@8  00510490     user32:USER32.dll
 0002:00000494       __imp__CharUpperBuffW@8    00510494     user32:USER32.dll
 0002:00000498       __imp__IsClipboardFormatAvailable@4 00510498     user32:USER32.dll
 0002:0000049c       __imp__SetClipboardData@8  0051049c     user32:USER32.dll
 0002:000004a0       __imp__GetClipboardData@4  005104a0     user32:USER32.dll
 0002:000004a4       __imp__EmptyClipboard@0    005104a4     user32:USER32.dll
 0002:000004a8       __imp__CloseClipboard@0    005104a8     user32:USER32.dll
 0002:000004ac       __imp__OpenClipboard@4     005104ac     user32:USER32.dll
 0002:000004b0       __imp__GetWindowLongW@8    005104b0     user32:USER32.dll
 0002:000004b4       __imp__GetWindowTextW@12   005104b4     user32:USER32.dll
 0002:000004b8       __imp__wsprintfW           005104b8     user32:USER32.dll
 0002:000004bc       __imp__PostMessageW@16     005104bc     user32:USER32.dll
 0002:000004c0       __imp__IsCharAlphaNumericA@4 005104c0     user32:USER32.dll
 0002:000004c4       __imp__OemToCharBuffA@12   005104c4     user32:USER32.dll
 0002:000004c8       __imp__CharToOemA@8        005104c8     user32:USER32.dll
 0002:000004cc       __imp__OemToCharA@8        005104cc     user32:USER32.dll
 0002:000004d0       __imp__IsCharAlphaA@4      005104d0     user32:USER32.dll
 0002:000004d4       __imp__IsCharLowerA@4      005104d4     user32:USER32.dll
 0002:000004d8       __imp__IsCharUpperA@4      005104d8     user32:USER32.dll
 0002:000004dc       __imp__CharUpperA@4        005104dc     user32:USER32.dll
 0002:000004e0       __imp__CharLowerA@4        005104e0     user32:USER32.dll
 0002:000004e4       __imp__GetKeyboardLayoutList@8 005104e4     user32:USER32.dll
 0002:000004e8       __imp__ToUnicodeEx@28      005104e8     user32:USER32.dll
 0002:000004ec       __imp__VkKeyScanW@4        005104ec     user32:USER32.dll
 0002:000004f0       __imp__MapVirtualKeyW@8    005104f0     user32:USER32.dll
 0002:000004f4       __imp__GetKeyState@4       005104f4     user32:USER32.dll
 0002:000004f8       __imp__keybd_event@16      005104f8     user32:USER32.dll
 0002:000004fc       __imp__IsCharLowerW@4      005104fc     user32:USER32.dll
 0002:00000500       __imp__CharLowerBuffW@8    00510500     user32:USER32.dll
 0002:00000504       __imp__IsCharAlphaNumericW@4 00510504     user32:USER32.dll
 0002:00000508       __imp__SendMessageW@16     00510508     user32:USER32.dll
 0002:0000050c       __imp__CopyIcon@4          0051050c     user32:USER32.dll
 0002:00000510       __imp__WaitForInputIdle@8  00510510     user32:USER32.dll
 0002:00000514       \177USER32_NULL_THUNK_DATA 00510514     user32:USER32.dll
 0002:00000518       __imp__ClosePrinter@4      00510518     winspool:WINSPOOL.DRV
 0002:0000051c       __imp__EnumPrintersW@28    0051051c     winspool:WINSPOOL.DRV
 0002:00000520       __imp__OpenPrinterW@12     00510520     winspool:WINSPOOL.DRV
 0002:00000524       __imp__StartDocPrinterW@12 00510524     winspool:WINSPOOL.DRV
 0002:00000528       __imp__WritePrinter@16     00510528     winspool:WINSPOOL.DRV
 0002:0000052c       __imp__EndDocPrinter@4     0051052c     winspool:WINSPOOL.DRV
 0002:00000530       __imp__GetDefaultPrinterW@8 00510530     winspool:WINSPOOL.DRV
 0002:00000534       \177WINSPOOL_NULL_THUNK_DATA 00510534     winspool:WINSPOOL.DRV
 0002:00000538       __imp__CoTaskMemFree@4     00510538     ole32:ole32.dll
 0002:0000053c       __imp__CoUninitialize@0    0051053c     ole32:ole32.dll
 0002:00000540       __imp__CoCreateInstance@20 00510540     ole32:ole32.dll
 0002:00000544       __imp__CoInitializeEx@8    00510544     ole32:ole32.dll
 0002:00000548       __imp__CoCreateGuid@4      00510548     ole32:ole32.dll
 0002:0000054c       \177ole32_NULL_THUNK_DATA  0051054c     ole32:ole32.dll
 0002:00000550       ___xc_a                    00510550     LIBCMT:crt0init.obj
 0002:0000061c       ___xc_z                    0051061c     LIBCMT:crt0init.obj
 0002:00000620       ___xi_a                    00510620     LIBCMT:crt0init.obj
 0002:0000063c       ___xi_z                    0051063c     LIBCMT:crt0init.obj
 0002:00000640       ___xl_a                    00510640     LIBCMT:tlssup.obj
 0002:00000644       _hook_wow64_tlscb          00510644     hook_wow64.obj
 0002:00000648       ___xl_z                    00510648     LIBCMT:tlssup.obj
 0002:0000064c       ___xp_a                    0051064c     LIBCMT:crt0init.obj
 0002:00000658       ___xp_z                    00510658     LIBCMT:crt0init.obj
 0002:0000065c       ___xt_a                    0051065c     LIBCMT:crt0init.obj
 0002:00000660       ___xt_z                    00510660     LIBCMT:crt0init.obj
 0002:00000670       ??_C@_11LOCGONAA@?$AA?$AA@ 00510670     elevation.obj
 0002:00000674       ??_7BaseFormat@@6B@        00510674     elevation.obj
 0002:00000678       ??_7FormatString@@6B@      00510678     elevation.obj
 0002:0000067c       ??_C@_1BE@DILMMBJD@?$AA?2?$AA?2?$AA?4?$AA?2?$AAp?$AAi?$AAp?$AAe?$AA?2?$AA?$AA@ 0051067c     elevation.obj
 0002:00000690       ??_C@_1DM@MMDBEHJC@?$AAS?$AAe?$AAC?$AAr?$AAe?$AAa?$AAt?$AAe?$AAS?$AAy?$AAm?$AAb?$AAo?$AAl?$AAi?$AAc?$AAL?$AAi?$AAn?$AAk?$AAP?$AAr?$AAi?$AAv?$AAi?$AAl?$AAe?$AAg?$AAe?$AA?$AA@ 00510690     elevation.obj
 0002:000006cc       ??_C@_1CC@DMDJMJLM@?$AAS?$AAe?$AAD?$AAe?$AAb?$AAu?$AAg?$AAP?$AAr?$AAi?$AAv?$AAi?$AAl?$AAe?$AAg?$AAe?$AA?$AA@ 005106cc     elevation.obj
 0002:000006f0       ??_C@_1DC@DAFGHJAD@?$AAS?$AAe?$AAT?$AAa?$AAk?$AAe?$AAO?$AAw?$AAn?$AAe?$AAr?$AAs?$AAh?$AAi?$AAp?$AAP?$AAr?$AAi?$AAv?$AAi?$AAl?$AAe?$AAg?$AAe?$AA?$AA@ 005106f0     elevation.obj
 0002:00000724       ??_C@_1CG@LMBBLCJG@?$AAS?$AAe?$AAR?$AAe?$AAs?$AAt?$AAo?$AAr?$AAe?$AAP?$AAr?$AAi?$AAv?$AAi?$AAl?$AAe?$AAg?$AAe?$AA?$AA@ 00510724     elevation.obj
 0002:0000074c       ??_C@_1CE@MBNFGOEN@?$AAS?$AAe?$AAB?$AAa?$AAc?$AAk?$AAu?$AAp?$AAP?$AAr?$AAi?$AAv?$AAi?$AAl?$AAe?$AAg?$AAe?$AA?$AA@ 0051074c     elevation.obj
 0002:00000770       ??_C@_1M@CDHIAJCD@?$AAr?$AAu?$AAn?$AAa?$AAs?$AA?$AA@ 00510770     elevation.obj
 0002:0000077c       ??_C@_1BA@MJGGGEIB@?$AA?1?$AAa?$AAd?$AAm?$AAi?$AAn?$AA?5?$AA?$AA@ 0051077c     elevation.obj
 0002:0000078c       ??_C@_13HOIJIPNN@?$AA?5?$AA?$AA@ 0051078c     elevation.obj
 0002:00000790       ??_C@_13COJANIEC@?$AA0?$AA?$AA@ 00510790     elevation.obj
 0002:00000794       ??_C@_13JGCMLPCH@?$AA1?$AA?$AA@ 00510794     elevation.obj
 0002:00000798       ??_C@_1GG@FCALANDO@?$AA?$HL?$AA?$CF?$AA0?$AA8?$AAX?$AA?9?$AA?$CF?$AA0?$AA4?$AAX?$AA?9?$AA?$CF?$AA0?$AA4?$AAX?$AA?9?$AA?$CF?$AA0?$AA2?$AAX?$AA?$CF?$AA0?$AA2?$AAX?$AA?9?$AA?$CF?$AA0?$AA2?$AAX?$AA?$CF?$AA0?$AA2@ 00510798     elevation.obj
 0002:00000800       ??_C@_1BK@LIEFMKNA@?$AAE?$AAl?$AAe?$AAv?$AAa?$AAt?$AAi?$AAo?$AAn?$AAD?$AAl?$AAg?$AA?$AA@ 00510800     elevation.obj
 0002:0000081c       ??_C@_05OIBHDPLN@HDDVD?$AA@ 0051081c     cddrv.obj
 0002:00000824       ??_C@_05POMLDHCO@BDROM?$AA@ 00510824     cddrv.obj
 0002:0000082c       ??_C@_06PAPIHFBO@DVDRAM?$AA@ 0051082c     cddrv.obj
 0002:00000834       ??_C@_05ODBDNCGK@DVDRW?$AA@ 00510834     cddrv.obj
 0002:0000083c       ??_C@_03DGOJDHIK@DVD?$AA@  0051083c     cddrv.obj
 0002:00000840       ??_C@_04KIDKNEFM@CDRW?$AA@ 00510840     cddrv.obj
 0002:00000848       ??_C@_02OGHHJPHF@CD?$AA@   00510848     cddrv.obj
 0002:0000084c       ??_C@_19BKJMDJK@?$AA?2?$AA?2?$AA?4?$AA?2?$AA?$AA@ 0051084c     cddrv.obj
 0002:00000858       ??_C@_19MJCDBCKE@?$AA?2?$AA?2?$AA?$DP?$AA?2?$AA?$AA@ 00510858     cddrv.obj
 0002:00000864       ?FAR_VerticalBlock@@3QB_WB 00510864     clipboard.obj
 0002:00000888       ?FAR_VerticalBlock_Unicode@@3QB_WB 00510888     clipboard.obj
 0002:000008bc       ??_C@_15JNBOKNOG@?$AA?$AN?$AA?6?$AA?$AA@ 005108bc     clipboard.obj
 0002:000008c4       ??_C@_13MOEPKPHB@?$AA?$DO?$AA?$AA@ 005108c4     cmdline.obj
 0002:000008c8       ??_C@_15FNDDFCCM@?$AA?$CF?$AAT?$AA?$AA@ 005108c8     cmdline.obj
 0002:000008d0       ??_C@_15NCKAFLD@?$AA?$CF?$AAD?$AA?$AA@ 005108d0     cmdline.obj
 0002:000008d8       ??_C@_1BK@BNOKEKKF@?$AAH?$AAi?$AAs?$AAt?$AAo?$AAr?$AAy?$AAV?$AAi?$AAe?$AAw?$AAs?$AA?$AA@ 005108d8     cmdline.obj
 0002:000008f4       ??_C@_13OCMIIKPF@?$CB?$JB?$AA?$AA@ 005108f4     cmdline.obj
 0002:000008f8       ??_C@_1BO@KEOHINI@?$AAH?$AAi?$AAs?$AAt?$AAo?$AAr?$AAy?$AAF?$AAo?$AAl?$AAd?$AAe?$AAr?$AAs?$AA?$AA@ 005108f8     cmdline.obj
 0002:00000918       ??_C@_1BA@JJMCCKFL@?$AAH?$AAi?$AAs?$AAt?$AAo?$AAr?$AAy?$AA?$AA@ 00510918     cmdline.obj
 0002:00000928       ??_7CommandLine@@6B@       00510928     cmdline.obj
 0002:0000095c       ??_C@_1CI@IECHNEBO@?$AAC?$AAo?$AAd?$AAe?$AAP?$AAa?$AAg?$AAe?$AAs?$AA?2?$AAF?$AAa?$AAv?$AAo?$AAr?$AAi?$AAt?$AAe?$AAs?$AA?$AA@ 0051095c     codepage.obj
 0002:00000984       ??_C@_1CA@ECBGAKAN@?$AAC?$AAo?$AAd?$AAe?$AAP?$AAa?$AAg?$AAe?$AAs?$AA?2?$AAN?$AAa?$AAm?$AAe?$AAs?$AA?$AA@ 00510984     codepage.obj
 0002:000009a4       ??_C@_1CI@GJEHANA@?$AAU?$AAT?$AAF?$AA?9?$AA1?$AA6?$AA?5?$AA?$CI?$AAB?$AAi?$AAg?$AA?5?$AAe?$AAn?$AAd?$AAi?$AAa?$AAn?$AA?$CJ?$AA?$AA@ 005109a4     codepage.obj
 0002:000009cc       ??_C@_1CO@FPEBNHFN@?$AAU?$AAT?$AAF?$AA?9?$AA1?$AA6?$AA?5?$AA?$CI?$AAL?$AAi?$AAt?$AAt?$AAl?$AAe?$AA?5?$AAe?$AAn?$AAd?$AAi?$AAa?$AAn?$AA?$CJ?$AA?$AA@ 005109cc     codepage.obj
 0002:000009fc       ??_C@_1M@PBFCDPHC@?$AAU?$AAT?$AAF?$AA?9?$AA8?$AA?$AA@ 005109fc     codepage.obj
 0002:00000a08       ??_C@_1M@KJDBCPCE@?$AAU?$AAT?$AAF?$AA?9?$AA7?$AA?$AA@ 00510a08     codepage.obj
 0002:00000a14       ??_C@_19DNBMEGCG@?$AAA?$AAN?$AAS?$AAI?$AA?$AA@ 00510a14     codepage.obj
 0002:00000a20       ??_C@_17FMILOLOI@?$AAO?$AAE?$AAM?$AA?$AA@ 00510a20     codepage.obj
 0002:00000a28       ??_C@_15IGBOBEDA@?$AA?5?$AA?$CK?$AA?$AA@ 00510a28     codepage.obj
 0002:00000a30       ??_C@_1CI@MBAPDCAP@?$AAE?$AAd?$AAi?$AAt?$AAC?$AAo?$AAd?$AAe?$AAP?$AAa?$AAg?$AAe?$AAN?$AAa?$AAm?$AAe?$AAD?$AAl?$AAg?$AA?$AA@ 00510a30     codepage.obj
 0002:00000a58       ??_C@_1BK@DJDJEEAK@?$AAC?$AAo?$AAd?$AAe?$AAP?$AAa?$AAg?$AAe?$AAN?$AAa?$AAm?$AAe?$AA?$AA@ 00510a58     codepage.obj
 0002:00000a74       ??_C@_1BM@LBHKDLFG@?$AAC?$AAo?$AAd?$AAe?$AAP?$AAa?$AAg?$AAe?$AAs?$AAM?$AAe?$AAn?$AAu?$AA?$AA@ 00510a74     codepage.obj
 0002:00000a90       ??_C@_1BO@OEADHPMA@?$AAC?$AAu?$AAr?$AAr?$AAe?$AAn?$AAt?$AAP?$AAa?$AAl?$AAe?$AAt?$AAt?$AAe?$AA?$AA@ 00510a90     config.obj
 0002:00000ab0       ??_C@_1BG@MDGCBPFO@?$AA?4?$AAB?$AAA?$AAT?$AA?$DL?$AA?4?$AAC?$AAM?$AAD?$AA?$DL?$AA?$AA@ 00510ab0     config.obj
 0002:00000ac8       ??_C@_1CG@NLOLICCC@?$AA?5?$AA?7?$AA?$CB?$AA?$CD?$AA$?$AA?$CF?$AA?$FO?$AA?$CG?$AA?$CK?$AA?$CI?$AA?$CJ?$AA?$CL?$AA?$HM?$AA?$DN?$AA?2?$AA?1?$AA?$EA?$AA?$DP?$AA?$AA@ 00510ac8     config.obj
 0002:00000af0       ??_C@_1DK@LCNKAACK@?$AA?$HO?$AA?$CB?$AA?$CF?$AA?$FO?$AA?$CG?$AA?$CK?$AA?$CI?$AA?$CJ?$AA?$CL?$AA?$HM?$AA?$HL?$AA?$HN?$AA?3?$AA?$CC?$AA?$DM?$AA?$DO?$AA?$DP?$AA?$GA?$AA?9?$AA?$DN?$AA?2?$AA?$FL?$AA?$FN?$AA?$DL?$AA?8?$AA?0?$AA?4?$AA?1?$AA?$AA@ 00510af0     config.obj
 0002:00000e54       ??_C@_1CA@LNIOBKLN@?$AAF?$AAo?$AAl?$AAd?$AAe?$AAr?$AAI?$AAn?$AAf?$AAo?$AAF?$AAi?$AAl?$AAe?$AAs?$AA?$AA@ 00510e54     config.obj
 0002:00000e74       ??_C@_1BA@ODKDDAOP@?$AAO?$AAp?$AAt?$AAM?$AAe?$AAn?$AAu?$AA?$AA@ 00510e74     config.obj
 0002:00000e84       ??_C@_19JPHCGFBO@?$AAM?$AAa?$AAi?$AAn?$AA?$AA@ 00510e84     config.obj
 0002:00000e90       ??_C@_1CI@OAPGELHL@?$AAP?$AAe?$AAr?$AAs?$AAo?$AAn?$AAa?$AAl?$AAP?$AAl?$AAu?$AAg?$AAi?$AAn?$AAs?$AAP?$AAa?$AAt?$AAh?$AA?$AA@ 00510e90     config.obj
 0002:00000eb8       ??_C@_1FA@EDEKLJNG@?$AA0?$AA?0?$AA0?$AA?0?$AA0?$AA?0?$AA0?$AA?0?$AA0?$AA?0?$AA0?$AA?0?$AA0?$AA?0?$AA0?$AA?0?$AA0?$AA?0?$AA0?$AA?0?$AA0?$AA?0?$AA0?$AA?0?$AA0?$AA?0?$AA0?$AA?0?$AA0?$AA?0?$AA0?$AA?0@ 00510eb8     config.obj
 0002:00000f08       ??_C@_1BA@BPEMMEAO@?$AAL?$AAa?$AAy?$AAo?$AAu?$AAt?$AAs?$AA?$AA@ 00510f08     config.obj
 0002:00000f18       ??_C@_1CK@IGIAOGEF@?$AAV?$AAi?$AAe?$AAw?$AAe?$AAr?$AA?2?$AAL?$AAa?$AAs?$AAt?$AAP?$AAo?$AAs?$AAi?$AAt?$AAi?$AAo?$AAn?$AAs?$AA?$AA@ 00510f18     config.obj
 0002:00000f44       ??_C@_1CK@JGGNAFIB@?$AAE?$AAd?$AAi?$AAt?$AAo?$AAr?$AA?2?$AAL?$AAa?$AAs?$AAt?$AAP?$AAo?$AAs?$AAi?$AAt?$AAi?$AAo?$AAn?$AAs?$AA?$AA@ 00510f44     config.obj
 0002:00000f70       ??_C@_1CM@EIBIPKLH@?$AAK?$AAe?$AAy?$AAR?$AAe?$AAc?$AAo?$AAr?$AAd?$AAC?$AAt?$AAr?$AAl?$AAS?$AAh?$AAi?$AAf?$AAt?$AAD?$AAo?$AAt?$AA?$AA@ 00510f70     config.obj
 0002:00000f9c       ??_C@_1CC@LLNNMBOC@?$AAK?$AAe?$AAy?$AAR?$AAe?$AAc?$AAo?$AAr?$AAd?$AAC?$AAt?$AAr?$AAl?$AAD?$AAo?$AAt?$AA?$AA@ 00510f9c     config.obj
 0002:00000fc0       ??_C@_1CA@LNFDKMOB@?$AAD?$AAi?$AAs?$AAa?$AAb?$AAl?$AAe?$AAd?$AAO?$AAp?$AAt?$AAi?$AAo?$AAn?$AAs?$AA?$AA@ 00510fc0     config.obj
 0002:00000fe0       ??_C@_1CC@HFNOAPDA@?$AAS?$AAh?$AAo?$AAw?$AAH?$AAi?$AAd?$AAd?$AAe?$AAn?$AAD?$AAr?$AAi?$AAv?$AAe?$AAs?$AA?$AA@ 00510fe0     config.obj
 0002:00001004       ??_C@_1CI@HKOCOHPB@?$AAT?$AAe?$AAm?$AAp?$AAl?$AAa?$AAt?$AAe?$AAP?$AAl?$AAu?$AAg?$AAi?$AAn?$AAs?$AAP?$AAa?$AAt?$AAh?$AA?$AA@ 00511004     config.obj
 0002:0000102c       ??_C@_1BO@LPEFLAOK@?$AAS?$AAy?$AAs?$AAt?$AAe?$AAm?$AAS?$AAe?$AAt?$AAt?$AAi?$AAn?$AAg?$AAs?$AA?$AA@ 0051102c     config.obj
 0002:0000104c       ??_C@_1BM@IHDKAEGN@?$AAP?$AAa?$AAn?$AAe?$AAl?$AAS?$AAe?$AAt?$AAt?$AAi?$AAn?$AAg?$AAs?$AA?$AA@ 0051104c     config.obj
 0002:00001068       ??_C@_1BO@EIJJPIDP@?$AAI?$AAn?$AAt?$AAe?$AAr?$AAf?$AAS?$AAe?$AAt?$AAt?$AAi?$AAn?$AAg?$AAs?$AA?$AA@ 00511068     config.obj
 0002:00001088       ??_C@_1CK@LAIHJELN@?$AAA?$AAu?$AAt?$AAo?$AAC?$AAo?$AAm?$AAp?$AAl?$AAe?$AAt?$AAe?$AAS?$AAe?$AAt?$AAt?$AAi?$AAn?$AAg?$AAs?$AA?$AA@ 00511088     config.obj
 0002:000010b4       ??_C@_1CE@DAMEFFKK@?$AAI?$AAn?$AAf?$AAo?$AAP?$AAa?$AAn?$AAe?$AAl?$AAS?$AAe?$AAt?$AAt?$AAi?$AAn?$AAg?$AAs?$AA?$AA@ 005110b4     config.obj
 0002:000010d8       ??_C@_1BO@LDKMOICK@?$AAD?$AAi?$AAa?$AAl?$AAo?$AAg?$AAS?$AAe?$AAt?$AAt?$AAi?$AAn?$AAg?$AAs?$AA?$AA@ 005110d8     config.obj
 0002:000010f8       ??_C@_1BM@GALMFJPH@?$AAV?$AAM?$AAe?$AAn?$AAu?$AAS?$AAe?$AAt?$AAt?$AAi?$AAn?$AAg?$AAs?$AA?$AA@ 005110f8     config.obj
 0002:00001114       ??_C@_1CA@FELOKAGE@?$AAC?$AAm?$AAd?$AAl?$AAi?$AAn?$AAe?$AAS?$AAe?$AAt?$AAt?$AAi?$AAn?$AAg?$AAs?$AA?$AA@ 00511114     config.obj
 0002:00001134       ??_C@_1BG@NJLOFCFA@?$AAC?$AAo?$AAn?$AAf?$AAi?$AAr?$AAm?$AAD?$AAl?$AAg?$AA?$AA@ 00511134     config.obj
 0002:0000114c       ??_C@_1BC@NMHDNOOB@?$AAP?$AAe?$AAr?$AAs?$AAP?$AAa?$AAt?$AAh?$AA?$AA@ 0051114c     config.obj
 0002:00001160       ??_C@_1CO@KHDGGJFN@?$AAP?$AAl?$AAu?$AAg?$AAi?$AAn?$AAs?$AAM?$AAa?$AAn?$AAa?$AAg?$AAe?$AAr?$AAS?$AAe?$AAt?$AAt?$AAi?$AAn?$AAg?$AAs?$AA?$AA@ 00511160     config.obj
 0002:00001190       ??_C@_1BA@NABIGHBN@?$AAF?$AAi?$AAl?$AAe?$AAD?$AAi?$AAz?$AA?$AA@ 00511190     config.obj
 0002:000011a0       ??_C@_1BO@JLBPLOMA@?$AAE?$AAx?$AAt?$AAe?$AAr?$AAn?$AAa?$AAl?$AAV?$AAi?$AAe?$AAw?$AAe?$AAr?$AA?$AA@ 005111a0     config.obj
 0002:000011c0       ??_C@_1BO@DIDCPKPH@?$AAV?$AAi?$AAe?$AAw?$AAe?$AAr?$AAS?$AAe?$AAt?$AAt?$AAi?$AAn?$AAg?$AAs?$AA?$AA@ 005111c0     config.obj
 0002:000011e0       ??_C@_1BO@CKELGCJC@?$AAE?$AAx?$AAt?$AAe?$AAr?$AAn?$AAa?$AAl?$AAE?$AAd?$AAi?$AAt?$AAo?$AAr?$AA?$AA@ 005111e0     config.obj
 0002:00001200       ??_C@_1BO@LGACPPKG@?$AAE?$AAd?$AAi?$AAt?$AAo?$AAr?$AAS?$AAe?$AAt?$AAt?$AAi?$AAn?$AAg?$AAs?$AA?$AA@ 00511200     config.obj
 0002:00001220       ??_C@_1BE@KBAOMLIF@?$AAM?$AAB?$AAt?$AAn?$AAC?$AAl?$AAi?$AAc?$AAk?$AA?$AA@ 00511220     config.obj
 0002:00001234       ??_C@_1BE@DNFHBAIB@?$AAR?$AAB?$AAt?$AAn?$AAC?$AAl?$AAi?$AAc?$AAk?$AA?$AA@ 00511234     config.obj
 0002:00001248       ??_C@_1BE@MEGJPAMD@?$AAL?$AAB?$AAt?$AAn?$AAC?$AAl?$AAi?$AAc?$AAk?$AA?$AA@ 00511248     config.obj
 0002:0000125c       ??_C@_1CG@BJICBGPO@?$AAI?$AAn?$AAf?$AAo?$AAU?$AAs?$AAe?$AAr?$AAN?$AAa?$AAm?$AAe?$AAF?$AAo?$AAr?$AAm?$AAa?$AAt?$AA?$AA@ 0051125c     config.obj
 0002:00001284       ??_C@_1CO@DKGGENBH@?$AAI?$AAn?$AAf?$AAo?$AAC?$AAo?$AAm?$AAp?$AAu?$AAt?$AAe?$AAr?$AAN?$AAa?$AAm?$AAe?$AAF?$AAo?$AAr?$AAm?$AAa?$AAt?$AA?$AA@ 00511284     config.obj
 0002:000012b8       ??_C@_1GE@BCNGIMII@?$AAD?$AAi?$AAr?$AAI?$AAn?$AAf?$AAo?$AA?0?$AAF?$AAi?$AAl?$AAe?$AA_?$AAI?$AAd?$AA?4?$AAd?$AAi?$AAz?$AA?0?$AAD?$AAe?$AAs?$AAc?$AAr?$AAi?$AAp?$AAt?$AA?4?$AAi?$AAo?$AAn@ 005112b8     config.obj
 0002:0000131c       ??_C@_1BG@HAJJKMOA@?$AAF?$AAo?$AAl?$AAd?$AAe?$AAr?$AAI?$AAn?$AAf?$AAo?$AA?$AA@ 0051131c     config.obj
 0002:00001334       ??_C@_1BG@HNFNHMIG@?$AAC?$AAP?$AAM?$AAe?$AAn?$AAu?$AAM?$AAo?$AAd?$AAe?$AA?$AA@ 00511334     config.obj
 0002:0000134c       ??_C@_1CE@KAACIONF@?$AAE?$AAx?$AAc?$AAl?$AAu?$AAd?$AAe?$AAC?$AAm?$AAd?$AAH?$AAi?$AAs?$AAt?$AAo?$AAr?$AAy?$AA?$AA@ 0051134c     config.obj
 0002:00001370       ??_C@_1CA@CCHONPMP@?$AAC?$AAa?$AAl?$AAl?$AAP?$AAl?$AAu?$AAg?$AAi?$AAn?$AAR?$AAu?$AAl?$AAe?$AAs?$AA?$AA@ 00511370     config.obj
 0002:00001390       ??_C@_19CNCPAEHD@?$AA?$CF?$AA?4?$AA6?$AAg?$AA?$AA@ 00511390     config.obj
 0002:0000139c       ??_C@_1BA@HGNMGNGJ@?$AAC?$AAO?$AAN?$AAV?$AAF?$AAM?$AAT?$AA?$AA@ 0051139c     config.obj
 0002:000013ac       ??_C@_1DA@DCDBJMAN@?$AA?$CF?$AAa?$AA?5?$AA?$CF?$AAb?$AA?5?$AA?$CF?$AAd?$AA?5?$AA?$CF?$AAH?$AA?3?$AA?$CF?$AAM?$AA?3?$AA?$CF?$AAS?$AA?5?$AA?$CF?$AAZ?$AA?5?$AA?$CF?$AAY?$AA?$AA@ 005113ac     config.obj
 0002:000013dc       ??_C@_1BG@HHJIGCJJ@?$AAD?$AAa?$AAt?$AAe?$AAF?$AAo?$AAr?$AAm?$AAa?$AAt?$AA?$AA@ 005113dc     config.obj
 0002:000013f4       ??_C@_1CA@FPEJEBAH@?$AAM?$AAa?$AAc?$AAr?$AAo?$AAR?$AAe?$AAu?$AAs?$AAe?$AAR?$AAu?$AAl?$AAe?$AAs?$AA?$AA@ 005113f4     config.obj
 0002:00001414       ??_C@_1BE@FAOPGOID@?$AAS?$AAa?$AAv?$AAe?$AAI?$AAn?$AAU?$AAT?$AAF?$AA?$AA@ 00511414     config.obj
 0002:00001428       ??_C@_1BM@JLIFPEHE@?$AAA?$AAn?$AAs?$AAi?$AAB?$AAy?$AAD?$AAe?$AAf?$AAa?$AAu?$AAl?$AAt?$AA?$AA@ 00511428     config.obj
 0002:00001444       ??_C@_1BC@BOBECLNL@?$AAS?$AAt?$AAa?$AAr?$AAt?$AAP?$AAo?$AAs?$AA?$AA@ 00511444     config.obj
 0002:00001458       ??_C@_1BE@EKKNNPGO@?$AAS?$AAe?$AAt?$AAH?$AAi?$AAd?$AAd?$AAe?$AAn?$AA?$AA@ 00511458     config.obj
 0002:0000146c       ??_C@_1BC@HGGOIOEE@?$AAR?$AAO?$AAU?$AAp?$AAd?$AAa?$AAt?$AAe?$AA?$AA@ 0051146c     config.obj
 0002:00001480       ??_C@_1BG@HFEONLBN@?$AAU?$AAp?$AAd?$AAa?$AAt?$AAe?$AAM?$AAo?$AAd?$AAe?$AA?$AA@ 00511480     config.obj
 0002:00001498       ??_C@_1CO@GJHBLLAK@?$AAD?$AAe?$AAs?$AAc?$AAr?$AAi?$AAp?$AAt?$AA?4?$AAi?$AAo?$AAn?$AA?0?$AAF?$AAi?$AAl?$AAe?$AAs?$AA?4?$AAb?$AAb?$AAs?$AA?$AA@ 00511498     config.obj
 0002:000014c8       ??_C@_1BE@IBGLDNNG@?$AAL?$AAi?$AAs?$AAt?$AAN?$AAa?$AAm?$AAe?$AAs?$AA?$AA@ 005114c8     config.obj
 0002:000014dc       ??_C@_1BO@GLBDBHFI@?$AAF?$AAu?$AAl?$AAl?$AAs?$AAc?$AAr?$AAe?$AAe?$AAn?$AAH?$AAe?$AAl?$AAp?$AA?$AA@ 005114dc     config.obj
 0002:000014fc       ??_C@_1BO@JIKMKPEK@?$AAW?$AAi?$AAd?$AAt?$AAh?$AAD?$AAe?$AAc?$AAr?$AAe?$AAm?$AAe?$AAn?$AAt?$AA?$AA@ 005114fc     config.obj
 0002:0000151c       ??_C@_1CK@BANBINOH@?$AAR?$AAi?$AAg?$AAh?$AAt?$AAH?$AAe?$AAi?$AAg?$AAh?$AAt?$AAD?$AAe?$AAc?$AAr?$AAe?$AAm?$AAe?$AAn?$AAt?$AA?$AA@ 0051151c     config.obj
 0002:00001548       ??_C@_1CI@OPMFDAJE@?$AAL?$AAe?$AAf?$AAt?$AAH?$AAe?$AAi?$AAg?$AAh?$AAt?$AAD?$AAe?$AAc?$AAr?$AAe?$AAm?$AAe?$AAn?$AAt?$AA?$AA@ 00511548     config.obj
 0002:00001570       ??_C@_1BM@NAPOKFKP@?$AAS?$AAc?$AAr?$AAe?$AAe?$AAn?$AAs?$AAN?$AAu?$AAm?$AAb?$AAe?$AAr?$AA?$AA@ 00511570     config.obj
 0002:0000158c       ??_C@_1BM@KPCKIEEF@?$AAS?$AAc?$AAr?$AAo?$AAl?$AAl?$AAb?$AAa?$AAr?$AAM?$AAe?$AAn?$AAu?$AA?$AA@ 0051158c     config.obj
 0002:000015a8       ??_C@_1BE@HDKMEMEF@?$AAS?$AAc?$AAr?$AAo?$AAl?$AAl?$AAb?$AAa?$AAr?$AA?$AA@ 005115a8     config.obj
 0002:000015bc       ??_C@_1BC@NGHKAFIA@?$AAF?$AAr?$AAe?$AAe?$AAI?$AAn?$AAf?$AAo?$AA?$AA@ 005115bc     config.obj
 0002:000015d0       ??_C@_1BE@FHLGMNJJ@?$AAT?$AAo?$AAt?$AAa?$AAl?$AAI?$AAn?$AAf?$AAo?$AA?$AA@ 005115d0     config.obj
 0002:000015e4       ??_C@_1BG@MHMKAABO@?$AAS?$AAt?$AAa?$AAt?$AAu?$AAs?$AAL?$AAi?$AAn?$AAe?$AA?$AA@ 005115e4     config.obj
 0002:000015fc       ??_C@_1BK@MBFACEDG@?$AAC?$AAo?$AAl?$AAu?$AAm?$AAn?$AAT?$AAi?$AAt?$AAl?$AAe?$AAs?$AA?$AA@ 005115fc     config.obj
 0002:00001618       ??_C@_1CC@BJEENBLJ@?$AAD?$AAi?$AAr?$AAe?$AAc?$AAt?$AAo?$AAr?$AAi?$AAe?$AAs?$AAF?$AAi?$AAr?$AAs?$AAt?$AA?$AA@ 00511618     config.obj
 0002:0000163c       ??_C@_1BM@GJIFDEJ@?$AAS?$AAe?$AAl?$AAe?$AAc?$AAt?$AAe?$AAd?$AAF?$AAi?$AAr?$AAs?$AAt?$AA?$AA@ 0051163c     config.obj
 0002:00001658       ??_C@_1BA@JNIBDAIG@?$AAC?$AAu?$AAr?$AAF?$AAi?$AAl?$AAe?$AA?$AA@ 00511658     config.obj
 0002:00001668       ??_C@_1O@MLIMHFEH@?$AAF?$AAo?$AAl?$AAd?$AAe?$AAr?$AA?$AA@ 00511668     config.obj
 0002:00001678       ??_C@_1CE@KEEODGJP@?$AAC?$AAa?$AAs?$AAe?$AAS?$AAe?$AAn?$AAs?$AAi?$AAt?$AAi?$AAv?$AAe?$AAS?$AAo?$AAr?$AAt?$AA?$AA@ 00511678     config.obj
 0002:0000169c       ??_C@_1BI@POMHLOLA@?$AAN?$AAu?$AAm?$AAe?$AAr?$AAi?$AAc?$AAS?$AAo?$AAr?$AAt?$AA?$AA@ 0051169c     config.obj
 0002:000016b4       ??_C@_1BG@IIFDEFDL@?$AAS?$AAh?$AAo?$AAr?$AAt?$AAN?$AAa?$AAm?$AAe?$AAs?$AA?$AA@ 005116b4     config.obj
 0002:000016cc       ??_C@_1BG@MDJGIKFA@?$AAS?$AAo?$AAr?$AAt?$AAG?$AAr?$AAo?$AAu?$AAp?$AAs?$AA?$AA@ 005116cc     config.obj
 0002:000016e4       ??_C@_1BE@ENOJMBAM@?$AAS?$AAo?$AAr?$AAt?$AAO?$AAr?$AAd?$AAe?$AAr?$AA?$AA@ 005116e4     config.obj
 0002:000016f8       ??_C@_1BC@IALIJCAM@?$AAS?$AAo?$AAr?$AAt?$AAM?$AAo?$AAd?$AAe?$AA?$AA@ 005116f8     config.obj
 0002:0000170c       ??_C@_1BC@EDDCNOFD@?$AAV?$AAi?$AAe?$AAw?$AAM?$AAo?$AAd?$AAe?$AA?$AA@ 0051170c     config.obj
 0002:00001720       ??_C@_1M@HJJEACF@?$AAF?$AAo?$AAc?$AAu?$AAs?$AA?$AA@ 00511720     config.obj
 0002:0000172c       ??_C@_1BA@DFCBHGCL@?$AAV?$AAi?$AAs?$AAi?$AAb?$AAl?$AAe?$AA?$AA@ 0051172c     config.obj
 0002:0000173c       ??_C@_19BIEPDBPA@?$AAT?$AAy?$AAp?$AAe?$AA?$AA@ 0051173c     config.obj
 0002:00001748       ??_C@_1CA@OMJHOBF@?$AAA?$AAu?$AAt?$AAo?$AAU?$AAp?$AAd?$AAa?$AAt?$AAe?$AAL?$AAi?$AAm?$AAi?$AAt?$AA?$AA@ 00511748     config.obj
 0002:00001768       ??_C@_1CM@NIFBIDMA@?$AAR?$AAe?$AAm?$AAe?$AAm?$AAb?$AAe?$AAr?$AAL?$AAo?$AAg?$AAi?$AAc?$AAa?$AAl?$AAD?$AAr?$AAi?$AAv?$AAe?$AAs?$AA?$AA@ 00511768     config.obj
 0002:00001794       ??_C@_1CC@CHOCELDD@?$AAC?$AAt?$AAr?$AAl?$AAA?$AAl?$AAt?$AAS?$AAh?$AAi?$AAf?$AAt?$AAR?$AAu?$AAl?$AAe?$AA?$AA@ 00511794     config.obj
 0002:000017b8       ??_C@_1BE@KDJEFBBP@?$AAC?$AAt?$AAr?$AAl?$AAF?$AAR?$AAu?$AAl?$AAe?$AA?$AA@ 005117b8     config.obj
 0002:000017cc       ??_C@_1BO@JADLHMDO@?$AAR?$AAi?$AAg?$AAh?$AAt?$AAC?$AAl?$AAi?$AAc?$AAk?$AAR?$AAu?$AAl?$AAe?$AA?$AA@ 005117cc     config.obj
 0002:000017ec       ??_C@_1BI@BKFMFKGH@?$AAR?$AAe?$AAv?$AAe?$AAr?$AAs?$AAe?$AAS?$AAo?$AAr?$AAt?$AA?$AA@ 005117ec     config.obj
 0002:00001804       ??_C@_1BM@FAFKMMCM@?$AAS?$AAe?$AAl?$AAe?$AAc?$AAt?$AAF?$AAo?$AAl?$AAd?$AAe?$AAr?$AAs?$AA?$AA@ 00511804     config.obj
 0002:00001820       ??_C@_1BM@IPCIHCME@?$AAS?$AAo?$AAr?$AAt?$AAF?$AAo?$AAl?$AAd?$AAe?$AAr?$AAE?$AAx?$AAt?$AA?$AA@ 00511820     config.obj
 0002:0000183c       ??_C@_1BE@OGIDDLOL@?$AAH?$AAi?$AAg?$AAh?$AAl?$AAi?$AAg?$AAh?$AAt?$AA?$AA@ 0051183c     config.obj
 0002:00001850       ??_C@_1BG@EEJFCAOO@?$AAS?$AAh?$AAo?$AAw?$AAH?$AAi?$AAd?$AAd?$AAe?$AAn?$AA?$AA@ 00511850     config.obj
 0002:00001868       ??_C@_1DC@HNMMKICP@?$AAS?$AAh?$AAe?$AAl?$AAl?$AAR?$AAi?$AAg?$AAh?$AAt?$AAL?$AAe?$AAf?$AAt?$AAA?$AAr?$AAr?$AAo?$AAw?$AAs?$AAR?$AAu?$AAl?$AAe?$AA?$AA@ 00511868     config.obj
 0002:0000189c       ??_C@_1O@GBAEOCCH@?$AAP?$AAr?$AAe?$AAf?$AAi?$AAx?$AA?$AA@ 0051189c     config.obj
 0002:000018ac       ??_C@_1BI@MLPADJKC@?$AAS?$AAe?$AAt?$AAF?$AAi?$AAn?$AAd?$AAL?$AAi?$AAs?$AAt?$AA?$AA@ 005118ac     config.obj
 0002:000018c4       ??_C@_1CI@ODHDJADK@?$AAE?$AAv?$AAe?$AAn?$AAI?$AAf?$AAO?$AAn?$AAl?$AAy?$AAO?$AAn?$AAe?$AAP?$AAl?$AAu?$AAg?$AAi?$AAn?$AA?$AA@ 005118c4     config.obj
 0002:000018ec       ??_C@_1CI@EAFNBCCN@?$AAS?$AAt?$AAa?$AAn?$AAd?$AAa?$AAr?$AAd?$AAA?$AAs?$AAs?$AAo?$AAc?$AAi?$AAa?$AAt?$AAi?$AAo?$AAn?$AA?$AA@ 005118ec     config.obj
 0002:00001914       ??_C@_1BO@PFHPGOFN@?$AAO?$AAp?$AAe?$AAn?$AAF?$AAi?$AAl?$AAe?$AAP?$AAl?$AAu?$AAg?$AAi?$AAn?$AA?$AA@ 00511914     config.obj
 0002:00001934       ??_C@_1CI@PHNCHKFI@?$AAE?$AAs?$AAc?$AAT?$AAw?$AAi?$AAc?$AAe?$AAT?$AAo?$AAI?$AAn?$AAt?$AAe?$AAr?$AAr?$AAu?$AAp?$AAt?$AA?$AA@ 00511934     config.obj
 0002:0000195c       ??_C@_19NAPFLIBB@?$AAE?$AAx?$AAi?$AAt?$AA?$AA@ 0051195c     config.obj
 0002:00001968       ??_C@_1BK@CELJNOO@?$AAH?$AAi?$AAs?$AAt?$AAo?$AAr?$AAy?$AAC?$AAl?$AAe?$AAa?$AAr?$AA?$AA@ 00511968     config.obj
 0002:00001984       ??_C@_1BI@ENLAFIOP@?$AAA?$AAl?$AAl?$AAo?$AAw?$AAR?$AAe?$AAe?$AAd?$AAi?$AAt?$AA?$AA@ 00511984     config.obj
 0002:0000199c       ??_C@_1BM@NLNLIOOF@?$AAR?$AAe?$AAm?$AAo?$AAv?$AAe?$AAH?$AAo?$AAt?$AAP?$AAl?$AAu?$AAg?$AA?$AA@ 0051199c     config.obj
 0002:000019b8       ??_C@_1BE@GLEDFABN@?$AAD?$AAe?$AAt?$AAa?$AAc?$AAh?$AAV?$AAH?$AAD?$AA?$AA@ 005119b8     config.obj
 0002:000019cc       ??_C@_1BI@GIJHHJGB@?$AAR?$AAe?$AAm?$AAo?$AAv?$AAe?$AAS?$AAU?$AAB?$AAS?$AAT?$AA?$AA@ 005119cc     config.obj
 0002:000019e4       ??_C@_1CC@DJEEMKIM@?$AAR?$AAe?$AAm?$AAo?$AAv?$AAe?$AAC?$AAo?$AAn?$AAn?$AAe?$AAc?$AAt?$AAi?$AAo?$AAn?$AA?$AA@ 005119e4     config.obj
 0002:00001a08       ??_C@_17FPIFMLJN@?$AAE?$AAs?$AAc?$AA?$AA@ 00511a08     config.obj
 0002:00001a10       ??_C@_1BK@EJNJILCB@?$AAD?$AAe?$AAl?$AAe?$AAt?$AAe?$AAF?$AAo?$AAl?$AAd?$AAe?$AAr?$AA?$AA@ 00511a10     config.obj
 0002:00001a2c       ??_C@_1O@JDLOHAN@?$AAD?$AAe?$AAl?$AAe?$AAt?$AAe?$AA?$AA@ 00511a2c     config.obj
 0002:00001a3c       ??_C@_19ILFPL@?$AAD?$AAr?$AAa?$AAg?$AA?$AA@ 00511a3c     config.obj
 0002:00001a48       ??_C@_15MMAMLPML@?$AAR?$AAO?$AA?$AA@ 00511a48     config.obj
 0002:00001a50       ??_C@_19KPHJEAGD@?$AAM?$AAo?$AAv?$AAe?$AA?$AA@ 00511a50     config.obj
 0002:00001a5c       ??_C@_19HNCGHLOK@?$AAC?$AAo?$AAp?$AAy?$AA?$AA@ 00511a5c     config.obj
 0002:00001a68       ??_C@_1BA@CLLEDPIF@?$AAE?$AAn?$AAg?$AAl?$AAi?$AAs?$AAh?$AA?$AA@ 00511a68     config.obj
 0002:00001a78       ??_C@_19BNBKBBLP@?$AAH?$AAe?$AAl?$AAp?$AA?$AA@ 00511a78     config.obj
 0002:00001a84       ??_C@_1BI@BOGMKEBD@?$AAA?$AAc?$AAt?$AAi?$AAv?$AAa?$AAt?$AAe?$AAU?$AAR?$AAL?$AA?$AA@ 00511a84     config.obj
 0002:00001a9c       ??_C@_1CC@LKAMPIK@?$AAA?$AAu?$AAt?$AAo?$AAC?$AAh?$AAa?$AAn?$AAg?$AAe?$AAF?$AAo?$AAl?$AAd?$AAe?$AAr?$AA?$AA@ 00511a9c     config.obj
 0002:00001ac0       ??_C@_1BA@PJPOFJGC@?$AAN?$AAe?$AAt?$AAP?$AAa?$AAt?$AAh?$AA?$AA@ 00511ac0     config.obj
 0002:00001ad0       ??_C@_1BM@CCAJGPKJ@?$AAR?$AAe?$AAm?$AAo?$AAv?$AAa?$AAb?$AAl?$AAe?$AAD?$AAi?$AAs?$AAk?$AA?$AA@ 00511ad0     config.obj
 0002:00001aec       ??_C@_1BA@LOOPMBD@?$AAN?$AAe?$AAt?$AAD?$AAi?$AAs?$AAk?$AA?$AA@ 00511aec     config.obj
 0002:00001afc       ??_C@_1BE@BCDHPADD@?$AAL?$AAo?$AAc?$AAa?$AAl?$AAD?$AAi?$AAs?$AAk?$AA?$AA@ 00511afc     config.obj
 0002:00001b10       ??_C@_1BK@CJHGKEOH@?$AAT?$AAr?$AAe?$AAe?$AAF?$AAi?$AAl?$AAe?$AAA?$AAt?$AAt?$AAr?$AA?$AA@ 00511b10     config.obj
 0002:00001b2c       ??_C@_1BK@EHCDPJFF@?$AAM?$AAi?$AAn?$AAT?$AAr?$AAe?$AAe?$AAC?$AAo?$AAu?$AAn?$AAt?$AA?$AA@ 00511b2c     config.obj
 0002:00001b48       ??_C@_1BO@LMMPFIFB@?$AAS?$AAi?$AAl?$AAe?$AAn?$AAt?$AAE?$AAx?$AAt?$AAe?$AAr?$AAn?$AAa?$AAl?$AA?$AA@ 00511b48     config.obj
 0002:00001b68       ??_C@_1BE@BNHDPFOG@?$AAF?$AAu?$AAl?$AAl?$AAT?$AAi?$AAt?$AAl?$AAe?$AA?$AA@ 00511b68     config.obj
 0002:00001b7c       ??_C@_1BE@NGAKCFLK@?$AAB?$AAa?$AAt?$AAc?$AAh?$AAT?$AAy?$AAp?$AAe?$AA?$AA@ 00511b7c     config.obj
 0002:00001b90       ??_C@_1CC@LFIOLPLO@?$AAS?$AAh?$AAo?$AAw?$AAE?$AAr?$AAr?$AAo?$AAr?$AAM?$AAe?$AAs?$AAs?$AAa?$AAg?$AAe?$AA?$AA@ 00511b90     config.obj
 0002:00001bb4       ??_C@_1BG@JJPLIMJA@?$AAU?$AAs?$AAe?$AAA?$AAp?$AAp?$AAP?$AAa?$AAt?$AAh?$AA?$AA@ 00511bb4     config.obj
 0002:00001bcc       ??_C@_1BE@JLDGPEKM@?$AAR?$AAe?$AAs?$AAt?$AAo?$AAr?$AAe?$AAC?$AAP?$AA?$AA@ 00511bcc     config.obj
 0002:00001be0       ??_C@_1O@GDKMEIHM@?$AAM?$AAo?$AAv?$AAe?$AAR?$AAO?$AA?$AA@ 00511be0     config.obj
 0002:00001bf0       ??_C@_1BG@OCBBDIDH@?$AAW?$AAi?$AAn?$AAd?$AAo?$AAw?$AAM?$AAo?$AAd?$AAe?$AA?$AA@ 00511bf0     config.obj
 0002:00001c08       ??_C@_1BM@CHPAPEC@?$AAE?$AAl?$AAe?$AAv?$AAa?$AAt?$AAi?$AAo?$AAn?$AAM?$AAo?$AAd?$AAe?$AA?$AA@ 00511c08     config.obj
 0002:00001c24       ??_C@_1CA@BNLKMPOP@?$AAU?$AAs?$AAe?$AAP?$AAr?$AAi?$AAn?$AAt?$AAM?$AAa?$AAn?$AAa?$AAg?$AAe?$AAr?$AA?$AA@ 00511c24     config.obj
 0002:00001c44       ??_C@_1BK@CIDNEPEL@?$AAS?$AAc?$AAa?$AAn?$AAJ?$AAu?$AAn?$AAc?$AAt?$AAi?$AAo?$AAn?$AA?$AA@ 00511c44     config.obj
 0002:00001c60       ??_C@_1CI@MADMAFBG@?$AAA?$AAl?$AAl?$AAC?$AAt?$AAr?$AAl?$AAA?$AAl?$AAt?$AAS?$AAh?$AAi?$AAf?$AAt?$AAR?$AAu?$AAl?$AAe?$AA?$AA@ 00511c60     config.obj
 0002:00001c88       ??_C@_1BA@KJDOGJEI@?$AAC?$AAA?$AAS?$AAR?$AAu?$AAl?$AAe?$AA?$AA@ 00511c88     config.obj
 0002:00001c98       ??_C@_1BE@FOHADCNN@?$AAU?$AAs?$AAe?$AAN?$AAu?$AAm?$AAP?$AAa?$AAd?$AA?$AA@ 00511c98     config.obj
 0002:00001cac       ??_C@_1CE@BDMPONDN@?$AAU?$AAp?$AAd?$AAa?$AAt?$AAe?$AAE?$AAn?$AAv?$AAi?$AAr?$AAo?$AAn?$AAm?$AAe?$AAn?$AAt?$AA?$AA@ 00511cac     config.obj
 0002:00001cd0       ??_C@_1BI@EEHDFBHO@?$AAC?$AAl?$AAo?$AAs?$AAe?$AAC?$AAD?$AAG?$AAa?$AAt?$AAe?$AA?$AA@ 00511cd0     config.obj
 0002:00001ce8       ??_C@_1CE@HELJEBLG@?$AAP?$AAl?$AAu?$AAg?$AAi?$AAn?$AAM?$AAa?$AAx?$AAR?$AAe?$AAa?$AAd?$AAD?$AAa?$AAt?$AAa?$AA?$AA@ 00511ce8     config.obj
 0002:00001d0c       ??_C@_1CC@FGGFEEAK@?$AAC?$AAl?$AAo?$AAs?$AAe?$AAC?$AAo?$AAn?$AAs?$AAo?$AAl?$AAe?$AAR?$AAu?$AAl?$AAe?$AA?$AA@ 00511d0c     config.obj
 0002:00001d30       ??_C@_1BG@NKGGGBGI@?$AAQ?$AAu?$AAo?$AAt?$AAe?$AAd?$AAN?$AAa?$AAm?$AAe?$AA?$AA@ 00511d30     config.obj
 0002:00001d48       ??_C@_1CE@BMCGJNML@?$AA?5?$AA?$CG?$AA?$CI?$AA?$CJ?$AA?$FL?$AA?$FN?$AA?$HL?$AA?$HN?$AA?$FO?$AA?$DN?$AA?$DL?$AA?$CB?$AA?8?$AA?$CL?$AA?0?$AA?$GA?$AA?$KA?$AA?$AA@ 00511d48     config.obj
 0002:00001d6c       ??_C@_1BM@IJILPMFD@?$AAQ?$AAu?$AAo?$AAt?$AAe?$AAd?$AAS?$AAy?$AAm?$AAb?$AAo?$AAl?$AAs?$AA?$AA@ 00511d6c     config.obj
 0002:00001d88       ??_C@_1CE@BIFOFDFE@?$AAD?$AAe?$AAl?$AAT?$AAh?$AAr?$AAe?$AAa?$AAd?$AAP?$AAr?$AAi?$AAo?$AAr?$AAi?$AAt?$AAy?$AA?$AA@ 00511d88     config.obj
 0002:00001dac       ??_C@_1CC@IDGFJIAC@?$AAS?$AAh?$AAo?$AAw?$AAC?$AAh?$AAe?$AAc?$AAk?$AAi?$AAn?$AAg?$AAF?$AAi?$AAl?$AAe?$AA?$AA@ 00511dac     config.obj
 0002:00001dd0       ??_C@_1BM@OACFBAKC@?$AAS?$AAu?$AAb?$AAs?$AAt?$AAN?$AAa?$AAm?$AAe?$AAR?$AAu?$AAl?$AAe?$AA?$AA@ 00511dd0     config.obj
 0002:00001dec       ??_C@_1CE@KDMABNFG@?$AAM?$AAs?$AAH?$AAW?$AAh?$AAe?$AAe?$AAl?$AAD?$AAe?$AAl?$AAt?$AAa?$AAE?$AAd?$AAi?$AAt?$AA?$AA@ 00511dec     config.obj
 0002:00001e10       ??_C@_1CE@JBCLFNPJ@?$AAM?$AAs?$AAH?$AAW?$AAh?$AAe?$AAe?$AAl?$AAD?$AAe?$AAl?$AAt?$AAa?$AAV?$AAi?$AAe?$AAw?$AA?$AA@ 00511e10     config.obj
 0002:00001e34       ??_C@_1BM@DNJODGHL@?$AAM?$AAs?$AAH?$AAW?$AAh?$AAe?$AAe?$AAl?$AAD?$AAe?$AAl?$AAt?$AAa?$AA?$AA@ 00511e34     config.obj
 0002:00001e50       ??_C@_1CC@MHMPDKMN@?$AAM?$AAs?$AAW?$AAh?$AAe?$AAe?$AAl?$AAD?$AAe?$AAl?$AAt?$AAa?$AAH?$AAe?$AAl?$AAp?$AA?$AA@ 00511e50     config.obj
 0002:00001e74       ??_C@_1CC@CBDELHAH@?$AAM?$AAs?$AAW?$AAh?$AAe?$AAe?$AAl?$AAD?$AAe?$AAl?$AAt?$AAa?$AAE?$AAd?$AAi?$AAt?$AA?$AA@ 00511e74     config.obj
 0002:00001e98       ??_C@_1CC@BDNPPHKI@?$AAM?$AAs?$AAW?$AAh?$AAe?$AAe?$AAl?$AAD?$AAe?$AAl?$AAt?$AAa?$AAV?$AAi?$AAe?$AAw?$AA?$AA@ 00511e98     config.obj
 0002:00001ebc       ??_C@_1BK@DBGOFGHE@?$AAM?$AAs?$AAW?$AAh?$AAe?$AAe?$AAl?$AAD?$AAe?$AAl?$AAt?$AAa?$AA?$AA@ 00511ebc     config.obj
 0002:00001ed8       ??_C@_1CG@IFOILEGE@?$AAF?$AAl?$AAa?$AAg?$AAP?$AAo?$AAs?$AAi?$AAx?$AAS?$AAe?$AAm?$AAa?$AAn?$AAt?$AAi?$AAc?$AAs?$AA?$AA@ 00511ed8     config.obj
 0002:00001f00       ??_C@_1BK@GBANPIBF@?$AAM?$AAu?$AAl?$AAt?$AAi?$AAM?$AAa?$AAk?$AAe?$AAD?$AAi?$AAr?$AA?$AA@ 00511f00     config.obj
 0002:00001f1c       ??_C@_1BK@LGDNKMMJ@?$AAS?$AAc?$AAa?$AAn?$AAS?$AAy?$AAm?$AAl?$AAi?$AAn?$AAk?$AAs?$AA?$AA@ 00511f1c     config.obj
 0002:00001f38       ??_C@_1CE@EOBFIJPB@?$AAO?$AAE?$AAM?$AAP?$AAl?$AAu?$AAg?$AAi?$AAn?$AAs?$AAS?$AAu?$AAp?$AAp?$AAo?$AAr?$AAt?$AA?$AA@ 00511f38     config.obj
 0002:00001f5c       ??_C@_1CC@BDGPABHN@?$AAS?$AAi?$AAl?$AAe?$AAn?$AAt?$AAL?$AAo?$AAa?$AAd?$AAP?$AAl?$AAu?$AAg?$AAi?$AAn?$AA?$AA@ 00511f5c     config.obj
 0002:00001f80       ??_C@_1BG@PKLHNNNK@?$AAC?$AAt?$AAr?$AAl?$AAA?$AAl?$AAt?$AAT?$AAa?$AAb?$AA?$AA@ 00511f80     config.obj
 0002:00001f98       ??_C@_1CC@DCPCOJDM@?$AAC?$AAo?$AAn?$AAs?$AAo?$AAl?$AAe?$AAD?$AAe?$AAt?$AAa?$AAc?$AAh?$AAK?$AAe?$AAy?$AA?$AA@ 00511f98     config.obj
 0002:00001fbc       ??_C@_1CC@GMNJOBIK@?$AAM?$AAa?$AAx?$AAP?$AAo?$AAs?$AAi?$AAt?$AAi?$AAo?$AAn?$AAC?$AAa?$AAc?$AAh?$AAe?$AA?$AA@ 00511fbc     config.obj
 0002:00001fe0       ??_C@_1CG@LBJIEPHB@?$AAS?$AAe?$AAt?$AAA?$AAt?$AAt?$AAr?$AAF?$AAo?$AAl?$AAd?$AAe?$AAr?$AAR?$AAu?$AAl?$AAe?$AAs?$AA?$AA@ 00511fe0     config.obj
 0002:00002008       ??_C@_1BO@GBLBBOE@?$AAC?$AAm?$AAd?$AAH?$AAi?$AAs?$AAt?$AAo?$AAr?$AAy?$AAR?$AAu?$AAl?$AAe?$AA?$AA@ 00512008     config.obj
 0002:00002028       ??_C@_1CE@LLKFLKHN@?$AAS?$AAu?$AAb?$AAs?$AAt?$AAP?$AAl?$AAu?$AAg?$AAi?$AAn?$AAP?$AAr?$AAe?$AAf?$AAi?$AAx?$AA?$AA@ 00512028     config.obj
 0002:0000204c       ??_C@_1BK@LGMDDCOC@?$AAF?$AAi?$AAn?$AAd?$AAC?$AAo?$AAd?$AAe?$AAP?$AAa?$AAg?$AAe?$AA?$AA@ 0051204c     config.obj
 0002:00002068       ??_C@_1CE@JAGAPCEG@?$AAU?$AAs?$AAe?$AAF?$AAi?$AAl?$AAt?$AAe?$AAr?$AAI?$AAn?$AAS?$AAe?$AAa?$AAr?$AAc?$AAh?$AA?$AA@ 00512068     config.obj
 0002:0000208c       ??_C@_1BK@EJGOFEMP@?$AAF?$AAi?$AAn?$AAd?$AAS?$AAy?$AAm?$AAL?$AAi?$AAn?$AAk?$AAs?$AA?$AA@ 0051208c     config.obj
 0002:000020a8       ??_C@_1BI@JGDOGPH@?$AAF?$AAi?$AAn?$AAd?$AAF?$AAo?$AAl?$AAd?$AAe?$AAr?$AAs?$AA?$AA@ 005120a8     config.obj
 0002:000020c0       ??_C@_1BA@OPEDLNHK@?$AA1?$AA4?$AA?0?$AA1?$AA3?$AA?0?$AA0?$AA?$AA@ 005120c0     config.obj
 0002:000020d0       ??_C@_1CK@MPKMCJMG@?$AAS?$AAe?$AAa?$AAr?$AAc?$AAh?$AAO?$AAu?$AAt?$AAF?$AAo?$AAr?$AAm?$AAa?$AAt?$AAW?$AAi?$AAd?$AAt?$AAh?$AA?$AA@ 005120d0     config.obj
 0002:000020fc       ??_C@_1M@GKEBFIHB@?$AAD?$AA?0?$AAS?$AA?0?$AAA?$AA?$AA@ 005120fc     config.obj
 0002:00002108       ??_C@_1CA@LEHAOMJN@?$AAS?$AAe?$AAa?$AAr?$AAc?$AAh?$AAO?$AAu?$AAt?$AAF?$AAo?$AAr?$AAm?$AAa?$AAt?$AA?$AA@ 00512108     config.obj
 0002:00002128       ??_C@_1CK@HODAFJKL@?$AAF?$AAi?$AAn?$AAd?$AAA?$AAl?$AAt?$AAe?$AAr?$AAn?$AAa?$AAt?$AAe?$AAS?$AAt?$AAr?$AAe?$AAa?$AAm?$AAs?$AA?$AA@ 00512128     config.obj
 0002:00002154       ??_C@_1CE@MAPHAJMA@?$AAS?$AAe?$AAa?$AAr?$AAc?$AAh?$AAI?$AAn?$AAF?$AAi?$AAr?$AAs?$AAt?$AAS?$AAi?$AAz?$AAe?$AA?$AA@ 00512154     config.obj
 0002:00002178       ??_C@_1BK@LCKALILL@?$AAC?$AAo?$AAl?$AAl?$AAe?$AAc?$AAt?$AAF?$AAi?$AAl?$AAe?$AAs?$AA?$AA@ 00512178     config.obj
 0002:00002194       ??_C@_1BO@BANJNHBA@?$AAF?$AAi?$AAl?$AAe?$AAS?$AAe?$AAa?$AAr?$AAc?$AAh?$AAM?$AAo?$AAd?$AAe?$AA?$AA@ 00512194     config.obj
 0002:000021b4       ??_C@_1CM@FFMCGPKF@?$AAA?$AAu?$AAt?$AAo?$AAU?$AAp?$AAd?$AAa?$AAt?$AAe?$AAR?$AAe?$AAm?$AAo?$AAt?$AAe?$AAD?$AAr?$AAi?$AAv?$AAe?$AA?$AA@ 005121b4     config.obj
 0002:000021e0       ??_C@_1CG@OEJOIOOL@?$AAD?$AAr?$AAi?$AAv?$AAe?$AAD?$AAi?$AAs?$AAc?$AAo?$AAn?$AAn?$AAe?$AAt?$AAM?$AAo?$AAd?$AAe?$AA?$AA@ 005121e0     config.obj
 0002:00002208       ??_C@_1BM@PKMIJHBL@?$AAD?$AAr?$AAi?$AAv?$AAe?$AAM?$AAe?$AAn?$AAu?$AAM?$AAo?$AAd?$AAe?$AA?$AA@ 00512208     config.obj
 0002:00002224       ??_C@_1CG@MAMFKDHJ@?$AAI?$AAn?$AAa?$AAc?$AAt?$AAi?$AAv?$AAi?$AAt?$AAy?$AAE?$AAx?$AAi?$AAt?$AAT?$AAi?$AAm?$AAe?$AA?$AA@ 00512224     config.obj
 0002:0000224c       ??_C@_1BO@FJEIGCDF@?$AAI?$AAn?$AAa?$AAc?$AAt?$AAi?$AAv?$AAi?$AAt?$AAy?$AAE?$AAx?$AAi?$AAt?$AA?$AA@ 0051224c     config.obj
 0002:0000226c       ??_C@_1CO@INIMIEPA@?$AAC?$AAr?$AAe?$AAa?$AAt?$AAe?$AAU?$AAp?$AAp?$AAe?$AAr?$AAc?$AAa?$AAs?$AAe?$AAF?$AAo?$AAl?$AAd?$AAe?$AAr?$AAs?$AA?$AA@ 0051226c     config.obj
 0002:0000229c       ??_C@_1BK@FLCMBEEF@?$AAC?$AAo?$AAp?$AAy?$AAT?$AAi?$AAm?$AAe?$AAR?$AAu?$AAl?$AAe?$AA?$AA@ 0051229c     config.obj
 0002:000022b8       ??_C@_1BE@OHBJOPIN@?$AAM?$AAu?$AAl?$AAt?$AAi?$AAC?$AAo?$AAp?$AAy?$AA?$AA@ 005122b8     config.obj
 0002:000022cc       ??_C@_1BG@BBLLCINI@?$AAC?$AAo?$AAp?$AAy?$AAO?$AAp?$AAe?$AAn?$AAe?$AAd?$AA?$AA@ 005122cc     config.obj
 0002:000022e4       ??_C@_1CI@NLFPJJOG@?$AAC?$AAo?$AAp?$AAy?$AAS?$AAe?$AAc?$AAu?$AAr?$AAi?$AAt?$AAy?$AAO?$AAp?$AAt?$AAi?$AAo?$AAn?$AAs?$AA?$AA@ 005122e4     config.obj
 0002:0000230c       ??_C@_1BM@LHDICNDF@?$AAU?$AAs?$AAe?$AAS?$AAy?$AAs?$AAt?$AAe?$AAm?$AAC?$AAo?$AAp?$AAy?$AA?$AA@ 0051230c     config.obj
 0002:00002328       ??_C@_1BG@NAHCEIPI@?$AAW?$AAi?$AAp?$AAe?$AAS?$AAy?$AAm?$AAb?$AAo?$AAl?$AA?$AA@ 00512328     config.obj
 0002:00002340       ??_C@_1DG@FAGHKEIF@?$AAD?$AAe?$AAl?$AAe?$AAt?$AAe?$AAT?$AAo?$AAR?$AAe?$AAc?$AAy?$AAc?$AAl?$AAe?$AAB?$AAi?$AAn?$AAK?$AAi?$AAl?$AAl?$AAL?$AAi?$AAn?$AAk?$AA?$AA@ 00512340     config.obj
 0002:00002378       ??_C@_1CG@BHPDHDIF@?$AAD?$AAe?$AAl?$AAe?$AAt?$AAe?$AAT?$AAo?$AAR?$AAe?$AAc?$AAy?$AAc?$AAl?$AAe?$AAB?$AAi?$AAn?$AA?$AA@ 00512378     config.obj
 0002:000023a0       ??_C@_1BM@GPPFEDJH@?$AAC?$AAl?$AAe?$AAa?$AAr?$AAR?$AAe?$AAa?$AAd?$AAO?$AAn?$AAl?$AAy?$AA?$AA@ 005123a0     config.obj
 0002:000023bc       ??_C@_1BM@PNNLCFLM@?$AAA?$AAu?$AAt?$AAo?$AAS?$AAa?$AAv?$AAe?$AAS?$AAe?$AAt?$AAu?$AAp?$AA?$AA@ 005123bc     config.obj
 0002:000023d8       ??_C@_1CG@FHMOMGJK@?$AAU?$AAs?$AAe?$AAR?$AAe?$AAg?$AAi?$AAs?$AAt?$AAe?$AAr?$AAe?$AAd?$AAT?$AAy?$AAp?$AAe?$AAs?$AA?$AA@ 005123d8     config.obj
 0002:00002400       ??_C@_1CA@OCHEMCID@?$AAS?$AAa?$AAv?$AAe?$AAV?$AAi?$AAe?$AAw?$AAH?$AAi?$AAs?$AAt?$AAo?$AAr?$AAy?$AA?$AA@ 00512400     config.obj
 0002:00002420       ??_C@_1DC@MBMAAIEP@?$AAS?$AAa?$AAv?$AAe?$AAP?$AAl?$AAu?$AAg?$AAi?$AAn?$AAF?$AAo?$AAl?$AAd?$AAe?$AAr?$AAs?$AAH?$AAi?$AAs?$AAt?$AAo?$AAr?$AAy?$AA?$AA@ 00512420     config.obj
 0002:00002454       ??_C@_1CG@JEIPBJGN@?$AAS?$AAa?$AAv?$AAe?$AAF?$AAo?$AAl?$AAd?$AAe?$AAr?$AAs?$AAH?$AAi?$AAs?$AAt?$AAo?$AAr?$AAy?$AA?$AA@ 00512454     config.obj
 0002:0000247c       ??_C@_1BI@MKDIDNBA@?$AAS?$AAa?$AAv?$AAe?$AAH?$AAi?$AAs?$AAt?$AAo?$AAr?$AAy?$AA?$AA@ 0051247c     config.obj
 0002:00002494       ??_C@_1BO@NGGPKGEC@?$AAW?$AAo?$AAr?$AAd?$AAD?$AAi?$AAv?$AAF?$AAo?$AAr?$AAX?$AAl?$AAa?$AAt?$AA?$AA@ 00512494     config.obj
 0002:000024b4       ??_C@_1O@GIDABNON@?$AAR?$AAu?$AAl?$AAe?$AAs?$AA3?$AA?$AA@ 005124b4     config.obj
 0002:000024c4       ??_C@_1O@NAIMHKII@?$AAR?$AAu?$AAl?$AAe?$AAs?$AA2?$AA?$AA@ 005124c4     config.obj
 0002:000024d4       ??_C@_1O@MCDJNFGG@?$AAR?$AAu?$AAl?$AAe?$AAs?$AA1?$AA?$AA@ 005124d4     config.obj
 0002:000024e4       ??_C@_1O@PDFJCNKD@?$AAT?$AAa?$AAb?$AAl?$AAe?$AA2?$AA?$AA@ 005124e4     config.obj
 0002:000024f4       ??_C@_1O@OBOMICEN@?$AAT?$AAa?$AAb?$AAl?$AAe?$AA1?$AA?$AA@ 005124f4     config.obj
 0002:00002504       ??_C@_1M@OAJFFPML@?$AAF?$AAl?$AAa?$AAg?$AAs?$AA?$AA@ 00512504     config.obj
 0002:00002510       ??_C@_1BO@FOKPIHBG@?$AAS?$AAh?$AAo?$AAw?$AAW?$AAh?$AAi?$AAt?$AAe?$AAS?$AAp?$AAa?$AAc?$AAe?$AA?$AA@ 00512510     config.obj
 0002:00002530       ??_C@_1CC@GHKKMGNJ@?$AAS?$AAe?$AAa?$AAr?$AAc?$AAh?$AAP?$AAi?$AAc?$AAk?$AAU?$AAp?$AAW?$AAo?$AAr?$AAd?$AA?$AA@ 00512530     config.obj
 0002:00002554       ??_C@_1BO@JCMLFMGL@?$AAS?$AAe?$AAa?$AAr?$AAc?$AAh?$AAS?$AAe?$AAl?$AAF?$AAo?$AAu?$AAn?$AAd?$AA?$AA@ 00512554     config.obj
 0002:00002574       ??_C@_1CG@FNJPMFGM@?$AAE?$AAd?$AAi?$AAt?$AAO?$AAp?$AAe?$AAn?$AAe?$AAd?$AAF?$AAo?$AAr?$AAW?$AAr?$AAi?$AAt?$AAe?$AA?$AA@ 00512574     config.obj
 0002:0000259c       ??_C@_1BM@NKEHGDON@?$AAS?$AAh?$AAo?$AAw?$AAS?$AAc?$AAr?$AAo?$AAl?$AAl?$AAB?$AAa?$AAr?$AA?$AA@ 0051259c     config.obj
 0002:000025b8       ??_C@_1CO@GOOHGHLC@?$AAA?$AAn?$AAs?$AAi?$AAC?$AAo?$AAd?$AAe?$AAP?$AAa?$AAg?$AAe?$AAF?$AAo?$AAr?$AAN?$AAe?$AAw?$AAF?$AAi?$AAl?$AAe?$AA?$AA@ 005125b8     config.obj
 0002:000025e8       ??_C@_1DA@JACAJFHP@?$AAA?$AAl?$AAl?$AAo?$AAw?$AAE?$AAm?$AAp?$AAt?$AAy?$AAS?$AAp?$AAa?$AAc?$AAe?$AAA?$AAf?$AAt?$AAe?$AAr?$AAE?$AAo?$AAf?$AA?$AA@ 005125e8     config.obj
 0002:00002618       ??_C@_1BK@PJAMFIGE@?$AAC?$AAh?$AAa?$AAr?$AAC?$AAo?$AAd?$AAe?$AAB?$AAa?$AAs?$AAe?$AA?$AA@ 00512618     config.obj
 0002:00002634       ??_C@_1CA@DKPMFPBK@?$AAF?$AAi?$AAl?$AAe?$AAS?$AAi?$AAz?$AAe?$AAL?$AAi?$AAm?$AAi?$AAt?$AAH?$AAi?$AA?$AA@ 00512634     config.obj
 0002:00002654       ??_C@_1BM@FKAJAKIG@?$AAF?$AAi?$AAl?$AAe?$AAS?$AAi?$AAz?$AAe?$AAL?$AAi?$AAm?$AAi?$AAt?$AA?$AA@ 00512654     config.obj
 0002:00002670       ??_C@_1BM@CKIBCNN@?$AAE?$AAd?$AAi?$AAt?$AAo?$AAr?$AAF?$AA7?$AAR?$AAu?$AAl?$AAe?$AAs?$AA?$AA@ 00512670     config.obj
 0002:0000268c       ??_C@_1BE@DAHDALNO@?$AAB?$AAS?$AAL?$AAi?$AAk?$AAe?$AAD?$AAe?$AAl?$AA?$AA@ 0051268c     config.obj
 0002:000026a0       ??_C@_1BA@CAKIGJMA@?$AAW?$AAo?$AAr?$AAd?$AAD?$AAi?$AAv?$AA?$AA@ 005126a0     config.obj
 0002:000026b0       ??_C@_1BO@EGLDBPOO@?$AAE?$AAd?$AAi?$AAt?$AAo?$AAr?$AAU?$AAn?$AAd?$AAo?$AAS?$AAi?$AAz?$AAe?$AA?$AA@ 005126b0     config.obj
 0002:000026d0       ??_C@_1BK@IKBIFFEE@?$AAR?$AAe?$AAa?$AAd?$AAO?$AAn?$AAl?$AAy?$AAL?$AAo?$AAc?$AAk?$AA?$AA@ 005126d0     config.obj
 0002:000026ec       ??_C@_1CM@CPPJONP@?$AAE?$AAd?$AAi?$AAt?$AAo?$AAr?$AAC?$AAu?$AAr?$AAs?$AAo?$AAr?$AAB?$AAe?$AAy?$AAo?$AAn?$AAd?$AAE?$AAO?$AAL?$AA?$AA@ 005126ec     config.obj
 0002:00002718       ??_C@_1CG@FPKIAHCK@?$AAS?$AAa?$AAv?$AAe?$AAE?$AAd?$AAi?$AAt?$AAo?$AAr?$AAS?$AAh?$AAo?$AAr?$AAt?$AAP?$AAo?$AAs?$AA?$AA@ 00512718     config.obj
 0002:00002740       ??_C@_1BM@CBPLDAHN@?$AAS?$AAa?$AAv?$AAe?$AAE?$AAd?$AAi?$AAt?$AAo?$AAr?$AAP?$AAo?$AAs?$AA?$AA@ 00512740     config.obj
 0002:0000275c       ??_C@_1BG@KDLLMPFP@?$AAA?$AAu?$AAt?$AAo?$AAI?$AAn?$AAd?$AAe?$AAn?$AAt?$AA?$AA@ 0051275c     config.obj
 0002:00002774       ??_C@_1BG@CGFDDFCG@?$AAE?$AAx?$AAp?$AAa?$AAn?$AAd?$AAT?$AAa?$AAb?$AAs?$AA?$AA@ 00512774     config.obj
 0002:0000278c       ??_C@_1CE@GFHMEDJL@?$AAU?$AAs?$AAe?$AAE?$AAx?$AAt?$AAe?$AAr?$AAn?$AAa?$AAl?$AAE?$AAd?$AAi?$AAt?$AAo?$AAr?$AA?$AA@ 0051278c     config.obj
 0002:000027b0       ??_C@_1CG@LLMCKPMJ@?$AAE?$AAx?$AAt?$AAe?$AAr?$AAn?$AAa?$AAl?$AAE?$AAd?$AAi?$AAt?$AAo?$AAr?$AAN?$AAa?$AAm?$AAe?$AA?$AA@ 005127b0     config.obj
 0002:000027d8       ??_C@_1BM@LKLGAMBJ@?$AAC?$AAB?$AAo?$AAx?$AAM?$AAa?$AAx?$AAH?$AAe?$AAi?$AAg?$AAh?$AAt?$AA?$AA@ 005127d8     config.obj
 0002:000027f4       ??_C@_1BI@LDOEHBPL@?$AAM?$AAo?$AAu?$AAs?$AAe?$AAB?$AAu?$AAt?$AAt?$AAo?$AAn?$AA?$AA@ 005127f4     config.obj
 0002:0000280c       ??_C@_1BC@FLAABPHC@?$AAE?$AAd?$AAi?$AAt?$AAL?$AAi?$AAn?$AAe?$AA?$AA@ 0051280c     config.obj
 0002:00002820       ??_C@_1CE@KNLOECJG@?$AAS?$AAe?$AAl?$AAe?$AAc?$AAt?$AAF?$AAr?$AAo?$AAm?$AAH?$AAi?$AAs?$AAt?$AAo?$AAr?$AAy?$AA?$AA@ 00512820     config.obj
 0002:00002844       ??_C@_1BG@KHLCJGJA@?$AAE?$AAU?$AAL?$AAB?$AAs?$AAC?$AAl?$AAe?$AAa?$AAr?$AA?$AA@ 00512844     config.obj
 0002:0000285c       ??_C@_1BI@BDEPNGEA@?$AAE?$AAd?$AAi?$AAt?$AAH?$AAi?$AAs?$AAt?$AAo?$AAr?$AAy?$AA?$AA@ 0051285c     config.obj
 0002:00002874       ??_C@_1CM@MKGEIOAN@?$AAA?$AAn?$AAs?$AAi?$AAC?$AAo?$AAd?$AAe?$AAP?$AAa?$AAg?$AAe?$AAA?$AAs?$AAD?$AAe?$AAf?$AAa?$AAu?$AAl?$AAt?$AA?$AA@ 00512874     config.obj
 0002:000028a0       ??_C@_1CC@NJFACKLM@?$AAP?$AAe?$AAr?$AAs?$AAi?$AAs?$AAt?$AAe?$AAn?$AAt?$AAB?$AAl?$AAo?$AAc?$AAk?$AAs?$AA?$AA@ 005128a0     config.obj
 0002:000028c4       ??_C@_19BFPOADG@?$AAW?$AAr?$AAa?$AAp?$AA?$AA@ 005128c4     config.obj
 0002:000028d0       ??_C@_1O@IPFFKKDC@?$AAI?$AAs?$AAW?$AAr?$AAa?$AAp?$AA?$AA@ 005128d0     config.obj
 0002:000028e0       ??_C@_1BM@CDDBABLL@?$AAS?$AAh?$AAo?$AAw?$AAS?$AAc?$AAr?$AAo?$AAl?$AAl?$AAb?$AAa?$AAr?$AA?$AA@ 005128e0     config.obj
 0002:000028fc       ??_C@_1BG@MPOFHHH@?$AAS?$AAh?$AAo?$AAw?$AAA?$AAr?$AAr?$AAo?$AAw?$AAs?$AA?$AA@ 005128fc     config.obj
 0002:00002914       ??_C@_1BK@INMJCHEM@?$AAS?$AAh?$AAo?$AAw?$AAT?$AAi?$AAt?$AAl?$AAe?$AAB?$AAa?$AAr?$AA?$AA@ 00512914     config.obj
 0002:00002930       ??_C@_1BG@FBOJIDAM@?$AAS?$AAh?$AAo?$AAw?$AAK?$AAe?$AAy?$AAB?$AAa?$AAr?$AA?$AA@ 00512930     config.obj
 0002:00002948       ??_C@_1BA@OBFBADMM@?$AAT?$AAa?$AAb?$AAS?$AAi?$AAz?$AAe?$AA?$AA@ 00512948     config.obj
 0002:00002958       ??_C@_1BK@LKOFBKJN@?$AAS?$AAe?$AAa?$AAr?$AAc?$AAh?$AAR?$AAe?$AAg?$AAe?$AAx?$AAp?$AA?$AA@ 00512958     config.obj
 0002:00002974       ??_C@_1CG@IDAECDOH@?$AAA?$AAu?$AAt?$AAo?$AAD?$AAe?$AAt?$AAe?$AAc?$AAt?$AAC?$AAo?$AAd?$AAe?$AAP?$AAa?$AAg?$AAe?$AA?$AA@ 00512974     config.obj
 0002:0000299c       ??_C@_1CG@NBJIACHL@?$AAS?$AAa?$AAv?$AAe?$AAV?$AAi?$AAe?$AAw?$AAe?$AAr?$AAS?$AAh?$AAo?$AAr?$AAt?$AAP?$AAo?$AAs?$AA?$AA@ 0051299c     config.obj
 0002:000029c4       ??_C@_1BM@KMELAHAL@?$AAS?$AAa?$AAv?$AAe?$AAV?$AAi?$AAe?$AAw?$AAe?$AAr?$AAP?$AAo?$AAs?$AA?$AA@ 005129c4     config.obj
 0002:000029e0       ??_C@_1CE@NECIJPMJ@?$AAU?$AAs?$AAe?$AAE?$AAx?$AAt?$AAe?$AAr?$AAn?$AAa?$AAl?$AAV?$AAi?$AAe?$AAw?$AAe?$AAr?$AA?$AA@ 005129e0     config.obj
 0002:00002a04       ??_C@_1CG@HKBKFJAG@?$AAE?$AAx?$AAt?$AAe?$AAr?$AAn?$AAa?$AAl?$AAV?$AAi?$AAe?$AAw?$AAe?$AAr?$AAN?$AAa?$AAm?$AAe?$AA?$AA@ 00512a04     config.obj
 0002:00002a2c       ??_C@_1O@DOEADEHC@?$AAA?$AAp?$AAp?$AAe?$AAn?$AAd?$AA?$AA@ 00512a2c     config.obj
 0002:00002a3c       ??_C@_1BE@JBAEDEDN@?$AAM?$AAo?$AAd?$AAa?$AAl?$AAL?$AAi?$AAs?$AAt?$AA?$AA@ 00512a3c     config.obj
 0002:00002a50       ??_C@_1BC@EEMJENO@?$AAS?$AAh?$AAo?$AAw?$AAL?$AAi?$AAs?$AAt?$AA?$AA@ 00512a50     config.obj
 0002:00002a64       ??_C@_1DK@OKFPCMB@?$AA?$CF?$AAV?$AAe?$AAr?$AA?4?$AA?$CF?$AAB?$AAu?$AAi?$AAl?$AAd?$AA?5?$AA?$CF?$AAP?$AAl?$AAa?$AAt?$AAf?$AAo?$AAr?$AAm?$AA?5?$AA?$CF?$AAA?$AAd?$AAm?$AAi?$AAn?$AA?$AA@ 00512a64     config.obj
 0002:00002aa0       ??_C@_1BI@NEGBLKND@?$AAT?$AAi?$AAt?$AAl?$AAe?$AAA?$AAd?$AAd?$AAo?$AAn?$AAs?$AA?$AA@ 00512aa0     config.obj
 0002:00002ab8       ??_C@_1BK@BOJAKNLO@?$AAD?$AAe?$AAl?$AAS?$AAh?$AAo?$AAw?$AAT?$AAo?$AAt?$AAa?$AAl?$AA?$AA@ 00512ab8     config.obj
 0002:00002ad4       ??_C@_1BM@DDAGNDD@?$AAC?$AAo?$AAp?$AAy?$AAS?$AAh?$AAo?$AAw?$AAT?$AAo?$AAt?$AAa?$AAl?$AA?$AA@ 00512ad4     config.obj
 0002:00002af0       ??_C@_1CO@OGOMCMDF@?$AAF?$AAo?$AAr?$AAm?$AAa?$AAt?$AAN?$AAu?$AAm?$AAb?$AAe?$AAr?$AAS?$AAe?$AAp?$AAa?$AAr?$AAa?$AAt?$AAo?$AAr?$AAs?$AA?$AA@ 00512af0     config.obj
 0002:00002b20       ??_C@_1CK@GIHNJCHL@?$AAS?$AAh?$AAo?$AAw?$AAT?$AAi?$AAm?$AAe?$AAo?$AAu?$AAt?$AAD?$AAA?$AAC?$AAL?$AAF?$AAi?$AAl?$AAe?$AAs?$AA?$AA@ 00512b20     config.obj
 0002:00002b4c       ??_C@_1CI@DJHBJMNC@?$AAS?$AAh?$AAo?$AAw?$AAT?$AAi?$AAm?$AAe?$AAo?$AAu?$AAt?$AAD?$AAe?$AAl?$AAF?$AAi?$AAl?$AAe?$AAs?$AA?$AA@ 00512b4c     config.obj
 0002:00002b74       ??_C@_1BE@PMILPCI@?$AAC?$AAl?$AAe?$AAa?$AAr?$AAT?$AAy?$AAp?$AAe?$AA?$AA@ 00512b74     config.obj
 0002:00002b88       ??_C@_1BC@LBKHCCHN@?$AAC?$AAt?$AAr?$AAl?$AAP?$AAg?$AAU?$AAp?$AA?$AA@ 00512b88     config.obj
 0002:00002b9c       ??_C@_1M@JIAPOHMB@?$AAA?$AAl?$AAt?$AAF?$AA9?$AA?$AA@ 00512b9c     config.obj
 0002:00002ba8       ??_C@_1BO@OFFEOHDK@?$AAS?$AAh?$AAi?$AAf?$AAt?$AAs?$AAK?$AAe?$AAy?$AAR?$AAu?$AAl?$AAe?$AAs?$AA?$AA@ 00512ba8     config.obj
 0002:00002bc8       ??_C@_1BI@GEOMEIAN@?$AAC?$AAu?$AAr?$AAs?$AAo?$AAr?$AAS?$AAi?$AAz?$AAe?$AA4?$AA?$AA@ 00512bc8     config.obj
 0002:00002be0       ??_C@_1BI@PJDLHALE@?$AAC?$AAu?$AAr?$AAs?$AAo?$AAr?$AAS?$AAi?$AAz?$AAe?$AA3?$AA?$AA@ 00512be0     config.obj
 0002:00002bf8       ??_C@_1BI@EBIHBHNB@?$AAC?$AAu?$AAr?$AAs?$AAo?$AAr?$AAS?$AAi?$AAz?$AAe?$AA2?$AA?$AA@ 00512bf8     config.obj
 0002:00002c10       ??_C@_1BI@FDDCLIDP@?$AAC?$AAu?$AAr?$AAs?$AAo?$AAr?$AAS?$AAi?$AAz?$AAe?$AA1?$AA?$AA@ 00512c10     config.obj
 0002:00002c28       ??_C@_1BI@EKLHEFDO@?$AAS?$AAh?$AAo?$AAw?$AAM?$AAe?$AAn?$AAu?$AAB?$AAa?$AAr?$AA?$AA@ 00512c28     config.obj
 0002:00002c40       ??_C@_1BI@MGJIMPPC@?$AAU?$AAs?$AAe?$AAV?$AAk?$AA_?$AAo?$AAe?$AAm?$AA_?$AAx?$AA?$AA@ 00512c40     config.obj
 0002:00002c58       ??_C@_1M@GPPEDHNJ@?$AAM?$AAo?$AAu?$AAs?$AAe?$AA?$AA@ 00512c58     config.obj
 0002:00002c64       ??_C@_1BK@OPNMNDHE@?$AAA?$AAu?$AAt?$AAo?$AAC?$AAo?$AAm?$AAp?$AAl?$AAe?$AAt?$AAe?$AA?$AA@ 00512c64     config.obj
 0002:00002c80       ??_C@_1BE@GJMNMGFK@?$AAE?$AAd?$AAi?$AAt?$AAB?$AAl?$AAo?$AAc?$AAk?$AA?$AA@ 00512c80     config.obj
 0002:00002c94       ??_C@_1CC@JMFGEHAN@?$AAD?$AAe?$AAl?$AAR?$AAe?$AAm?$AAo?$AAv?$AAe?$AAs?$AAB?$AAl?$AAo?$AAc?$AAk?$AAs?$AA?$AA@ 00512c94     config.obj
 0002:00002cb8       ??_C@_19MMFPCNCJ@?$AA$?$AAp?$AA$?$AAg?$AA?$AA@ 00512cb8     config.obj
 0002:00002cc4       ??_C@_1BK@PIPKLKIM@?$AAP?$AAr?$AAo?$AAm?$AAp?$AAt?$AAF?$AAo?$AAr?$AAm?$AAa?$AAt?$AA?$AA@ 00512cc4     config.obj
 0002:00002ce0       ??_C@_1CA@DHIGOBAA@?$AAU?$AAs?$AAe?$AAP?$AAr?$AAo?$AAm?$AAp?$AAt?$AAF?$AAo?$AAr?$AAm?$AAa?$AAt?$AA?$AA@ 00512ce0     config.obj
 0002:00002d00       ??_C@_1BA@HJBGIBGP@?$AAD?$AAe?$AAl?$AAt?$AAa?$AAX?$AAY?$AA?$AA@ 00512d00     config.obj
 0002:00002d10       ??_C@_1CA@HPGJFMJK@?$AAS?$AAc?$AAr?$AAe?$AAe?$AAn?$AAS?$AAa?$AAv?$AAe?$AAr?$AAT?$AAi?$AAm?$AAe?$AA?$AA@ 00512d10     config.obj
 0002:00002d30       ??_C@_1BI@KCKNICFL@?$AAS?$AAc?$AAr?$AAe?$AAe?$AAn?$AAS?$AAa?$AAv?$AAe?$AAr?$AA?$AA@ 00512d30     config.obj
 0002:00002d48       ??_C@_1O@PDEOIOBG@?$AAK?$AAe?$AAy?$AAB?$AAa?$AAr?$AA?$AA@ 00512d48     config.obj
 0002:00002d58       ??_C@_1CE@ENGIEANM@?$AAV?$AAi?$AAe?$AAw?$AAe?$AAr?$AAE?$AAd?$AAi?$AAt?$AAo?$AAr?$AAC?$AAl?$AAo?$AAc?$AAk?$AA?$AA@ 00512d58     config.obj
 0002:00002d7c       ??_C@_1M@GDIAAHIP@?$AAC?$AAl?$AAo?$AAc?$AAk?$AA?$AA@ 00512d7c     config.obj
 0002:00002d88       ??_C@_1O@KLKFKENA@?$AA?$CF?$AAA?$AAd?$AAm?$AAi?$AAn?$AA?$AA@ 00512d88     constitle.obj
 0002:00002d98       ??_C@_1BE@KHBLAHLB@?$AA?$CF?$AAP?$AAl?$AAa?$AAt?$AAf?$AAo?$AAr?$AAm?$AA?$AA@ 00512d98     constitle.obj
 0002:00002dac       ??_C@_17NIABIIAO@?$AAx?$AA8?$AA6?$AA?$AA@ 00512dac     constitle.obj
 0002:00002db4       ??_C@_1O@KPGNODNL@?$AA?$CF?$AAB?$AAu?$AAi?$AAl?$AAd?$AA?$AA@ 00512db4     constitle.obj
 0002:00002dc4       ??_C@_19LPEHFDKC@?$AA?$CF?$AAV?$AAe?$AAr?$AA?$AA@ 00512dc4     constitle.obj
 0002:00002dd0       ??_C@_13JOFGPIOO@?$AA?4?$AA?$AA@ 00512dd0     constitle.obj
 0002:00002dd4       ??_C@_1BA@POJMIJK@?$AA?5?$AA?9?$AA?5?$AAF?$AAa?$AAr?$AA?5?$AA?$AA@ 00512dd4     constitle.obj
 0002:00002de4       ??_C@_1BO@KKMHNJCI@?$AA?$CF?$AA0?$AA2?$AAu?$AA?3?$AA?$CF?$AA0?$AA2?$AAu?$AA?3?$AA?$CF?$AA0?$AA2?$AAu?$AA?$AA@ 00512de4     copy.obj
 0002:00002e04       ??_C@_1BE@EECJPBDB@?$AA?$HL?$AA?$CF?$AAd?$AA?$CF?$AA?$CF?$AA?$HN?$AA?5?$AA?$CF?$AAs?$AA?$AA@ 00512e04     copy.obj
 0002:00002e18       ??_C@_17OGOCLKHB@?$AAc?$AAo?$AAn?$AA?$AA@ 00512e18     copy.obj
 0002:00002e20       ??_C@_17HFKDEGNG@?$AAn?$AAu?$AAl?$AA?$AA@ 00512e20     copy.obj
 0002:00002e28       ??_C@_15ELOONFKJ@?$AA?3?$AA?5?$AA?$AA@ 00512e28     copy.obj
 0002:00002e30       ??_C@_15CFFDCCMH@?$AA?$AB?$AA?5?$AA?$AA@ 00512e30     copy.obj
 0002:00002e38       ??_C@_13GGAHEHIG@?$AA?$AB?$AA?$AA@ 00512e38     copy.obj
 0002:00002e3c       ??_C@_13EJFHHPOP@?$AA?$CF?$AA?$AA@ 00512e3c     copy.obj
 0002:00002e40       ??_C@_1CC@LNEPOMDP@?$AAC?$AAo?$AAp?$AAy?$AAA?$AAs?$AAk?$AAO?$AAv?$AAe?$AAr?$AAw?$AAr?$AAi?$AAt?$AAe?$AA?$AA@ 00512e40     copy.obj
 0002:00002e64       ??_C@_1BE@LEMLADEP@?$AAC?$AAo?$AAp?$AAy?$AAF?$AAi?$AAl?$AAe?$AAs?$AA?$AA@ 00512e64     copy.obj
 0002:00002e78       ??_C@_13PJJBFPED@?$AA?$DL?$AA?$AA@ 00512e78     copy.obj
 0002:00002e7c       ??_C@_15MKGELJLE@?$AA?$DL?$AA?0?$AA?$AA@ 00512e7c     copy.obj
 0002:00002e84       ??_C@_1CA@GNHIGPLH@?$AAW?$AAa?$AAr?$AAn?$AAC?$AAo?$AAp?$AAy?$AAE?$AAn?$AAc?$AAr?$AAy?$AAp?$AAt?$AA?$AA@ 00512e84     copy.obj
 0002:00002ea4       ??_C@_13BBDEGPLJ@?$AA?$CK?$AA?$AA@ 00512ea4     copy.obj
 0002:00002ea8       ??_C@_19MDFMBDHI@?$AAN?$AAW?$AAF?$AAS?$AA?$AA@ 00512ea8     copy.obj
 0002:00002eb4       ??_C@_17KLJOJNPM@?$AAp?$AAr?$AAn?$AA?$AA@ 00512eb4     copy.obj
 0002:00002ebc       ??_C@_13FPGAJAPJ@?$AA?2?$AA?$AA@ 00512ebc     copy.obj
 0002:00002ec0       ??_C@_1BM@JHPHNHCD@?$AAE?$AAr?$AAr?$AAC?$AAo?$AAp?$AAy?$AAI?$AAt?$AAS?$AAe?$AAl?$AAf?$AA?$AA@ 00512ec0     copy.obj
 0002:00002edc       ??_C@_15EAECJAPL@?$AA?$CK?$AA?$DP?$AA?$AA@ 00512edc     copy.obj
 0002:00002ee4       ??_C@_15DDHGOCBH@?$AA?4?$AA?4?$AA?$AA@ 00512ee4     copy.obj
 0002:00002eec       ??_C@_1BI@JCNHALBB@?$AAH?$AAa?$AAr?$AAd?$AAS?$AAy?$AAm?$AAL?$AAi?$AAn?$AAk?$AA?$AA@ 00512eec     copy.obj
 0002:00002f04       ??_C@_13EBCNDICG@?$AA?3?$AA?$AA@ 00512f04     copy.obj
 0002:00002f08       ??_C@_15BJHJOELB@?$AA?0?$AA?$DL?$AA?$AA@ 00512f08     copy.obj
 0002:00002f10       ??_C@_1O@GINMMDNN@?$AAS?$AAy?$AAs?$AAt?$AAe?$AAm?$AA?$AA@ 00512f10     copy.obj
 0002:00002f20       ??_C@_1BO@JMBBODHF@?$AAC?$AAo?$AAp?$AAy?$AAB?$AAu?$AAf?$AAf?$AAe?$AAr?$AAS?$AAi?$AAz?$AAe?$AA?$AA@ 00512f20     copy.obj
 0002:00002f40       ??_C@_1CC@EAJLCMAF@?$AAS?$AAa?$AAv?$AAe?$AAd?$AAV?$AAi?$AAe?$AAw?$AAH?$AAi?$AAs?$AAt?$AAo?$AAr?$AAy?$AA?$AA@ 00512f40     ctrlobj.obj
 0002:00002f64       ??_C@_1CG@OOJBBPPN@?$AAS?$AAa?$AAv?$AAe?$AAd?$AAF?$AAo?$AAl?$AAd?$AAe?$AAr?$AAH?$AAi?$AAs?$AAt?$AAo?$AAr?$AAy?$AA?$AA@ 00512f64     ctrlobj.obj
 0002:00002f8c       ??_C@_1BK@GOFPPBOG@?$AAS?$AAa?$AAv?$AAe?$AAd?$AAH?$AAi?$AAs?$AAt?$AAo?$AAr?$AAy?$AA?$AA@ 00512f8c     ctrlobj.obj
 0002:00002fa8       ??_C@_13LBAGMAIH@?$AA?6?$AA?$AA@ 00512fa8     ctrlobj.obj
 0002:00002fac       ??_C@_19HHEIMCIC@?$AAU?$AAN?$AAC?$AA?2?$AA?$AA@ 00512fac     cvtname.obj
 0002:00002fb8       ??_C@_1BG@CPJCOMEA@?$AA?2?$AA?2?$AA?$DP?$AA?2?$AAV?$AAo?$AAl?$AAu?$AAm?$AAe?$AA?$AA@ 00512fb8     cvtname.obj
 0002:00002fd0       ??_C@_01KICIPPFI@?2?$AA@   00512fd0     cvtname.obj
 0002:00002fd4       ??_C@_15LEKKCGMK@?$AA?2?$AA?2?$AA?$AA@ 00512fd4     cvtname.obj
 0002:00002fdc       ??_C@_1DM@JOKFCFKF@?$AA?$CF?$AAs?$AA?5?$AA?$CF?$AAs?$AA?5?$AA?$CF?$AA0?$AA2?$AAd?$AA?5?$AA?$CF?$AA0?$AA2?$AAd?$AA?3?$AA?$CF?$AA0?$AA2?$AAd?$AA?3?$AA?$CF?$AA0?$AA2?$AAd?$AA?5?$AA?$CF?$AA4?$AAd?$AA?$AA@ 00512fdc     datetime.obj
 0002:00003018       ??_C@_1CA@GOEOKCIO@?$AA?$CF?$AA0?$AA2?$AAd?$AA?$CF?$AAc?$AA?$CF?$AA0?$AA2?$AAd?$AA?$CF?$AAc?$AA?$CF?$AA4?$AAd?$AA?$AA@ 00513018     datetime.obj
 0002:00003038       ??_C@_1CA@MGNGLIHN@?$AA?$CF?$AA4?$AAd?$AA?$CF?$AAc?$AA?$CF?$AA0?$AA2?$AAd?$AA?$CF?$AAc?$AA?$CF?$AA0?$AA2?$AAd?$AA?$AA@ 00513038     datetime.obj
 0002:00003058       ??_C@_1BM@IOJHJMLE@?$AA?$CF?$AA2?$AAd?$AA?9?$AA?$CF?$AA3?$AA?4?$AA3?$AAs?$AA?9?$AA?$CF?$AA4?$AAd?$AA?$AA@ 00513058     datetime.obj
 0002:00003074       ??_C@_1M@KDMHIJPM@?$AA?$CF?$AAH?$AA?3?$AA?$CF?$AAM?$AA?$AA@ 00513074     datetime.obj
 0002:00003080       ??_C@_1BI@HDDBDOHN@?$AA?$CF?$AAI?$AA?3?$AA?$CF?$AAM?$AA?3?$AA?$CF?$AAS?$AA?5?$AA?$CF?$AAp?$AA?$AA@ 00513080     datetime.obj
 0002:00003098       ??_C@_13KDLDGPGJ@?$AA?7?$AA?$AA@ 00513098     datetime.obj
 0002:0000309c       ??_C@_1BE@LNHJABNI@?$AA?$CF?$AA?$CL?$AA0?$AA3?$AAd?$AA?$CF?$AA0?$AA2?$AAd?$AA?$AA@ 0051309c     datetime.obj
 0002:000030b0       ??_C@_1CC@HHABJMAL@?$AA?$CF?$AA0?$AA2?$AAd?$AA?$CF?$AAc?$AA?$CF?$AA0?$AA2?$AAd?$AA?$CF?$AAc?$AA?$CF?$AA0?$AA2?$AAd?$AA?$AA@ 005130b0     datetime.obj
 0002:000030d4       ??_C@_15ODEHAHHF@?$AAA?$AAM?$AA?$AA@ 005130d4     datetime.obj
 0002:000030dc       ??_C@_15CLMNNGEL@?$AAP?$AAM?$AA?$AA@ 005130dc     datetime.obj
 0002:000030e4       ??_C@_15KNBIKKIN@?$AA?$CF?$AAd?$AA?$AA@ 005130e4     datetime.obj
 0002:000030ec       ??_C@_15BHOFONJE@?$AA?$CF?$AAX?$AA?$AA@ 005130ec     datetime.obj
 0002:000030f4       ??_C@_19GGGBJDH@?$AA?$CF?$AA0?$AA3?$AAd?$AA?$AA@ 005130f4     datetime.obj
 0002:00003100       ??_C@_17NGLNIKFG@?$AA?$CF?$AA2?$AAd?$AA?$AA@ 00513100     datetime.obj
 0002:00003108       ??_C@_19MNDKMKJC@?$AA?$CF?$AA0?$AA2?$AAd?$AA?$AA@ 00513108     datetime.obj
 0002:00003114       ??_C@_17MLLILKOO@?$AA?$CF?$AA5?$AAd?$AA?$AA@ 00513114     datetime.obj
 0002:0000311c       ??_C@_1BO@JLNGPCGK@?$AA?$CF?$AA3?$AA?4?$AA3?$AAs?$AA?5?$AA?$CF?$AA2?$AAd?$AA?5?$AA?$CF?$AA0?$AA2?$AAd?$AA?$AA@ 0051311c     datetime.obj
 0002:0000313c       ??_C@_1BO@DHEIHJCI@?$AA?$CF?$AA2?$AAd?$AA?5?$AA?$CF?$AA3?$AA?4?$AA3?$AAs?$AA?5?$AA?$CF?$AA0?$AA2?$AAd?$AA?$AA@ 0051313c     datetime.obj
 0002:0000315c       ??_C@_1BO@OPIIKDBA@?$AA?$CF?$AA0?$AA2?$AAd?$AA?5?$AA?$CF?$AA3?$AA?4?$AA3?$AAs?$AA?5?$AA?$CF?$AA2?$AAd?$AA?$AA@ 0051315c     datetime.obj
 0002:0000317c       ??_C@_19IGEAAGFL@?$AA?$CF?$AA?4?$AA?$CK?$AAs?$AA?$AA@ 0051317c     datetime.obj
 0002:00003188       ??_C@_1CO@NFIHCEEM@?$AA?$CF?$AA0?$AA2?$AAd?$AA?$CF?$AAc?$AA?$CF?$AA0?$AA2?$AAd?$AA?$CF?$AAc?$AA?$CF?$AA0?$AA2?$AAd?$AA?$CF?$AAc?$AA?$CF?$AA0?$AA3?$AAd?$AA?$AA@ 00513188     datetime.obj
 0002:000031b8       ??_C@_1BK@BPLEONJE@?$AA?$CF?$AA0?$AA2?$AAd?$AA?$CF?$AAc?$AA?$CF?$AA0?$AA2?$AAd?$AA?$CF?$AAs?$AA?$AA@ 005131b8     datetime.obj
 0002:000031d4       ??_C@_13LFIEIAHP@?$AAp?$AA?$AA@ 005131d4     datetime.obj
 0002:000031d8       ??_C@_13FNCBLAIF@?$AAa?$AA?$AA@ 005131d8     datetime.obj
 0002:000031dc       ??_C@_15EODNFOFM@?$AA?$AA?$AA?$AA?$AA?$AA@ 005131dc     delete.obj
 0002:000031e4       ??_C@_1BG@BBGBBMDA@?$AAD?$AAe?$AAl?$AAe?$AAt?$AAe?$AAF?$AAi?$AAl?$AAe?$AA?$AA@ 005131e4     delete.obj
 0002:000031fc       ??_C@_1CI@MGEOLBCB@?$AAS?$AAa?$AAv?$AAe?$AAd?$AAD?$AAi?$AAa?$AAl?$AAo?$AAg?$AAH?$AAi?$AAs?$AAt?$AAo?$AAr?$AAy?$AA?2?$AA?$AA@ 005131fc     dialog.obj
 0002:00003224       ??_C@_13CGOKJPIL@?$AA?1?$AA?$AA@ 00513224     dialog.obj
 0002:00003228       ??_C@_13EIMBECHO@?$CB?$JD?$AA?$AA@ 00513228     dialog.obj
 0002:0000322c       ??_C@_17PEPGGFIG@?$AA?$CF?$AA?$CK?$AAs?$AA?$AA@ 0051322c     dialog.obj
 0002:00003238       ??_7Dialog@@6B@            00513238     dialog.obj
 0002:000032ac       ??_C@_1BC@HEKIDLKD@?$AA?$FL?$AAD?$AAi?$AAa?$AAl?$AAo?$AAg?$AA?$FN?$AA?$AA@ 005132ac     dialog.obj
 0002:000032c0       ??_C@_15NAMECDCL@?$AA?5?$AA?$HN?$AA?$AA@ 005132c0     dialog.obj
 0002:000032c8       ??_C@_15IPOKAMGA@?$AA?$HL?$AA?5?$AA?$AA@ 005132c8     dialog.obj
 0002:000032d0       ??_C@_15HAPGIMBF@?$AA?5?$AA?$FN?$AA?$AA@ 005132d0     dialog.obj
 0002:000032d8       ??_C@_15IIEGAJFG@?$AA?$FL?$AA?5?$AA?$AA@ 005132d8     dialog.obj
 0002:000032e0       ??_C@_17HIFBOKPD@?$CF?$IA?$CF?$IE?$AA?5?$AA?$AA@ 005132e0     dialog.obj
 0002:000032e8       ??_C@_1M@MOFLFCEC@?$AA?$CF?$AAs?$AA?5?$AA?$CF?$AAs?$AA?$AA@ 005132e8     dirinfo.obj
 0002:000032f4       ??_C@_17NPIHKHDG@?$AA?$DN?$AAA?$AA?3?$AA?$AA@ 005132f4     dirmix.obj
 0002:000032fc       ??_C@_02PCIJFNDE@?$AN?6?$AA@ 005132fc     dizlist.obj
 0002:00003300       ??_C@_1M@OGLPPGPN@?$AA?$CF?$AAI?$AA6?$AA4?$AAu?$AA?$AA@ 00513300     dizlist.obj
 0002:0000330c       ??_7?$DialogBuilderBase@UDialogItemEx@@@@6B@ 0051330c     DlgBuilder.obj
 0002:00003328       ??_7?$CheckBoxBinding@UDialogItemEx@@@@6B@ 00513328     DlgBuilder.obj
 0002:0000332c       ??_7?$RadioButtonBinding@UDialogItemEx@@@@6B@ 0051332c     DlgBuilder.obj
 0002:00003330       ??_7?$ComboBoxBinding@UDialogItemEx@@@@6B@ 00513330     DlgBuilder.obj
 0002:00003334       ??_7EditFieldBinding@@6B@  00513334     DlgBuilder.obj
 0002:00003338       ??_7EditFieldIntBinding@@6B@ 00513338     DlgBuilder.obj
 0002:0000333c       ??_7DialogBuilder@@6B@     0051333c     DlgBuilder.obj
 0002:00003358       ??_7DlgEdit@@6B@           00513358     dlgedit.obj
 0002:0000338c       _FindFileId                0051338c     DlgGuid.obj
 0002:0000339c       _CopyOverwriteId           0051339c     DlgGuid.obj
 0002:000033ac       _FileOpenCreateId          005133ac     DlgGuid.obj
 0002:000033bc       _FileSaveAsId              005133bc     DlgGuid.obj
 0002:000033cc       _MakeFolderId              005133cc     DlgGuid.obj
 0002:000033dc       _FileAttrDlgId             005133dc     DlgGuid.obj
 0002:000033ec       _CopyReadOnlyId            005133ec     DlgGuid.obj
 0002:000033fc       _CopyFilesId               005133fc     DlgGuid.obj
 0002:0000340c       _MoveFilesId               0051340c     DlgGuid.obj
 0002:0000341c       _HardSymLinkId             0051341c     DlgGuid.obj
 0002:0000342c       ??_7JapaneseContextAnalysis@@6B@ 0051342c     nsMBCSGroupProber.obj
 0002:0000342c       ??_7CDList@@6B@            0051342c     DList.obj
 0002:00003434       ??_C@_1BC@HKPFPJFB@?$AAN?$AAo?$AAD?$AAr?$AAi?$AAv?$AAe?$AAs?$AA?$AA@ 00513434     drivemix.obj
 0002:00003448       ??_C@_1HI@BEGLNFHN@?$AAS?$AAo?$AAf?$AAt?$AAw?$AAa?$AAr?$AAe?$AA?2?$AAM?$AAi?$AAc?$AAr?$AAo?$AAs?$AAo?$AAf?$AAt?$AA?2?$AAW?$AAi?$AAn?$AAd?$AAo?$AAw?$AAs?$AA?2?$AAC?$AAu?$AAr?$AAr?$AAe@ 00513448     drivemix.obj
 0002:000034c0       ??_C@_15KKOHIOBF@?$AA?2?$AA?3?$AA?$AA@ 005134c0     drivemix.obj
 0002:000034c8       ??_C@_17NCPLMGPN@?$AA?$AN?$AA?$AN?$AA?6?$AA?$AA@ 005134c8     edit.obj
 0002:000034d0       ??_C@_13CMNBPIDO@?$AA?$AN?$AA?$AA@ 005134d0     edit.obj
 0002:000034d4       ??_7Edit@@6B@              005134d4     edit.obj
 0002:00003510       ??_7EditControl@@6B@       00513510     edit.obj
 0002:0000354c       ??_7?$DList@UEditorUndoData@@@@6B@ 0051354c     editor.obj
 0002:00003554       ??_C@_1M@KDPDDJEL@?$AA?0?$AA?3?$AA?$DL?$AA?4?$AA?5?$AA?$AA@ 00513554     editor.obj
 0002:00003560       ??_7Editor@@6B@            00513560     editor.obj
 0002:00003594       ??_C@_1BG@KMPMMCJO@?$AAS?$AAe?$AAa?$AAr?$AAc?$AAh?$AAT?$AAe?$AAx?$AAt?$AA?$AA@ 00513594     editor.obj
 0002:000035ac       ??_C@_1BI@BNKGENII@?$AAR?$AAe?$AAp?$AAl?$AAa?$AAc?$AAe?$AAT?$AAe?$AAx?$AAt?$AA?$AA@ 005135ac     editor.obj
 0002:000035c4       ??_C@_1BK@IHJCJLDF@?$AAE?$AAd?$AAi?$AAt?$AAo?$AAr?$AAS?$AAe?$AAa?$AAr?$AAc?$AAh?$AA?$AA@ 005135c4     editor.obj
 0002:000035e0       ??_C@_1BG@LCPMFBE@?$AAL?$AAi?$AAn?$AAe?$AAN?$AAu?$AAm?$AAb?$AAe?$AAr?$AA?$AA@ 005135e0     editor.obj
 0002:000035f8       ??_C@_1BM@MOLFMIK@?$AAE?$AAd?$AAi?$AAt?$AAo?$AAr?$AAG?$AAo?$AAt?$AAo?$AAP?$AAo?$AAs?$AA?$AA@ 005135f8     editor.obj
 0002:00003614       ??_C@_1BA@POKFGNBB@?$AA?2?$AA?2?$AA?4?$AA?2?$AA?5?$AA?3?$AA?2?$AA?$AA@ 00513614     eject.obj
 0002:00003644       ??_C@_1CA@EGPAHCDK@?$AAO?$AAp?$AAe?$AAn?$AAW?$AAi?$AAt?$AAh?$AAP?$AAr?$AAo?$AAg?$AAi?$AAd?$AAs?$AA?$AA@ 00513644     execute.obj
 0002:00003664       ??_C@_15BNIPFGCG@?$AA$?$AA?$CK?$AA?$AA@ 00513664     execute.obj
 0002:0000366c       ??_C@_1BA@HMCCKBDK@?$AAC?$AAO?$AAM?$AAS?$AAP?$AAE?$AAC?$AA?$AA@ 0051366c     execute.obj
 0002:0000367c       ??_C@_1O@HNNDAFP@?$AAP?$AAr?$AAo?$AAg?$AAI?$AAD?$AA?$AA@ 0051367c     execute.obj
 0002:00003690       ??_C@_1HK@LIJIMHBG@?$AAS?$AAo?$AAf?$AAt?$AAw?$AAa?$AAr?$AAe?$AA?2?$AAM?$AAi?$AAc?$AAr?$AAo?$AAs?$AAo?$AAf?$AAt?$AA?2?$AAW?$AAi?$AAn?$AAd?$AAo?$AAw?$AAs?$AA?2?$AAC?$AAu?$AAr?$AAr?$AAe@ 00513690     execute.obj
 0002:0000370c       ??_C@_1CK@HANNNOEG@?$AA?2?$AAs?$AAh?$AAe?$AAl?$AAl?$AA?2?$AAr?$AAu?$AAn?$AAa?$AAs?$AA?2?$AAc?$AAo?$AAm?$AAm?$AAa?$AAn?$AAd?$AA?$AA@ 0051370c     execute.obj
 0002:00003738       ??_C@_15HEJOKEHO@?$AA?$DP?$AA?$CK?$AA?$AA@ 00513738     execute.obj
 0002:00003740       ??_C@_13FFFLPHEM@?$AA?$HO?$AA?$AA@ 00513740     execute.obj
 0002:00003744       ??_C@_17LMPFKMGA@?$AA?5?$AA?7?$AA?1?$AA?$AA@ 00513744     execute.obj
 0002:0000374c       ??_C@_19BDAJEHDN@?$AAo?$AAp?$AAe?$AAn?$AA?$AA@ 0051374c     execute.obj
 0002:00003758       ??_C@_1O@CEJDOCEN@?$AA?2?$AAs?$AAh?$AAe?$AAl?$AAl?$AA?$AA@ 00513758     execute.obj
 0002:00003768       ??_C@_1BG@GLCONHIP@?$AAI?$AAs?$AAS?$AAh?$AAo?$AAr?$AAt?$AAc?$AAu?$AAt?$AA?$AA@ 00513768     execute.obj
 0002:00003780       ??_C@_1BC@NCOMCLBH@?$AA?2?$AAc?$AAo?$AAm?$AAm?$AAa?$AAn?$AAd?$AA?$AA@ 00513780     execute.obj
 0002:00003804       ??_C@_19IJOJOJIB@?$AAP?$AAA?$AAT?$AAH?$AA?$AA@ 00513804     execute.obj
 0002:00003810       ??_C@_1BA@HAHEJCII@?$AAP?$AAA?$AAT?$AAH?$AAE?$AAX?$AAT?$AA?$AA@ 00513810     execute.obj
 0002:00003820       ??_C@_1EE@FMPFHHED@?$AA?4?$AAC?$AAO?$AAM?$AA?$DL?$AA?4?$AAE?$AAX?$AAE?$AA?$DL?$AA?4?$AAB?$AAA?$AAT?$AA?$DL?$AA?4?$AAC?$AAM?$AAD?$AA?$DL?$AA?4?$AAV?$AAB?$AAS?$AA?$DL?$AA?4?$AAJ?$AAS?$AA?$DL?$AA?4?$AAW?$AAS@ 00513820     execute.obj
 0002:00003864       ??_C@_1BI@OPAINLAI@?$AAE?$AAx?$AAc?$AAl?$AAu?$AAd?$AAe?$AAC?$AAm?$AAd?$AAs?$AA?$AA@ 00513864     execute.obj
 0002:0000387c       ??_C@_1BC@LMKCJBMA@?$AAD?$AAE?$AAF?$AAI?$AAN?$AAE?$AAD?$AA?5?$AA?$AA@ 0051387c     execute.obj
 0002:00003890       ??_C@_1O@FPACAOMG@?$AAE?$AAX?$AAI?$AAS?$AAT?$AA?5?$AA?$AA@ 00513890     execute.obj
 0002:000038a0       ??_C@_19FLJGJFAE@?$AAN?$AAO?$AAT?$AA?5?$AA?$AA@ 005138a0     execute.obj
 0002:000038ac       ??_C@_17NFDMLPBP@?$AAI?$AAF?$AA?5?$AA?$AA@ 005138ac     execute.obj
 0002:000038b4       ??_C@_1CC@BLNIDBDB@?$AAE?$AAr?$AAr?$AAC?$AAa?$AAn?$AAn?$AAo?$AAt?$AAE?$AAx?$AAe?$AAc?$AAu?$AAt?$AAe?$AA?$AA@ 005138b4     execute.obj
 0002:000038d8       ??_C@_13NEIAEHFG@?$AA?$CC?$AA?$AA@ 005138d8     execute.obj
 0002:000038dc       ??_C@_1BK@GEEOAFEP@?$AA?$CG?$AA?$DM?$AA?$DO?$AA?$CI?$AA?$CJ?$AA?$EA?$AA?$FO?$AA?$HM?$AA?$DN?$AA?$DL?$AA?0?$AA?5?$AA?$AA@ 005138dc     execute.obj
 0002:000038f8       ??_C@_17JDHFIHJA@?$AA?1?$AAC?$AA?5?$AA?$AA@ 005138f8     execute.obj
 0002:00003900       ??_C@_1M@BNPMPMDP@?$AAE?$AAC?$AAH?$AAO?$AA?4?$AA?$AA@ 00513900     execute.obj
 0002:0000390c       ??_C@_19CDGLJBOD@?$AA?4?$AAc?$AAo?$AAm?$AA?$AA@ 0051390c     execute.obj
 0002:00003918       ??_C@_19DOGDICKI@?$AA?4?$AAe?$AAx?$AAe?$AA?$AA@ 00513918     execute.obj
 0002:00003924       ??_C@_19IOBNHAEP@?$AAE?$AAX?$AAI?$AAT?$AA?$AA@ 00513924     execute.obj
 0002:00003930       ??_C@_15KMLBCGNF@?$AA?1?$AAD?$AA?$AA@ 00513930     execute.obj
 0002:00003938       ??_C@_1M@KKDOELFO@?$AAC?$AAH?$AAD?$AAI?$AAR?$AA?$AA@ 00513938     execute.obj
 0002:00003944       ??_C@_15NDIHOJPE@?$AAC?$AAD?$AA?$AA@ 00513944     execute.obj
 0002:0000394c       ??_C@_15NIBFACBJ@?$AAI?$AAF?$AA?$AA@ 0051394c     execute.obj
 0002:00003954       ??_C@_19NBEBIFBC@?$AAC?$AAH?$AAC?$AAP?$AA?$AA@ 00513954     execute.obj
 0002:00003960       ??_C@_19ECPKJKBO@?$AAC?$AAL?$AAR?$AAD?$AA?$AA@ 00513960     execute.obj
 0002:0000396c       ??_C@_19ENCEAGBN@?$AAP?$AAO?$AAP?$AAD?$AA?$AA@ 0051396c     execute.obj
 0002:00003978       ??_C@_1BI@FHPIDMLD@?$AAF?$AAA?$AAR?$AAD?$AAI?$AAR?$AAS?$AAT?$AAA?$AAC?$AAK?$AA?$AA@ 00513978     execute.obj
 0002:00003990       ??_C@_1M@MLLIJNNO@?$AAP?$AAU?$AAS?$AAH?$AAD?$AA?$AA@ 00513990     execute.obj
 0002:0000399c       ??_C@_17JMONIPMD@?$AAC?$AAL?$AAS?$AA?$AA@ 0051399c     execute.obj
 0002:000039a4       ??_C@_15HEEKGCFC@?$AA?3?$AA?3?$AA?$AA@ 005139a4     execute.obj
 0002:000039ac       ??_C@_17LLDFMPBC@?$AAR?$AAE?$AAM?$AA?$AA@ 005139ac     execute.obj
 0002:000039b4       ??_C@_17FKIONHJJ@?$AAS?$AAE?$AAT?$AA?$AA@ 005139b4     execute.obj
 0002:000039bc       ??_C@_1BO@FAGJJHDG@?$AAF?$AAr?$AAe?$AAe?$AAC?$AAu?$AAs?$AAt?$AAo?$AAm?$AAD?$AAa?$AAt?$AAa?$AA?$AA@ 005139bc     farexcpt.obj
 0002:000039dc       ??_C@_1BM@JFFCADBA@?$AAG?$AAe?$AAt?$AAC?$AAu?$AAs?$AAt?$AAo?$AAm?$AAD?$AAa?$AAt?$AAa?$AA?$AA@ 005139dc     farexcpt.obj
 0002:000039f8       ??_C@_1BA@JOGJDPBE@?$AAA?$AAn?$AAa?$AAl?$AAy?$AAs?$AAe?$AA?$AA@ 005139f8     farexcpt.obj
 0002:00003a08       ??_C@_1CI@BMCMOMH@?$AAP?$AAr?$AAo?$AAc?$AAe?$AAs?$AAs?$AAS?$AAy?$AAn?$AAc?$AAh?$AAr?$AAo?$AAE?$AAv?$AAe?$AAn?$AAt?$AA?$AA@ 00513a08     farexcpt.obj
 0002:00003a30       ??_C@_1CG@DMLNILAA@?$AAP?$AAr?$AAo?$AAc?$AAe?$AAs?$AAs?$AAD?$AAi?$AAa?$AAl?$AAo?$AAg?$AAE?$AAv?$AAe?$AAn?$AAt?$AA?$AA@ 00513a30     farexcpt.obj
 0002:00003a58       ??_C@_1CG@HNOPFFLK@?$AAP?$AAr?$AAo?$AAc?$AAe?$AAs?$AAs?$AAV?$AAi?$AAe?$AAw?$AAe?$AAr?$AAI?$AAn?$AAp?$AAu?$AAt?$AA?$AA@ 00513a58     farexcpt.obj
 0002:00003a80       ??_C@_1CG@BBNGBEDA@?$AAP?$AAr?$AAo?$AAc?$AAe?$AAs?$AAs?$AAV?$AAi?$AAe?$AAw?$AAe?$AAr?$AAE?$AAv?$AAe?$AAn?$AAt?$AA?$AA@ 00513a80     farexcpt.obj
 0002:00003aa8       ??_C@_1CC@NBLNDPNH@?$AAG?$AAe?$AAt?$AAM?$AAi?$AAn?$AAF?$AAa?$AAr?$AAV?$AAe?$AAr?$AAs?$AAi?$AAo?$AAn?$AA?$AA@ 00513aa8     farexcpt.obj
 0002:00003acc       ??_C@_1CG@GFFDAIMK@?$AAP?$AAr?$AAo?$AAc?$AAe?$AAs?$AAs?$AAE?$AAd?$AAi?$AAt?$AAo?$AAr?$AAI?$AAn?$AAp?$AAu?$AAt?$AA?$AA@ 00513acc     farexcpt.obj
 0002:00003af4       ??_C@_1BA@NIFMCONN@?$AAC?$AAo?$AAm?$AAp?$AAa?$AAr?$AAe?$AA?$AA@ 00513af4     farexcpt.obj
 0002:00003b04       ??_C@_1CG@JGKEJEA@?$AAP?$AAr?$AAo?$AAc?$AAe?$AAs?$AAs?$AAE?$AAd?$AAi?$AAt?$AAo?$AAr?$AAE?$AAv?$AAe?$AAn?$AAt?$AA?$AA@ 00513b04     farexcpt.obj
 0002:00003b2c       ??_C@_1BK@CAIJCEDL@?$AAP?$AAr?$AAo?$AAc?$AAe?$AAs?$AAs?$AAE?$AAv?$AAe?$AAn?$AAt?$AA?$AA@ 00513b2c     farexcpt.obj
 0002:00003b48       ??_C@_1BG@EMHDHMPP@?$AAP?$AAr?$AAo?$AAc?$AAe?$AAs?$AAs?$AAK?$AAe?$AAy?$AA?$AA@ 00513b48     farexcpt.obj
 0002:00003b60       ??_C@_1BA@JOPOJEME@?$AAE?$AAx?$AAi?$AAt?$AAF?$AAA?$AAR?$AA?$AA@ 00513b60     farexcpt.obj
 0002:00003b70       ??_C@_1BE@DOHBCHLK@?$AAC?$AAo?$AAn?$AAf?$AAi?$AAg?$AAu?$AAr?$AAe?$AA?$AA@ 00513b70     farexcpt.obj
 0002:00003b84       ??_C@_1CA@JCCEGNJC@?$AAP?$AAr?$AAo?$AAc?$AAe?$AAs?$AAs?$AAH?$AAo?$AAs?$AAt?$AAF?$AAi?$AAl?$AAe?$AA?$AA@ 00513b84     farexcpt.obj
 0002:00003ba4       ??_C@_1BM@CCHDAOFC@?$AAM?$AAa?$AAk?$AAe?$AAD?$AAi?$AAr?$AAe?$AAc?$AAt?$AAo?$AAr?$AAy?$AA?$AA@ 00513ba4     farexcpt.obj
 0002:00003bc0       ??_C@_1BI@LCMNHEKP@?$AAD?$AAe?$AAl?$AAe?$AAt?$AAe?$AAF?$AAi?$AAl?$AAe?$AAs?$AA?$AA@ 00513bc0     farexcpt.obj
 0002:00003bd8       ??_C@_1BC@OGNFHFO@?$AAP?$AAu?$AAt?$AAF?$AAi?$AAl?$AAe?$AAs?$AA?$AA@ 00513bd8     farexcpt.obj
 0002:00003bec       ??_C@_1BC@CHMHDPLM@?$AAG?$AAe?$AAt?$AAF?$AAi?$AAl?$AAe?$AAs?$AA?$AA@ 00513bec     farexcpt.obj
 0002:00003c00       ??_C@_1BK@IGHPIBIB@?$AAS?$AAe?$AAt?$AAD?$AAi?$AAr?$AAe?$AAc?$AAt?$AAo?$AAr?$AAy?$AA?$AA@ 00513c00     farexcpt.obj
 0002:00003c1c       ??_C@_1CI@JIMLDHGO@?$AAF?$AAr?$AAe?$AAe?$AAV?$AAi?$AAt?$AAr?$AAu?$AAa?$AAl?$AAF?$AAi?$AAn?$AAd?$AAD?$AAa?$AAt?$AAa?$AA?$AA@ 00513c1c     farexcpt.obj
 0002:00003c44       ??_C@_1BK@HMHLDAEI@?$AAF?$AAr?$AAe?$AAe?$AAF?$AAi?$AAn?$AAd?$AAD?$AAa?$AAt?$AAa?$AA?$AA@ 00513c44     farexcpt.obj
 0002:00003c60       ??_C@_1BI@GHGNBEJE@?$AAG?$AAe?$AAt?$AAF?$AAi?$AAn?$AAd?$AAD?$AAa?$AAt?$AAa?$AA?$AA@ 00513c60     farexcpt.obj
 0002:00003c78       ??_C@_1CE@NEPMDODJ@?$AAG?$AAe?$AAt?$AAO?$AAp?$AAe?$AAn?$AAP?$AAl?$AAu?$AAg?$AAi?$AAn?$AAI?$AAn?$AAf?$AAo?$AA?$AA@ 00513c78     farexcpt.obj
 0002:00003c9c       ??_C@_1BM@NBHHEANA@?$AAG?$AAe?$AAt?$AAP?$AAl?$AAu?$AAg?$AAi?$AAn?$AAI?$AAn?$AAf?$AAo?$AA?$AA@ 00513c9c     farexcpt.obj
 0002:00003cb8       ??_C@_1BI@ICLNCIAJ@?$AAC?$AAl?$AAo?$AAs?$AAe?$AAP?$AAl?$AAu?$AAg?$AAi?$AAn?$AA?$AA@ 00513cb8     farexcpt.obj
 0002:00003cd0       ??_C@_1BG@KACNCPPD@?$AAO?$AAp?$AAe?$AAn?$AAP?$AAl?$AAu?$AAg?$AAi?$AAn?$AA?$AA@ 00513cd0     farexcpt.obj
 0002:00003ce8       ??_C@_1CG@DBBBHLDD@?$AAG?$AAe?$AAt?$AAV?$AAi?$AAr?$AAt?$AAu?$AAa?$AAl?$AAF?$AAi?$AAn?$AAd?$AAD?$AAa?$AAt?$AAa?$AA?$AA@ 00513ce8     farexcpt.obj
 0002:00003d10       ??_C@_1BO@CPBKJPGC@?$AAS?$AAe?$AAt?$AAS?$AAt?$AAa?$AAr?$AAt?$AAu?$AAp?$AAI?$AAn?$AAf?$AAo?$AA?$AA@ 00513d10     farexcpt.obj
 0002:00003d30       ??_C@_13IIGBBHPI@?$AAW?$AA?$AA@ 00513d30     farexcpt.obj
 0002:00003d34       ??_C@_19DHGNKLIN@?$AA0?$AAx?$AA?$CF?$AAp?$AA?$AA@ 00513d34     farexcpt.obj
 0002:00003d40       ??_C@_1BE@HGHGEFKL@?$AA?$CF?$AAs?$AA?5?$AA?$CI?$AA0?$AAx?$AA?$CF?$AAX?$AA?$CJ?$AA?$AA@ 00513d40     farexcpt.obj
 0002:00003d54       ??_C@_0O@FKDKNJJN@ExceptionProc?$AA@ 00513d54     farexcpt.obj
 0002:00003d64       ??_C@_1BK@EKJJNDCE@?$AAF?$AAa?$AAr?$AAE?$AAv?$AAe?$AAn?$AAt?$AA?4?$AAs?$AAv?$AAc?$AA?$AA@ 00513d64     farexcpt.obj
 0002:00003d80       ??_C@_1CC@KHGIDIMD@?$AAS?$AAy?$AAs?$AAt?$AAe?$AAm?$AA?2?$AAE?$AAx?$AAc?$AAe?$AAp?$AAt?$AAi?$AAo?$AAn?$AA?$AA@ 00513d80     farexcpt.obj
 0002:00003da4       ??_C@_19INOKLCEL@?$AAU?$AAs?$AAe?$AAd?$AA?$AA@ 00513da4     farexcpt.obj
 0002:00003db0       ??_C@_1BO@JGOPDEEA@?$AA?2?$AAD?$AAe?$AAv?$AAi?$AAc?$AAe?$AA?2?$AAW?$AAi?$AAn?$AAD?$AAf?$AAs?$AA?$AA@ 00513db0     farwinapi.obj
 0002:00003dd0       ??_C@_15BFKPJPFA@?$AAA?$AA?3?$AA?$AA@ 00513dd0     farwinapi.obj
 0002:00003dd8       ??_C@_1DC@HPJECOGA@?$AA?2?$AAD?$AAe?$AAv?$AAi?$AAc?$AAe?$AA?2?$AAL?$AAa?$AAn?$AAm?$AAa?$AAn?$AAR?$AAe?$AAd?$AAi?$AAr?$AAe?$AAc?$AAt?$AAo?$AAr?$AA?$AA@ 00513dd8     farwinapi.obj
 0002:00003e4c       ??_C@_1BG@IBOKPBPF@?$AAS?$AAh?$AAo?$AAr?$AAt?$AAc?$AAu?$AAt?$AA?$CF?$AAd?$AA?$AA@ 00513e4c     ffolders.obj
 0002:00003e64       ??_C@_1BO@LPAOCJMI@?$AAP?$AAl?$AAu?$AAg?$AAi?$AAn?$AAM?$AAo?$AAd?$AAu?$AAl?$AAe?$AA?$CF?$AAd?$AA?$AA@ 00513e64     ffolders.obj
 0002:00003e84       ??_C@_1BK@IJALHOAM@?$AAP?$AAl?$AAu?$AAg?$AAi?$AAn?$AAF?$AAi?$AAl?$AAe?$AA?$CF?$AAd?$AA?$AA@ 00513e84     ffolders.obj
 0002:00003ea0       ??_C@_1BK@NOFKADLJ@?$AAP?$AAl?$AAu?$AAg?$AAi?$AAn?$AAD?$AAa?$AAt?$AAa?$AA?$CF?$AAd?$AA?$AA@ 00513ea0     ffolders.obj
 0002:00003ebc       ??_C@_1BA@LAFKLGNJ@?$AAF?$AAS?$AA_?$AAP?$AAa?$AAt?$AAh?$AA?$AA@ 00513ebc     ffolders.obj
 0002:00003ecc       ??_C@_1BI@JLMHCOMO@?$AA?$CF?$AAs?$AA?$CL?$AA?$CG?$AA?$CF?$AAd?$AA?5?$AA?5?$AA?5?$AA?$CF?$AAs?$AA?$AA@ 00513ecc     ffolders.obj
 0002:00003ee4       ??_C@_1O@PNHGCNJL@?$AAE?$AAd?$AAi?$AAt?$AAo?$AAr?$AA?$AA@ 00513ee4     fileedit.obj
 0002:00003ef4       ??_7KeyBar@@6B@            00513ef4     fileedit.obj
 0002:00003f28       ??_C@_1BG@LGLEIIOA@?$AAF?$AAi?$AAl?$AAe?$AAS?$AAa?$AAv?$AAe?$AAA?$AAs?$AA?$AA@ 00513f28     fileedit.obj
 0002:00003f40       ??_C@_1BA@KCIADGDI@?$AAN?$AAe?$AAw?$AAE?$AAd?$AAi?$AAt?$AA?$AA@ 00513f40     fileedit.obj
 0002:00003f50       ??_7FileEditor@@6B@        00513f50     fileedit.obj
 0002:00003fc4       ??_C@_1BG@JKOGLJHO@?$AA?$FL?$AAF?$AAi?$AAl?$AAe?$AAE?$AAd?$AAi?$AAt?$AA?$FN?$AA?$AA@ 00513fc4     fileedit.obj
 0002:00003fdc       ??_C@_1CE@MBEOFDGC@?$AAW?$AAa?$AAr?$AAn?$AAE?$AAd?$AAi?$AAt?$AAo?$AAr?$AAS?$AAa?$AAv?$AAe?$AAd?$AAE?$AAx?$AA?$AA@ 00513fdc     fileedit.obj
 0002:00004000       ??_C@_13DIBMAFH@?$AA?$CJ?$AA?$AA@ 00514000     fileedit.obj
 0002:00004004       ??_C@_15CMBHNMLL@?$AA?5?$AA?$CI?$AA?$AA@ 00514004     fileedit.obj
 0002:0000400c       ??_C@_1M@BPMHLFFJ@?$AA?$CF?$AAd?$AA?1?$AA?$CF?$AAd?$AA?$AA@ 0051400c     fileedit.obj
 0002:00004018       ??_C@_19HDOHNCL@?$AA?$CF?$AA0?$AA5?$AAo?$AA?$AA@ 00514018     fileedit.obj
 0002:00004024       ??_C@_1M@HDIDBPLB@?$AA?$CF?$AA0?$AA4?$AAX?$AAh?$AA?$AA@ 00514024     fileedit.obj
 0002:00004030       ??_C@_15HKBJCNIM@?$AA?$CF?$AAo?$AA?$AA@ 00514030     fileedit.obj
 0002:00004038       ??_C@_17DFAEBJNC@?$AA?$CF?$AAX?$AAh?$AA?$AA@ 00514038     fileedit.obj
 0002:00004040       ??_C@_1BO@LMLAEHPD@?$AAF?$AAi?$AAl?$AAe?$AAO?$AAp?$AAe?$AAn?$AAC?$AAr?$AAe?$AAa?$AAt?$AAe?$AA?$AA@ 00514040     fileedit.obj
 0002:00004060       ??_C@_1BK@PMDMLLK@?$AAE?$AAd?$AAi?$AAt?$AAo?$AAr?$AAR?$AAe?$AAl?$AAo?$AAa?$AAd?$AA?$AA@ 00514060     fileedit.obj
 0002:0000407c       ??_C@_15HFJMEONN@?$AA?2?$AA?4?$AA?$AA@ 0051407c     fileedit.obj
 0002:00004084       ??_C@_1BC@CGKOBECB@?$AAW?$AAA?$AAR?$AAN?$AAI?$AAN?$AAG?$AA?$CB?$AA?$AA@ 00514084     fileedit.obj
 0002:00004098       ??_C@_1EO@JLPFKDA@?$AAE?$AAd?$AAi?$AAt?$AAo?$AAr?$AA?5?$AAw?$AAi?$AAl?$AAl?$AA?5?$AAb?$AAe?$AA?5?$AAr?$AAe?$AAo?$AAp?$AAe?$AAn?$AAe?$AAd?$AA?5?$AAw?$AAi?$AAt?$AAh?$AA?5?$AAn?$AAe?$AAw@ 00514098     fileedit.obj
 0002:000040e8       ??_C@_1CI@NMDLGBM@?$AAF?$AAo?$AAl?$AAd?$AAe?$AAr?$AAs?$AAF?$AAi?$AAl?$AAt?$AAe?$AAr?$AAF?$AAF?$AAl?$AAa?$AAg?$AAs?$AA?$AA@ 005140e8     filefilter.obj
 0002:00004110       ??_C@_1CI@ODBHFDJM@?$AAF?$AAi?$AAl?$AAt?$AAe?$AAr?$AAs?$AA?2?$AAP?$AAa?$AAn?$AAe?$AAl?$AAM?$AAa?$AAs?$AAk?$AA?$CF?$AAd?$AA?$AA@ 00514110     filefilter.obj
 0002:00004138       ??_C@_1O@PDIAFMCE@?$AAF?$AAF?$AAl?$AAa?$AAg?$AAs?$AA?$AA@ 00514138     filefilter.obj
 0002:00004148       ??_C@_1BE@HEJAKPND@?$AAA?$AAt?$AAt?$AAr?$AAC?$AAl?$AAe?$AAa?$AAr?$AA?$AA@ 00514148     filefilter.obj
 0002:0000415c       ??_C@_1BA@NCKMFNLG@?$AAA?$AAt?$AAt?$AAr?$AAS?$AAe?$AAt?$AA?$AA@ 0051415c     filefilter.obj
 0002:0000416c       ??_C@_1BA@IPFMPIGK@?$AAU?$AAs?$AAe?$AAA?$AAt?$AAt?$AAr?$AA?$AA@ 0051416c     filefilter.obj
 0002:0000417c       ??_C@_1BG@FPPDHFPO@?$AAS?$AAi?$AAz?$AAe?$AAB?$AAe?$AAl?$AAo?$AAw?$AAS?$AA?$AA@ 0051417c     filefilter.obj
 0002:00004194       ??_C@_1BG@JBNHILDJ@?$AAS?$AAi?$AAz?$AAe?$AAA?$AAb?$AAo?$AAv?$AAe?$AAS?$AA?$AA@ 00514194     filefilter.obj
 0002:000041ac       ??_C@_1BA@LMHNIDBD@?$AAU?$AAs?$AAe?$AAS?$AAi?$AAz?$AAe?$AA?$AA@ 005141ac     filefilter.obj
 0002:000041bc       ??_C@_1BK@GFFFGKPE@?$AAR?$AAe?$AAl?$AAa?$AAt?$AAi?$AAv?$AAe?$AAD?$AAa?$AAt?$AAe?$AA?$AA@ 005141bc     filefilter.obj
 0002:000041d8       ??_C@_1BG@IFIEGDMD@?$AAD?$AAa?$AAt?$AAe?$AAB?$AAe?$AAf?$AAo?$AAr?$AAe?$AA?$AA@ 005141d8     filefilter.obj
 0002:000041f0       ??_C@_1BE@EGKFKJGK@?$AAD?$AAa?$AAt?$AAe?$AAA?$AAf?$AAt?$AAe?$AAr?$AA?$AA@ 005141f0     filefilter.obj
 0002:00004204       ??_C@_1BC@PJOAAKPN@?$AAD?$AAa?$AAt?$AAe?$AAT?$AAy?$AAp?$AAe?$AA?$AA@ 00514204     filefilter.obj
 0002:00004218       ??_C@_1BA@JAOAGDEH@?$AAU?$AAs?$AAe?$AAD?$AAa?$AAt?$AAe?$AA?$AA@ 00514218     filefilter.obj
 0002:00004228       ??_C@_19KOBLENB@?$AAM?$AAa?$AAs?$AAk?$AA?$AA@ 00514228     filefilter.obj
 0002:00004234       ??_C@_1BA@JBCPAPAG@?$AAU?$AAs?$AAe?$AAM?$AAa?$AAs?$AAk?$AA?$AA@ 00514234     filefilter.obj
 0002:00004244       ??_C@_1M@MNHBCACD@?$AAT?$AAi?$AAt?$AAl?$AAe?$AA?$AA@ 00514244     filefilter.obj
 0002:00004250       ??_C@_1CC@BPFNOPIN@?$AAF?$AAi?$AAl?$AAt?$AAe?$AAr?$AAs?$AA?2?$AAF?$AAi?$AAl?$AAt?$AAe?$AAr?$AA?$CF?$AAd?$AA?$AA@ 00514250     filefilter.obj
 0002:00004274       ??_C@_1BA@DJLBFCNB@?$AAF?$AAi?$AAl?$AAt?$AAe?$AAr?$AAs?$AA?$AA@ 00514274     filefilter.obj
 0002:00004284       ??_C@_17NMIAMFPP@?$AA?$CK?$AA?$CF?$AAs?$AA?$AA@ 00514284     filefilter.obj
 0002:0000428c       ??_C@_1M@BOEEJLAG@?$AA?$CC?$AA?$CK?$AA?$CF?$AAs?$AA?$CC?$AA?$AA@ 0051428c     filefilter.obj
 0002:00004298       ??_C@_15KIOHKAAB@?$AA?$CK?$AA?4?$AA?$AA@ 00514298     filefilter.obj
 0002:000042a0       ??_C@_1BI@JOAKIIHA@?$AAF?$AAi?$AAl?$AAt?$AAe?$AAr?$AAs?$AAM?$AAe?$AAn?$AAu?$AA?$AA@ 005142a0     filefilter.obj
 0002:000042b8       ??_C@_17LGKOMLJ@?$AA?4?$AA?4?$AA?4?$AA?$AA@ 005142b8     filefilterparams.obj
 0002:000042c0       ??_C@_1EA@BHJKMJDD@?$AA?$CF?$AA?9?$AA3?$AA?4?$AA3?$AAs?$AA?5?$AA?$CF?$AAc?$AA?5?$AA?$CF?$AA?9?$AA2?$AA6?$AA?4?$AA2?$AA6?$AAs?$AA?5?$AA?$CF?$AA?9?$AA3?$AA?4?$AA3?$AAs?$AA?5?$AA?$CF?$AAc?$AA?5?$AA?$CF?$AAs?$AA?$AA@ 005142c0     filefilterparams.obj
 0002:00004300       ??_C@_1EK@DCNGEHII@?$AA?5?$AA?5?$AA?5?$AA?$CF?$AA?9?$AA1?$AA8?$AA?4?$AA1?$AA8?$AAs?$AA?5?$AA?$CF?$AAc?$AA?5?$AA?$CF?$AA?9?$AA2?$AA6?$AA?4?$AA2?$AA6?$AAs?$AA?5?$AA?$CF?$AA?9?$AA2?$AA?4?$AA2?$AAs?$AA?5?$AA?$CF@ 00514300     filefilterparams.obj
 0002:0000434c       ??_C@_17CMBJCHDO@?$AA?$CC?$AA?5?$AA?$CC?$AA?$AA@ 0051434c     filefilterparams.obj
 0002:00004358       ??_C@_1EO@PKLKFEOP@?$AA?$CG?$AA?$CF?$AAc?$AA?4?$AA?5?$AA?$CF?$AA?9?$AA1?$AA8?$AA?4?$AA1?$AA8?$AAs?$AA?5?$AA?$CF?$AAc?$AA?5?$AA?$CF?$AA?9?$AA2?$AA6?$AA?4?$AA2?$AA6?$AAs?$AA?5?$AA?$CF?$AA?9?$AA2?$AA?4?$AA2?$AAs@ 00514358     filefilterparams.obj
 0002:000043a8       ??_C@_1EE@JLAPDADC@?$AA?$CF?$AA?9?$AA2?$AA2?$AA?4?$AA2?$AA2?$AAs?$AA?5?$AA?$CF?$AAc?$AA?5?$AA?$CF?$AA?9?$AA2?$AA6?$AA?4?$AA2?$AA6?$AAs?$AA?5?$AA?$CF?$AA?9?$AA2?$AA?4?$AA2?$AAs?$AA?5?$AA?$CF?$AAc?$AA?5?$AA?$CF@ 005143a8     filefilterparams.obj
 0002:000043f0       ??_C@_1EE@LMONCCJK@?$AA?$CF?$AA?9?$AA2?$AA1?$AA?4?$AA2?$AA1?$AAs?$AA?5?$AA?$CF?$AAc?$AA?5?$AA?$CF?$AA?9?$AA2?$AA6?$AA?4?$AA2?$AA6?$AAs?$AA?5?$AA?$CF?$AA?9?$AA2?$AA?4?$AA2?$AAs?$AA?5?$AA?$CF?$AAc?$AA?5?$AA?$CF@ 005143f0     filefilterparams.obj
 0002:00004434       ??_C@_1BM@NCFHBLAF@?$AAR?$AAA?$AAH?$AAS?$AAD?$AAC?$AAE?$AAI?$AA$?$AAT?$AAL?$AAO?$AAV?$AA?$AA@ 00514434     filefilterparams.obj
 0002:00004450       ??_C@_13DEFPDAGF@?$AA?0?$AA?$AA@ 00514450     filefilterparams.obj
 0002:00004454       ??_C@_1BE@CDAPBLIH@?$AA?$CF?$AAP?$AAA?$AAT?$AAH?$AAE?$AAX?$AAT?$AA?$CF?$AA?$AA@ 00514454     filefilterparams.obj
 0002:00004468       ??_C@_1O@FIAKOBIM@?$AAF?$AAi?$AAl?$AAt?$AAe?$AAr?$AA?$AA@ 00514468     filefilterparams.obj
 0002:00004478       ??_C@_1BM@KMPKJHGK@?$AAH?$AAi?$AAg?$AAh?$AAl?$AAi?$AAg?$AAh?$AAt?$AAE?$AAd?$AAi?$AAt?$AA?$AA@ 00514478     filefilterparams.obj
 0002:00004494       ??_C@_1CA@IKPJMML@?$AA9?$AA9?$AA?$CF?$AAc?$AA9?$AA9?$AA?$CF?$AAc?$AA9?$AA9?$AA?$CF?$AAc?$AA9?$AA9?$AA9?$AA?$AA@ 00514494     filefilterparams.obj
 0002:000044b4       ??_C@_1BM@JJJCHMMO@?$AA9?$AA9?$AA?$CF?$AAc?$AA9?$AA9?$AA?$CF?$AAc?$AA9?$AA9?$AA9?$AA9?$AA9?$AA?$AA@ 005144b4     filefilterparams.obj
 0002:000044d0       ??_C@_1BM@OKKFACHG@?$AA9?$AA9?$AA9?$AA9?$AA9?$AA?$CF?$AAc?$AA9?$AA9?$AA?$CF?$AAc?$AA9?$AA9?$AA?$AA@ 005144d0     filefilterparams.obj
 0002:000044ec       ??_C@_19LMEHJHGD@?$AA9?$AA9?$AA9?$AA9?$AA?$AA@ 005144ec     filefilterparams.obj
 0002:000044f8       ??_C@_1BG@CMBLBGNJ@?$AAF?$AAi?$AAl?$AAt?$AAe?$AAr?$AAN?$AAa?$AAm?$AAe?$AA?$AA@ 005144f8     filefilterparams.obj
 0002:00004510       ??_C@_1BI@PJABHIPH@?$AAF?$AAi?$AAl?$AAt?$AAe?$AAr?$AAM?$AAa?$AAs?$AAk?$AAs?$AA?$AA@ 00514510     filefilterparams.obj
 0002:00004528       ??_C@_1BK@PPPBLOPC@?$AAP?$AAa?$AAn?$AAe?$AAl?$AAC?$AAm?$AAd?$AAS?$AAo?$AAr?$AAt?$AA?$AA@ 00514528     filelist.obj
 0002:00004544       ??_C@_1M@JLDCNMKN@?$AAS?$AAh?$AAe?$AAl?$AAl?$AA?$AA@ 00514544     filelist.obj
 0002:00004550       ??_C@_17MNLPOAEN@?$AA?$FL?$AA?$FL?$AA?$FN?$AA?$AA@ 00514550     filelist.obj
 0002:00004558       ??_C@_13OHNMPHJM@?$AA?$FN?$AA?$AA@ 00514558     filelist.obj
 0002:0000455c       ??_C@_17BLOGADFA@?$AA?$FL?$AA?$FN?$AA?$FN?$AA?$AA@ 0051455c     filelist.obj
 0002:00004564       ??_C@_13MCLHKIEA@?$AA?$FL?$AA?$AA@ 00514564     filelist.obj
 0002:00004568       ??_C@_19CBGDABLI@?$AA?$DM?$AA?$FL?$AA?$CF?$AA?$DO?$AA?$AA@ 00514568     filelist.obj
 0002:00004574       ??_C@_13EHOOFIKC@?$AA?$HN?$AA?$AA@ 00514574     filelist.obj
 0002:00004578       ??_C@_13GCIFAHHO@?$AA?$HL?$AA?$AA@ 00514578     filelist.obj
 0002:0000457c       ??_C@_1BA@COCFCHKB@?$AAD?$AAi?$AAz?$AAT?$AAe?$AAx?$AAt?$AA?$AA@ 0051457c     filelist.obj
 0002:0000458c       ??_C@_1BA@ECOJNLEO@?$AA?$DM?$AA?$CF?$AAs?$AA?2?$AA?$DO?$AA?$CF?$AAs?$AA?$AA@ 0051458c     filelist.obj
 0002:0000459c       ??_C@_1BC@ENICKDH@?$AAC?$AAo?$AAn?$AAt?$AAe?$AAn?$AAt?$AAs?$AA?$AA@ 0051459c     filelist.obj
 0002:000045b0       ??_7FileList@@6B@          005145b0     filelist.obj
 0002:00004714       ??_C@_1O@JHMHEOFP@?$AA?$CC?$AA?$CK?$AA?4?$AA?$CF?$AAs?$AA?$CC?$AA?$AA@ 00514714     filelist.obj
 0002:00004724       ??_C@_17NKCNBBBH@?$AA?4?$AA?$CK?$AA?$CC?$AA?$AA@ 00514724     filelist.obj
 0002:0000472c       ??_C@_1BI@BMNNCHBE@?$AAS?$AAe?$AAl?$AAe?$AAc?$AAt?$AAF?$AAi?$AAl?$AAe?$AAs?$AA?$AA@ 0051472c     filelist.obj
 0002:00004744       ??_C@_17ECHFBE@?$AA?$CK?$AA?4?$AA?$CK?$AA?$AA@ 00514744     filelist.obj
 0002:0000474c       ??_C@_1M@CNKFIGFI@?$AAM?$AAa?$AAs?$AAk?$AAs?$AA?$AA@ 0051474c     filelist.obj
 0002:00004758       ??_C@_1BC@HIAKMAGK@?$AAA?$AAp?$AAp?$AAl?$AAy?$AAC?$AAm?$AAd?$AA?$AA@ 00514758     filelist.obj
 0002:0000476c       ??_C@_15GKAHMKIN@?$AA?3?$AA?2?$AA?$AA@ 0051476c     filelist.obj
 0002:00004780       ??_C@_1CK@CMEBNNJN@?$AAW?$AAa?$AAr?$AAn?$AAE?$AAd?$AAi?$AAt?$AAo?$AAr?$AAP?$AAl?$AAu?$AAg?$AAi?$AAn?$AAN?$AAa?$AAm?$AAe?$AA?$AA@ 00514780     filelist.obj
 0002:000047ac       ??_C@_1BA@MGIOJAO@?$AA?$DM?$AA?$CF?$AAs?$AA?3?$AA?$CF?$AAs?$AA?$DO?$AA?$AA@ 005147ac     filelist.obj
 0002:000047bc       ??_C@_1BO@BLFBGEOC@?$AAW?$AAa?$AAr?$AAn?$AAE?$AAd?$AAi?$AAt?$AAo?$AAr?$AAP?$AAa?$AAt?$AAh?$AA?$AA@ 005147bc     filelist.obj
 0002:000047dc       ??_7BaseFileMask@@6B@      005147dc     FileMasksProcessor.obj
 0002:000047ec       ??_7FileMasksProcessor@@6B@ 005147ec     FileMasksProcessor.obj
 0002:000047fc       ?EXCLUDEMASKSEPARATOR@@3_WB 005147fc     FileMasksWithExclude.obj
 0002:00004800       ??_7FileMasksWithExclude@@6B@ 00514800     FileMasksWithExclude.obj
 0002:00004810       ??_7MenuBar@@6B@           00514810     filepanels.obj
 0002:00004848       ??_7FilePanels@@6B@        00514848     filepanels.obj
 0002:000048bc       ??_C@_1BK@OEJEP@?$AA?$FL?$AAF?$AAi?$AAl?$AAe?$AAP?$AAa?$AAn?$AAe?$AAl?$AAs?$AA?$FN?$AA?$AA@ 005148bc     filepanels.obj
 0002:000048d8       ??_7nsUniversalDetectorEx@@6B@ 005148d8     filestr.obj
 0002:000048ec       ??_C@_0N@HJGKCDBN@ISO?98859?98?9I?$AA@ 005148ec     filestr.obj
 0002:000048fc       ??_C@_0L@LIELGIAD@ISO?98859?98?$AA@ 005148fc     filestr.obj
 0002:00004908       ??_C@_0L@DPNDHEMM@ISO?98859?97?$AA@ 00514908     filestr.obj
 0002:00004914       ??_C@_0L@NOFBGEO@ISO?98859?95?$AA@ 00514914     filestr.obj
 0002:00004920       ??_C@_0L@ECKEIAIJ@ISO?98859?92?$AA@ 00514920     filestr.obj
 0002:0000492c       ??_C@_0P@LEMDLCNI@x?9mac?9cyrillic?$AA@ 0051492c     filestr.obj
 0002:0000493c       ??_C@_0N@NINMIELO@x?9mac?9hebrew?$AA@ 0051493c     filestr.obj
 0002:0000494c       ??_C@_06CPFLJKI@KOI8?9R?$AA@ 0051494c     filestr.obj
 0002:00004954       ??_C@_06MNJGPPKN@IBM866?$AA@ 00514954     filestr.obj
 0002:0000495c       ??_C@_06OEPNBCDH@IBM855?$AA@ 0051495c     filestr.obj
 0002:00004964       ??_C@_05EGJIMALK@UTF?98?$AA@ 00514964     filestr.obj
 0002:0000496c       ??_C@_08JKILFODE@UTF16?9BE?$AA@ 0051496c     filestr.obj
 0002:00004978       ??_C@_08JABFHDDO@UTF16?9LE?$AA@ 00514978     filestr.obj
 0002:00004984       ??_C@_0N@FNFGMCHP@windows?91255?$AA@ 00514984     filestr.obj
 0002:00004994       ??_C@_0N@LAMGFPJ@windows?91253?$AA@ 00514994     filestr.obj
 0002:000049a4       ??_C@_0N@BCBHFELI@windows?91252?$AA@ 005149a4     filestr.obj
 0002:000049b4       ??_C@_0N@DJDKAHHL@windows?91251?$AA@ 005149b4     filestr.obj
 0002:000049c4       ??_C@_0N@CACBDGDK@windows?91250?$AA@ 005149c4     filestr.obj
 0002:000049d4       ??_C@_1BA@PFKCHMLC@?$AAA?$AAl?$AAt?$AAE?$AAd?$AAi?$AAt?$AA?$AA@ 005149d4     filetype.obj
 0002:000049e4       ??_C@_1BA@MHEJDMBN@?$AAA?$AAl?$AAt?$AAV?$AAi?$AAe?$AAw?$AA?$AA@ 005149e4     filetype.obj
 0002:000049f4       ??_C@_1BA@GELKPHIL@?$AAA?$AAl?$AAt?$AAE?$AAx?$AAe?$AAc?$AA?$AA@ 005149f4     filetype.obj
 0002:00004a04       ??_C@_19PLOBJMHF@?$AAE?$AAd?$AAi?$AAt?$AA?$AA@ 00514a04     filetype.obj
 0002:00004a10       ??_C@_19MJAKNMNK@?$AAV?$AAi?$AAe?$AAw?$AA?$AA@ 00514a10     filetype.obj
 0002:00004a1c       ??_C@_1BI@DLMANABL@?$AAD?$AAe?$AAs?$AAc?$AAr?$AAi?$AAp?$AAt?$AAi?$AAo?$AAn?$AA?$AA@ 00514a1c     filetype.obj
 0002:00004a34       ??_C@_1BA@GMIPEBEM@?$AAE?$AAx?$AAe?$AAc?$AAu?$AAt?$AAe?$AA?$AA@ 00514a34     filetype.obj
 0002:00004a44       ??_C@_1CE@HDIBABGO@?$AAA?$AAs?$AAs?$AAo?$AAc?$AAi?$AAa?$AAt?$AAi?$AAo?$AAn?$AAs?$AA?2?$AAT?$AAy?$AAp?$AAe?$AA?$AA@ 00514a44     filetype.obj
 0002:00004a68       ??_C@_1CI@NCIKJHFK@?$AAA?$AAs?$AAs?$AAo?$AAc?$AAi?$AAa?$AAt?$AAi?$AAo?$AAn?$AAs?$AA?2?$AAT?$AAy?$AAp?$AAe?$AA?$CF?$AAd?$AA?$AA@ 00514a68     filetype.obj
 0002:00004a90       ??_C@_1BK@LNMKDKNA@?$AAA?$AAs?$AAs?$AAo?$AAc?$AAi?$AAa?$AAt?$AAi?$AAo?$AAn?$AAs?$AA?$AA@ 00514a90     filetype.obj
 0002:00004aac       ??_C@_1M@LAGHHMEN@?$AAS?$AAt?$AAa?$AAt?$AAe?$AA?$AA@ 00514aac     filetype.obj
 0002:00004ab8       ??_C@_1CA@JGKIIIBK@?$AAF?$AAi?$AAl?$AAe?$AAA?$AAs?$AAs?$AAo?$AAc?$AAM?$AAo?$AAd?$AAi?$AAf?$AAy?$AA?$AA@ 00514ab8     filetype.obj
 0002:00004ad8       ??_C@_1BE@IMHCIABC@?$AAF?$AAi?$AAl?$AAe?$AAA?$AAs?$AAs?$AAo?$AAc?$AA?$AA@ 00514ad8     filetype.obj
 0002:00004b24       ??_C@_1BG@NMANMBLM@?$AA?$CF?$AA?9?$AA?$CK?$AA?4?$AA?$CK?$AAs?$AA?5?$AA?$CF?$AAc?$AA?5?$AA?$AA@ 00514b24     filetype.obj
 0002:00004b3c       ??_C@_1CG@PBIFHOGO@?$AAA?$AAs?$AAs?$AAo?$AAc?$AAi?$AAa?$AAt?$AAi?$AAo?$AAn?$AAs?$AA?2?$AAT?$AAm?$AAp?$AA?$CF?$AAu?$AA?$AA@ 00514b3c     filetype.obj
 0002:00004b64       ??_C@_1O@EMCCPBMJ@?$AAV?$AAi?$AAe?$AAw?$AAe?$AAr?$AA?$AA@ 00514b64     fileview.obj
 0002:00004b78       ??_7FileViewer@@6B@        00514b78     fileview.obj
 0002:00004bec       ??_C@_1BG@MFKFGKCD@?$AA?$FL?$AAF?$AAi?$AAl?$AAe?$AAV?$AAi?$AAe?$AAw?$AA?$FN?$AA?$AA@ 00514bec     fileview.obj
 0002:00004c04       ??_C@_13IMODFHAA@?$AA?9?$AA?$AA@ 00514c04     fileview.obj
 0002:00004c08       ??_C@_1EO@LJOOMPFM@?$AA?$CF?$AA?9?$AA?$CK?$AAs?$AA?5?$AA?$CF?$AA5?$AAu?$AA?5?$AA?$CF?$AA1?$AA3?$AAI?$AA6?$AA4?$AAu?$AA?5?$AA?$CF?$AA7?$AA?4?$AA7?$AAs?$AA?5?$AA?$CF?$AA?9?$AA4?$AAI?$AA6?$AA4?$AAd?$AA?5?$AA?$CF@ 00514c08     fileview.obj
 0002:00004c58       ??_7?$DList@VUnicodeString@@@@6B@ 00514c58     findfile.obj
 0002:00004c60       ??_C@_1CC@MCBPPHM@?$AAF?$AAi?$AAn?$AAd?$AAF?$AAi?$AAl?$AAe?$AAA?$AAd?$AAv?$AAa?$AAn?$AAc?$AAe?$AAd?$AA?$AA@ 00514c60     findfile.obj
 0002:00004c84       ??_C@_15EFLNJKHH@?$AA?$CF?$AAu?$AA?$AA@ 00514c84     findfile.obj
 0002:00004c8c       ??_C@_1M@BDFAMJIL@?$AA?$CF?$AA3?$AAd?$AA?$CF?$AA?$CF?$AA?$AA@ 00514c8c     findfile.obj
 0002:00004c98       ??_C@_01BJJEKLCA@?$CC?$AA@ 00514c98     findfile.obj
 0002:00004c9c       ??_C@_15EDKKDMNP@?$AA?5?$AA?$CC?$AA?$AA@ 00514c9c     findfile.obj
 0002:00004ca4       ??_C@_15PCEAIKAA@?$AA?4?$AA?2?$AA?$AA@ 00514ca4     findfile.obj
 0002:00004cac       ??_C@_1BO@GKEKPJOB@?$AAF?$AAi?$AAn?$AAd?$AAF?$AAi?$AAl?$AAe?$AAR?$AAe?$AAs?$AAu?$AAl?$AAt?$AA?$AA@ 00514cac     findfile.obj
 0002:00004ccc       ??_C@_1BC@ILPDPGLH@?$AAF?$AAi?$AAn?$AAd?$AAF?$AAi?$AAl?$AAe?$AA?$AA@ 00514ccc     findfile.obj
 0002:00004ce0       ??_C@_1IK@IJKHKLIK@?$AAH?$AAH?$AA?5?$AAH?$AAH?$AA?5?$AAH?$AAH?$AA?5?$AAH?$AAH?$AA?5?$AAH?$AAH?$AA?5?$AAH?$AAH?$AA?5?$AAH?$AAH?$AA?5?$AAH?$AAH?$AA?5?$AAH?$AAH?$AA?5?$AAH?$AAH?$AA?5?$AAH?$AAH@ 00514ce0     findfile.obj
 0002:00004d6c       ??_C@_19JHEHLFPM@?$AA?2?$AA?$DP?$AA?$DP?$AA?2?$AA?$AA@ 00514d6c     flink.obj
 0002:00004d78       ??_C@_1CK@OANIPGMN@?$AAF?$AAi?$AAl?$AAe?$AAU?$AAp?$AAp?$AAe?$AAr?$AAT?$AAo?$AAL?$AAo?$AAw?$AAe?$AAr?$AAC?$AAa?$AAs?$AAe?$AA?$AA@ 00514d78     flmodes.obj
 0002:00004da4       ??_C@_1BM@HJEGFNBF@?$AAF?$AAi?$AAl?$AAe?$AAL?$AAo?$AAw?$AAe?$AAr?$AAC?$AAa?$AAs?$AAe?$AA?$AA@ 00514da4     flmodes.obj
 0002:00004dc0       ??_C@_1CA@KKNJCNHF@?$AAF?$AAo?$AAl?$AAd?$AAe?$AAr?$AAU?$AAp?$AAp?$AAe?$AAr?$AAC?$AAa?$AAs?$AAe?$AA?$AA@ 00514dc0     flmodes.obj
 0002:00004de0       ??_C@_1CM@MALAHDNO@?$AAF?$AAo?$AAl?$AAd?$AAe?$AAr?$AAA?$AAl?$AAi?$AAg?$AAn?$AAE?$AAx?$AAt?$AAe?$AAn?$AAs?$AAi?$AAo?$AAn?$AAs?$AA?$AA@ 00514de0     flmodes.obj
 0002:00004e0c       ??_C@_1CA@FFDAALK@?$AAA?$AAl?$AAi?$AAg?$AAn?$AAE?$AAx?$AAt?$AAe?$AAn?$AAs?$AAi?$AAo?$AAn?$AAs?$AA?$AA@ 00514e0c     flmodes.obj
 0002:00004e2c       ??_C@_1BG@IDKBOGHH@?$AAF?$AAu?$AAl?$AAl?$AAS?$AAc?$AAr?$AAe?$AAe?$AAn?$AA?$AA@ 00514e2c     flmodes.obj
 0002:00004e44       ??_C@_1CG@NCCICMEA@?$AAS?$AAt?$AAa?$AAt?$AAu?$AAs?$AAC?$AAo?$AAl?$AAu?$AAm?$AAn?$AAW?$AAi?$AAd?$AAt?$AAh?$AAs?$AA?$AA@ 00514e44     flmodes.obj
 0002:00004e6c       ??_C@_1BM@JOLAKIF@?$AAS?$AAt?$AAa?$AAt?$AAu?$AAs?$AAC?$AAo?$AAl?$AAu?$AAm?$AAn?$AAs?$AA?$AA@ 00514e6c     flmodes.obj
 0002:00004e88       ??_C@_1BK@IJFPLJEF@?$AAC?$AAo?$AAl?$AAu?$AAm?$AAn?$AAW?$AAi?$AAd?$AAt?$AAh?$AAs?$AA?$AA@ 00514e88     flmodes.obj
 0002:00004ea4       ??_C@_1BA@PDBJHGBK@?$AAC?$AAo?$AAl?$AAu?$AAm?$AAn?$AAs?$AA?$AA@ 00514ea4     flmodes.obj
 0002:00004eb4       ??_C@_1CO@JNMJCLAG@?$AAP?$AAa?$AAn?$AAe?$AAl?$AA?2?$AAV?$AAi?$AAe?$AAw?$AAM?$AAo?$AAd?$AAe?$AAs?$AA?2?$AAM?$AAo?$AAd?$AAe?$AA?$CF?$AAd?$AA?$AA@ 00514eb4     flmodes.obj
 0002:00004ee4       ??_C@_1BO@CBMBHKG@?$AAP?$AAa?$AAn?$AAe?$AAl?$AAV?$AAi?$AAe?$AAw?$AAM?$AAo?$AAd?$AAe?$AAs?$AA?$AA@ 00514ee4     flmodes.obj
 0002:00004f04       ??_C@_17JLFEDMMI@?$AA?$DP?$AA?$DP?$AA?$DP?$AA?$AA@ 00514f04     flshow.obj
 0002:00004f0c       ??_C@_1CM@BFLCEEPM@?$AA?5?$AA?$CF?$AAs?$AA?5?$AA?$CF?$AAs?$AA?5?$AA?$CI?$AA?$CF?$AAd?$AA?$CJ?$AA?5?$AA?$CF?$AAs?$AA?5?$AA?$CF?$AAs?$AA?5?$AA?$CF?$AAs?$AA?5?$AA?$AA@ 00514f0c     flshow.obj
 0002:00004f38       ??_C@_1CA@MIOKHPCL@?$AA?5?$AA?$CF?$AAs?$AA?5?$AA?$CI?$AA?$CF?$AAd?$AA?$CJ?$AA?5?$AA?$CF?$AAs?$AA?5?$AA?$CF?$AAs?$AA?5?$AA?$AA@ 00514f38     flshow.obj
 0002:00004f58       ??_C@_15OJKDPEFE@?$AA?5?$AA?5?$AA?$AA@ 00514f58     flshow.obj
 0002:00004f60       ??_C@_15PHEDKMPL@?$CC?$BK?$AA?5?$AA?$AA@ 00514f60     flshow.obj
 0002:00004f68       ??_C@_17EHJBNGBB@?$AA?5?$AA?3?$AA?2?$AA?$AA@ 00514f68     flupdate.obj
 0002:00004f70       ??_C@_15CKIFGADI@?$AA?$CB?$AA?$DP?$AA?$AA@ 00514f70     fnparce.obj
 0002:00004f78       ??_C@_17OPLEOJEF@?$AA?$CB?$AA?$DN?$AA?1?$AA?$AA@ 00514f78     fnparce.obj
 0002:00004f80       ??_C@_15HKJMDHKH@?$AA?$CB?$AA?1?$AA?$AA@ 00514f80     fnparce.obj
 0002:00004f88       ??_C@_17JGDOOGDH@?$AA?$CB?$AA?$DN?$AA?2?$AA?$AA@ 00514f88     fnparce.obj
 0002:00004f90       ??_C@_15DBGDINF@?$AA?$CB?$AA?2?$AA?$AA@ 00514f90     fnparce.obj
 0002:00004f98       ??_C@_15BNFLJAAK@?$AA?$CB?$AA?3?$AA?$AA@ 00514f98     fnparce.obj
 0002:00004fa0       ??_C@_17NKOEHPPA@?$AA?$CB?$AA?$CL?$AA?$CB?$AA?$AA@ 00514fa0     fnparce.obj
 0002:00004fa8       ??_C@_17MLNJMON@?$AA?$CB?$AA?9?$AA?$CB?$AA?$AA@ 00514fa8     fnparce.obj
 0002:00004fb0       ??_C@_15KNJNLAKG@?$AA?$CB?$AA$?$AA?$AA@ 00514fb0     fnparce.obj
 0002:00004fb8       ??_C@_15BJNJNAPC@?$AA?$CB?$AA?$EA?$AA?$AA@ 00514fb8     fnparce.obj
 0002:00004fc0       ??_C@_15HJEHICN@?$AA?$CB?$AA?$CG?$AA?$AA@ 00514fc0     fnparce.obj
 0002:00004fc8       ??_C@_17PFBEHDNK@?$AA?$CB?$AA?$CG?$AA?$HO?$AA?$AA@ 00514fc8     fnparce.obj
 0002:00004fd0       ??_C@_15LJOLHPMM@?$AA?$CB?$AA?$GA?$AA?$AA@ 00514fd0     fnparce.obj
 0002:00004fd8       ??_C@_15JCNFPGA@?$AA?$CB?$AA?$HO?$AA?$AA@ 00514fd8     fnparce.obj
 0002:00004fe0       ??_C@_17IKCJOOED@?$AA?$CB?$AA?4?$AA?$CB?$AA?$AA@ 00514fe0     fnparce.obj
 0002:00004fe8       ??_C@_13MGDFOILI@?$AA?$CB?$AA?$AA@ 00514fe8     fnparce.obj
 0002:00004fec       ??_C@_15JKEDEAJE@?$AA?$CB?$AA?$CB?$AA?$AA@ 00514fec     fnparce.obj
 0002:00004ff4       ??_C@_15KJBPPAFO@?$AA?$CB?$AA?$FO?$AA?$AA@ 00514ff4     fnparce.obj
 0002:00004ffc       ??_C@_15DAEKIIBP@?$AA?$CB?$AA?$CD?$AA?$AA@ 00514ffc     fnparce.obj
 0002:00005004       ??_C@_1BE@IFFKCDJD@?$AAU?$AAs?$AAe?$AAr?$AAV?$AAa?$AAr?$AA?$CF?$AAd?$AA?$AA@ 00515004     fnparce.obj
 0002:00005018       ??_7FolderTree@@6B@        00515018     foldtree.obj
 0002:0000508c       ??_C@_1BK@PNJDJKDF@?$AA?$FL?$AAF?$AAo?$AAl?$AAd?$AAe?$AAr?$AAT?$AAr?$AAe?$AAe?$AA?$FN?$AA?$AA@ 0051508c     foldtree.obj
 0002:000050a8       ??_C@_1BG@MOIPMCBH@?$AAF?$AAi?$AAn?$AAd?$AAF?$AAo?$AAl?$AAd?$AAe?$AAr?$AA?$AA@ 005150a8     foldtree.obj
 0002:000050c0       ??_7Frame@@6B@             005150c0     frame.obj
 0002:00005134       ??_C@_1BG@HLEJBBHD@?$AA?$FL?$AAF?$AAa?$AAr?$AAM?$AAo?$AAd?$AAa?$AAl?$AA?$FN?$AA?$AA@ 00515134     frame.obj
 0002:0000514c       ??_C@_1O@IMCHBLGK@?$AA?$DM?$AA?$CF?$AAs?$AA?$DO?$AA?$CF?$AAs?$AA?$AA@ 0051514c     global.obj
 0002:0000515c       ??_C@_1M@EFMNOFJK@?$AA?$CK?$AA?4?$AAh?$AAl?$AAf?$AA?$AA@ 0051515c     global.obj
 0002:00005168       ??_C@_0HE@BOHAPPLN@?W?$LG?D?d?$KJ?H?$KG?G?$KA?E?$LH?$JL?$LL?M?$KI?Z?$KJ?$MA?$KP?A?a?S?$PN?M?m?E?$KH?R?$LL?W?$LD?$JD@ 00515168     global.obj
 0002:000051dc       ?FAR_VERSION@@3KB          005151dc     global.obj
 0002:000051e0       ?constMsX@@3QB_WB          005151e0     global.obj
 0002:000051e8       ?constMsY@@3QB_WB          005151e8     global.obj
 0002:000051f0       ?constMsButton@@3QB_WB     005151f0     global.obj
 0002:00005204       ?constMsCtrlState@@3QB_WB  00515204     global.obj
 0002:0000521c       ?constMsEventFlags@@3QB_WB 0051521c     global.obj
 0002:00005238       ?constRCounter@@3QB_WB     00515238     global.obj
 0002:0000524c       ??_7FormatScreen@@6B@      0051524c     global.obj
 0002:00005250       ??_7Modal@@6B@             00515250     grabber.obj
 0002:000052d0       ??_7Grabber@@6B@           005152d0     grabber.obj
 0002:00005350       ??_C@_1M@HLFLGBMD@?$AA?3?$AAH?$AAe?$AAl?$AAp?$AA?$AA@ 00515350     help.obj
 0002:0000535c       ??_C@_1CG@CPFAIKIH@?$AA_?$AA_?$AAP?$AAl?$AAu?$AAg?$AAi?$AAn?$AAC?$AAo?$AAn?$AAt?$AAe?$AAn?$AAt?$AAs?$AA_?$AA_?$AA?$AA@ 0051535c     help.obj
 0002:00005384       ??_C@_15HNICCJBE@?$AA?$CD?$AA?$CD?$AA?$AA@ 00515384     help.obj
 0002:0000538c       ??_C@_15PEPFOFEC@?$AA?$HO?$AA?$HO?$AA?$AA@ 0051538c     help.obj
 0002:00005394       ??_C@_1CI@GLDAKAIE@?$AA?2?$AAs?$AAh?$AAe?$AAl?$AAl?$AA?2?$AAo?$AAp?$AAe?$AAn?$AA?2?$AAc?$AAo?$AAm?$AAm?$AAa?$AAn?$AAd?$AA?$AA@ 00515394     help.obj
 0002:000053bc       ??_C@_17NACPPFBM@?$AAF?$AAA?$AAR?$AA?$AA@ 005153bc     help.obj
 0002:000053c4       ??_C@_17HIKLPLBG@?$AA?5?$AA?9?$AA?5?$AA?$AA@ 005153c4     help.obj
 0002:000053cc       ??_C@_1O@PACIGIID@?$AA?$FO?$AA?5?$AA?$CD?$AA?$CF?$AAs?$AA?$CD?$AA?$AA@ 005153cc     help.obj
 0002:000053dc       ??_C@_1CC@LCEAOAJD@?$AA?5?$AA?5?$AA?5?$AA?$HO?$AA?$CF?$AAs?$AA?$HO?$AA?$EA?$AA?$DM?$AA?$CF?$AAs?$AA?2?$AA?$DO?$AA?$CF?$AAs?$AA?$EA?$AA?$AA@ 005153dc     help.obj
 0002:00005400       ??_C@_1CI@MPBCBIME@?$AA?5?$AA?5?$AA?5?$AA?$HO?$AA?$CF?$AAs?$AA?0?$AA?$CF?$AAs?$AA?$HO?$AA?$EA?$AA?$DM?$AA?$CF?$AAs?$AA?2?$AA?$DO?$AA?$CF?$AAs?$AA?$EA?$AA?$AA@ 00515400     help.obj
 0002:00005428       ??_C@_1BO@EENCCOFN@?$AAP?$AAl?$AAu?$AAg?$AAi?$AAn?$AAC?$AAo?$AAn?$AAt?$AAe?$AAn?$AAt?$AAs?$AA?$AA@ 00515428     help.obj
 0002:00005448       ??_C@_1BC@LJIKGMGF@?$AA?$DM?$AA?$CB?$AAM?$AAa?$AAc?$AAr?$AAo?$AA?3?$AA?$AA@ 00515448     help.obj
 0002:0000545c       ??_C@_15BDDNCDND@?$AA?$EA?$AA?9?$AA?$AA@ 0051545c     help.obj
 0002:00005464       ??_C@_15DGFGHMAP@?$AA?$EA?$AA?$CL?$AA?$AA@ 00515464     help.obj
 0002:0000546c       ??_C@_1BG@HICMFGIH@?$AA?5?$AA?$CD?$AA?$CF?$AA?9?$AA?$CK?$AA?4?$AA?$CK?$AAs?$AA?$CD?$AA?5?$AA?$AA@ 0051546c     help.obj
 0002:00005484       ??_C@_13EFKPHINO@?$AA?$EA?$AA?$AA@ 00515484     help.obj
 0002:00005488       ??_C@_15NKHBAMAN@?$AA?$EA?$AA?$EA?$AA?$AA@ 00515488     help.obj
 0002:00005490       ??_C@_13GMDMCADD@?$AA?$CD?$AA?$AA@ 00515490     help.obj
 0002:00005494       ??_C@_1CC@DCAMAEFP@?$AAC?$AAt?$AAr?$AAl?$AAS?$AAt?$AAa?$AAr?$AAt?$AAP?$AAo?$AAs?$AAC?$AAh?$AAa?$AAr?$AA?$AA@ 00515494     help.obj
 0002:000054b8       ??_C@_1BM@HBCNCJOG@?$AAC?$AAt?$AAr?$AAl?$AAC?$AAo?$AAl?$AAo?$AAr?$AAC?$AAh?$AAa?$AAr?$AA?$AA@ 005154b8     help.obj
 0002:000054d4       ??_C@_19CPJEHIBK@?$AA?4?$AAh?$AAl?$AAf?$AA?$AA@ 005154d4     help.obj
 0002:000054e0       ??_7Help@@6B@              005154e0     help.obj
 0002:00005554       ??_C@_1O@PCNHBHDI@?$AA?$FL?$AAH?$AAe?$AAl?$AAp?$AA?$FN?$AA?$AA@ 00515554     help.obj
 0002:00005564       ??_C@_1BM@GJKHIIIM@?$AAH?$AAi?$AAg?$AAh?$AAl?$AAi?$AAg?$AAh?$AAt?$AAL?$AAi?$AAs?$AAt?$AA?$AA@ 00515564     hilight.obj
 0002:00005580       ??_C@_1BK@HCMDMHAJ@?$AAD?$AAa?$AAt?$AAe?$AAR?$AAe?$AAl?$AAa?$AAt?$AAi?$AAv?$AAe?$AA?$AA@ 00515580     hilight.obj
 0002:0000559c       ??_C@_1CG@IFLKONJI@?$AAC?$AAo?$AAn?$AAt?$AAi?$AAn?$AAu?$AAe?$AAP?$AAr?$AAo?$AAc?$AAe?$AAs?$AAs?$AAi?$AAn?$AAg?$AA?$AA@ 0051559c     hilight.obj
 0002:000055c4       ??_C@_1BC@GADHJPIE@?$AAM?$AAa?$AAr?$AAk?$AAC?$AAh?$AAa?$AAr?$AA?$AA@ 005155c4     hilight.obj
 0002:000055d8       ??_C@_1DI@DEFPGBFL@?$AAM?$AAa?$AAr?$AAk?$AAC?$AAh?$AAa?$AAr?$AAS?$AAe?$AAl?$AAe?$AAc?$AAt?$AAe?$AAd?$AAC?$AAu?$AAr?$AAs?$AAo?$AAr?$AAC?$AAo?$AAl?$AAo?$AAr?$AA?$AA@ 005155d8     hilight.obj
 0002:00005610       ??_C@_1CI@MKBIOJGN@?$AAM?$AAa?$AAr?$AAk?$AAC?$AAh?$AAa?$AAr?$AAC?$AAu?$AAr?$AAs?$AAo?$AAr?$AAC?$AAo?$AAl?$AAo?$AAr?$AA?$AA@ 00515610     hilight.obj
 0002:00005638       ??_C@_1CM@MFJOGKO@?$AAM?$AAa?$AAr?$AAk?$AAC?$AAh?$AAa?$AAr?$AAS?$AAe?$AAl?$AAe?$AAc?$AAt?$AAe?$AAd?$AAC?$AAo?$AAl?$AAo?$AAr?$AA?$AA@ 00515638     hilight.obj
 0002:00005664       ??_C@_1CI@HEPHFKLM@?$AAM?$AAa?$AAr?$AAk?$AAC?$AAh?$AAa?$AAr?$AAN?$AAo?$AAr?$AAm?$AAa?$AAl?$AAC?$AAo?$AAl?$AAo?$AAr?$AA?$AA@ 00515664     hilight.obj
 0002:0000568c       ??_C@_1CI@CGPKLLLA@?$AAS?$AAe?$AAl?$AAe?$AAc?$AAt?$AAe?$AAd?$AAC?$AAu?$AAr?$AAs?$AAo?$AAr?$AAC?$AAo?$AAl?$AAo?$AAr?$AA?$AA@ 0051568c     hilight.obj
 0002:000056b4       ??_C@_1BI@MANKMJJN@?$AAC?$AAu?$AAr?$AAs?$AAo?$AAr?$AAC?$AAo?$AAl?$AAo?$AAr?$AA?$AA@ 005156b4     hilight.obj
 0002:000056cc       ??_C@_1BM@KLGLOKDL@?$AAS?$AAe?$AAl?$AAe?$AAc?$AAt?$AAe?$AAd?$AAC?$AAo?$AAl?$AAo?$AAr?$AA?$AA@ 005156cc     hilight.obj
 0002:000056e8       ??_C@_1BI@HODFHKEM@?$AAN?$AAo?$AAr?$AAm?$AAa?$AAl?$AAC?$AAo?$AAl?$AAo?$AAr?$AA?$AA@ 005156e8     hilight.obj
 0002:00005700       ??_C@_1BG@BJJKAGFK@?$AAI?$AAg?$AAn?$AAo?$AAr?$AAe?$AAM?$AAa?$AAs?$AAk?$AA?$AA@ 00515700     hilight.obj
 0002:00005718       ??_C@_1CE@JFOAJHME@?$AAE?$AAx?$AAc?$AAl?$AAu?$AAd?$AAe?$AAA?$AAt?$AAt?$AAr?$AAi?$AAb?$AAu?$AAt?$AAe?$AAs?$AA?$AA@ 00515718     hilight.obj
 0002:0000573c       ??_C@_1CE@CDKLIBGK@?$AAI?$AAn?$AAc?$AAl?$AAu?$AAd?$AAe?$AAA?$AAt?$AAt?$AAr?$AAi?$AAb?$AAu?$AAt?$AAe?$AAs?$AA?$AA@ 0051573c     hilight.obj
 0002:0000587c       ??_C@_1BG@KBCJMJBP@?$AA?$CF?$AAs?$AA?2?$AAG?$AAr?$AAo?$AAu?$AAp?$AA?$CF?$AAd?$AA?$AA@ 0051587c     hilight.obj
 0002:00005898       ??_C@_1EE@HLCPCAAI@?$AA?$CK?$AA?4?$AAe?$AAx?$AAe?$AA?0?$AA?$CK?$AA?4?$AAc?$AAo?$AAm?$AA?0?$AA?$CK?$AA?4?$AAb?$AAa?$AAt?$AA?0?$AA?$CK?$AA?4?$AAc?$AAm?$AAd?$AA?0?$AA?$CF?$AAP?$AAA?$AAT?$AAH?$AAE?$AAX?$AAT@ 00515898     hilight.obj
 0002:000058e0       ??_C@_1CGA@DCOPALLG@?$AA?$CK?$AA?4?$AAr?$AAa?$AAr?$AA?0?$AA?$CK?$AA?4?$AAz?$AAi?$AAp?$AA?0?$AA?$CK?$AA?4?$AA?$FL?$AAz?$AAj?$AA?$FN?$AA?0?$AA?$CK?$AA?4?$AA?$FL?$AAb?$AAg?$AA7?$AA?$FN?$AAz?$AA?0?$AA?$CK?$AA?4?$AA?$FL?$AAb@ 005158e0     hilight.obj
 0002:00005b40       ??_C@_1BI@NHHGEBDA@?$AA?$CK?$AA?4?$AAb?$AAa?$AAk?$AA?0?$AA?$CK?$AA?4?$AAt?$AAm?$AAp?$AA?$AA@ 00515b40     hilight.obj
 0002:00005b58       ??_C@_1O@BONMIHBA@?$AA?$CK?$AA?4?$AA?$CK?$AA?$HM?$AA?4?$AA?4?$AA?$AA@ 00515b58     hilight.obj
 0002:00005b68       ??_7?$DList@UHistoryRecord@@@@6B@ 00515b68     history.obj
 0002:00005b70       ??_C@_1M@HIGDMPEJ@?$AAL?$AAi?$AAn?$AAe?$AAs?$AA?$AA@ 00515b70     history.obj
 0002:00005b7c       ??_C@_1BC@IKMJJFLN@?$AAP?$AAo?$AAs?$AAi?$AAt?$AAi?$AAo?$AAn?$AA?$AA@ 00515b7c     history.obj
 0002:00005b90       ??_C@_1M@PMPIFDKI@?$AAT?$AAi?$AAm?$AAe?$AAs?$AA?$AA@ 00515b90     history.obj
 0002:00005b9c       ??_C@_1M@NEHCMLKP@?$AAL?$AAo?$AAc?$AAk?$AAs?$AA?$AA@ 00515b9c     history.obj
 0002:00005ba8       ??_C@_1M@DMOIPGLK@?$AAT?$AAy?$AAp?$AAe?$AAs?$AA?$AA@ 00515ba8     history.obj
 0002:00005bb4       ??_C@_13FLOCNAAB@?$AA?$CG?$AA?$AA@ 00515bb4     history.obj
 0002:00005bb8       ??_C@_15BKJBEIJF@?$AA?$CG?$AA?$CG?$AA?$AA@ 00515bb8     history.obj
 0002:00005bc0       ??_7HMenu@@6B@             00515bc0     hmenu.obj
 0002:00005c40       _GUID_DEVINTERFACE_VOLUME  00515c40     hotplug.obj
 0002:00005c50       ??_C@_1BA@HFFJGMKH@?$AA?2?$AA?2?$AA?$DP?$AA?2?$AAA?$AA?3?$AA?2?$AA?$AA@ 00515c50     hotplug.obj
 0002:00005c60       ??_C@_1BI@KNAJNEHD@?$AAH?$AAo?$AAt?$AAP?$AAl?$AAu?$AAg?$AAL?$AAi?$AAs?$AAt?$AA?$AA@ 00515c60     hotplug.obj
 0002:00005c78       ??_C@_0BC@NANMELMO@DetachVirtualDisk?$AA@ 00515c78     imports.obj
 0002:00005c8c       ??_C@_0BA@GDGPGNKA@OpenVirtualDisk?$AA@ 00515c8c     imports.obj
 0002:00005c9c       ??_C@_0CA@KEOKPIOG@GetStorageDependencyInformation?$AA@ 00515c9c     imports.obj
 0002:00005cbc       ??_C@_0CA@KCOJNDBD@SHCreateAssociationRegistration?$AA@ 00515cbc     imports.obj
 0002:00005cdc       ??_C@_0BG@NFNCIOML@RtlNtStatusToDosError?$AA@ 00515cdc     imports.obj
 0002:00005cf4       ??_C@_0BD@NMIIFJHG@RtlGetLastNtStatus?$AA@ 00515cf4     imports.obj
 0002:00005d08       ??_C@_07EGJLEIEB@NtClose?$AA@ 00515d08     imports.obj
 0002:00005d10       ??_C@_0BK@FFOGOCND@NtQuerySymbolicLinkObject?$AA@ 00515d10     imports.obj
 0002:00005d2c       ??_C@_0BJ@NAAOCCIC@NtOpenSymbolicLinkObject?$AA@ 00515d2c     imports.obj
 0002:00005d48       ??_C@_0O@IFMDHOMC@NtQueryObject?$AA@ 00515d48     imports.obj
 0002:00005d58       ??_C@_0BF@HIJKNMCB@NtSetInformationFile?$AA@ 00515d58     imports.obj
 0002:00005d70       ??_C@_0BH@DLPGICA@NtQueryInformationFile?$AA@ 00515d70     imports.obj
 0002:00005d88       ??_C@_0BF@CKLGLOIH@NtQueryDirectoryFile?$AA@ 00515d88     imports.obj
 0002:00005da0       ??_C@_0BM@BMOIDHE@GetNamedPipeServerProcessId?$AA@ 00515da0     imports.obj
 0002:00005dbc       ??_C@_0P@LKABJJMO@IsWow64Process?$AA@ 00515dbc     imports.obj
 0002:00005dcc       ??_C@_0BD@GBODGBFL@HeapSetInformation?$AA@ 00515dcc     imports.obj
 0002:00005de0       ??_C@_0CD@DIBFGLD@GetPhysicallyInstalledSystemMemo@ 00515de0     imports.obj
 0002:00005e04       ??_C@_0CB@HLMEKGLC@GetVolumePathNamesForVolumeNameW@ 00515e04     imports.obj
 0002:00005e28       ??_C@_0BK@PDKDDAF@GetFinalPathNameByHandleW?$AA@ 00515e28     imports.obj
 0002:00005e44       ??_C@_0BA@IBDCENBE@FindNextStreamW?$AA@ 00515e44     imports.obj
 0002:00005e54       ??_C@_0BB@EOFBAKLA@FindFirstStreamW?$AA@ 00515e54     imports.obj
 0002:00005e68       ??_C@_0BC@MEIACHKG@FindNextFileNameW?$AA@ 00515e68     imports.obj
 0002:00005e7c       ??_C@_0BD@OGFDEFBL@FindFirstFileNameW?$AA@ 00515e7c     imports.obj
 0002:00005e90       ??_C@_0BE@FKKLLFLM@CreateSymbolicLinkW?$AA@ 00515e90     imports.obj
 0002:00005ea4       ??_C@_0BO@KDJDCIBJ@GetConsoleKeyboardLayoutNameW?$AA@ 00515ea4     imports.obj
 0002:00005ec4       ??_C@_1BK@INIPBHEL@?$AAv?$AAi?$AAr?$AAt?$AAd?$AAi?$AAs?$AAk?$AA?4?$AAd?$AAl?$AAl?$AA?$AA@ 00515ec4     imports.obj
 0002:00005ee0       ??_C@_1BI@BNFKGMFK@?$AAs?$AAh?$AAe?$AAl?$AAl?$AA3?$AA2?$AA?4?$AAd?$AAl?$AAl?$AA?$AA@ 00515ee0     imports.obj
 0002:00005ef8       ??_C@_1BK@MGMFAEKH@?$AAk?$AAe?$AAr?$AAn?$AAe?$AAl?$AA3?$AA2?$AA?4?$AAd?$AAl?$AAl?$AA?$AA@ 00515ef8     imports.obj
 0002:00005f14       ??_C@_1BE@GJOFHIHD@?$AAn?$AAt?$AAd?$AAl?$AAl?$AA?4?$AAd?$AAl?$AAl?$AA?$AA@ 00515f14     imports.obj
 0002:00005f28       ??_7DizViewer@@6B@         00515f28     infolist.obj
 0002:00005f5c       ??_C@_19MPDKCIDK@?$AA?5?$AA?$CF?$AAs?$AA?5?$AA?$AA@ 00515f5c     infolist.obj
 0002:00005f68       ??_C@_19GFDACHI@?$AAI?$AAn?$AAf?$AAo?$AA?$AA@ 00515f68     infolist.obj
 0002:00005f78       ??_7InfoList@@6B@          00515f78     infolist.obj
 0002:000060dc       ??_C@_1BE@JNOHHNGM@?$AAI?$AAn?$AAf?$AAo?$AAP?$AAa?$AAn?$AAe?$AAl?$AA?$AA@ 005160dc     infolist.obj
 0002:000060f0       ??_C@_19CBCNDKNF@?$AA?$CF?$AAd?$AA?$CF?$AA?$CF?$AA?$AA@ 005160f0     infolist.obj
 0002:000060fc       ??_C@_1BE@LILHPPII@?$AA?$CF?$AA0?$AA4?$AAX?$AA?9?$AA?$CF?$AA0?$AA4?$AAX?$AA?$AA@ 005160fc     infolist.obj
 0002:00006110       ??_C@_15MOKMKFJM@?$AA?$CJ?$AA?5?$AA?$AA@ 00516110     infolist.obj
 0002:00006118       ??_C@_1BG@PHFKOFFM@?$AAB?$AAo?$AAx?$AAS?$AAy?$AAm?$AAb?$AAo?$AAl?$AAs?$AA?$AA@ 00516118     interf.obj
 0002:00006130       ??_C@_1BE@HOCBODIC@?$AA?$CF?$AA0?$AA2?$AAd?$AA?3?$AA?$CF?$AA0?$AA2?$AAd?$AA?$AA@ 00516130     interf.obj
 0002:00006144       ??_C@_1BE@EKPAFMCP@?$AAI?$AAn?$AAt?$AAe?$AAr?$AAf?$AAa?$AAc?$AAe?$AA?$AA@ 00516144     interf.obj
 0002:00006158       ??_C@_1BM@ONIPDHLB@?$AAK?$AAe?$AAy?$AAB?$AAa?$AAr?$AAL?$AAa?$AAb?$AAe?$AAl?$AAs?$AA?2?$AA?$AA@ 00516158     keybar.obj
 0002:00006174       ??_C@_17PLBFEBOA@?$AAO?$AAe?$AAm?$AA?$AA@ 00516174     keyboard.obj
 0002:0000617c       ??_C@_19MNEEDFAI@?$AAS?$AAP?$AAE?$AAC?$AA?$AA@ 0051617c     keyboard.obj
 0002:00006188       ??_C@_19JDKMPNFG@?$AAS?$AAp?$AAe?$AAc?$AA?$AA@ 00516188     keyboard.obj
 0002:00006194       ??_C@_17EDBPLAAH@?$AAA?$AAL?$AAT?$AA?$AA@ 00516194     keyboard.obj
 0002:0000619c       ??_C@_17OEIBBKAP@?$AAA?$AAl?$AAt?$AA?$AA@ 0051619c     keyboard.obj
 0002:000061a4       ??_C@_19HIFGFBGN@?$AAR?$AAA?$AAL?$AAT?$AA?$AA@ 005161a4     keyboard.obj
 0002:000061b0       ??_C@_19NPMIPLGF@?$AAR?$AAA?$AAl?$AAt?$AA?$AA@ 005161b0     keyboard.obj
 0002:000061bc       ??_C@_19CIBAJIGP@?$AAC?$AAT?$AAR?$AAL?$AA?$AA@ 005161bc     keyboard.obj
 0002:000061c8       ??_C@_19HGPIFADB@?$AAC?$AAt?$AAr?$AAl?$AA?$AA@ 005161c8     keyboard.obj
 0002:000061d4       ??_C@_1M@OJBOFOHK@?$AAS?$AAH?$AAI?$AAF?$AAT?$AA?$AA@ 005161d4     keyboard.obj
 0002:000061e0       ??_C@_1M@PIKLJFPE@?$AAS?$AAh?$AAi?$AAf?$AAt?$AA?$AA@ 005161e0     keyboard.obj
 0002:000061ec       ??_C@_1M@GAAPPCOF@?$AAR?$AAC?$AAT?$AAR?$AAL?$AA?$AA@ 005161ec     keyboard.obj
 0002:000061f8       ??_C@_1M@DOOHDKLL@?$AAR?$AAC?$AAt?$AAr?$AAl?$AA?$AA@ 005161f8     keyboard.obj
 0002:00006204       ??_C@_15NFBFFFHH@?$AAB?$AAS?$AA?$AA@ 00516204     keyboard.obj
 0002:0000620c       ??_C@_15NPKLCIOJ@?$AAF?$AA1?$AA?$AA@ 0051620c     keyboard.obj
 0002:00006214       ??_C@_15MNBOIHAH@?$AAF?$AA2?$AA?$AA@ 00516214     keyboard.obj
 0002:0000621c       ??_C@_15HFKCOAGC@?$AAF?$AA3?$AA?$AA@ 0051621c     keyboard.obj
 0002:00006224       ??_C@_15OIHFNINL@?$AAF?$AA4?$AA?$AA@ 00516224     keyboard.obj
 0002:0000622c       ??_C@_15FAMJLPLO@?$AAF?$AA5?$AA?$AA@ 0051622c     keyboard.obj
 0002:00006234       ??_C@_15ECHMBAFA@?$AAF?$AA6?$AA?$AA@ 00516234     keyboard.obj
 0002:0000623c       ??_C@_15PKMAHHDF@?$AAF?$AA7?$AA?$AA@ 0051623c     keyboard.obj
 0002:00006244       ??_C@_15KCKDGHGD@?$AAF?$AA8?$AA?$AA@ 00516244     keyboard.obj
 0002:0000624c       ??_C@_15BKBPAAAG@?$AAF?$AA9?$AA?$AA@ 0051624c     keyboard.obj
 0002:00006254       ??_C@_15NJHDMILK@?$AAU?$AAP?$AA?$AA@ 00516254     keyboard.obj
 0002:0000625c       ??_C@_15HJEBGHIE@?$AAU?$AAp?$AA?$AA@ 0051625c     keyboard.obj
 0002:00006264       ??_C@_17PPFFGFPF@?$AAA?$AAD?$AAD?$AA?$AA@ 00516264     keyboard.obj
 0002:0000626c       ??_C@_17FIMLMPPN@?$AAA?$AAd?$AAd?$AA?$AA@ 0051626c     keyboard.obj
 0002:00006274       ??_C@_17LJFNJANL@?$AAD?$AAE?$AAL?$AA?$AA@ 00516274     keyboard.obj
 0002:0000627c       ??_C@_17BOMDDKND@?$AAD?$AAe?$AAl?$AA?$AA@ 0051627c     keyboard.obj
 0002:00006284       ??_C@_17NKIEEIGJ@?$AAE?$AAN?$AAD?$AA?$AA@ 00516284     keyboard.obj
 0002:0000628c       ??_C@_17HNBKOCGB@?$AAE?$AAn?$AAd?$AA?$AA@ 0051628c     keyboard.obj
 0002:00006294       ??_C@_17PIBLGBJF@?$AAE?$AAS?$AAC?$AA?$AA@ 00516294     keyboard.obj
 0002:0000629c       ??_C@_17EDNECCKM@?$AAF?$AA2?$AA4?$AA?$AA@ 0051629c     keyboard.obj
 0002:000062a4       ??_C@_17NOADBKBF@?$AAF?$AA2?$AA3?$AA?$AA@ 005162a4     keyboard.obj
 0002:000062ac       ??_C@_17GGLPHNHA@?$AAF?$AA2?$AA2?$AA?$AA@ 005162ac     keyboard.obj
 0002:000062b4       ??_C@_17HEAKNCJO@?$AAF?$AA2?$AA1?$AA?$AA@ 005162b4     keyboard.obj
 0002:000062bc       ??_C@_17MMLGLFPL@?$AAF?$AA2?$AA0?$AA?$AA@ 005162bc     keyboard.obj
 0002:000062c4       ??_C@_17DHCKIINP@?$AAF?$AA1?$AA9?$AA?$AA@ 005162c4     keyboard.obj
 0002:000062cc       ??_C@_17IPJGOPLK@?$AAF?$AA1?$AA8?$AA?$AA@ 005162cc     keyboard.obj
 0002:000062d4       ??_C@_17NHPFPPOM@?$AAF?$AA1?$AA7?$AA?$AA@ 005162d4     keyboard.obj
 0002:000062dc       ??_C@_17GPEJJIIJ@?$AAF?$AA1?$AA6?$AA?$AA@ 005162dc     keyboard.obj
 0002:000062e4       ??_C@_17HNPMDHGH@?$AAF?$AA1?$AA5?$AA?$AA@ 005162e4     keyboard.obj
 0002:000062ec       ??_C@_17MFEAFAAC@?$AAF?$AA1?$AA4?$AA?$AA@ 005162ec     keyboard.obj
 0002:000062f4       ??_C@_17FIJHGILL@?$AAF?$AA1?$AA3?$AA?$AA@ 005162f4     keyboard.obj
 0002:000062fc       ??_C@_17OACLAPNO@?$AAF?$AA1?$AA2?$AA?$AA@ 005162fc     keyboard.obj
 0002:00006304       ??_C@_17PCJOKADA@?$AAF?$AA1?$AA1?$AA?$AA@ 00516304     keyboard.obj
 0002:0000630c       ??_C@_17EKCCMHFF@?$AAF?$AA1?$AA0?$AA?$AA@ 0051630c     keyboard.obj
 0002:00006314       ??_C@_17EAOFDCAA@?$AAI?$AAN?$AAS?$AA?$AA@ 00516314     keyboard.obj
 0002:0000631c       ??_C@_17OHHLJIAI@?$AAI?$AAn?$AAs?$AA?$AA@ 0051631c     keyboard.obj
 0002:00006324       ??_C@_17LOKIJENF@?$AAT?$AAA?$AAB?$AA?$AA@ 00516324     keyboard.obj
 0002:0000632c       ??_C@_17BJDGDONN@?$AAT?$AAa?$AAb?$AA?$AA@ 0051632c     keyboard.obj
 0002:00006334       ??_C@_19JEIMPONC@?$AAL?$AAW?$AAI?$AAN?$AA?$AA@ 00516334     keyboard.obj
 0002:00006340       ??_C@_19DDBCFENK@?$AAL?$AAW?$AAi?$AAn?$AA?$AA@ 00516340     keyboard.obj
 0002:0000634c       ??_C@_19MCCNLMCL@?$AAN?$AAU?$AAM?$AA0?$AA?$AA@ 0051634c     keyboard.obj
 0002:00006358       ??_C@_19DMPHNLEL@?$AAN?$AAu?$AAm?$AA0?$AA?$AA@ 00516358     keyboard.obj
 0002:00006364       ??_C@_19HKJBNLEO@?$AAN?$AAU?$AAM?$AA1?$AA?$AA@ 00516364     keyboard.obj
 0002:00006370       ??_C@_19IEELLMCO@?$AAN?$AAu?$AAm?$AA1?$AA?$AA@ 00516370     keyboard.obj
 0002:0000637c       ??_C@_19GICEHEKA@?$AAN?$AAU?$AAM?$AA2?$AA?$AA@ 0051637c     keyboard.obj
 0002:00006388       ??_C@_19JGPOBDMA@?$AAN?$AAu?$AAm?$AA2?$AA?$AA@ 00516388     keyboard.obj
 0002:00006394       ??_C@_19NAJIBDMF@?$AAN?$AAU?$AAM?$AA3?$AA?$AA@ 00516394     keyboard.obj
 0002:000063a0       ??_C@_19COECHEKF@?$AAN?$AAu?$AAm?$AA3?$AA?$AA@ 005163a0     keyboard.obj
 0002:000063ac       ??_C@_19ENEPCLHM@?$AAN?$AAU?$AAM?$AA4?$AA?$AA@ 005163ac     keyboard.obj
 0002:000063b8       ??_C@_19LDJFEMBM@?$AAN?$AAu?$AAm?$AA4?$AA?$AA@ 005163b8     keyboard.obj
 0002:000063c4       ??_C@_19PFPDEMBJ@?$AAN?$AAU?$AAM?$AA5?$AA?$AA@ 005163c4     keyboard.obj
 0002:000063d0       ??_C@_19LCJCLHJ@?$AAN?$AAu?$AAm?$AA5?$AA?$AA@ 005163d0     keyboard.obj
 0002:000063dc       ??_C@_19OHEGODPH@?$AAN?$AAU?$AAM?$AA6?$AA?$AA@ 005163dc     keyboard.obj
 0002:000063e8       ??_C@_19BJJMIEJH@?$AAN?$AAu?$AAm?$AA6?$AA?$AA@ 005163e8     keyboard.obj
 0002:000063f4       ??_C@_19FPPKIEJC@?$AAN?$AAU?$AAM?$AA7?$AA?$AA@ 005163f4     keyboard.obj
 0002:00006400       ??_C@_19KBCAODPC@?$AAN?$AAu?$AAm?$AA7?$AA?$AA@ 00516400     keyboard.obj
 0002:0000640c       ??_C@_19HJJJEME@?$AAN?$AAU?$AAM?$AA8?$AA?$AA@ 0051640c     keyboard.obj
 0002:00006418       ??_C@_19PJEDPDKE@?$AAN?$AAu?$AAm?$AA8?$AA?$AA@ 00516418     keyboard.obj
 0002:00006424       ??_C@_19LPCFPDKB@?$AAN?$AAU?$AAM?$AA9?$AA?$AA@ 00516424     keyboard.obj
 0002:00006430       ??_C@_19EBPPJEMB@?$AAN?$AAu?$AAm?$AA9?$AA?$AA@ 00516430     keyboard.obj
 0002:0000643c       ??_C@_19KNOLEPIJ@?$AAR?$AAW?$AAI?$AAN?$AA?$AA@ 0051643c     keyboard.obj
 0002:00006448       ??_C@_19KHFOFIB@?$AAR?$AAW?$AAi?$AAn?$AA?$AA@ 00516448     keyboard.obj
 0002:00006454       ??_C@_19ONBNKAGK@?$AAA?$AAP?$AAP?$AAS?$AA?$AA@ 00516454     keyboard.obj
 0002:00006460       ??_C@_19LDPFGIDE@?$AAA?$AAp?$AAp?$AAs?$AA?$AA@ 00516460     keyboard.obj
 0002:0000646c       ??_C@_19BBNJPHFD@?$AAD?$AAO?$AAW?$AAN?$AA?$AA@ 0051646c     keyboard.obj
 0002:00006478       ??_C@_19EPDBDPAN@?$AAD?$AAo?$AAw?$AAn?$AA?$AA@ 00516478     keyboard.obj
 0002:00006484       ??_C@_19HOKJLBCB@?$AAH?$AAO?$AAM?$AAE?$AA?$AA@ 00516484     keyboard.obj
 0002:00006490       ??_C@_19CAEBHJHP@?$AAH?$AAo?$AAm?$AAe?$AA?$AA@ 00516490     keyboard.obj
 0002:0000649c       ??_C@_19GEOAMNKK@?$AAL?$AAE?$AAF?$AAT?$AA?$AA@ 0051649c     keyboard.obj
 0002:000064a8       ??_C@_19DKAIAFPE@?$AAL?$AAe?$AAf?$AAt?$AA?$AA@ 005164a8     keyboard.obj
 0002:000064b4       ??_C@_19GJDLLNEB@?$AAP?$AAG?$AAD?$AAN?$AA?$AA@ 005164b4     keyboard.obj
 0002:000064c0       ??_C@_19DAHPHACJ@?$AAP?$AAg?$AAD?$AAn?$AA?$AA@ 005164c0     keyboard.obj
 0002:000064cc       ??_C@_19BBHHEMND@?$AAP?$AAG?$AAU?$AAP?$AA?$AA@ 005164cc     keyboard.obj
 0002:000064d8       ??_C@_19EIDDIBLL@?$AAP?$AAg?$AAU?$AAp?$AA?$AA@ 005164d8     keyboard.obj
 0002:000064e4       ??_C@_1M@MPPIMPG@?$AAB?$AAR?$AAE?$AAA?$AAK?$AA?$AA@ 005164e4     keyboard.obj
 0002:000064f0       ??_C@_1M@BNEKEHHI@?$AAB?$AAr?$AAe?$AAa?$AAk?$AA?$AA@ 005164f0     keyboard.obj
 0002:000064fc       ??_C@_1M@IDCMGJNH@?$AAC?$AAL?$AAE?$AAA?$AAR?$AA?$AA@ 005164fc     keyboard.obj
 0002:00006508       ??_C@_1M@JCJJKCFJ@?$AAC?$AAl?$AAe?$AAa?$AAr?$AA?$AA@ 00516508     keyboard.obj
 0002:00006514       ??_C@_1M@EDGEGPKJ@?$AAE?$AAN?$AAT?$AAE?$AAR?$AA?$AA@ 00516514     keyboard.obj
 0002:00006520       ??_C@_1M@FCNBKECH@?$AAE?$AAn?$AAt?$AAe?$AAr?$AA?$AA@ 00516520     keyboard.obj
 0002:0000652c       ??_C@_1M@PCDPCAPG@?$AAP?$AAA?$AAU?$AAS?$AAE?$AA?$AA@ 0051652c     keyboard.obj
 0002:00006538       ??_C@_1M@ODIKOLHI@?$AAP?$AAa?$AAu?$AAs?$AAe?$AA?$AA@ 00516538     keyboard.obj
 0002:00006544       ??_C@_1M@LCPJAKGJ@?$AAR?$AAI?$AAG?$AAH?$AAT?$AA?$AA@ 00516544     keyboard.obj
 0002:00006550       ??_C@_1M@KDEMMBOH@?$AAR?$AAi?$AAg?$AAh?$AAt?$AA?$AA@ 00516550     keyboard.obj
 0002:0000655c       ??_C@_1M@LGOKCFJK@?$AAS?$AAP?$AAA?$AAC?$AAE?$AA?$AA@ 0051655c     keyboard.obj
 0002:00006568       ??_C@_1M@KHFPOOBE@?$AAS?$AAp?$AAa?$AAc?$AAe?$AA?$AA@ 00516568     keyboard.obj
 0002:00006574       ??_C@_1O@EIHKDFAI@?$AAN?$AAU?$AAM?$AAD?$AAE?$AAL?$AA?$AA@ 00516574     keyboard.obj
 0002:00006584       ??_C@_1O@LIIIEHCI@?$AAN?$AAu?$AAm?$AAD?$AAe?$AAl?$AA?$AA@ 00516584     keyboard.obj
 0002:00006594       ??_C@_1O@GBEALMAP@?$AAD?$AAI?$AAV?$AAI?$AAD?$AAE?$AA?$AA@ 00516594     keyboard.obj
 0002:000065a4       ??_C@_1O@GIMEKMHJ@?$AAD?$AAi?$AAv?$AAi?$AAd?$AAe?$AA?$AA@ 005165a4     keyboard.obj
 0002:000065b4       ??_C@_1BA@LOIFGHGO@?$AAS?$AAT?$AAA?$AAN?$AAD?$AAB?$AAY?$AA?$AA@ 005165b4     keyboard.obj
 0002:000065c4       ??_C@_1BA@HKGFAPMA@?$AAS?$AAt?$AAa?$AAn?$AAd?$AAb?$AAy?$AA?$AA@ 005165c4     keyboard.obj
 0002:000065d4       ??_C@_1BA@KOBNDHFB@?$AAD?$AAE?$AAC?$AAI?$AAM?$AAA?$AAL?$AA?$AA@ 005165d4     keyboard.obj
 0002:000065e4       ??_C@_1BA@GKPNFPPP@?$AAD?$AAe?$AAc?$AAi?$AAm?$AAa?$AAl?$AA?$AA@ 005165e4     keyboard.obj
 0002:000065f4       ??_C@_1BA@KBDODHIE@?$AAN?$AAU?$AAM?$AAL?$AAO?$AAC?$AAK?$AA?$AA@ 005165f4     keyboard.obj
 0002:00006604       ??_C@_1BA@CKIDFMPK@?$AAN?$AAu?$AAm?$AAL?$AAo?$AAc?$AAk?$AA?$AA@ 00516604     keyboard.obj
 0002:00006614       ??_C@_1BC@DJNAEMHI@?$AAP?$AAR?$AAN?$AAT?$AAS?$AAC?$AAR?$AAN?$AA?$AA@ 00516614     keyboard.obj
 0002:00006628       ??_C@_1BC@KFFCFMHL@?$AAP?$AAr?$AAn?$AAt?$AAS?$AAc?$AAr?$AAn?$AA?$AA@ 00516628     keyboard.obj
 0002:0000663c       ??_C@_1BC@JFPFCJCL@?$AAC?$AAA?$AAP?$AAS?$AAL?$AAO?$AAC?$AAK?$AA?$AA@ 0051663c     keyboard.obj
 0002:00006650       ??_C@_1BC@JHHDJCI@?$AAC?$AAa?$AAp?$AAs?$AAL?$AAo?$AAc?$AAk?$AA?$AA@ 00516650     keyboard.obj
 0002:00006664       ??_C@_1BC@MOOFMIHH@?$AAM?$AAU?$AAL?$AAT?$AAI?$AAP?$AAL?$AAY?$AA?$AA@ 00516664     keyboard.obj
 0002:00006678       ??_C@_1BC@BNDKNLKE@?$AAM?$AAu?$AAl?$AAt?$AAi?$AAp?$AAl?$AAy?$AA?$AA@ 00516678     keyboard.obj
 0002:0000668c       ??_C@_1BC@LIEJJGLK@?$AAN?$AAU?$AAM?$AAE?$AAN?$AAT?$AAE?$AAR?$AA?$AA@ 0051668c     keyboard.obj
 0002:000066a0       ??_C@_1BC@HDKHFOJB@?$AAN?$AAu?$AAm?$AAE?$AAn?$AAt?$AAe?$AAr?$AA?$AA@ 005166a0     keyboard.obj
 0002:000066b4       ??_C@_1BC@FOJDPCME@?$AAS?$AAU?$AAB?$AAT?$AAR?$AAA?$AAC?$AAT?$AA?$AA@ 005166b4     keyboard.obj
 0002:000066c8       ??_C@_1BC@INEMOBBH@?$AAS?$AAu?$AAb?$AAt?$AAr?$AAa?$AAc?$AAt?$AA?$AA@ 005166c8     keyboard.obj
 0002:000066dc       ??_C@_1BC@PAMBKMDA@?$AAV?$AAO?$AAL?$AAU?$AAM?$AAE?$AAU?$AAP?$AA?$AA@ 005166dc     keyboard.obj
 0002:000066f0       ??_C@_1BC@CELCLKNF@?$AAV?$AAo?$AAl?$AAu?$AAm?$AAe?$AAU?$AAp?$AA?$AA@ 005166f0     keyboard.obj
 0002:00006704       ??_C@_1BC@MGEGAAIJ@?$AAM?$AAS?$AAR?$AAC?$AAL?$AAI?$AAC?$AAK?$AA?$AA@ 00516704     keyboard.obj
 0002:00006718       ??_C@_1BC@MAMMLAHK@?$AAM?$AAs?$AAR?$AAC?$AAl?$AAi?$AAc?$AAk?$AA?$AA@ 00516718     keyboard.obj
 0002:0000672c       ??_C@_1BC@GLGPGJGF@?$AAM?$AAS?$AAL?$AAC?$AAL?$AAI?$AAC?$AAK?$AA?$AA@ 0051672c     keyboard.obj
 0002:00006740       ??_C@_1BC@GNOFNJJG@?$AAM?$AAs?$AAL?$AAC?$AAl?$AAi?$AAc?$AAk?$AA?$AA@ 00516740     keyboard.obj
 0002:00006754       ??_C@_1BE@MNNIBKAJ@?$AAM?$AAS?$AAM?$AA3?$AAC?$AAL?$AAI?$AAC?$AAK?$AA?$AA@ 00516754     keyboard.obj
 0002:00006768       ??_C@_1BE@IBCLGJLH@?$AAM?$AAs?$AAM?$AA3?$AAC?$AAl?$AAi?$AAc?$AAk?$AA?$AA@ 00516768     keyboard.obj
 0002:0000677c       ??_C@_1BE@FANHPLHP@?$AAM?$AAS?$AAM?$AA2?$AAC?$AAL?$AAI?$AAC?$AAK?$AA?$AA@ 0051677c     keyboard.obj
 0002:00006790       ??_C@_1BE@BMCEIIMB@?$AAM?$AAs?$AAM?$AA2?$AAC?$AAl?$AAi?$AAc?$AAk?$AA?$AA@ 00516790     keyboard.obj
 0002:000067a4       ??_C@_1BE@CMLGNOKE@?$AAM?$AAS?$AAM?$AA1?$AAC?$AAL?$AAI?$AAC?$AAK?$AA?$AA@ 005167a4     keyboard.obj
 0002:000067b8       ??_C@_1BE@GAEFKNBK@?$AAM?$AAs?$AAM?$AA1?$AAC?$AAl?$AAi?$AAc?$AAk?$AA?$AA@ 005167b8     keyboard.obj
 0002:000067cc       ??_C@_1BE@KNBKFNFH@?$AAB?$AAA?$AAC?$AAK?$AAS?$AAL?$AAA?$AAS?$AAH?$AA?$AA@ 005167cc     keyboard.obj
 0002:000067e0       ??_C@_1BE@DLLCCNEM@?$AAB?$AAa?$AAc?$AAk?$AAS?$AAl?$AAa?$AAs?$AAh?$AA?$AA@ 005167e0     keyboard.obj
 0002:000067f4       ??_C@_1BE@CFNOONHB@?$AAM?$AAE?$AAD?$AAI?$AAA?$AAS?$AAT?$AAO?$AAP?$AA?$AA@ 005167f4     keyboard.obj
 0002:00006808       ??_C@_1BE@OEBKEFEC@?$AAM?$AAe?$AAd?$AAi?$AAa?$AAS?$AAt?$AAo?$AAp?$AA?$AA@ 00516808     keyboard.obj
 0002:0000681c       ??_C@_1BE@HDEEKHEF@?$AAM?$AAS?$AAW?$AAH?$AAE?$AAE?$AAL?$AAU?$AAP?$AA?$AA@ 0051681c     keyboard.obj
 0002:00006830       ??_C@_1BE@ONEOHCON@?$AAM?$AAs?$AAW?$AAh?$AAe?$AAe?$AAl?$AAU?$AAp?$AA?$AA@ 00516830     keyboard.obj
 0002:00006844       ??_C@_1BG@DNDNBFAJ@?$AAL?$AAA?$AAU?$AAN?$AAC?$AAH?$AAA?$AAP?$AAP?$AA1?$AA?$AA@ 00516844     keyboard.obj
 0002:0000685c       ??_C@_1BG@EGDHECAP@?$AAL?$AAa?$AAu?$AAn?$AAc?$AAh?$AAA?$AAp?$AAp?$AA1?$AA?$AA@ 0051685c     keyboard.obj
 0002:00006874       ??_C@_1BG@CPIILKOH@?$AAL?$AAA?$AAU?$AAN?$AAC?$AAH?$AAA?$AAP?$AAP?$AA2?$AA?$AA@ 00516874     keyboard.obj
 0002:0000688c       ??_C@_1BG@FEICONOB@?$AAL?$AAa?$AAu?$AAn?$AAc?$AAh?$AAA?$AAp?$AAp?$AA2?$AA?$AA@ 0051688c     keyboard.obj
 0002:000068a4       ??_C@_1BG@CKJMOPCA@?$AAL?$AAA?$AAU?$AAN?$AAC?$AAH?$AAM?$AAA?$AAI?$AAL?$AA?$AA@ 005168a4     keyboard.obj
 0002:000068bc       ??_C@_1BG@PBKEBHBI@?$AAL?$AAa?$AAu?$AAn?$AAc?$AAh?$AAM?$AAa?$AAi?$AAl?$AA?$AA@ 005168bc     keyboard.obj
 0002:000068d4       ??_C@_1BG@EJOPLNAC@?$AAS?$AAC?$AAR?$AAO?$AAL?$AAL?$AAL?$AAO?$AAC?$AAK?$AA?$AA@ 005168d4     keyboard.obj
 0002:000068ec       ??_C@_1BG@JCNHEFDK@?$AAS?$AAc?$AAr?$AAo?$AAl?$AAl?$AAL?$AAo?$AAc?$AAk?$AA?$AA@ 005168ec     keyboard.obj
 0002:00006904       ??_C@_1BG@EIKCJGKG@?$AAV?$AAO?$AAL?$AAU?$AAM?$AAE?$AAD?$AAO?$AAW?$AAN?$AA?$AA@ 00516904     keyboard.obj
 0002:0000691c       ??_C@_1BG@JDJKGOJO@?$AAV?$AAo?$AAl?$AAu?$AAm?$AAe?$AAD?$AAo?$AAw?$AAn?$AA?$AA@ 0051691c     keyboard.obj
 0002:00006934       ??_C@_1BG@IFJGFCA@?$AAV?$AAO?$AAL?$AAU?$AAM?$AAE?$AAM?$AAU?$AAT?$AAE?$AA?$AA@ 00516934     keyboard.obj
 0002:0000694c       ??_C@_1BG@NDGBJNBI@?$AAV?$AAo?$AAl?$AAu?$AAm?$AAe?$AAM?$AAu?$AAt?$AAe?$AA?$AA@ 0051694c     keyboard.obj
 0002:00006964       ??_C@_1BI@JMDNMGMB@?$AAB?$AAR?$AAO?$AAW?$AAS?$AAE?$AAR?$AAB?$AAA?$AAC?$AAK?$AA?$AA@ 00516964     keyboard.obj
 0002:0000697c       ??_C@_1BI@MPJKKMDK@?$AAB?$AAr?$AAo?$AAw?$AAs?$AAe?$AAr?$AAB?$AAa?$AAc?$AAk?$AA?$AA@ 0051697c     keyboard.obj
 0002:00006994       ??_C@_1BI@EEEAFCHJ@?$AAB?$AAR?$AAO?$AAW?$AAS?$AAE?$AAR?$AAH?$AAO?$AAM?$AAE?$AA?$AA@ 00516994     keyboard.obj
 0002:000069ac       ??_C@_1BI@BHOHDIIC@?$AAB?$AAr?$AAo?$AAw?$AAs?$AAe?$AAr?$AAH?$AAo?$AAm?$AAe?$AA?$AA@ 005169ac     keyboard.obj
 0002:000069c4       ??_C@_1BI@JANAADLN@?$AAB?$AAR?$AAO?$AAW?$AAS?$AAE?$AAR?$AAS?$AAT?$AAO?$AAP?$AA?$AA@ 005169c4     keyboard.obj
 0002:000069dc       ??_C@_1BI@MDHHGJEG@?$AAB?$AAr?$AAo?$AAw?$AAs?$AAe?$AAr?$AAS?$AAt?$AAo?$AAp?$AA?$AA@ 005169dc     keyboard.obj
 0002:000069f4       ??_C@_1BI@FPGKKNIE@?$AAM?$AAS?$AAW?$AAH?$AAE?$AAE?$AAL?$AAL?$AAE?$AAF?$AAT?$AA?$AA@ 005169f4     keyboard.obj
 0002:00006a0c       ??_C@_1BI@BGDBJHHE@?$AAM?$AAs?$AAW?$AAh?$AAe?$AAe?$AAl?$AAL?$AAe?$AAf?$AAt?$AA?$AA@ 00516a0c     keyboard.obj
 0002:00006a24       ??_C@_1BI@CKFDJHHN@?$AAM?$AAS?$AAW?$AAH?$AAE?$AAE?$AAL?$AAD?$AAO?$AAW?$AAN?$AA?$AA@ 00516a24     keyboard.obj
 0002:00006a3c       ??_C@_1BI@GDAIKNIN@?$AAM?$AAs?$AAW?$AAh?$AAe?$AAe?$AAl?$AAD?$AAo?$AAw?$AAn?$AA?$AA@ 00516a3c     keyboard.obj
 0002:00006a54       ??_C@_1BK@PEEMFJJH@?$AAM?$AAS?$AAW?$AAH?$AAE?$AAE?$AAL?$AAR?$AAI?$AAG?$AAH?$AAT?$AA?$AA@ 00516a54     keyboard.obj
 0002:00006a70       ??_C@_1BK@IGMOIHPN@?$AAM?$AAs?$AAW?$AAh?$AAe?$AAe?$AAl?$AAR?$AAi?$AAg?$AAh?$AAt?$AA?$AA@ 00516a70     keyboard.obj
 0002:00006a8c       ??_C@_1BM@IAFEOAAI@?$AAB?$AAR?$AAO?$AAW?$AAS?$AAE?$AAR?$AAS?$AAE?$AAA?$AAR?$AAC?$AAH?$AA?$AA@ 00516a8c     keyboard.obj
 0002:00006aa8       ??_C@_1BM@CAMJLPDA@?$AAB?$AAr?$AAo?$AAw?$AAs?$AAe?$AAr?$AAS?$AAe?$AAa?$AAr?$AAc?$AAh?$AA?$AA@ 00516aa8     keyboard.obj
 0002:00006ac4       ??_C@_1BO@EPCLMMJF@?$AAB?$AAR?$AAO?$AAW?$AAS?$AAE?$AAR?$AAF?$AAO?$AAR?$AAW?$AAA?$AAR?$AAD?$AA?$AA@ 00516ac4     keyboard.obj
 0002:00006ae4       ??_C@_1BO@DFCDDKI@?$AAB?$AAr?$AAo?$AAw?$AAs?$AAe?$AAr?$AAF?$AAo?$AAr?$AAw?$AAa?$AAr?$AAd?$AA?$AA@ 00516ae4     keyboard.obj
 0002:00006b04       ??_C@_1BO@EDPNBLDH@?$AAB?$AAR?$AAO?$AAW?$AAS?$AAE?$AAR?$AAR?$AAE?$AAF?$AAR?$AAE?$AAS?$AAH?$AA?$AA@ 00516b04     keyboard.obj
 0002:00006b24       ??_C@_1BO@PIEOEAK@?$AAB?$AAr?$AAo?$AAw?$AAs?$AAe?$AAr?$AAR?$AAe?$AAf?$AAr?$AAe?$AAs?$AAh?$AA?$AA@ 00516b24     keyboard.obj
 0002:00006b44       ??_C@_1BO@GLIGKGAF@?$AAM?$AAE?$AAD?$AAI?$AAA?$AAN?$AAE?$AAX?$AAT?$AAT?$AAR?$AAA?$AAC?$AAK?$AA?$AA@ 00516b44     keyboard.obj
 0002:00006b64       ??_C@_1BO@DCANKJLG@?$AAM?$AAe?$AAd?$AAi?$AAa?$AAN?$AAe?$AAx?$AAt?$AAT?$AAr?$AAa?$AAc?$AAk?$AA?$AA@ 00516b64     keyboard.obj
 0002:00006b84       ??_C@_1BO@DCHKFFFM@?$AAM?$AAE?$AAD?$AAI?$AAA?$AAP?$AAL?$AAA?$AAY?$AAP?$AAA?$AAU?$AAS?$AAE?$AA?$AA@ 00516b84     keyboard.obj
 0002:00006ba4       ??_C@_1BO@GLPBFKOP@?$AAM?$AAe?$AAd?$AAi?$AAa?$AAP?$AAl?$AAa?$AAy?$AAP?$AAa?$AAu?$AAs?$AAe?$AA?$AA@ 00516ba4     keyboard.obj
 0002:00006bc4       ??_C@_1BO@FDDGKIFB@?$AAM?$AAE?$AAD?$AAI?$AAA?$AAP?$AAR?$AAE?$AAV?$AAT?$AAR?$AAA?$AAC?$AAK?$AA?$AA@ 00516bc4     keyboard.obj
 0002:00006be4       ??_C@_1BO@KLNKHOC@?$AAM?$AAe?$AAd?$AAi?$AAa?$AAP?$AAr?$AAe?$AAv?$AAT?$AAr?$AAa?$AAc?$AAk?$AA?$AA@ 00516be4     keyboard.obj
 0002:00006c04       ??_C@_1CC@EEJBOMCF@?$AAB?$AAR?$AAO?$AAW?$AAS?$AAE?$AAR?$AAF?$AAA?$AAV?$AAO?$AAR?$AAI?$AAT?$AAE?$AAS?$AA?$AA@ 00516c04     keyboard.obj
 0002:00006c28       ??_C@_1CC@NOEBJNLI@?$AAB?$AAr?$AAo?$AAw?$AAs?$AAe?$AAr?$AAF?$AAa?$AAv?$AAo?$AAr?$AAi?$AAt?$AAe?$AAs?$AA?$AA@ 00516c28     keyboard.obj
 0002:00006c4c       ??_C@_1CE@BMIFDMHN@?$AAL?$AAA?$AAU?$AAN?$AAC?$AAH?$AAM?$AAE?$AAD?$AAI?$AAA?$AAS?$AAE?$AAL?$AAE?$AAC?$AAT?$AA?$AA@ 00516c4c     keyboard.obj
 0002:00006c70       ??_C@_1CE@OEHHKIAP@?$AAL?$AAa?$AAu?$AAn?$AAc?$AAh?$AAM?$AAe?$AAd?$AAi?$AAa?$AAS?$AAe?$AAl?$AAe?$AAc?$AAt?$AA?$AA@ 00516c70     keyboard.obj
 0002:00006c94       ??_C@_1CE@MFJJFCLI@?$AAC?$AAT?$AAR?$AAL?$AAA?$AAL?$AAT?$AAS?$AAH?$AAI?$AAF?$AAT?$AAP?$AAR?$AAE?$AAS?$AAS?$AA?$AA@ 00516c94     keyboard.obj
 0002:00006cb8       ??_C@_1CE@KIMIKKPD@?$AAC?$AAt?$AAr?$AAl?$AAA?$AAl?$AAt?$AAS?$AAh?$AAi?$AAf?$AAt?$AAP?$AAr?$AAe?$AAs?$AAs?$AA?$AA@ 00516cb8     keyboard.obj
 0002:00006cdc       ??_C@_1CI@NHPLAHDG@?$AAC?$AAT?$AAR?$AAL?$AAA?$AAL?$AAT?$AAS?$AAH?$AAI?$AAF?$AAT?$AAR?$AAE?$AAL?$AAE?$AAA?$AAS?$AAE?$AA?$AA@ 00516cdc     keyboard.obj
 0002:00006d04       ??_C@_1CI@BHAECBJK@?$AAC?$AAt?$AAr?$AAl?$AAA?$AAl?$AAt?$AAS?$AAh?$AAi?$AAf?$AAt?$AAR?$AAe?$AAl?$AAe?$AAa?$AAs?$AAe?$AA?$AA@ 00516d04     keyboard.obj
 0002:00006d2c       ??_C@_1CO@BHADELNO@?$AAR?$AAI?$AAG?$AAH?$AAT?$AAC?$AAT?$AAR?$AAL?$AAA?$AAL?$AAT?$AAS?$AAH?$AAI?$AAF?$AAT?$AAP?$AAR?$AAE?$AAS?$AAS?$AA?$AA@ 00516d2c     keyboard.obj
 0002:00006d5c       ??_C@_1CO@JLMFJPOI@?$AAR?$AAi?$AAg?$AAh?$AAt?$AAC?$AAt?$AAr?$AAl?$AAA?$AAl?$AAt?$AAS?$AAh?$AAi?$AAf?$AAt?$AAP?$AAr?$AAe?$AAs?$AAs?$AA?$AA@ 00516d5c     keyboard.obj
 0002:00006d8c       ??_C@_1DC@DJDCOGHO@?$AAR?$AAI?$AAG?$AAH?$AAT?$AAC?$AAT?$AAR?$AAL?$AAA?$AAL?$AAT?$AAS?$AAH?$AAI?$AAF?$AAT?$AAR?$AAE?$AAL?$AAE?$AAA?$AAS?$AAE?$AA?$AA@ 00516d8c     keyboard.obj
 0002:00006dc0       ??_C@_1DC@LIMCMJCE@?$AAR?$AAi?$AAg?$AAh?$AAt?$AAC?$AAt?$AAr?$AAl?$AAA?$AAl?$AAt?$AAS?$AAh?$AAi?$AAf?$AAt?$AAR?$AAe?$AAl?$AAe?$AAa?$AAs?$AAe?$AA?$AA@ 00516dc0     keyboard.obj
 0002:00006df4       ??_C@_1DA@FKJDDCGN@?$AAK?$AAe?$AAy?$AAb?$AAo?$AAa?$AAr?$AAd?$AA?5?$AAL?$AAa?$AAy?$AAo?$AAu?$AAt?$AA?2?$AAP?$AAr?$AAe?$AAl?$AAo?$AAa?$AAd?$AA?$AA@ 00516df4     keyboard.obj
 0002:00006e24       ??_C@_1BG@CDGPBHDF@?$AAo?$AAs?$AA2?$AAl?$AAi?$AAb?$AAp?$AAa?$AAt?$AAh?$AA?$AA@ 00516e24     keyboard.obj
 0002:00006e3c       ??_C@_1BA@OPOMNNJN@?$AAl?$AAi?$AAb?$AAp?$AAa?$AAt?$AAh?$AA?$AA@ 00516e3c     keyboard.obj
 0002:00006e4c       ??_C@_19JIFMCCAP@?$AAp?$AAa?$AAt?$AAh?$AA?$AA@ 00516e4c     keyboard.obj
 0002:00006e58       ??_C@_1CK@FFBPGAMN@?$AAV?$AAo?$AAl?$AAa?$AAt?$AAi?$AAl?$AAe?$AA?5?$AAE?$AAn?$AAv?$AAi?$AAr?$AAo?$AAn?$AAm?$AAe?$AAn?$AAt?$AA?$AA@ 00516e58     keyboard.obj
 0002:00006e84       ??_C@_1BI@GGNGIFIL@?$AAE?$AAn?$AAv?$AAi?$AAr?$AAo?$AAn?$AAm?$AAe?$AAn?$AAt?$AA?$AA@ 00516e84     keyboard.obj
 0002:00006ea0       ??_C@_1HK@NOOCIBKE@?$AAS?$AAY?$AAS?$AAT?$AAE?$AAM?$AA?2?$AAC?$AAu?$AAr?$AAr?$AAe?$AAn?$AAt?$AAC?$AAo?$AAn?$AAt?$AAr?$AAo?$AAl?$AAS?$AAe?$AAt?$AA?2?$AAC?$AAo?$AAn?$AAt?$AAr?$AAo?$AAl@ 00516ea0     keyboard.obj
 0002:00006f1c       ??_C@_1BA@MBBJMEGL@?$AAO?$AAe?$AAm?$AA?$CF?$AA0?$AA5?$AAd?$AA?$AA@ 00516f1c     keyboard.obj
 0002:00006f2c       ??_C@_1BC@KCNCEAKO@?$AAS?$AAp?$AAe?$AAc?$AA?$CF?$AA0?$AA5?$AAd?$AA?$AA@ 00516f2c     keyboard.obj
 0002:00006f40       ??_C@_1BA@NOHMBKON@?$AAA?$AAl?$AAt?$AA?$CF?$AA0?$AA5?$AAd?$AA?$AA@ 00516f40     keyboard.obj
 0002:00006f50       ??_C@_15HIPIDJLD@?$AA?$CI?$AA?$CJ?$AA?$AA@ 00516f50     keyboard.obj
 0002:00006f64       ??_C@_1BE@FJOONOOB@?$AA?$EA?$AAC?$AAo?$AAn?$AAt?$AAe?$AAn?$AAt?$AAs?$AA?$AA@ 00516f64     language.obj
 0002:00006f78       ??_C@_1BC@NOHFPOPA@?$AA?4?$AAO?$AAp?$AAt?$AAi?$AAo?$AAn?$AAs?$AA?$AA@ 00516f78     language.obj
 0002:00006f8c       ??_C@_1M@ILHOPKA@?$AAE?$AAr?$AAr?$AAo?$AAr?$AA?$AA@ 00516f8c     language.obj
 0002:00006f98       ??_C@_15FMBEJGOH@?$AAO?$AAk?$AA?$AA@ 00516f98     language.obj
 0002:00006fa0       ??_C@_19GFLFIMFC@?$AAQ?$AAu?$AAi?$AAt?$AA?$AA@ 00516fa0     language.obj
 0002:00006fac       ??_C@_1BG@LLLLILEH@?$AA?5?$AAn?$AAo?$AAt?$AA?5?$AAf?$AAo?$AAu?$AAn?$AAd?$AA?$AA@ 00516fac     language.obj
 0002:00006fc4       ??_C@_1BC@ELAAONAJ@?$AAM?$AAe?$AAs?$AAs?$AAa?$AAg?$AAe?$AA?5?$AA?$AA@ 00516fc4     language.obj
 0002:00006fd8       ??_C@_1CM@CNDLLJKE@?$AAI?$AAn?$AAc?$AAo?$AAr?$AAr?$AAe?$AAc?$AAt?$AA?5?$AAo?$AAr?$AA?5?$AAd?$AAa?$AAm?$AAa?$AAg?$AAe?$AAd?$AA?5?$AA?$AA@ 00516fd8     language.obj
 0002:00007004       ??_C@_00CNPNBAHC@?$AA@     00517004     language.obj
 0002:00007008       ??_C@_1M@CJFLPDED@?$AA?$CF?$AA?4?$AA4?$AA0?$AAs?$AA?$AA@ 00517008     language.obj
 0002:00007014       ??_C@_1CC@CDLKDEIK@?$AAD?$AAo?$AAc?$AAu?$AAm?$AAe?$AAn?$AAt?$AAC?$AAo?$AAn?$AAt?$AAe?$AAn?$AAt?$AAs?$AA?$AA@ 00517014     language.obj
 0002:00007038       ??_C@_1BC@KHBNKMMK@?$AAL?$AAa?$AAn?$AAg?$AAu?$AAa?$AAg?$AAe?$AA?$AA@ 00517038     language.obj
 0002:0000704c       ??_C@_15JJPIMNBO@?$AAr?$AAb?$AA?$AA@ 0051704c     language.obj
 0002:00007054       ?DOS_EOL_fmt@@3QB_WB       00517054     local.obj
 0002:0000705c       ?UNIX_EOL_fmt@@3QB_WB      0051705c     local.obj
 0002:00007060       ?MAC_EOL_fmt@@3QB_WB       00517060     local.obj
 0002:00007064       ?WIN_EOL_fmt@@3QB_WB       00517064     local.obj
 0002:0000706c       ??_C@_19DMACBGH@?$AAL?$AAC?$AAI?$AAD?$AA?$AA@ 0051706c     localOEM.obj
 0002:00007078       ??_C@_1BE@CGHHKGOM@?$AAS?$AA?$DN?$AAX?$AAl?$AAa?$AAt?$AA?$CI?$AAS?$AA?$CJ?$AA?$AA@ 00517078     macro.obj
 0002:0000708c       ??_C@_19EIOPMHKL@?$AAX?$AAL?$AAA?$AAT?$AA?$AA@ 0051708c     macro.obj
 0002:00007098       ??_C@_1DM@LNHIKAGM@?$AAN?$AA?$DN?$AAW?$AAi?$AAn?$AAd?$AAo?$AAw?$AA?4?$AAS?$AAc?$AAr?$AAo?$AAl?$AAl?$AA?$CI?$AAL?$AAi?$AAn?$AAe?$AAs?$AA?$FL?$AA?0?$AAA?$AAx?$AAi?$AAs?$AA?$FN?$AA?$CJ?$AA?$AA@ 00517098     macro.obj
 0002:000070d4       ??_C@_1BM@FKACHOFM@?$AAW?$AAI?$AAN?$AAD?$AAO?$AAW?$AA?4?$AAS?$AAC?$AAR?$AAO?$AAL?$AAL?$AA?$AA@ 005170d4     macro.obj
 0002:000070f0       ??_C@_1CG@FOBMHADF@?$AAV?$AA?$DN?$AAW?$AAa?$AAi?$AAt?$AAk?$AAe?$AAy?$AA?$CI?$AA?$FL?$AAN?$AA?0?$AA?$FL?$AAT?$AA?$FN?$AA?$FN?$AA?$CJ?$AA?$AA@ 005170f0     macro.obj
 0002:00007118       ??_C@_1BA@HKAADMCD@?$AAW?$AAA?$AAI?$AAT?$AAK?$AAE?$AAY?$AA?$AA@ 00517118     macro.obj
 0002:00007128       ??_C@_1BI@EGDHEDO@?$AAS?$AA?$DN?$AAU?$AAC?$AAa?$AAs?$AAe?$AA?$CI?$AAS?$AA1?$AA?$CJ?$AA?$AA@ 00517128     macro.obj
 0002:00007140       ??_C@_1M@JGJILIAK@?$AAU?$AAC?$AAA?$AAS?$AAE?$AA?$AA@ 00517140     macro.obj
 0002:0000714c       ??_C@_1BM@PGLKOALH@?$AAS?$AA?$DN?$AAT?$AAr?$AAi?$AAm?$AA?$CI?$AAS?$AA?$FL?$AA?0?$AAN?$AA?$FN?$AA?$CJ?$AA?$AA@ 0051714c     macro.obj
 0002:00007168       ??_C@_19PKKAJOEE@?$AAT?$AAR?$AAI?$AAM?$AA?$AA@ 00517168     macro.obj
 0002:00007174       ??_C@_1CA@FLCDGJIM@?$AAN?$AA?$DN?$AAt?$AAe?$AAs?$AAt?$AAf?$AAo?$AAl?$AAd?$AAe?$AAr?$AA?$CI?$AAS?$AA?$CJ?$AA?$AA@ 00517174     macro.obj
 0002:00007194       ??_C@_1BG@PIDAFCGA@?$AAT?$AAE?$AAS?$AAT?$AAF?$AAO?$AAL?$AAD?$AAE?$AAR?$AA?$AA@ 00517194     macro.obj
 0002:000071ac       ??_C@_1DG@EOKBCALK@?$AAS?$AA?$DN?$AAs?$AAu?$AAb?$AAs?$AAt?$AAr?$AA?$CI?$AAS?$AA?0?$AAs?$AAt?$AAa?$AAr?$AAt?$AA?$FL?$AA?0?$AAl?$AAe?$AAn?$AAg?$AAt?$AAh?$AA?$FN?$AA?$CJ?$AA?$AA@ 005171ac     macro.obj
 0002:000071e4       ??_C@_1O@GGALOLBC@?$AAS?$AAU?$AAB?$AAS?$AAT?$AAR?$AA?$AA@ 005171e4     macro.obj
 0002:000071f4       ??_C@_1BI@JDAJCBDL@?$AAS?$AA?$DN?$AAS?$AAt?$AAr?$AAi?$AAn?$AAg?$AA?$CI?$AAV?$AA?$CJ?$AA?$AA@ 005171f4     macro.obj
 0002:0000720c       ??_C@_1O@PCPBINCG@?$AAS?$AAT?$AAR?$AAI?$AAN?$AAG?$AA?$AA@ 0051720c     macro.obj
 0002:0000721c       ??_C@_1BG@HGLHMOAB@?$AAN?$AA?$DN?$AAS?$AAl?$AAe?$AAe?$AAp?$AA?$CI?$AAN?$AA?$CJ?$AA?$AA@ 0051721c     macro.obj
 0002:00007234       ??_C@_1M@LOKMAOLG@?$AAS?$AAL?$AAE?$AAE?$AAP?$AA?$AA@ 00517234     macro.obj
 0002:00007240       ??_C@_1CO@MGEMEODM@?$AAS?$AA?$DN?$AAR?$AAI?$AAn?$AAd?$AAe?$AAx?$AA?$CI?$AAS?$AA1?$AA?0?$AAS?$AA2?$AA?$FL?$AA?0?$AAM?$AAo?$AAd?$AAe?$AA?$FN?$AA?$CJ?$AA?$AA@ 00517240     macro.obj
 0002:00007270       ??_C@_1O@DJGDEDPP@?$AAR?$AAI?$AAN?$AAD?$AAE?$AAX?$AA?$AA@ 00517270     macro.obj
 0002:00007280       ??_C@_1FC@MOHMGIFA@?$AAS?$AA?$DN?$AAR?$AAe?$AAp?$AAl?$AAa?$AAc?$AAe?$AA?$CI?$AAS?$AAt?$AAr?$AA?0?$AAF?$AAi?$AAn?$AAd?$AA?0?$AAR?$AAe?$AAp?$AAl?$AAa?$AAc?$AAe?$AA?$FL?$AA?0?$AAC?$AAn?$AAt?$AA?$FL@ 00517280     macro.obj
 0002:000072d4       ??_C@_1BA@OBGLGPKN@?$AAR?$AAE?$AAP?$AAL?$AAA?$AAC?$AAE?$AA?$AA@ 005172d4     macro.obj
 0002:000072e8       ??_C@_1GC@OJKMKDCP@?$AAS?$AA?$DN?$AAP?$AAr?$AAo?$AAm?$AAp?$AAt?$AA?$CI?$AAT?$AAi?$AAt?$AAl?$AAe?$AA?$FL?$AA?0?$AAP?$AAr?$AAo?$AAm?$AAp?$AAt?$AA?$FL?$AA?0?$AAf?$AAl?$AAa?$AAg?$AAs?$AA?$FL?$AA?0?$AAS@ 005172e8     macro.obj
 0002:0000734c       ??_C@_1O@EMMHJCCF@?$AAP?$AAR?$AAO?$AAM?$AAP?$AAT?$AA?$AA@ 0051734c     macro.obj
 0002:0000735c       ??_C@_1BK@CJAEAAMG@?$AAN?$AA?$DN?$AAP?$AAr?$AAi?$AAn?$AAt?$AA?$CI?$AAS?$AAt?$AAr?$AA?$CJ?$AA?$AA@ 0051735c     macro.obj
 0002:00007378       ??_C@_1M@ECFPBPMG@?$AAP?$AAR?$AAI?$AAN?$AAT?$AA?$AA@ 00517378     macro.obj
 0002:00007388       ??_C@_1EE@MJFKEGGP@?$AAV?$AA?$DN?$AAP?$AAa?$AAn?$AAe?$AAl?$AAI?$AAt?$AAe?$AAm?$AA?$CI?$AAP?$AAa?$AAn?$AAe?$AAl?$AA?0?$AAI?$AAn?$AAd?$AAe?$AAx?$AA?0?$AAT?$AAy?$AAp?$AAe?$AAI?$AAn?$AAf?$AAo@ 00517388     macro.obj
 0002:000073cc       ??_C@_1BE@LGMAABF@?$AAP?$AAA?$AAN?$AAE?$AAL?$AAI?$AAT?$AAE?$AAM?$AA?$AA@ 005173cc     macro.obj
 0002:000073e0       ??_C@_1FO@NLJPHCKH@?$AAN?$AA?$DN?$AAP?$AAa?$AAn?$AAe?$AAl?$AA?4?$AAS?$AAe?$AAt?$AAP?$AAo?$AAs?$AAI?$AAd?$AAx?$AA?$CI?$AAp?$AAa?$AAn?$AAe?$AAl?$AAT?$AAy?$AAp?$AAe?$AA?0?$AAI?$AAd?$AAx?$AA?$FL@ 005173e0     macro.obj
 0002:00007440       ??_C@_1CA@LLFIJBPO@?$AAP?$AAA?$AAN?$AAE?$AAL?$AA?4?$AAS?$AAE?$AAT?$AAP?$AAO?$AAS?$AAI?$AAD?$AAX?$AA?$AA@ 00517440     macro.obj
 0002:00007460       ??_C@_1EG@JNNMFBDM@?$AAN?$AA?$DN?$AAp?$AAa?$AAn?$AAe?$AAl?$AA?4?$AAS?$AAe?$AAt?$AAP?$AAo?$AAs?$AA?$CI?$AAp?$AAa?$AAn?$AAe?$AAl?$AAT?$AAy?$AAp?$AAe?$AA?0?$AAf?$AAi?$AAl?$AAe?$AAN?$AAa?$AAm@ 00517460     macro.obj
 0002:000074a8       ??_C@_1BK@CGOAKKFB@?$AAP?$AAA?$AAN?$AAE?$AAL?$AA?4?$AAS?$AAE?$AAT?$AAP?$AAO?$AAS?$AA?$AA@ 005174a8     macro.obj
 0002:000074c8       ??_C@_1FO@BBDLGNGG@?$AAN?$AA?$DN?$AAp?$AAa?$AAn?$AAe?$AAl?$AA?4?$AAS?$AAe?$AAt?$AAP?$AAa?$AAt?$AAh?$AA?$CI?$AAp?$AAa?$AAn?$AAe?$AAl?$AAT?$AAy?$AAp?$AAe?$AA?0?$AAp?$AAa?$AAt?$AAh?$AAN?$AAa@ 005174c8     macro.obj
 0002:00007528       ??_C@_1BM@MDIMFCFL@?$AAP?$AAA?$AAN?$AAE?$AAL?$AA?4?$AAS?$AAE?$AAT?$AAP?$AAA?$AAT?$AAH?$AA?$AA@ 00517528     macro.obj
 0002:00007548       ??_C@_1GA@DBCFLIKA@?$AAV?$AA?$DN?$AAP?$AAa?$AAn?$AAe?$AAl?$AA?4?$AAS?$AAe?$AAl?$AAe?$AAc?$AAt?$AA?$CI?$AAp?$AAa?$AAn?$AAe?$AAl?$AAT?$AAy?$AAp?$AAe?$AA?0?$AAA?$AAc?$AAt?$AAi?$AAo?$AAn?$AA?$FL@ 00517548     macro.obj
 0002:000075a8       ??_C@_1BK@MMNHKMMA@?$AAP?$AAA?$AAN?$AAE?$AAL?$AA?4?$AAS?$AAE?$AAL?$AAE?$AAC?$AAT?$AA?$AA@ 005175a8     macro.obj
 0002:000075c8       ??_C@_1EG@IBDLPNGO@?$AAV?$AA?$DN?$AAP?$AAa?$AAn?$AAe?$AAl?$AA?4?$AAI?$AAt?$AAe?$AAm?$AA?$CI?$AAP?$AAa?$AAn?$AAe?$AAl?$AA?0?$AAI?$AAn?$AAd?$AAe?$AAx?$AA?0?$AAT?$AAy?$AAp?$AAe?$AAI?$AAn?$AAf@ 005175c8     macro.obj
 0002:00007610       ??_C@_1BG@IMBDFBJP@?$AAP?$AAA?$AAN?$AAE?$AAL?$AA?4?$AAI?$AAT?$AAE?$AAM?$AA?$AA@ 00517610     macro.obj
 0002:00007628       ??_C@_1EG@GKFDKLNC@?$AAN?$AA?$DN?$AAP?$AAa?$AAn?$AAe?$AAl?$AA?4?$AAF?$AAE?$AAx?$AAi?$AAs?$AAt?$AA?$CI?$AAp?$AAa?$AAn?$AAe?$AAl?$AAT?$AAy?$AAp?$AAe?$AA?0?$AAf?$AAi?$AAl?$AAe?$AAM?$AAa?$AAs@ 00517628     macro.obj
 0002:00007670       ??_C@_1BK@FEPKMIIH@?$AAP?$AAA?$AAN?$AAE?$AAL?$AA?4?$AAF?$AAE?$AAX?$AAI?$AAS?$AAT?$AA?$AA@ 00517670     macro.obj
 0002:00007690       ??_C@_1EE@EGACLAIM@?$AAN?$AA?$DN?$AAP?$AAa?$AAn?$AAe?$AAl?$AA?4?$AAF?$AAA?$AAt?$AAt?$AAr?$AA?$CI?$AAp?$AAa?$AAn?$AAe?$AAl?$AAT?$AAy?$AAp?$AAe?$AA?0?$AAf?$AAi?$AAl?$AAe?$AAM?$AAa?$AAs?$AAk@ 00517690     macro.obj
 0002:000076d4       ??_C@_1BI@KMGKALLG@?$AAP?$AAA?$AAN?$AAE?$AAL?$AA?4?$AAF?$AAA?$AAT?$AAT?$AAR?$AA?$AA@ 005176d4     macro.obj
 0002:000076f0       ??_C@_1EC@OJJFNEJP@?$AAN?$AA?$DN?$AAM?$AAs?$AAg?$AAB?$AAo?$AAx?$AA?$CI?$AA?$FL?$AAT?$AAi?$AAt?$AAl?$AAe?$AA?$FL?$AA?0?$AAT?$AAe?$AAx?$AAt?$AA?$FL?$AA?0?$AAf?$AAl?$AAa?$AAg?$AAs?$AA?$FN?$AA?$FN?$AA?$FN?$AA?$CJ@ 005176f0     macro.obj
 0002:00007734       ??_C@_1O@HEILMPND@?$AAM?$AAS?$AAG?$AAB?$AAO?$AAX?$AA?$AA@ 00517734     macro.obj
 0002:00007744       ??_C@_1BG@CCCOEJLH@?$AAN?$AA?$DN?$AAM?$AAS?$AAa?$AAv?$AAe?$AA?$CI?$AAS?$AA?$CJ?$AA?$AA@ 00517744     macro.obj
 0002:0000775c       ??_C@_1M@OLOPDDFD@?$AAM?$AAS?$AAA?$AAV?$AAE?$AA?$AA@ 0051775c     macro.obj
 0002:00007768       ??_C@_1BG@GHHKECGL@?$AAN?$AA?$DN?$AAM?$AAo?$AAd?$AA?$CI?$AAa?$AA?0?$AAb?$AA?$CJ?$AA?$AA@ 00517768     macro.obj
 0002:00007780       ??_C@_17MCDNIAHJ@?$AAM?$AAO?$AAD?$AA?$AA@ 00517780     macro.obj
 0002:00007788       ??_C@_1DA@EKKOJMBH@?$AAN?$AA?$DN?$AAM?$AAM?$AAo?$AAd?$AAe?$AA?$CI?$AAA?$AAc?$AAt?$AAi?$AAo?$AAn?$AA?$FL?$AA?0?$AAV?$AAa?$AAl?$AAu?$AAe?$AA?$FN?$AA?$CJ?$AA?$AA@ 00517788     macro.obj
 0002:000077b8       ??_C@_1M@IJBMDDKK@?$AAM?$AAM?$AAO?$AAD?$AAE?$AA?$AA@ 005177b8     macro.obj
 0002:000077c4       ??_C@_1BG@BGDKCKNO@?$AAN?$AA?$DN?$AAM?$AAL?$AAo?$AAa?$AAd?$AA?$CI?$AAS?$AA?$CJ?$AA?$AA@ 005177c4     macro.obj
 0002:000077dc       ??_C@_1M@IOKPKOEC@?$AAM?$AAL?$AAO?$AAA?$AAD?$AA?$AA@ 005177dc     macro.obj
 0002:000077e8       ??_C@_1BK@MIALOMOO@?$AAN?$AA?$DN?$AAM?$AAi?$AAn?$AA?$CI?$AAN?$AA1?$AA?0?$AAN?$AA2?$AA?$CJ?$AA?$AA@ 005177e8     macro.obj
 0002:00007804       ??_C@_17HLNJIDAA@?$AAM?$AAI?$AAN?$AA?$AA@ 00517804     macro.obj
 0002:0000780c       ??_C@_1DG@KBAFEAIB@?$AAN?$AA?$DN?$AAM?$AAe?$AAn?$AAu?$AA?4?$AAS?$AAe?$AAl?$AAe?$AAc?$AAt?$AA?$CI?$AAS?$AA?$FL?$AA?0?$AAN?$AA?$FL?$AA?0?$AAD?$AAi?$AAr?$AA?$FN?$AA?$FN?$AA?$CJ?$AA?$AA@ 0051780c     macro.obj
 0002:00007844       ??_C@_1BI@HBJABCKF@?$AAM?$AAE?$AAN?$AAU?$AA?4?$AAS?$AAE?$AAL?$AAE?$AAC?$AAT?$AA?$AA@ 00517844     macro.obj
 0002:0000785c       ??_C@_1CO@FNOPNAIP@?$AAN?$AA?$DN?$AAM?$AAe?$AAn?$AAu?$AA?4?$AAI?$AAt?$AAe?$AAm?$AAS?$AAt?$AAa?$AAt?$AAu?$AAs?$AA?$CI?$AA?$FL?$AAN?$AA?$FN?$AA?$CJ?$AA?$AA@ 0051785c     macro.obj
 0002:0000788c       ??_C@_1CA@LIDAJNPF@?$AAM?$AAE?$AAN?$AAU?$AA?4?$AAI?$AAT?$AAE?$AAM?$AAS?$AAT?$AAA?$AAT?$AAU?$AAS?$AA?$AA@ 0051788c     macro.obj
 0002:000078ac       ??_C@_1CK@LLEMLILD@?$AAS?$AA?$DN?$AAM?$AAe?$AAn?$AAu?$AA?4?$AAG?$AAe?$AAt?$AAV?$AAa?$AAl?$AAu?$AAe?$AA?$CI?$AA?$FL?$AAN?$AA?$FN?$AA?$CJ?$AA?$AA@ 005178ac     macro.obj
 0002:000078d8       ??_C@_1BM@GDBAAIDJ@?$AAM?$AAE?$AAN?$AAU?$AA?4?$AAG?$AAE?$AAT?$AAV?$AAA?$AAL?$AAU?$AAE?$AA?$AA@ 005178d8     macro.obj
 0002:000078f4       ??_C@_1BK@HFAPNKMB@?$AAN?$AA?$DN?$AAM?$AAa?$AAx?$AA?$CI?$AAN?$AA1?$AA?0?$AAN?$AA2?$AA?$CJ?$AA?$AA@ 005178f4     macro.obj
 0002:00007910       ??_C@_17OCPIAJCO@?$AAM?$AAA?$AAX?$AA?$AA@ 00517910     macro.obj
 0002:00007918       ??_C@_1BC@KKDGPPOI@?$AAN?$AA?$DN?$AAL?$AAe?$AAn?$AA?$CI?$AAS?$AA?$CJ?$AA?$AA@ 00517918     macro.obj
 0002:0000792c       ??_C@_17MALBEDOF@?$AAL?$AAE?$AAN?$AA?$AA@ 0051792c     macro.obj
 0002:00007934       ??_C@_1BI@BMBJDCOP@?$AAS?$AA?$DN?$AAL?$AAC?$AAa?$AAs?$AAe?$AA?$CI?$AAS?$AA1?$AA?$CJ?$AA?$AA@ 00517934     macro.obj
 0002:0000794c       ??_C@_1M@HCJGPGH@?$AAL?$AAC?$AAA?$AAS?$AAE?$AA?$AA@ 0051794c     macro.obj
 0002:00007958       ??_C@_1BC@IHEMMNPJ@?$AAS?$AA?$DN?$AAK?$AAe?$AAy?$AA?$CI?$AAV?$AA?$CJ?$AA?$AA@ 00517958     macro.obj
 0002:0000796c       ??_C@_17HLKCFNK@?$AAK?$AAE?$AAY?$AA?$AA@ 0051796c     macro.obj
 0002:00007974       ??_C@_1CC@ECIFBAPP@?$AAN?$AA?$DN?$AAk?$AAb?$AAd?$AAL?$AAa?$AAy?$AAo?$AAu?$AAt?$AA?$CI?$AA?$FL?$AAN?$AA?$FN?$AA?$CJ?$AA?$AA@ 00517974     macro.obj
 0002:00007998       ??_C@_1BE@NPKMBPLD@?$AAK?$AAB?$AAD?$AAL?$AAA?$AAY?$AAO?$AAU?$AAT?$AA?$AA@ 00517998     macro.obj
 0002:000079ac       ??_C@_1CE@DDGNGGEJ@?$AAS?$AA?$DN?$AAI?$AAt?$AAo?$AAa?$AA?$CI?$AAN?$AA?$FL?$AA?0?$AAr?$AAa?$AAd?$AAi?$AAx?$AA?$FN?$AA?$CJ?$AA?$AA@ 005179ac     macro.obj
 0002:000079d0       ??_C@_19HCBAMBDO@?$AAI?$AAT?$AAO?$AAA?$AA?$AA@ 005179d0     macro.obj
 0002:000079dc       ??_C@_1BC@DPEGLFBJ@?$AAN?$AA?$DN?$AAI?$AAn?$AAt?$AA?$CI?$AAV?$AA?$CJ?$AA?$AA@ 005179dc     macro.obj
 0002:000079f0       ??_C@_17NNDCAKLJ@?$AAI?$AAN?$AAT?$AA?$AA@ 005179f0     macro.obj
 0002:000079f8       ??_C@_1CM@HEKFADBG@?$AAS?$AA?$DN?$AAI?$AAn?$AAd?$AAe?$AAx?$AA?$CI?$AAS?$AA1?$AA?0?$AAS?$AA2?$AA?$FL?$AA?0?$AAM?$AAo?$AAd?$AAe?$AA?$FN?$AA?$CJ?$AA?$AA@ 005179f8     macro.obj
 0002:00007a24       ??_C@_1M@FFGIPDGH@?$AAI?$AAN?$AAD?$AAE?$AAX?$AA?$AA@ 00517a24     macro.obj
 0002:00007a30       ??_C@_1CO@LNBHFPOI@?$AAV?$AA?$DN?$AAI?$AAi?$AAf?$AA?$CI?$AAC?$AAo?$AAn?$AAd?$AAi?$AAt?$AAi?$AAo?$AAn?$AA?0?$AAV?$AA1?$AA?0?$AAV?$AA2?$AA?$CJ?$AA?$AA@ 00517a30     macro.obj
 0002:00007a60       ??_C@_17DKCHKFBF@?$AAI?$AAI?$AAF?$AA?$AA@ 00517a60     macro.obj
 0002:00007a68       ??_C@_1CC@OGDNKMPM@?$AAS?$AA?$DN?$AAG?$AAe?$AAt?$AAH?$AAo?$AAt?$AAk?$AAe?$AAy?$AA?$CI?$AA?$FL?$AAN?$AA?$FN?$AA?$CJ?$AA?$AA@ 00517a68     macro.obj
 0002:00007a8c       ??_C@_1BE@HLAGBFKL@?$AAG?$AAE?$AAT?$AAH?$AAO?$AAT?$AAK?$AAE?$AAY?$AA?$AA@ 00517a8c     macro.obj
 0002:00007aa0       ??_C@_1BM@FDNALKCH@?$AAS?$AA?$DN?$AAF?$AAS?$AAp?$AAl?$AAi?$AAt?$AA?$CI?$AAS?$AA?0?$AAN?$AA?$CJ?$AA?$AA@ 00517aa0     macro.obj
 0002:00007abc       ??_C@_1O@HHMECADI@?$AAF?$AAS?$AAP?$AAL?$AAI?$AAT?$AA?$AA@ 00517abc     macro.obj
 0002:00007acc       ??_C@_1BK@BPLPDPF@?$AAN?$AA?$DN?$AAF?$AAL?$AAo?$AAc?$AAk?$AA?$CI?$AAN?$AA?0?$AAN?$AA?$CJ?$AA?$AA@ 00517acc     macro.obj
 0002:00007ae8       ??_C@_1M@OKJGLLBB@?$AAF?$AAL?$AAO?$AAC?$AAK?$AA?$AA@ 00517ae8     macro.obj
 0002:00007af4       ??_C@_1BG@ILLBDCJG@?$AAN?$AA?$DN?$AAF?$AAl?$AAo?$AAa?$AAt?$AA?$CI?$AAV?$AA?$CJ?$AA?$AA@ 00517af4     macro.obj
 0002:00007b0c       ??_C@_1M@KPCEFNND@?$AAF?$AAL?$AAO?$AAA?$AAT?$AA?$AA@ 00517b0c     macro.obj
 0002:00007b18       ??_C@_1BI@HLOHENFF@?$AAN?$AA?$DN?$AAF?$AAE?$AAx?$AAi?$AAs?$AAt?$AA?$CI?$AAS?$AA?$CJ?$AA?$AA@ 00517b18     macro.obj
 0002:00007b30       ??_C@_1O@GNJLAHEJ@?$AAF?$AAE?$AAX?$AAI?$AAS?$AAT?$AA?$AA@ 00517b30     macro.obj
 0002:00007b40       ??_C@_1BG@HFCGHHCL@?$AAN?$AA?$DN?$AAF?$AAA?$AAt?$AAt?$AAr?$AA?$CI?$AAS?$AA?$CJ?$AA?$AA@ 00517b40     macro.obj
 0002:00007b58       ??_C@_1M@NHLDHOK@?$AAF?$AAA?$AAT?$AAT?$AAR?$AA?$AA@ 00517b58     macro.obj
 0002:00007b64       ??_C@_1BM@DHEODJKP@?$AAN?$AA?$DN?$AAE?$AAv?$AAa?$AAl?$AA?$CI?$AAS?$AA?$FL?$AA?0?$AAN?$AA?$FN?$AA?$CJ?$AA?$AA@ 00517b64     macro.obj
 0002:00007b80       ??_C@_19OCGJJPGA@?$AAE?$AAV?$AAA?$AAL?$AA?$AA@ 00517b80     macro.obj
 0002:00007b8c       ??_C@_1BC@JMIDPGEJ@?$AAS?$AA?$DN?$AAE?$AAn?$AAv?$AA?$CI?$AAS?$AA?$CJ?$AA?$AA@ 00517b8c     macro.obj
 0002:00007ba0       ??_C@_17CAJENHHN@?$AAE?$AAN?$AAV?$AA?$AA@ 00517ba0     macro.obj
 0002:00007ba8       ??_C@_1CC@MOACLJBD@?$AAV?$AA?$DN?$AAE?$AAd?$AAi?$AAt?$AAo?$AAr?$AA?4?$AAU?$AAn?$AAd?$AAo?$AA?$CI?$AAN?$AA?$CJ?$AA?$AA@ 00517ba8     macro.obj
 0002:00007bcc       ??_C@_1BI@PFIJDJJN@?$AAE?$AAD?$AAI?$AAT?$AAO?$AAR?$AA?4?$AAU?$AAN?$AAD?$AAO?$AA?$AA@ 00517bcc     macro.obj
 0002:00007be4       ??_C@_1DG@CGCLMJFI@?$AAN?$AA?$DN?$AAE?$AAd?$AAi?$AAt?$AAo?$AAr?$AA?4?$AAS?$AAe?$AAt?$AAT?$AAi?$AAt?$AAl?$AAe?$AA?$CI?$AA?$FL?$AAT?$AAi?$AAt?$AAl?$AAe?$AA?$FN?$AA?$CJ?$AA?$AA@ 00517be4     macro.obj
 0002:00007c1c       ??_C@_1CA@BIBJIKHE@?$AAE?$AAD?$AAI?$AAT?$AAO?$AAR?$AA?4?$AAS?$AAE?$AAT?$AAT?$AAI?$AAT?$AAL?$AAE?$AA?$AA@ 00517c1c     macro.obj
 0002:00007c3c       ??_C@_1CI@KKDLHMLJ@?$AAN?$AA?$DN?$AAE?$AAd?$AAi?$AAt?$AAo?$AAr?$AA?4?$AAS?$AAe?$AAt?$AA?$CI?$AAN?$AA?0?$AAV?$AAa?$AAr?$AA?$CJ?$AA?$AA@ 00517c3c     macro.obj
 0002:00007c64       ??_C@_1BG@KFEIHOMB@?$AAE?$AAD?$AAI?$AAT?$AAO?$AAR?$AA?4?$AAS?$AAE?$AAT?$AA?$AA@ 00517c64     macro.obj
 0002:00007c7c       ??_C@_1DG@GOHPEHPL@?$AAV?$AA?$DN?$AAE?$AAd?$AAi?$AAt?$AAo?$AAr?$AA?4?$AAS?$AAe?$AAl?$AA?$CI?$AAA?$AAc?$AAt?$AAi?$AAo?$AAn?$AA?$FL?$AA?0?$AAO?$AAp?$AAt?$AA?$FN?$AA?$CJ?$AA?$AA@ 00517c7c     macro.obj
 0002:00007cb4       ??_C@_1BG@DAOFABLB@?$AAE?$AAD?$AAI?$AAT?$AAO?$AAR?$AA?4?$AAS?$AAE?$AAL?$AA?$AA@ 00517cb4     macro.obj
 0002:00007ccc       ??_C@_1DM@FELEHMF@?$AAN?$AA?$DN?$AAE?$AAd?$AAi?$AAt?$AAo?$AAr?$AA?4?$AAP?$AAo?$AAs?$AA?$CI?$AAO?$AAp?$AA?0?$AAW?$AAh?$AAa?$AAt?$AA?$FL?$AA?0?$AAW?$AAh?$AAe?$AAr?$AAe?$AA?$FN?$AA?$CJ?$AA?$AA@ 00517ccc     macro.obj
 0002:00007d08       ??_C@_1BG@BHILGCPN@?$AAE?$AAD?$AAI?$AAT?$AAO?$AAR?$AA?4?$AAP?$AAO?$AAS?$AA?$AA@ 00517d08     macro.obj
 0002:00007d20       ??_C@_1CK@FBGMKFJD@?$AAV?$AA?$DN?$AAD?$AAl?$AAg?$AA?4?$AAG?$AAe?$AAt?$AAV?$AAa?$AAl?$AAu?$AAe?$AA?$CI?$AAI?$AAD?$AA?0?$AAN?$AA?$CJ?$AA?$AA@ 00517d20     macro.obj
 0002:00007d4c       ??_C@_1BK@JCLPIOHK@?$AAD?$AAL?$AAG?$AA?4?$AAG?$AAE?$AAT?$AAV?$AAA?$AAL?$AAU?$AAE?$AA?$AA@ 00517d4c     macro.obj
 0002:00007d68       ??_C@_1BI@BHNKOEBI@?$AAS?$AA?$DN?$AAD?$AAa?$AAt?$AAe?$AA?$CI?$AA?$FL?$AAS?$AA?$FN?$AA?$CJ?$AA?$AA@ 00517d68     macro.obj
 0002:00007d80       ??_C@_19FFMGBAMO@?$AAD?$AAA?$AAT?$AAE?$AA?$AA@ 00517d80     macro.obj
 0002:00007d8c       ??_C@_1BM@HOPAGCAP@?$AAV?$AA?$DN?$AAC?$AAl?$AAi?$AAp?$AA?$CI?$AAN?$AA?$FL?$AA?0?$AAV?$AA?$FN?$AA?$CJ?$AA?$AA@ 00517d8c     macro.obj
 0002:00007da8       ??_C@_19PEJAKIIO@?$AAC?$AAL?$AAI?$AAP?$AA?$AA@ 00517da8     macro.obj
 0002:00007db4       ??_C@_1BC@DNNPKJCA@?$AAS?$AA?$DN?$AAC?$AAh?$AAr?$AA?$CI?$AAN?$AA?$CJ?$AA?$AA@ 00517db4     macro.obj
 0002:00007dc8       ??_C@_17LPMAKKLA@?$AAC?$AAH?$AAR?$AA?$AA@ 00517dc8     macro.obj
 0002:00007dd0       ??_C@_1CK@MANIMJMB@?$AAN?$AA?$DN?$AAC?$AAh?$AAe?$AAc?$AAk?$AAH?$AAo?$AAt?$AAk?$AAe?$AAy?$AA?$CI?$AAS?$AA?$FL?$AA?0?$AAN?$AA?$FN?$AA?$CJ?$AA?$AA@ 00517dd0     macro.obj
 0002:00007dfc       ??_C@_1BI@HGKCIBPB@?$AAC?$AAH?$AAE?$AAC?$AAK?$AAH?$AAO?$AAT?$AAK?$AAE?$AAY?$AA?$AA@ 00517dfc     macro.obj
 0002:00007e14       ??_C@_1DI@DPIDPJJF@?$AAV?$AA?$DN?$AAC?$AAa?$AAl?$AAl?$AAP?$AAl?$AAu?$AAg?$AAi?$AAn?$AA?$CI?$AAS?$AAy?$AAs?$AAI?$AAD?$AA?$FL?$AA?0?$AAp?$AAa?$AAr?$AAa?$AAm?$AA?$FN?$AA?$CJ?$AA?$AA@ 00517e14     macro.obj
 0002:00007e4c       ??_C@_1BG@OGMMLECO@?$AAC?$AAA?$AAL?$AAL?$AAP?$AAL?$AAU?$AAG?$AAI?$AAN?$AA?$AA@ 00517e4c     macro.obj
 0002:00007e64       ??_C@_1BO@CNCFNBLL@?$AAN?$AA?$DN?$AAB?$AAM?$AA?4?$AAS?$AAt?$AAa?$AAt?$AA?$CI?$AA?$FL?$AAN?$AA?$FN?$AA?$CJ?$AA?$AA@ 00517e64     macro.obj
 0002:00007e84       ??_C@_1BA@LOPNGJDE@?$AAB?$AAM?$AA?4?$AAS?$AAT?$AAA?$AAT?$AA?$AA@ 00517e84     macro.obj
 0002:00007e94       ??_C@_1BI@PJIKJDAC@?$AAN?$AA?$DN?$AAB?$AAM?$AA?4?$AAP?$AAu?$AAs?$AAh?$AA?$CI?$AA?$CJ?$AA?$AA@ 00517e94     macro.obj
 0002:00007eac       ??_C@_1BA@MNLBJJBO@?$AAB?$AAM?$AA?4?$AAP?$AAU?$AAS?$AAH?$AA?$AA@ 00517eac     macro.obj
 0002:00007ebc       ??_C@_1BI@NIGJDLEL@?$AAN?$AA?$DN?$AAB?$AAM?$AA?4?$AAB?$AAa?$AAc?$AAk?$AA?$CI?$AA?$CJ?$AA?$AA@ 00517ebc     macro.obj
 0002:00007ed4       ??_C@_1BA@HHIFKGP@?$AAB?$AAM?$AA?4?$AAB?$AAA?$AAC?$AAK?$AA?$AA@ 00517ed4     macro.obj
 0002:00007ee4       ??_C@_1BI@MOJDKIDL@?$AAN?$AA?$DN?$AAB?$AAM?$AA?4?$AAP?$AAr?$AAe?$AAv?$AA?$CI?$AA?$CJ?$AA?$AA@ 00517ee4     macro.obj
 0002:00007efc       ??_C@_1BA@KCDNFBCN@?$AAB?$AAM?$AA?4?$AAP?$AAR?$AAE?$AAV?$AA?$AA@ 00517efc     macro.obj
 0002:00007f0c       ??_C@_1BG@CNBJNEN@?$AAN?$AA?$DN?$AAB?$AAM?$AA?4?$AAP?$AAo?$AAp?$AA?$CI?$AA?$CJ?$AA?$AA@ 00517f0c     macro.obj
 0002:00007f24       ??_C@_1O@BBOOHEME@?$AAB?$AAM?$AA?4?$AAP?$AAO?$AAP?$AA?$AA@ 00517f24     macro.obj
 0002:00007f34       ??_C@_1BI@ILEPMIIB@?$AAN?$AA?$DN?$AAB?$AAM?$AA?4?$AAN?$AAe?$AAx?$AAt?$AA?$CI?$AA?$CJ?$AA?$AA@ 00517f34     macro.obj
 0002:00007f4c       ??_C@_1BA@PIGFABIK@?$AAB?$AAM?$AA?4?$AAN?$AAE?$AAX?$AAT?$AA?$AA@ 00517f4c     macro.obj
 0002:00007f5c       ??_C@_1BO@OFIOFKLI@?$AAN?$AA?$DN?$AAB?$AAM?$AA?4?$AAG?$AAo?$AAt?$AAo?$AA?$CI?$AA?$FL?$AAN?$AA?$FN?$AA?$CJ?$AA?$AA@ 00517f5c     macro.obj
 0002:00007f7c       ??_C@_1BA@GFGKCGGN@?$AAB?$AAM?$AA?4?$AAG?$AAO?$AAT?$AAO?$AA?$AA@ 00517f7c     macro.obj
 0002:00007f8c       ??_C@_1CA@BPBHNOMG@?$AAN?$AA?$DN?$AAB?$AAM?$AA?4?$AAG?$AAe?$AAt?$AA?$CI?$AAI?$AAd?$AAx?$AA?0?$AAM?$AA?$CJ?$AA?$AA@ 00517f8c     macro.obj
 0002:00007fac       ??_C@_1O@EJGJPIMH@?$AAB?$AAM?$AA?4?$AAG?$AAE?$AAT?$AA?$AA@ 00517fac     macro.obj
 0002:00007fbc       ??_C@_1CA@PBPHDNIE@?$AAN?$AA?$DN?$AAB?$AAM?$AA?4?$AAD?$AAe?$AAl?$AA?$CI?$AA?$FL?$AAI?$AAd?$AAx?$AA?$FN?$AA?$CJ?$AA?$AA@ 00517fbc     macro.obj
 0002:00007fdc       ??_C@_1O@FCELIAFE@?$AAB?$AAM?$AA?4?$AAD?$AAE?$AAL?$AA?$AA@ 00517fdc     macro.obj
 0002:00007fec       ??_C@_1BK@JBILKPHP@?$AAN?$AA?$DN?$AAB?$AAM?$AA?4?$AAC?$AAl?$AAe?$AAa?$AAr?$AA?$CI?$AA?$CJ?$AA?$AA@ 00517fec     macro.obj
 0002:00008008       ??_C@_1BC@BHAOCON@?$AAB?$AAM?$AA?4?$AAC?$AAL?$AAE?$AAA?$AAR?$AA?$AA@ 00518008     macro.obj
 0002:0000801c       ??_C@_1BG@JFHNPIPI@?$AAN?$AA?$DN?$AAB?$AAM?$AA?4?$AAA?$AAd?$AAd?$AA?$CI?$AA?$CJ?$AA?$AA@ 0051801c     macro.obj
 0002:00008034       ??_C@_1O@BEEDHFHK@?$AAB?$AAM?$AA?4?$AAA?$AAD?$AAD?$AA?$AA@ 00518034     macro.obj
 0002:00008044       ??_C@_1BI@JAPEMPME@?$AAN?$AA?$DN?$AAB?$AAe?$AAe?$AAp?$AA?$CI?$AA?$FL?$AAN?$AA?$FN?$AA?$CJ?$AA?$AA@ 00518044     macro.obj
 0002:0000805c       ??_C@_19HDNPBIOA@?$AAB?$AAE?$AAE?$AAP?$AA?$AA@ 0051805c     macro.obj
 0002:00008068       ??_C@_1CE@PFJDMACN@?$AAN?$AA?$DN?$AAA?$AAt?$AAo?$AAi?$AA?$CI?$AAS?$AA?$FL?$AA?0?$AAR?$AAa?$AAd?$AAi?$AAx?$AA?$FN?$AA?$CJ?$AA?$AA@ 00518068     macro.obj
 0002:0000808c       ??_C@_19KEHDKJCF@?$AAA?$AAT?$AAO?$AAI?$AA?$AA@ 0051808c     macro.obj
 0002:00008098       ??_C@_1BC@LEFPFNFK@?$AAN?$AA?$DN?$AAA?$AAs?$AAc?$AA?$CI?$AAN?$AA?$CJ?$AA?$AA@ 00518098     macro.obj
 0002:000080ac       ??_C@_17HMFBGPGP@?$AAA?$AAS?$AAC?$AA?$AA@ 005180ac     macro.obj
 0002:000080b4       ??_C@_1CI@GONOAKB@?$AAV?$AA?$DN?$AAA?$AAk?$AAe?$AAy?$AA?$CI?$AAM?$AAo?$AAd?$AAe?$AA?$FL?$AA?0?$AAT?$AAy?$AAp?$AAe?$AA?$FN?$AA?$CJ?$AA?$AA@ 005180b4     macro.obj
 0002:000080dc       ??_C@_19PAGKPOFL@?$AAA?$AAK?$AAE?$AAY?$AA?$AA@ 005180dc     macro.obj
 0002:000080e8       ??_C@_1BC@EEMHNCB@?$AAN?$AA?$DN?$AAA?$AAb?$AAs?$AA?$CI?$AAN?$AA?$CJ?$AA?$AA@ 005180e8     macro.obj
 0002:000080fc       ??_C@_17OEMCOJMO@?$AAA?$AAB?$AAS?$AA?$AA@ 005180fc     macro.obj
 0002:00008104       ??_C@_1M@GMBJCDDN@?$AA$?$AAX?$AAL?$AAa?$AAt?$AA?$AA@ 00518104     macro.obj
 0002:00008110       ??_C@_1O@MMDFPFHM@?$AA$?$AAW?$AAh?$AAi?$AAl?$AAe?$AA?$AA@ 00518110     macro.obj
 0002:00008120       ??_C@_1M@LEMFOJJN@?$AA$?$AAT?$AAe?$AAx?$AAt?$AA?$AA@ 00518120     macro.obj
 0002:0000812c       ??_C@_1BC@KKBAAAGH@?$AA$?$AAS?$AAe?$AAl?$AAW?$AAo?$AAr?$AAd?$AA?$AA@ 0051812c     macro.obj
 0002:00008140       ??_C@_19HOMGPOON@?$AA$?$AAR?$AAe?$AAp?$AA?$AA@ 00518140     macro.obj
 0002:0000814c       ??_C@_17NBPLLPEB@?$AA$?$AAI?$AAf?$AA?$AA@ 0051814c     macro.obj
 0002:00008154       ??_C@_1M@FDJNPGIP@?$AA$?$AAE?$AAx?$AAi?$AAt?$AA?$AA@ 00518154     macro.obj
 0002:00008160       ??_C@_19LNAEPGNE@?$AA$?$AAE?$AAn?$AAd?$AA?$AA@ 00518160     macro.obj
 0002:0000816c       ??_C@_1M@OBIENIFJ@?$AA$?$AAE?$AAl?$AAs?$AAe?$AA?$AA@ 0051816c     macro.obj
 0002:00008178       ??_C@_1BE@JMBFPOMN@?$AA$?$AAC?$AAo?$AAn?$AAt?$AAi?$AAn?$AAu?$AAe?$AA?$AA@ 00518178     macro.obj
 0002:0000818c       ??_C@_1M@NEJMBKMN@?$AA$?$AAA?$AAK?$AAe?$AAy?$AA?$AA@ 0051818c     macro.obj
 0002:00008198       ??_C@_1CI@OLPGMIKE@?$AAN?$AAo?$AAS?$AAe?$AAn?$AAd?$AAK?$AAe?$AAy?$AAs?$AAT?$AAo?$AAP?$AAl?$AAu?$AAg?$AAi?$AAn?$AAs?$AA?$AA@ 00518198     macro.obj
 0002:000081c0       ??_C@_1BK@ELCPNBD@?$AAN?$AAo?$AAP?$AAS?$AAe?$AAl?$AAe?$AAc?$AAt?$AAi?$AAo?$AAn?$AA?$AA@ 005181c0     macro.obj
 0002:000081dc       ??_C@_1BG@JGEFGKOJ@?$AAP?$AAS?$AAe?$AAl?$AAe?$AAc?$AAt?$AAi?$AAo?$AAn?$AA?$AA@ 005181dc     macro.obj
 0002:000081f4       ??_C@_1BC@PPLPGKLO@?$AAN?$AAo?$AAP?$AAF?$AAi?$AAl?$AAe?$AAs?$AA?$AA@ 005181f4     macro.obj
 0002:00008208       ??_C@_1BG@GEAGJBDJ@?$AAN?$AAo?$AAP?$AAF?$AAo?$AAl?$AAd?$AAe?$AAr?$AAs?$AA?$AA@ 00518208     macro.obj
 0002:00008220       ??_C@_1CA@EDDMEAKG@?$AAN?$AAo?$AAP?$AAl?$AAu?$AAg?$AAi?$AAn?$AAP?$AAP?$AAa?$AAn?$AAe?$AAl?$AAs?$AA?$AA@ 00518220     macro.obj
 0002:00008240       ??_C@_1BM@FEGCOOEJ@?$AAN?$AAo?$AAF?$AAi?$AAl?$AAe?$AAP?$AAP?$AAa?$AAn?$AAe?$AAl?$AAs?$AA?$AA@ 00518240     macro.obj
 0002:0000825c       ??_C@_1BI@CELDEFLA@?$AAN?$AAo?$AAS?$AAe?$AAl?$AAe?$AAc?$AAt?$AAi?$AAo?$AAn?$AA?$AA@ 0051825c     macro.obj
 0002:00008274       ??_C@_1BE@FCAACJAC@?$AAS?$AAe?$AAl?$AAe?$AAc?$AAt?$AAi?$AAo?$AAn?$AA?$AA@ 00518274     macro.obj
 0002:00008288       ??_C@_1BA@JDKKJGOB@?$AAN?$AAo?$AAF?$AAi?$AAl?$AAe?$AAs?$AA?$AA@ 00518288     macro.obj
 0002:00008298       ??_C@_1BE@DIAHMPBO@?$AAN?$AAo?$AAF?$AAo?$AAl?$AAd?$AAe?$AAr?$AAs?$AA?$AA@ 00518298     macro.obj
 0002:000082ac       ??_C@_1BO@KEGAEGDD@?$AAN?$AAo?$AAP?$AAl?$AAu?$AAg?$AAi?$AAn?$AAP?$AAa?$AAn?$AAe?$AAl?$AAs?$AA?$AA@ 005182ac     macro.obj
 0002:000082cc       ??_C@_1BK@NHGJONDF@?$AAN?$AAo?$AAF?$AAi?$AAl?$AAe?$AAP?$AAa?$AAn?$AAe?$AAl?$AAs?$AA?$AA@ 005182cc     macro.obj
 0002:000082e8       ??_C@_1BM@KBJLNHED@?$AAN?$AAo?$AAE?$AAV?$AAS?$AAe?$AAl?$AAe?$AAc?$AAt?$AAi?$AAo?$AAn?$AA?$AA@ 005182e8     macro.obj
 0002:00008304       ??_C@_1BI@CBKDEKGE@?$AAE?$AAV?$AAS?$AAe?$AAl?$AAe?$AAc?$AAt?$AAi?$AAo?$AAn?$AA?$AA@ 00518304     macro.obj
 0002:0000831c       ??_C@_1CI@HGKAJJPI@?$AAN?$AAo?$AAt?$AAE?$AAm?$AAp?$AAt?$AAy?$AAC?$AAo?$AAm?$AAm?$AAa?$AAn?$AAd?$AAL?$AAi?$AAn?$AAe?$AA?$AA@ 0051831c     macro.obj
 0002:00008344       ??_C@_1CC@MNDJHGGA@?$AAE?$AAm?$AAp?$AAt?$AAy?$AAC?$AAo?$AAm?$AAm?$AAa?$AAn?$AAd?$AAL?$AAi?$AAn?$AAe?$AA?$AA@ 00518344     macro.obj
 0002:00008368       ??_C@_1CC@PMAMIPNC@?$AAR?$AAu?$AAn?$AAA?$AAf?$AAt?$AAe?$AAr?$AAF?$AAA?$AAR?$AAS?$AAt?$AAa?$AAr?$AAt?$AA?$AA@ 00518368     macro.obj
 0002:0000838c       ??_C@_1BM@FNPOKNPH@?$AAD?$AAi?$AAs?$AAa?$AAb?$AAl?$AAe?$AAO?$AAu?$AAt?$AAp?$AAu?$AAt?$AA?$AA@ 0051838c     macro.obj
 0002:000083a8       ??_C@_1O@EPGKAHO@?$AAC?$AAo?$AAm?$AAm?$AAo?$AAn?$AA?$AA@ 005183a8     macro.obj
 0002:000083b8       ??_C@_19ILFOGCBL@?$AAV?$AAa?$AAr?$AAs?$AA?$AA@ 005183b8     macro.obj
 0002:000083c4       ??_C@_1O@ENJCEFHO@?$AAC?$AAo?$AAn?$AAs?$AAt?$AAs?$AA?$AA@ 005183c4     macro.obj
 0002:000083d4       ??_C@_1M@HJJPKFFD@?$AAF?$AAu?$AAn?$AAc?$AAs?$AA?$AA@ 005183d4     macro.obj
 0002:000083e0       ??_C@_1BI@KCPBEBNE@?$AAI?$AAs?$AAU?$AAs?$AAe?$AAr?$AAA?$AAd?$AAm?$AAi?$AAn?$AA?$AA@ 005183e0     macro.obj
 0002:000083f8       ??_C@_1BG@EOMFJOKP@?$AAF?$AAu?$AAl?$AAl?$AAs?$AAc?$AAr?$AAe?$AAe?$AAn?$AA?$AA@ 005183f8     macro.obj
 0002:00008410       ??_C@_1BG@LMKLLIB@?$AAM?$AAe?$AAn?$AAu?$AA?4?$AAV?$AAa?$AAl?$AAu?$AAe?$AA?$AA@ 00518410     macro.obj
 0002:00008428       ??_C@_1BK@MEPMBBFG@?$AAV?$AAi?$AAe?$AAw?$AAe?$AAr?$AA?4?$AAS?$AAt?$AAa?$AAt?$AAe?$AA?$AA@ 00518428     macro.obj
 0002:00008444       ??_C@_1CA@MLFMBBBM@?$AAV?$AAi?$AAe?$AAw?$AAe?$AAr?$AA?4?$AAF?$AAi?$AAl?$AAe?$AAN?$AAa?$AAm?$AAe?$AA?$AA@ 00518444     macro.obj
 0002:00008464       ??_C@_1BK@BJKHHJGI@?$AAD?$AAr?$AAv?$AA?4?$AAS?$AAh?$AAo?$AAw?$AAM?$AAo?$AAd?$AAe?$AA?$AA@ 00518464     macro.obj
 0002:00008480       ??_C@_1BI@BMFAMOIO@?$AAD?$AAr?$AAv?$AA?4?$AAS?$AAh?$AAo?$AAw?$AAP?$AAo?$AAs?$AA?$AA@ 00518480     macro.obj
 0002:00008498       ??_C@_1BM@DMMLJAIM@?$AAH?$AAe?$AAl?$AAp?$AA?4?$AAS?$AAe?$AAl?$AAT?$AAo?$AAp?$AAi?$AAc?$AA?$AA@ 00518498     macro.obj
 0002:000084b4       ??_C@_1BG@LHFHONKA@?$AAH?$AAe?$AAl?$AAp?$AA?4?$AAT?$AAo?$AAp?$AAi?$AAc?$AA?$AA@ 005184b4     macro.obj
 0002:000084cc       ??_C@_1BM@HAEIEAEB@?$AAH?$AAe?$AAl?$AAp?$AA?4?$AAF?$AAi?$AAl?$AAe?$AAN?$AAa?$AAm?$AAe?$AA?$AA@ 005184cc     macro.obj
 0002:000084e8       ??_C@_1BI@BNNDFGAK@?$AAD?$AAl?$AAg?$AA?4?$AAI?$AAn?$AAf?$AAo?$AA?4?$AAI?$AAd?$AA?$AA@ 005184e8     macro.obj
 0002:00008500       ??_C@_1BG@KKNAEMJM@?$AAD?$AAl?$AAg?$AA?4?$AAC?$AAu?$AAr?$AAP?$AAo?$AAs?$AA?$AA@ 00518500     macro.obj
 0002:00008518       ??_C@_1BM@KIBDNHIO@?$AAD?$AAl?$AAg?$AA?4?$AAI?$AAt?$AAe?$AAm?$AAC?$AAo?$AAu?$AAn?$AAt?$AA?$AA@ 00518518     macro.obj
 0002:00008534       ??_C@_1BK@KDADPPO@?$AAD?$AAl?$AAg?$AA?4?$AAI?$AAt?$AAe?$AAm?$AAT?$AAy?$AAp?$AAe?$AA?$AA@ 00518534     macro.obj
 0002:00008550       ??_C@_1CA@NMIMMAAP@?$AAE?$AAd?$AAi?$AAt?$AAo?$AAr?$AA?4?$AAS?$AAe?$AAl?$AAV?$AAa?$AAl?$AAu?$AAe?$AA?$AA@ 00518550     macro.obj
 0002:00008570       ??_C@_1BK@PHGEKGJN@?$AAE?$AAd?$AAi?$AAt?$AAo?$AAr?$AA?4?$AAV?$AAa?$AAl?$AAu?$AAe?$AA?$AA@ 00518570     macro.obj
 0002:0000858c       ??_C@_1BK@POBJFNFF@?$AAE?$AAd?$AAi?$AAt?$AAo?$AAr?$AA?4?$AAS?$AAt?$AAa?$AAt?$AAe?$AA?$AA@ 0051858c     macro.obj
 0002:000085a8       ??_C@_1BO@HFBLFGAD@?$AAE?$AAd?$AAi?$AAt?$AAo?$AAr?$AA?4?$AAR?$AAe?$AAa?$AAl?$AAP?$AAo?$AAs?$AA?$AA@ 005185a8     macro.obj
 0002:000085c8       ??_C@_1BM@EGLFHABB@?$AAE?$AAd?$AAi?$AAt?$AAo?$AAr?$AA?4?$AAC?$AAu?$AAr?$AAP?$AAo?$AAs?$AA?$AA@ 005185c8     macro.obj
 0002:000085e4       ??_C@_1BK@DGBNOOFB@?$AAE?$AAd?$AAi?$AAt?$AAo?$AAr?$AA?4?$AAL?$AAi?$AAn?$AAe?$AAs?$AA?$AA@ 005185e4     macro.obj
 0002:00008600       ??_C@_1BO@ELJBGKAM@?$AAE?$AAd?$AAi?$AAt?$AAo?$AAr?$AA?4?$AAC?$AAu?$AAr?$AAL?$AAi?$AAn?$AAe?$AA?$AA@ 00518600     macro.obj
 0002:00008620       ??_C@_1CA@BIJGAHLG@?$AAE?$AAd?$AAi?$AAt?$AAo?$AAr?$AA?4?$AAF?$AAi?$AAl?$AAe?$AAN?$AAa?$AAm?$AAe?$AA?$AA@ 00518620     macro.obj
 0002:00008640       ??_C@_1BM@MKIAKKN@?$AAC?$AAm?$AAd?$AAL?$AAi?$AAn?$AAe?$AA?4?$AAV?$AAa?$AAl?$AAu?$AAe?$AA?$AA@ 00518640     macro.obj
 0002:0000865c       ??_C@_1BO@EGJDFCON@?$AAC?$AAm?$AAd?$AAL?$AAi?$AAn?$AAe?$AA?4?$AAC?$AAu?$AAr?$AAP?$AAo?$AAs?$AA?$AA@ 0051865c     macro.obj
 0002:0000867c       ??_C@_1CE@JOOEPOBO@?$AAC?$AAm?$AAd?$AAL?$AAi?$AAn?$AAe?$AA?4?$AAI?$AAt?$AAe?$AAm?$AAC?$AAo?$AAu?$AAn?$AAt?$AA?$AA@ 0051867c     macro.obj
 0002:000086a0       ??_C@_1CC@JLFNADBD@?$AAC?$AAm?$AAd?$AAL?$AAi?$AAn?$AAe?$AA?4?$AAS?$AAe?$AAl?$AAe?$AAc?$AAt?$AAe?$AAd?$AA?$AA@ 005186a0     macro.obj
 0002:000086c4       ??_C@_1BM@JHJFMKMJ@?$AAC?$AAm?$AAd?$AAL?$AAi?$AAn?$AAe?$AA?4?$AAE?$AAm?$AAp?$AAt?$AAy?$AA?$AA@ 005186c4     macro.obj
 0002:000086e0       ??_C@_1BI@JBPBLMPK@?$AAC?$AAm?$AAd?$AAL?$AAi?$AAn?$AAe?$AA?4?$AAE?$AAo?$AAf?$AA?$AA@ 005186e0     macro.obj
 0002:000086f8       ??_C@_1BI@JLDELFOD@?$AAC?$AAm?$AAd?$AAL?$AAi?$AAn?$AAe?$AA?4?$AAB?$AAo?$AAf?$AA?$AA@ 005186f8     macro.obj
 0002:00008710       ??_C@_1BM@DACKPGCA@?$AAP?$AAP?$AAa?$AAn?$AAe?$AAl?$AA?4?$AAP?$AAr?$AAe?$AAf?$AAi?$AAx?$AA?$AA@ 00518710     macro.obj
 0002:0000872c       ??_C@_1BM@CKMANKON@?$AAA?$AAP?$AAa?$AAn?$AAe?$AAl?$AA?4?$AAP?$AAr?$AAe?$AAf?$AAi?$AAx?$AA?$AA@ 0051872c     macro.obj
 0002:00008748       ??_C@_1CA@INIMHHEK@?$AAP?$AAP?$AAa?$AAn?$AAe?$AAl?$AA?4?$AAH?$AAo?$AAs?$AAt?$AAF?$AAi?$AAl?$AAe?$AA?$AA@ 00518748     macro.obj
 0002:00008768       ??_C@_1CA@GBAPBMAJ@?$AAA?$AAP?$AAa?$AAn?$AAe?$AAl?$AA?4?$AAH?$AAo?$AAs?$AAt?$AAF?$AAi?$AAl?$AAe?$AA?$AA@ 00518768     macro.obj
 0002:00008788       ??_C@_1CG@DFPGIEKD@?$AAP?$AAP?$AAa?$AAn?$AAe?$AAl?$AA?4?$AAC?$AAo?$AAl?$AAu?$AAm?$AAn?$AAC?$AAo?$AAu?$AAn?$AAt?$AA?$AA@ 00518788     macro.obj
 0002:000087b0       ??_C@_1CG@NMMIKCM@?$AAA?$AAP?$AAa?$AAn?$AAe?$AAl?$AA?4?$AAC?$AAo?$AAl?$AAu?$AAm?$AAn?$AAC?$AAo?$AAu?$AAn?$AAt?$AA?$AA@ 005187b0     macro.obj
 0002:000087d8       ??_C@_1CC@KACJILEN@?$AAP?$AAP?$AAa?$AAn?$AAe?$AAl?$AA?4?$AAD?$AAr?$AAi?$AAv?$AAe?$AAT?$AAy?$AAp?$AAe?$AA?$AA@ 005187d8     macro.obj
 0002:000087fc       ??_C@_1CC@KBBNMDNI@?$AAA?$AAP?$AAa?$AAn?$AAe?$AAl?$AA?4?$AAD?$AAr?$AAi?$AAv?$AAe?$AAT?$AAy?$AAp?$AAe?$AA?$AA@ 005187fc     macro.obj
 0002:00008820       ??_C@_1CA@GIMBJGP@?$AAP?$AAP?$AAa?$AAn?$AAe?$AAl?$AA?4?$AAO?$AAP?$AAI?$AAF?$AAl?$AAa?$AAg?$AAs?$AA?$AA@ 00518820     macro.obj
 0002:00008840       ??_C@_1CA@OKAPHCCM@?$AAA?$AAP?$AAa?$AAn?$AAe?$AAl?$AA?4?$AAO?$AAP?$AAI?$AAF?$AAl?$AAa?$AAg?$AAs?$AA?$AA@ 00518840     macro.obj
 0002:00008860       ??_C@_1BK@MABFOOED@?$AAP?$AAP?$AAa?$AAn?$AAe?$AAl?$AA?4?$AAW?$AAi?$AAd?$AAt?$AAh?$AA?$AA@ 00518860     macro.obj
 0002:0000887c       ??_C@_1BK@INFKBDKM@?$AAA?$AAP?$AAa?$AAn?$AAe?$AAl?$AA?4?$AAW?$AAi?$AAd?$AAt?$AAh?$AA?$AA@ 0051887c     macro.obj
 0002:00008898       ??_C@_1BM@EKFNFMAE@?$AAP?$AAP?$AAa?$AAn?$AAe?$AAl?$AA?4?$AAH?$AAe?$AAi?$AAg?$AAh?$AAt?$AA?$AA@ 00518898     macro.obj
 0002:000088b4       ??_C@_1BM@FALHHAMJ@?$AAA?$AAP?$AAa?$AAn?$AAe?$AAl?$AA?4?$AAH?$AAe?$AAi?$AAg?$AAh?$AAt?$AA?$AA@ 005188b4     macro.obj
 0002:000088d0       ??_C@_1BO@PCHEMDGL@?$AAP?$AAP?$AAa?$AAn?$AAe?$AAl?$AA?4?$AAU?$AAN?$AAC?$AAP?$AAa?$AAt?$AAh?$AA?$AA@ 005188d0     macro.obj
 0002:000088f0       ??_C@_1BO@LOPIBMGB@?$AAA?$AAP?$AAa?$AAn?$AAe?$AAl?$AA?4?$AAU?$AAN?$AAC?$AAP?$AAa?$AAt?$AAh?$AA?$AA@ 005188f0     macro.obj
 0002:00008910       ??_C@_1BK@KBEMJDLO@?$AAP?$AAP?$AAa?$AAn?$AAe?$AAl?$AA?4?$AAP?$AAa?$AAt?$AAh?$AA0?$AA?$AA@ 00518910     macro.obj
 0002:0000892c       ??_C@_1BK@OMADGOFB@?$AAA?$AAP?$AAa?$AAn?$AAe?$AAl?$AA?4?$AAP?$AAa?$AAt?$AAh?$AA0?$AA?$AA@ 0051892c     macro.obj
 0002:00008948       ??_C@_1BI@NPBDIHG@?$AAP?$AAP?$AAa?$AAn?$AAe?$AAl?$AA?4?$AAP?$AAa?$AAt?$AAh?$AA?$AA@ 00518948     macro.obj
 0002:00008960       ??_C@_1BI@PDLPCCGM@?$AAA?$AAP?$AAa?$AAn?$AAe?$AAl?$AA?4?$AAP?$AAa?$AAt?$AAh?$AA?$AA@ 00518960     macro.obj
 0002:00008978       ??_C@_1CA@MHONCIIO@?$AAP?$AAP?$AAa?$AAn?$AAe?$AAl?$AA?4?$AAS?$AAe?$AAl?$AAC?$AAo?$AAu?$AAn?$AAt?$AA?$AA@ 00518978     macro.obj
 0002:00008998       ??_C@_1CA@CLGOEDMN@?$AAA?$AAP?$AAa?$AAn?$AAe?$AAl?$AA?4?$AAS?$AAe?$AAl?$AAC?$AAo?$AAu?$AAn?$AAt?$AA?$AA@ 00518998     macro.obj
 0002:000089b8       ??_C@_1BO@FLMAIFOO@?$AAP?$AAP?$AAa?$AAn?$AAe?$AAl?$AA?4?$AAC?$AAu?$AAr?$AAr?$AAe?$AAn?$AAt?$AA?$AA@ 005189b8     macro.obj
 0002:000089d8       ??_C@_1BO@BHEMFKOE@?$AAA?$AAP?$AAa?$AAn?$AAe?$AAl?$AA?4?$AAC?$AAu?$AAr?$AAr?$AAe?$AAn?$AAt?$AA?$AA@ 005189d8     macro.obj
 0002:000089f8       ??_C@_1BM@NJOJKCGP@?$AAP?$AAP?$AAa?$AAn?$AAe?$AAl?$AA?4?$AAC?$AAu?$AAr?$AAP?$AAo?$AAs?$AA?$AA@ 005189f8     macro.obj
 0002:00008a14       ??_C@_1BM@MDADIOKC@?$AAA?$AAP?$AAa?$AAn?$AAe?$AAl?$AA?4?$AAC?$AAu?$AAr?$AAP?$AAo?$AAs?$AA?$AA@ 00518a14     macro.obj
 0002:00008a30       ??_C@_1CC@HHGFKEKF@?$AAP?$AAP?$AAa?$AAn?$AAe?$AAl?$AA?4?$AAI?$AAt?$AAe?$AAm?$AAC?$AAo?$AAu?$AAn?$AAt?$AA?$AA@ 00518a30     macro.obj
 0002:00008a54       ??_C@_1CC@HGFBOMDA@?$AAA?$AAP?$AAa?$AAn?$AAe?$AAl?$AA?4?$AAI?$AAt?$AAe?$AAm?$AAC?$AAo?$AAu?$AAn?$AAt?$AA?$AA@ 00518a54     macro.obj
 0002:00008a78       ??_C@_1BI@MCLPCIFJ@?$AAP?$AAP?$AAa?$AAn?$AAe?$AAl?$AA?4?$AAT?$AAy?$AAp?$AAe?$AA?$AA@ 00518a78     macro.obj
 0002:00008a90       ??_C@_1BI@DMPBDCED@?$AAA?$AAP?$AAa?$AAn?$AAe?$AAl?$AA?4?$AAT?$AAy?$AAp?$AAe?$AA?$AA@ 00518a90     macro.obj
 0002:00008aa8       ??_C@_1BM@JCEPFIL@?$AAP?$AAP?$AAa?$AAn?$AAe?$AAl?$AA?4?$AAF?$AAi?$AAl?$AAt?$AAe?$AAr?$AA?$AA@ 00518aa8     macro.obj
 0002:00008ac4       ??_C@_1BM@BDMONJEG@?$AAA?$AAP?$AAa?$AAn?$AAe?$AAl?$AA?4?$AAF?$AAi?$AAl?$AAt?$AAe?$AAr?$AA?$AA@ 00518ac4     macro.obj
 0002:00008ae0       ??_C@_1BG@FIEBMLEE@?$AAP?$AAP?$AAa?$AAn?$AAe?$AAl?$AA?4?$AAL?$AAF?$AAN?$AA?$AA@ 00518ae0     macro.obj
 0002:00008af8       ??_C@_1BG@OGJOOFMF@?$AAA?$AAP?$AAa?$AAn?$AAe?$AAl?$AA?4?$AAL?$AAF?$AAN?$AA?$AA@ 00518af8     macro.obj
 0002:00008b10       ??_C@_1BI@OAPIBMFN@?$AAP?$AAP?$AAa?$AAn?$AAe?$AAl?$AA?4?$AAL?$AAe?$AAf?$AAt?$AA?$AA@ 00518b10     macro.obj
 0002:00008b28       ??_C@_1BI@BOLGAGEH@?$AAA?$AAP?$AAa?$AAn?$AAe?$AAl?$AA?4?$AAL?$AAe?$AAf?$AAt?$AA?$AA@ 00518b28     macro.obj
 0002:00008b40       ??_C@_1CA@NMKJBBNK@?$AAP?$AAP?$AAa?$AAn?$AAe?$AAl?$AA?4?$AAS?$AAe?$AAl?$AAe?$AAc?$AAt?$AAe?$AAd?$AA?$AA@ 00518b40     macro.obj
 0002:00008b60       ??_C@_1CA@DACKHKJJ@?$AAA?$AAP?$AAa?$AAn?$AAe?$AAl?$AA?4?$AAS?$AAe?$AAl?$AAe?$AAc?$AAt?$AAe?$AAd?$AA?$AA@ 00518b60     macro.obj
 0002:00008b80       ??_C@_1BM@JKKCGBEA@?$AAP?$AAP?$AAa?$AAn?$AAe?$AAl?$AA?4?$AAF?$AAo?$AAl?$AAd?$AAe?$AAr?$AA?$AA@ 00518b80     macro.obj
 0002:00008b9c       ??_C@_1BM@IAEIENIN@?$AAA?$AAP?$AAa?$AAn?$AAe?$AAl?$AA?4?$AAF?$AAo?$AAl?$AAd?$AAe?$AAr?$AA?$AA@ 00518b9c     macro.obj
 0002:00008bb8       ??_C@_1CC@IDCEPKOO@?$AAP?$AAP?$AAa?$AAn?$AAe?$AAl?$AA?4?$AAF?$AAi?$AAl?$AAe?$AAP?$AAa?$AAn?$AAe?$AAl?$AA?$AA@ 00518bb8     macro.obj
 0002:00008bdc       ??_C@_1CC@ICBALCHL@?$AAA?$AAP?$AAa?$AAn?$AAe?$AAl?$AA?4?$AAF?$AAi?$AAl?$AAe?$AAP?$AAa?$AAn?$AAe?$AAl?$AA?$AA@ 00518bdc     macro.obj
 0002:00008c00       ??_C@_1BM@ELHFEBPH@?$AAP?$AAP?$AAa?$AAn?$AAe?$AAl?$AA?4?$AAP?$AAl?$AAu?$AAg?$AAi?$AAn?$AA?$AA@ 00518c00     macro.obj
 0002:00008c1c       ??_C@_1BM@FBJPGNDK@?$AAA?$AAP?$AAa?$AAn?$AAe?$AAl?$AA?4?$AAP?$AAl?$AAu?$AAg?$AAi?$AAn?$AA?$AA@ 00518c1c     macro.obj
 0002:00008c38       ??_C@_1BO@GALKGFLP@?$AAP?$AAP?$AAa?$AAn?$AAe?$AAl?$AA?4?$AAV?$AAi?$AAs?$AAi?$AAb?$AAl?$AAe?$AA?$AA@ 00518c38     macro.obj
 0002:00008c58       ??_C@_1BO@CMDGLKLF@?$AAA?$AAP?$AAa?$AAn?$AAe?$AAl?$AA?4?$AAV?$AAi?$AAs?$AAi?$AAb?$AAl?$AAe?$AA?$AA@ 00518c58     macro.obj
 0002:00008c78       ??_C@_1BI@GPFAOAAG@?$AAP?$AAP?$AAa?$AAn?$AAe?$AAl?$AA?4?$AAR?$AAo?$AAo?$AAt?$AA?$AA@ 00518c78     macro.obj
 0002:00008c90       ??_C@_1BI@JBBOPKBM@?$AAA?$AAP?$AAa?$AAn?$AAe?$AAl?$AA?4?$AAR?$AAo?$AAo?$AAt?$AA?$AA@ 00518c90     macro.obj
 0002:00008ca8       ??_C@_1BG@CCLADEA@?$AAP?$AAP?$AAa?$AAn?$AAe?$AAl?$AA?4?$AAE?$AAo?$AAf?$AA?$AA@ 00518ca8     macro.obj
 0002:00008cc0       ??_C@_1BG@LMPECNMB@?$AAA?$AAP?$AAa?$AAn?$AAe?$AAl?$AA?4?$AAE?$AAo?$AAf?$AA?$AA@ 00518cc0     macro.obj
 0002:00008cd8       ??_C@_1BG@IOOAKFJ@?$AAP?$AAP?$AAa?$AAn?$AAe?$AAl?$AA?4?$AAB?$AAo?$AAf?$AA?$AA@ 00518cd8     macro.obj
 0002:00008cf0       ??_C@_1BG@LGDBCENI@?$AAA?$AAP?$AAa?$AAn?$AAe?$AAl?$AA?4?$AAB?$AAo?$AAf?$AA?$AA@ 00518cf0     macro.obj
 0002:00008d08       ??_C@_1BK@DJIJDCHB@?$AAP?$AAP?$AAa?$AAn?$AAe?$AAl?$AA?4?$AAE?$AAm?$AAp?$AAt?$AAy?$AA?$AA@ 00518d08     macro.obj
 0002:00008d24       ??_C@_1BK@HEMGMPJO@?$AAA?$AAP?$AAa?$AAn?$AAe?$AAl?$AA?4?$AAE?$AAm?$AAp?$AAt?$AAy?$AA?$AA@ 00518d24     macro.obj
 0002:00008d40       ??_C@_1M@NLLLJLND@?$AAW?$AAi?$AAd?$AAt?$AAh?$AA?$AA@ 00518d40     macro.obj
 0002:00008d4c       ??_C@_1O@BLHDEIAD@?$AAH?$AAe?$AAi?$AAg?$AAh?$AAt?$AA?$AA@ 00518d4c     macro.obj
 0002:00008d5c       ??_C@_1O@IIMHLGGI@?$AAC?$AAu?$AAr?$AAP?$AAo?$AAs?$AA?$AA@ 00518d5c     macro.obj
 0002:00008d6c       ??_C@_1BE@NCJDDJNF@?$AAI?$AAt?$AAe?$AAm?$AAC?$AAo?$AAu?$AAn?$AAt?$AA?$AA@ 00518d6c     macro.obj
 0002:00008d80       ??_C@_1BE@HOPKPFGA@?$AAM?$AAa?$AAc?$AAr?$AAo?$AAA?$AAr?$AAe?$AAa?$AA?$AA@ 00518d80     macro.obj
 0002:00008d94       ??_C@_1BE@FOAKIFJB@?$AAF?$AAa?$AAr?$AA?4?$AAT?$AAi?$AAt?$AAl?$AAe?$AA?$AA@ 00518d94     macro.obj
 0002:00008da8       ??_C@_1BG@GLDMEACF@?$AAF?$AAa?$AAr?$AA?4?$AAH?$AAe?$AAi?$AAg?$AAh?$AAt?$AA?$AA@ 00518da8     macro.obj
 0002:00008dc0       ??_C@_1BE@EIMADOGB@?$AAF?$AAa?$AAr?$AA?4?$AAW?$AAi?$AAd?$AAt?$AAh?$AA?$AA@ 00518dc0     macro.obj
 0002:00008dd4       ??_C@_1BC@ENDKEKIB@?$AAS?$AAe?$AAl?$AAe?$AAc?$AAt?$AAe?$AAd?$AA?$AA@ 00518dd4     macro.obj
 0002:00008de8       ??_C@_1M@CCCHEHOB@?$AAE?$AAm?$AAp?$AAt?$AAy?$AA?$AA@ 00518de8     macro.obj
 0002:00008df4       ??_C@_17BMEPPJEP@?$AAE?$AAo?$AAf?$AA?$AA@ 00518df4     macro.obj
 0002:00008dfc       ??_C@_17BGIKPAFG@?$AAB?$AAo?$AAf?$AA?$AA@ 00518dfc     macro.obj
 0002:00008e04       ??_C@_1BO@DFOOBKI@?$AAA?$AAu?$AAt?$AAo?$AAC?$AAo?$AAm?$AAp?$AAl?$AAe?$AAt?$AAi?$AAo?$AAn?$AA?$AA@ 00518e04     macro.obj
 0002:00008e24       ??_C@_1BC@EDMBJIKC@?$AAU?$AAs?$AAe?$AAr?$AAM?$AAe?$AAn?$AAu?$AA?$AA@ 00518e24     macro.obj
 0002:00008e38       ??_C@_19BGDOLOIO@?$AAT?$AAr?$AAe?$AAe?$AA?$AA@ 00518e38     macro.obj
 0002:00008e44       ??_C@_1M@PGILGEKA@?$AAQ?$AAV?$AAi?$AAe?$AAw?$AA?$AA@ 00518e44     macro.obj
 0002:00008e50       ??_C@_19IBCFILMC@?$AAM?$AAe?$AAn?$AAu?$AA?$AA@ 00518e50     macro.obj
 0002:00008e5c       ??_C@_1BC@DIFDEABL@?$AAM?$AAa?$AAi?$AAn?$AAM?$AAe?$AAn?$AAu?$AA?$AA@ 00518e5c     macro.obj
 0002:00008e70       ??_C@_1M@KDNLPMDN@?$AAD?$AAi?$AAs?$AAk?$AAs?$AA?$AA@ 00518e70     macro.obj
 0002:00008e7c       ??_C@_1O@GFHNCINN@?$AAS?$AAe?$AAa?$AAr?$AAc?$AAh?$AA?$AA@ 00518e7c     macro.obj
 0002:00008e8c       ??_C@_1O@CFJIAAME@?$AAD?$AAi?$AAa?$AAl?$AAo?$AAg?$AA?$AA@ 00518e8c     macro.obj
 0002:00008e9c       ??_C@_1M@KDHOHJAD@?$AAO?$AAt?$AAh?$AAe?$AAr?$AA?$AA@ 00518e9c     macro.obj
 0002:00008ea8       ??_C@_1BE@OHLFHHMC@?$AAK?$AAe?$AAy?$AAM?$AAa?$AAc?$AAr?$AAo?$AAs?$AA?$AA@ 00518ea8     macro.obj
 0002:00008ebc       ??_C@_1BK@JBBBOACA@?$AAM?$AAa?$AAc?$AAr?$AAo?$AAV?$AAe?$AAr?$AAs?$AAi?$AAo?$AAn?$AA?$AA@ 00518ebc     macro.obj
 0002:00008ed8       ??_C@_1BG@LGHGAGPM@?$AAK?$AAe?$AAy?$AAM?$AAa?$AAc?$AAr?$AAo?$AAs?$AA?2?$AA?$AA@ 00518ed8     macro.obj
 0002:00008ef0       ??_C@_1BC@BOOKDCJG@?$AAS?$AAe?$AAq?$AAu?$AAe?$AAn?$AAc?$AAe?$AA?$AA@ 00518ef0     macro.obj
 0002:00008f04       ??_C@_1O@EGNKCMDO@?$AAS?$AAy?$AAn?$AAt?$AAa?$AAx?$AA?$AA@ 00518f04     macro.obj
 0002:00008f14       ??_C@_1BK@LNLBIGJD@?$AAK?$AAe?$AAy?$AAM?$AAa?$AAc?$AAr?$AAo?$AAs?$AA?2?$AA?$CF?$AAs?$AA?$AA@ 00518f14     macro.obj
 0002:00008f30       ??_C@_1BC@DDLNBKLP@?$AAK?$AAe?$AAy?$AAM?$AAa?$AAc?$AAr?$AAo?$AA?$AA@ 00518f30     macro.obj
 0002:00008f44       ??_C@_1CA@MBAKLCPA@?$AAK?$AAe?$AAy?$AAM?$AAa?$AAc?$AAr?$AAo?$AAS?$AAe?$AAt?$AAt?$AAi?$AAn?$AAg?$AA?$AA@ 00518f44     macro.obj
 0002:00008f64       ??_C@_17PBDIGJDJ@?$AA?2?$AA?1?$AA?3?$AA?$AA@ 00518f64     macro.obj
 0002:00008f6c       ??_C@_1BO@BOMDNCMF@?$AAK?$AAe?$AAy?$AAM?$AAa?$AAc?$AAr?$AAo?$AAs?$AA?2?$AAV?$AAa?$AAr?$AAs?$AA?$AA@ 00518f6c     macro.obj
 0002:00008f8c       ??_C@_19EBPEOCDM@?$AAG?$AAU?$AAI?$AAD?$AA?$AA@ 00518f8c     macro.obj
 0002:00008f98       ??_C@_1BA@BDAOFDJL@?$AAo?$AAP?$AAa?$AAr?$AAa?$AAm?$AAs?$AA?$AA@ 00518f98     macro.obj
 0002:00008fa8       ??_C@_1BA@LNGGMCAK@?$AAn?$AAP?$AAa?$AAr?$AAa?$AAm?$AAs?$AA?$AA@ 00518fa8     macro.obj
 0002:00008fb8       ??_C@_1CA@KNEFGLND@?$AAK?$AAe?$AAy?$AAM?$AAa?$AAc?$AAr?$AAo?$AAs?$AA?2?$AAF?$AAu?$AAn?$AAc?$AAs?$AA?$AA@ 00518fb8     macro.obj
 0002:00008fd8       ??_C@_1HPE@JKCKNFHP@?$AAU?$AAs?$AAa?$AAg?$AAe?$AA?3?$AA?5?$AAf?$AAa?$AAr?$AA?5?$AA?$FL?$AAs?$AAw?$AAi?$AAt?$AAc?$AAh?$AAe?$AAs?$AA?$FN?$AA?5?$AA?$FL?$AAa?$AAp?$AAa?$AAt?$AAh?$AA?5?$AA?$FL?$AAp?$AAp@ 00518fd8     main.obj
 0002:000097d0       ??_C@_1GA@KDOHDPDL@?$AAS?$AAo?$AAf?$AAt?$AAw?$AAa?$AAr?$AAe?$AA?2?$AAF?$AAa?$AAr?$AA2?$AA?2?$AAU?$AAs?$AAe?$AAr?$AAs?$AA?$AA?$AAS?$AAo?$AAf?$AAt?$AAw?$AAa?$AAr?$AAe?$AA?2?$AAF?$AAa?$AAr@ 005197d0     main.obj
 0002:00009830       ??_C@_1BM@MONPAOPI@?$AAS?$AAo?$AAf?$AAt?$AAw?$AAa?$AAr?$AAe?$AA?2?$AAF?$AAa?$AAr?$AA2?$AA?$AA@ 00519830     main.obj
 0002:0000984c       ??_C@_1CK@LGFOCICE@?$AAS?$AAo?$AAf?$AAt?$AAw?$AAa?$AAr?$AAe?$AA?2?$AAF?$AAa?$AAr?$AA2?$AA?2?$AAU?$AAs?$AAe?$AAr?$AAs?$AA?$AA?$AA?$AA@ 0051984c     main.obj
 0002:00009878       ??_C@_1DE@EEMOCDFN@?$AAI?$AAg?$AAn?$AAo?$AAr?$AAe?$AAD?$AAa?$AAt?$AAa?$AAA?$AAl?$AAi?$AAg?$AAn?$AAm?$AAe?$AAn?$AAt?$AAF?$AAa?$AAu?$AAl?$AAt?$AAs?$AA?$AA@ 00519878     main.obj
 0002:000098ac       ??_C@_1BI@JEKNMFA@?$AAE?$AAx?$AAc?$AAe?$AAp?$AAt?$AAR?$AAu?$AAl?$AAe?$AAs?$AA?$AA@ 005198ac     main.obj
 0002:000098c8       ??_C@_1EG@PBHMIJHJ@?$AAD?$AAi?$AAr?$AAe?$AAc?$AAt?$AAo?$AAr?$AAy?$AA?2?$AAs?$AAh?$AAe?$AAl?$AAl?$AAe?$AAx?$AA?2?$AAC?$AAo?$AAp?$AAy?$AAH?$AAo?$AAo?$AAk?$AAH?$AAa?$AAn?$AAd?$AAl?$AAe@ 005198c8     main.obj
 0002:00009910       ??_C@_1BA@DAHNNHGF@?$AAF?$AAA?$AAR?$AAL?$AAA?$AAN?$AAG?$AA?$AA@ 00519910     main.obj
 0002:00009920       ??_C@_1HK@MIGLHBBD@?$AA?6?$AAE?$AAr?$AAr?$AAo?$AAr?$AA?3?$AA?5?$AAc?$AAa?$AAn?$AAn?$AAo?$AAt?$AA?5?$AAf?$AAi?$AAn?$AAd?$AA?5?$AAl?$AAa?$AAn?$AAg?$AAu?$AAa?$AAg?$AAe?$AA?5?$AAd?$AAa?$AAt@ 00519920     main.obj
 0002:000099a0       ??_C@_1JC@MHAAAJJK@?$AA?6?$AAE?$AAr?$AAr?$AAo?$AAr?$AA?3?$AA?5?$AAl?$AAa?$AAn?$AAg?$AAu?$AAa?$AAg?$AAe?$AA?5?$AAd?$AAa?$AAt?$AAa?$AA?5?$AAi?$AAs?$AA?5?$AAi?$AAn?$AAc?$AAo?$AAr?$AAr?$AAe@ 005199a0     main.obj
 0002:00009a38       ??_C@_1HK@OAJNCDDN@?$AA?6?$AAE?$AAr?$AAr?$AAo?$AAr?$AA?3?$AA?5?$AAc?$AAa?$AAn?$AAn?$AAo?$AAt?$AA?5?$AAl?$AAo?$AAa?$AAd?$AA?5?$AAl?$AAa?$AAn?$AAg?$AAu?$AAa?$AAg?$AAe?$AA?5?$AAd?$AAa?$AAt@ 00519a38     main.obj
 0002:00009ab4       ??_C@_1BA@FJJFMPFO@?$AA?2?$AAU?$AAs?$AAe?$AAr?$AAs?$AA?2?$AA?$AA@ 00519ab4     main.obj
 0002:00009ac4       ??_C@_1BK@BCMOJMCF@?$AAF?$AAA?$AAR?$AAA?$AAD?$AAM?$AAI?$AAN?$AAM?$AAO?$AAD?$AAE?$AA?$AA@ 00519ac4     main.obj
 0002:00009ae0       ??_C@_1BA@NIFIBMHP@?$AAF?$AAA?$AAR?$AAU?$AAS?$AAE?$AAR?$AA?$AA@ 00519ae0     main.obj
 0002:00009af0       ??_C@_1BA@IBNPAI@?$AAF?$AAA?$AAR?$AAH?$AAO?$AAM?$AAE?$AA?$AA@ 00519af0     main.obj
 0002:00009b00       ??_C@_15HBBGCAG@?$AA?$CF?$AAf?$AA?$AA@ 00519b00     main.obj
 0002:00009b08       __real@3ff19999a0000000    00519b08     main.obj
 0002:00009b10       ??_C@_1O@GBKDKFLD@?$AA?1?$AAa?$AAd?$AAm?$AAi?$AAn?$AA?$AA@ 00519b10     main.obj
 0002:00009b20       ??_C@_1CC@HCBGHDED@?$AA?$CF?$AAs?$AA?$CF?$AA?9?$AA1?$AA0?$AA?4?$AA1?$AA0?$AAs?$AA?5?$AA?$CF?$AAc?$AA?5?$AA?$CF?$AAs?$AA?$AA@ 00519b20     manager.obj
 0002:00009b44       ??_C@_19NOCMEA@?$AA?$CG?$AA?5?$AA?5?$AA?5?$AA?$AA@ 00519b44     manager.obj
 0002:00009b50       ??_C@_1M@BJKCODDM@?$AA?$CG?$AA?$CF?$AAc?$AA?4?$AA?5?$AA?$AA@ 00519b50     manager.obj
 0002:00009b5c       ??_C@_1M@BDGHOKCF@?$AA?$CG?$AA?$CF?$AAd?$AA?4?$AA?5?$AA?$AA@ 00519b5c     manager.obj
 0002:00009b68       ??_C@_1BE@KBJEDFDG@?$AAS?$AAc?$AAr?$AAS?$AAw?$AAi?$AAt?$AAc?$AAh?$AA?$AA@ 00519b68     manager.obj
 0002:00009b7c       ??_C@_1O@IKCDIAME@?$AA?$CF?$AA?9?$AA?$CK?$AA?4?$AA?$CK?$AAs?$AA?$AA@ 00519b7c     menubar.obj
 0002:00009b8c       ??_C@_19NMAFMAH@?$AA?5?$AA?5?$AA?5?$AA?5?$AA?$AA@ 00519b8c     menubar.obj
 0002:00009b98       ??_C@_1BG@BAANFBCC@?$AA?$CF?$AA?$CK?$AAs?$AA?$CF?$AA?4?$AA?$CK?$AAs?$AA?$CF?$AA?$CK?$AAs?$AA?$AA@ 00519b98     message.obj
 0002:00009bb0       ??_C@_19CGHGALEC@?$AAF?$AAT?$AAM?$AAP?$AA?$AA@ 00519bb0     mix.obj
 0002:00009bbc       ??_C@_17DICPMNEF@?$AA?$DL?$AA?0?$AA?$CC?$AA?$AA@ 00519bbc     mkdir.obj
 0002:00009bc4       ??_C@_1BG@JJPNGPJD@?$AAM?$AAa?$AAk?$AAe?$AAF?$AAo?$AAl?$AAd?$AAe?$AAr?$AA?$AA@ 00519bc4     mkdir.obj
 0002:00009bdc       ??_C@_1BE@BIEMJOKH@?$AAN?$AAe?$AAw?$AAF?$AAo?$AAl?$AAd?$AAe?$AAr?$AA?$AA@ 00519bdc     mkdir.obj
 0002:00009bf0       ??_7?$DList@UOneName@NamesList@@@@6B@ 00519bf0     namelist.obj
 0002:00009bf8       ??_C@_1BC@PKDBAIGK@?$AAU?$AAs?$AAe?$AAr?$AAN?$AAa?$AAm?$AAe?$AA?$AA@ 00519bf8     network.obj
 0002:00009c0c       ??_C@_1M@ODMKPAJJ@?$AA?5?$AA?3?$AA?$AA?$AA?$AA?$AA?$AA?$AA?$AA@ 00519c0c     network.obj
 0002:00009c18       ??_C@_1DE@HGHFEECF@?$AAC?$AAa?$AAn?$AAn?$AAo?$AAt?$AA?5?$AAl?$AAo?$AAa?$AAd?$AA?5?$AAl?$AAa?$AAn?$AAg?$AAu?$AAa?$AAg?$AAe?$AA?5?$AAd?$AAa?$AAt?$AAa?$AA?$AA@ 00519c18     options.obj
 0002:00009c4c       ??_C@_1M@PKCMGBDD@?$AAM?$AAe?$AAn?$AAu?$AAs?$AA?$AA@ 00519c4c     options.obj
 0002:00009c58       ??_C@_1BA@JJNBECOM@?$AAC?$AAm?$AAd?$AAM?$AAe?$AAn?$AAu?$AA?$AA@ 00519c58     options.obj
 0002:00009c68       ??_C@_1BE@GKAHJEI@?$AAF?$AAi?$AAl?$AAe?$AAs?$AAM?$AAe?$AAn?$AAu?$AA?$AA@ 00519c68     options.obj
 0002:00009c7c       ??_C@_1BM@IBKGOFOE@?$AAL?$AAe?$AAf?$AAt?$AAR?$AAi?$AAg?$AAh?$AAt?$AAM?$AAe?$AAn?$AAu?$AA?$AA@ 00519c7c     options.obj
 0002:00009d28       ??_C@_1BC@NAMEAOFN@?$AAF?$AAa?$AAs?$AAt?$AAF?$AAi?$AAn?$AAd?$AA?$AA@ 00519d28     panel.obj
 0002:00009d3c       ??_C@_17NHCBKDFO@?$AA?0?$AA?$CF?$AAd?$AA?$AA@ 00519d3c     panel.obj
 0002:00009d44       ??_C@_17NNOEKKEH@?$AA?$CL?$AA?$CF?$AAd?$AA?$AA@ 00519d44     panel.obj
 0002:00009d4c       ??_C@_17HBLEDLNH@?$AA?$FL?$AA?$CF?$AAd?$AA?$AA@ 00519d4c     panel.obj
 0002:00009d54       ??_C@_1CA@FPAJCONG@?$AAD?$AAi?$AAs?$AAc?$AAo?$AAn?$AAn?$AAe?$AAc?$AAt?$AAD?$AAr?$AAi?$AAv?$AAe?$AA?$AA@ 00519d54     panel.obj
 0002:00009d78       ??_7Panel@@6B@             00519d78     panel.obj
 0002:00009edc       ??_C@_1CA@NJIGLEOH@?$AAD?$AAr?$AAi?$AAv?$AAe?$AAM?$AAe?$AAn?$AAu?$AAH?$AAo?$AAt?$AAk?$AAe?$AAy?$AA?$AA@ 00519edc     panel.obj
 0002:00009efc       ??_C@_1BK@HFLOKBA@?$AA?$CF?$AAc?$AA?$CF?$AA?9?$AA9?$AAs?$AA?$CF?$AAc?$AA?$CF?$AA?9?$AA9?$AAs?$AA?$AA@ 00519efc     panel.obj
 0002:00009f18       ??_C@_1BC@PIPDCEKJ@?$AA?$CF?$AAc?$AA?$CF?$AA?9?$AA8?$AA?4?$AA8?$AAs?$AA?$AA@ 00519f18     panel.obj
 0002:00009f2c       ??_C@_1O@CMPFLIEE@?$AA?$CF?$AAc?$AA?$CF?$AA?9?$AA?$CK?$AAs?$AA?$AA@ 00519f2c     panel.obj
 0002:00009f3c       ??_C@_19IMPABLI@?$AA?$CF?$AA?9?$AA?$CK?$AAs?$AA?$AA@ 00519f3c     panel.obj
 0002:00009f48       ??_C@_1BC@NLCFFGGL@?$AAD?$AAr?$AAi?$AAv?$AAe?$AAD?$AAl?$AAg?$AA?$AA@ 00519f48     panel.obj
 0002:00009f5c       ??_C@_15EKNCJBLF@?$AAC?$AA9?$AA?$AA@ 00519f5c     panelmix.obj
 0002:00009f64       ??_C@_15PCGOPGNA@?$AAC?$AA8?$AA?$AA@ 00519f64     panelmix.obj
 0002:00009f6c       ??_C@_15KKANOGIG@?$AAC?$AA7?$AA?$AA@ 00519f6c     panelmix.obj
 0002:00009f74       ??_C@_15BCLBIBOD@?$AAC?$AA6?$AA?$AA@ 00519f74     panelmix.obj
 0002:00009f7c       ??_C@_15ECOAN@?$AAC?$AA5?$AA?$AA@ 00519f7c     panelmix.obj
 0002:00009f84       ??_C@_15LILIEJGI@?$AAC?$AA4?$AA?$AA@ 00519f84     panelmix.obj
 0002:00009f8c       ??_C@_15CFGPHBNB@?$AAC?$AA3?$AA?$AA@ 00519f8c     panelmix.obj
 0002:00009f94       ??_C@_15JNNDBGLE@?$AAC?$AA2?$AA?$AA@ 00519f94     panelmix.obj
 0002:00009f9c       ??_C@_15IPGGLJFK@?$AAC?$AA1?$AA?$AA@ 00519f9c     panelmix.obj
 0002:00009fa4       ??_C@_15DHNKNODP@?$AAC?$AA0?$AA?$AA@ 00519fa4     panelmix.obj
 0002:00009fac       ??_C@_13NIHIEAGH@?$AAG?$AA?$AA@ 00519fac     panelmix.obj
 0002:00009fb0       ??_C@_13GAMECHAC@?$AAF?$AA?$AA@ 00519fb0     panelmix.obj
 0002:00009fb4       ??_C@_15ENGMLLEF@?$AAL?$AAN?$AA?$AA@ 00519fb4     panelmix.obj
 0002:00009fbc       ??_C@_13BNMMGIII@?$AAO?$AA?$AA@ 00519fbc     panelmix.obj
 0002:00009fc0       ??_C@_13HKALMPCF@?$AAZ?$AA?$AA@ 00519fc0     panelmix.obj
 0002:00009fc4       ??_C@_13PNBDBPLL@?$AAA?$AA?$AA@ 00519fc4     panelmix.obj
 0002:00009fc8       ??_C@_15HGDOLOCJ@?$AAD?$AAE?$AA?$AA@ 00519fc8     panelmix.obj
 0002:00009fd0       ??_C@_15PJFMCJHO@?$AAD?$AAA?$AA?$AA@ 00519fd0     panelmix.obj
 0002:00009fd8       ??_C@_15FDFFOBPF@?$AAD?$AAC?$AA?$AA@ 00519fd8     panelmix.obj
 0002:00009fe0       ??_C@_15LDIKJGMG@?$AAD?$AAM?$AA?$AA@ 00519fe0     panelmix.obj
 0002:00009fe8       ??_C@_13JKNELIBG@?$AAT?$AA?$AA@ 00519fe8     panelmix.obj
 0002:00009fec       ??_C@_13MKMNOPIJ@?$AAD?$AA?$AA@ 00519fec     panelmix.obj
 0002:00009ff0       ??_C@_13BFLGCPEB@?$AAP?$AA?$AA@ 00519ff0     panelmix.obj
 0002:00009ff4       ??_C@_13HADIAKP@?$AAS?$AA?$AA@ 00519ff4     panelmix.obj
 0002:00009ff8       ??_C@_13KFHAAPON@?$AAN?$AA?$AA@ 00519ff8     panelmix.obj
 0002:00009ffc       ??_C@_13PHJMHGG@?$AAL?$AA?$AA@ 00519ffc     panelmix.obj
 0002:0000a000       ??_C@_13OPKGLAFF@?$AAB?$AA?$AA@ 0051a000     panelmix.obj
 0002:0000a004       ??_C@_13HCHBIIOM@?$AAE?$AA?$AA@ 0051a004     panelmix.obj
 0002:0000a008       ??_C@_13FHBKNHDA@?$AAC?$AA?$AA@ 0051a008     panelmix.obj
 0002:0000a00c       ??_C@_13LPLPOHMK@?$AAR?$AA?$AA@ 0051a00c     panelmix.obj
 0002:0000a010       ??_C@_13LHMFKAAD@?$AAM?$AA?$AA@ 0051a010     panelmix.obj
 0002:0000a014       ??_C@_19ECGOGJPA@?$AA?$DM?$AA?$CF?$AAs?$AA?$DO?$AA?$AA@ 0051a014     panelmix.obj
 0002:0000a020       ??_C@_17FHCGBPFN@?$AA?$DM?$AA?$DO?$AA?$HM?$AA?$AA@ 0051a020     pathmix.obj
 0002:0000a028       ??_C@_1BA@MABEENLO@?$AAV?$AAo?$AAl?$AAu?$AAm?$AAe?$AA?$HL?$AA?$AA@ 0051a028     pathmix.obj
 0002:0000a038       ??_C@_15MNCACJLI@?$AA?2?$AA?1?$AA?$AA@ 0051a038     pathmix.obj
 0002:0000a040       ??_C@_1BC@NAEGMMKI@?$AA?2?$AA?2?$AA?$DP?$AA?2?$AAU?$AAN?$AAC?$AA?2?$AA?$AA@ 0051a040     pathmix.obj
 0002:0000a054       ??_C@_1BA@BFGBFLGI@?$AA?2?$AA?2?$AA?$DP?$AA?2?$AAU?$AAN?$AAC?$AA?$AA@ 0051a054     pathmix.obj
 0002:0000a064       ??_C@_1BC@HNEMJNFI@?$AAT?$AAa?$AAs?$AAk?$AAL?$AAi?$AAs?$AAt?$AA?$AA@ 0051a064     plist.obj
 0002:0000a078       ??_C@_1M@NLGNBNID@?$AAS?$AAy?$AAs?$AAI?$AAD?$AA?$AA@ 0051a078     PluginA.obj
 0002:0000a084       ??_C@_1BA@NFBBPKHM@?$AAP?$AAr?$AAe?$AAl?$AAo?$AAa?$AAd?$AA?$AA@ 0051a084     PluginA.obj
 0002:0000a338       ??_7Plugin@@6B@            0051a338     PluginA.obj
 0002:0000a46c       ??_C@_01IHBHIGKO@?0?$AA@   0051a46c     PluginA.obj
 0002:0000a470       ??_C@_03KHICJKCI@?4?4?4?$AA@ 0051a470     PluginA.obj
 0002:0000a474       ??_7?$DList@PAUSIDCacheItem@@@@6B@ 0051a474     fileowner.obj
 0002:0000a474       ??_7?$DList@PAUDialogData@@@@6B@ 0051a474     PluginA.obj
 0002:0000a474       ??_7?$DList@PAUPrevDataItem@@@@6B@ 0051a474     filelist.obj
 0002:0000a474       ??_7?$DList@PAUPluginsListItem@@@@6B@ 0051a474     filelist.obj
 0002:0000a47c       ??_C@_1BA@EKDLEKLP@?$AAw?$AAr?$AAa?$AAp?$AAp?$AAe?$AAr?$AA?$AA@ 0051a47c     PluginA.obj
 0002:0000a48c       ??_C@_1BA@KPDNCIMM@?$AAv?$AAe?$AAr?$AAs?$AAi?$AAo?$AAn?$AA?$AA@ 0051a48c     PluginA.obj
 0002:0000a4a0       ??_7PluginA@@6B@           0051a4a0     PluginA.obj
 0002:0000a5d4       ??_C@_1BC@JOMIOLBO@?$AA?2?$AAE?$AAx?$AAp?$AAo?$AAr?$AAt?$AAs?$AA?$AA@ 0051a5d4     PluginA.obj
 0002:0000a5e8       ??_C@_15HCBMMKJC@?$AAI?$AAD?$AA?$AA@ 0051a5e8     PluginA.obj
 0002:0000a5f0       ??_C@_1BE@JOEMMCAO@?$AA?$CF?$AAI?$AA6?$AA4?$AAx?$AA?$CF?$AAx?$AA?$CF?$AAx?$AA?$AA@ 0051a5f0     PluginA.obj
 0002:0000a604       ??_C@_1BM@DCBOMMMF@?$AAE?$AAr?$AAr?$AAL?$AAo?$AAa?$AAd?$AAP?$AAl?$AAu?$AAg?$AAi?$AAn?$AA?$AA@ 0051a604     PluginA.obj
 0002:0000a620       ??_C@_08JLGMINJE@?$DMfailed?$DO?$AA@ 0051a620     PluginA.obj
 0002:0000a62c       ??_C@_1BM@JCEBFOCJ@?$AAC?$AAo?$AAm?$AAm?$AAa?$AAn?$AAd?$AAP?$AAr?$AAe?$AAf?$AAi?$AAx?$AA?$AA@ 0051a62c     PluginA.obj
 0002:0000a648       ??_C@_1BC@HFEAIAIF@?$AA?2?$AAP?$AAl?$AAu?$AAg?$AAi?$AAn?$AAs?$AA?$AA@ 0051a648     PluginA.obj
 0002:0000a65c       ??_C@_1BK@GMJDJLKM@?$AAP?$AAl?$AAu?$AAg?$AAi?$AAn?$AAs?$AAC?$AAa?$AAc?$AAh?$AAe?$AA?$AA@ 0051a65c     plugins.obj
 0002:0000a678       ??_C@_1BA@HGDHFBOP@?$AAP?$AAl?$AAu?$AAg?$AAi?$AAn?$AAs?$AA?$AA@ 0051a678     plugins.obj
 0002:0000a688       ??_C@_1CK@BMOEBLGK@?$AAP?$AAl?$AAu?$AAg?$AAi?$AAn?$AAC?$AAo?$AAn?$AAf?$AAi?$AAg?$AAS?$AAt?$AAr?$AAi?$AAn?$AAg?$AA?$CF?$AAd?$AA?$AA@ 0051a688     plugins.obj
 0002:0000a6b4       ??_C@_1CG@CAEHCHAF@?$AAP?$AAl?$AAu?$AAg?$AAi?$AAn?$AAM?$AAe?$AAn?$AAu?$AAS?$AAt?$AAr?$AAi?$AAn?$AAg?$AA?$CF?$AAd?$AA?$AA@ 0051a6b4     plugins.obj
 0002:0000a6dc       ??_C@_1CC@LMJEBFLI@?$AAD?$AAi?$AAs?$AAk?$AAM?$AAe?$AAn?$AAu?$AAN?$AAu?$AAm?$AAb?$AAe?$AAr?$AA?$CF?$AAd?$AA?$AA@ 0051a6dc     plugins.obj
 0002:0000a700       ??_C@_1CC@ECPLPPPG@?$AAD?$AAi?$AAs?$AAk?$AAM?$AAe?$AAn?$AAu?$AAS?$AAt?$AAr?$AAi?$AAn?$AAg?$AA?$CF?$AAd?$AA?$AA@ 0051a700     plugins.obj
 0002:0000a724       ??_C@_1CA@KFCMGOE@?$AAP?$AAl?$AAu?$AAg?$AAi?$AAn?$AAs?$AAC?$AAa?$AAc?$AAh?$AAe?$AA?2?$AA?$CF?$AAs?$AA?$AA@ 0051a724     plugins.obj
 0002:0000a744       ??_C@_1BO@OACGHOKL@?$AAP?$AAl?$AAu?$AAg?$AAi?$AAn?$AAH?$AAo?$AAt?$AAk?$AAe?$AAy?$AAs?$AA?2?$AA?$AA@ 0051a744     plugins.obj
 0002:0000a764       ??_C@_1CK@DMJBIOFJ@?$AAP?$AAl?$AAu?$AAg?$AAi?$AAn?$AAH?$AAo?$AAt?$AAk?$AAe?$AAy?$AAs?$AA?2?$AA?$CF?$AAs?$AA?$CF?$AA?$CF?$AA?$CF?$AAd?$AA?$AA@ 0051a764     plugins.obj
 0002:0000a790       ??_C@_1CC@OEACPLLC@?$AAC?$AAh?$AAo?$AAo?$AAs?$AAe?$AAP?$AAl?$AAu?$AAg?$AAi?$AAn?$AAM?$AAe?$AAn?$AAu?$AA?$AA@ 0051a790     plugins.obj
 0002:0000a7b4       ??_C@_1BK@MBIIAIAF@?$AA?$CF?$AAs?$AA?5?$AA?9?$AA?5?$AA?$FL?$AA?$CF?$AAs?$AA?$FN?$AA?4?$AA?4?$AA?4?$AA?$AA@ 0051a7b4     plugins.obj
 0002:0000a7d0       ??_C@_1O@BJPKKLLM@?$AAC?$AAo?$AAn?$AAf?$AAi?$AAg?$AA?$AA@ 0051a7d0     plugins.obj
 0002:0000a7e0       ??_C@_1M@ENLBIBJ@?$AA?5?$AA?5?$AA?5?$AA?$CF?$AAs?$AA?$AA@ 0051a7e0     plugins.obj
 0002:0000a7ec       ??_C@_1BE@EFBDPGMO@?$AA?$CG?$AA?$CF?$AAc?$AA?$CF?$AAs?$AA?5?$AA?5?$AA?$CF?$AAs?$AA?$AA@ 0051a7ec     plugins.obj
 0002:0000a800       ??_C@_1BG@HHEGIMFA@?$AAC?$AAo?$AAn?$AAf?$AAH?$AAo?$AAt?$AAk?$AAe?$AAy?$AA?$AA@ 0051a800     plugins.obj
 0002:0000a818       ??_C@_1BM@DIMKFAEK@?$AAP?$AAl?$AAu?$AAg?$AAi?$AAn?$AAH?$AAo?$AAt?$AAk?$AAe?$AAy?$AAs?$AA?$AA@ 0051a818     plugins.obj
 0002:0000a834       ??_C@_1BM@LNBJJAOH@?$AAP?$AAl?$AAu?$AAg?$AAi?$AAn?$AAs?$AAC?$AAo?$AAn?$AAf?$AAi?$AAg?$AA?$AA@ 0051a834     plugins.obj
 0002:0000a850       ??_C@_1O@DKEPHEHG@?$AAH?$AAo?$AAt?$AAk?$AAe?$AAy?$AA?$AA@ 0051a850     plugins.obj
 0002:0000a860       ??_C@_1BO@KDDPHOAK@?$AAP?$AAl?$AAu?$AAg?$AAi?$AAn?$AAC?$AAo?$AAm?$AAm?$AAa?$AAn?$AAd?$AAs?$AA?$AA@ 0051a860     plugins.obj
 0002:0000a880       ??_C@_1M@HNNPBALB@?$AA?$CK?$AA?4?$AAd?$AAl?$AAl?$AA?$AA@ 0051a880     plugins.obj
 0002:0000abf8       ??_7PluginW@@6B@           0051abf8     PluginW.obj
 0002:0000ad2c       ??_C@_1BM@IPNGFBNH@?$AA0?$AA?0?$AA0?$AA?0?$AA0?$AA?0?$AA0?$AA?0?$AA0?$AA?0?$AA?$CC?$AA$?$AA?$CC?$AA?$AA@ 0051ad2c     poscache.obj
 0002:0000ad48       ??_C@_17FBDAMLNL@?$AA?0?$AA?$CC?$AA$?$AA?$AA@ 0051ad48     poscache.obj
 0002:0000ad50       ??_C@_1M@KGIDNMPO@?$AAS?$AAh?$AAo?$AAr?$AAt?$AA?$AA@ 0051ad50     poscache.obj
 0002:0000ad5c       ??_C@_19MHLFJFLO@?$AAI?$AAt?$AAe?$AAm?$AA?$AA@ 0051ad5c     poscache.obj
 0002:0000ad68       ??_C@_17BLELGDND@?$AA?$CK?$AA?$DP?$AA?$FL?$AA?$AA@ 0051ad68     processname.obj
 0002:0000ad70       ??_7QuickView@@6B@         0051ad70     qview.obj
 0002:0000aed4       ??_C@_1BG@EPNOBNIP@?$AAQ?$AAV?$AAi?$AAe?$AAw?$AAP?$AAa?$AAn?$AAe?$AAl?$AA?$AA@ 0051aed4     qview.obj
 0002:0000aeec       ??_C@_1BK@JGFDDFCH@?$AA?5?$AA?9?$AA?5?$AAQ?$AAu?$AAi?$AAc?$AAk?$AAV?$AAi?$AAe?$AAw?$AA?$AA@ 0051aeec     qview.obj
 0002:0000af08       ??_C@_15MEGGCKGN@?$AA?$CF?$AA?$CJ?$AA?$AA@ 0051af08     qview.obj
 0002:0000af10       ??_7RegExp@@6B@            0051af10     RegExp.obj
 0002:0000af14       ??_7?$DList@U_SMALL_RECT@@@@6B@ 0051af14     scrbuf.obj
 0002:0000af1c       ??_7ScreenObject@@6B@      0051af1c     scrobj.obj
 0002:0000af5c       ??_C@_1BG@KGJELGAJ@?$AAp?$AAr?$AAo?$AAp?$AAe?$AAr?$AAt?$AAi?$AAe?$AAs?$AA?$AA@ 0051af5c     setattr.obj
 0002:0000af74       ??_C@_1BI@LFDHCCI@?$AAF?$AAi?$AAl?$AAe?$AAA?$AAt?$AAt?$AAr?$AAD?$AAl?$AAg?$AA?$AA@ 0051af74     setattr.obj
 0002:0000af8c       ??_C@_1BA@BHJJFMCM@?$AAB?$AAK?$AAM?$AAG?$AAT?$AAP?$AAE?$AA?$AA@ 0051af8c     strmix.obj
 0002:0000af9c       ??_C@_1BI@HPLJLKIO@?$AA?$CF?$AA?$CK?$AA?4?$AA?$CK?$AAs?$AA?5?$AA?$CF?$AA1?$AA?4?$AA1?$AAs?$AA?$AA@ 0051af9c     strmix.obj
 0002:0000afb4       ??_C@_1M@GPIGFPCH@?$AA?$CF?$AA?$CK?$AA?4?$AA?$CK?$AAs?$AA?$AA@ 0051afb4     strmix.obj
 0002:0000afc0       ??_C@_1BG@LFDDMIKP@?$AA?$CF?$AA?$CK?$AA?4?$AA?$CK?$AAs?$AA?$CF?$AA1?$AA?4?$AA1?$AAs?$AA?$AA@ 0051afc0     strmix.obj
 0002:0000afd8       ??_C@_1BA@MLBMEHAO@?$AA?$CF?$AAd?$AA?4?$AA?$CF?$AA0?$AA2?$AAd?$AA?$AA@ 0051afd8     strmix.obj
 0002:0000afe8       __real@3fe0000000000000    0051afe8     strmix.obj
 0002:0000aff0       __real@4059000000000000    0051aff0     strmix.obj
 0002:0000aff8       __real@41f0000000000000    0051aff8     strmix.obj
 0002:0000b000       ??_C@_19BPJGHEMJ@?$AA?5?$AA?7?$AA?6?$AA?$AN?$AA?$AA@ 0051b000     strmix.obj
 0002:0000b00c       ??_C@_19HHMHINIL@?$AA?$CF?$AA0?$AA2?$AAX?$AA?$AA@ 0051b00c     strmix.obj
 0002:0000b018       ??_7?$DList@USynchroData@PluginSynchro@@@@6B@ 0051b018     synchro.obj
 0002:0000b020       ??_C@_1M@OKFMHK@?$AA?$CF?$AA?$CK?$AAs?$AA?$CF?$AAc?$AA?$AA@ 0051b020     syntax.obj
 0002:0000b02c       ??_C@_15FPAHGDJ@?$AA?$CI?$AA?5?$AA?$AA@ 0051b02c     syntax.obj
 0002:0000b034       __GUID_ea1afb91_9e28_4b86_90e9_9e9f8a5eefaf 0051b034     TaskBar.obj
 0002:0000b044       ??_C@_1BE@ELEDBMCB@?$AAt?$AAr?$AAe?$AAe?$AA2?$AA?4?$AAf?$AAa?$AAr?$AA?$AA@ 0051b044     treelist.obj
 0002:0000b058       ??_C@_1BI@PHAFNKDC@?$AAt?$AAr?$AAe?$AAe?$AA2?$AA?4?$AAc?$AAa?$AAc?$AAh?$AAe?$AA?$AA@ 0051b058     treelist.obj
 0002:0000b070       ??_C@_1M@BAIMEFDB@?$AAT?$AAr?$AAe?$AAe?$AA?$HN?$AA?$AA@ 0051b070     treelist.obj
 0002:0000b080       ??_7TreeList@@6B@          0051b080     treelist.obj
 0002:0000b1e4       ??_C@_1BO@LNGIKBK@?$AA?$CF?$AAs?$AA?2?$AA?$CF?$AAs?$AA?4?$AA?$CF?$AAx?$AA?4?$AA?$CF?$AAs?$AA?4?$AA?$CF?$AAs?$AA?$AA@ 0051b1e4     treelist.obj
 0002:0000b204       ??_C@_17MJEANDKP@?$AA?$CF?$AAs?$AA?6?$AA?$AA@ 0051b204     treelist.obj
 0002:0000b20c       ??_C@_15MJDFFMKN@?$AAw?$AAb?$AA?$AA@ 0051b20c     treelist.obj
 0002:0000b214       ??_C@_15FKMMHGLE@?$AA?2?$AA?6?$AA?$AA@ 0051b214     treelist.obj
 0002:0000b21c       ??_C@_1BE@CNFJLJP@?$AAT?$AAr?$AAe?$AAe?$AAP?$AAa?$AAn?$AAe?$AAl?$AA?$AA@ 0051b21c     treelist.obj
 0002:0000b230       __real@0000000000000000    0051b230     tvar.obj
 0002:0000b238       ??_C@_17CAOKJPBK@?$AA?$DP?$AA?$CK?$AA?4?$AA?$AA@ 0051b238     udlist.obj
 0002:0000b240       ??_C@_15KHFHDPFH@?$AA?9?$AA?9?$AA?$AA@ 0051b240     usermenu.obj
 0002:0000b248       ??_C@_1BE@LLLOJLAO@?$AAC?$AAo?$AAm?$AAm?$AAa?$AAn?$AAd?$AA?$CF?$AAd?$AA?$AA@ 0051b248     usermenu.obj
 0002:0000b25c       ??_C@_17HOKLFHGN@?$AA?$HN?$AA?$AN?$AA?6?$AA?$AA@ 0051b25c     usermenu.obj
 0002:0000b264       ??_C@_17LIMEFOOK@?$AA?$HL?$AA?$AN?$AA?6?$AA?$AA@ 0051b264     usermenu.obj
 0002:0000b26c       ??_C@_17CJEOMFCL@?$AA?3?$AA?5?$AA?5?$AA?$AA@ 0051b26c     usermenu.obj
 0002:0000b274       ??_C@_1BA@IKHNPIBI@?$AAS?$AAu?$AAb?$AAm?$AAe?$AAn?$AAu?$AA?$AA@ 0051b274     usermenu.obj
 0002:0000b284       ??_C@_1O@MDDJBGCA@?$AAH?$AAo?$AAt?$AAK?$AAe?$AAy?$AA?$AA@ 0051b284     usermenu.obj
