 colorer

 Timestamp is 4e1183c3 (Mon Jul 04 15:11:31 2011)

 Preferred load address is 10000000

 Start         Length     Name                   Class
 0001:00000000 0004c009H .text                   CODE
 0001:0004c010 0000538fH .text$x                 CODE
 0001:000513a0 00001f74H .text$yc                CODE
 0001:00053320 00002f3cH .text$yd                CODE
 0002:00000000 000001d4H .idata$5                DATA
 0002:000001d4 00000004H .CRT$XCA                DATA
 0002:000001d8 00000150H .CRT$XCU                DATA
 0002:00000328 00000004H .CRT$XCZ                DATA
 0002:0000032c 00000004H .CRT$XIA                DATA
 0002:00000330 00000018H .CRT$XIC                DATA
 0002:00000348 00000004H .CRT$XIZ                DATA
 0002:0000034c 00000004H .CRT$XPA                DATA
 0002:00000350 00000004H .CRT$XPX                DATA
 0002:00000354 00000004H .CRT$XPXA               DATA
 0002:00000358 00000004H .CRT$XPZ                DATA
 0002:0000035c 00000004H .CRT$XTA                DATA
 0002:00000360 00000004H .CRT$XTZ                DATA
 0002:00000370 0000a5c0H .rdata                  DATA
 0002:0000a930 000000dcH .rdata$r                DATA
 0002:0000aa10 00000598H .rdata$sxdata           DATA
 0002:0000afa8 00000004H .rtc$IAA                DATA
 0002:0000afac 00000004H .rtc$IZZ                DATA
 0002:0000afb0 00000004H .rtc$TAA                DATA
 0002:0000afb4 00000004H .rtc$TZZ                DATA
 0002:0000afb8 00007a0cH .xdata$x                DATA
 0002:000129c4 00000050H .idata$2                DATA
 0002:00012a14 00000014H .idata$3                DATA
 0002:00012a28 000001d4H .idata$4                DATA
 0002:00012bfc 00000884H .idata$6                DATA
 0002:00013480 000000e1H .edata                  DATA
 0003:00000000 000160d4H .data                   DATA
 0003:000160e0 00002284H .bss                    DATA
 0004:00000000 00000058H .rsrc$01                DATA
 0004:00000060 000002d0H .rsrc$02                DATA

  Address         Publics by Value              Rva+Base       Lib:Object

 0000:00000000       __except_list              00000000     <absolute>
 0000:00000166       ___safe_se_handler_count   00000166     <absolute>
 0000:00000000       ___ImageBase               10000000     <linker-defined>
 0001:00000000       ?addParam@FileTypeImpl@@QAEXPBVString@@@Z 10001000 f i ChooseTypeMenu.obj
 0001:000000a0       ??0ChooseTypeMenu@@QAE@PB_W0@Z 100010a0 f   ChooseTypeMenu.obj
 0001:000002f0       ??1ChooseTypeMenu@@QAE@XZ  100012f0 f   ChooseTypeMenu.obj
 0001:00000330       ?AddItem@ChooseTypeMenu@@AAEHPB_WW4MENUITEMFLAGS@@PBVFileType@@I@Z 10001330 f   ChooseTypeMenu.obj
 0001:000003e0       ?GetNext@ChooseTypeMenu@@QAEHI@Z 100013e0 f   ChooseTypeMenu.obj
 0001:00000430       ?MoveToFavorites@ChooseTypeMenu@@QAEXI@Z 10001430 f   ChooseTypeMenu.obj
 0001:00000580       ?AddFavorite@ChooseTypeMenu@@QAEHPBVFileType@@@Z 10001580 f   ChooseTypeMenu.obj
 0001:00000600       ?HideEmptyGroup@ChooseTypeMenu@@QAEXXZ 10001600 f   ChooseTypeMenu.obj
 0001:00000640       ?DelFromFavorites@ChooseTypeMenu@@QAEXI@Z 10001640 f   ChooseTypeMenu.obj
 0001:00000720       ?AddItemInGroup@ChooseTypeMenu@@QAEHPAVFileType@@@Z 10001720 f   ChooseTypeMenu.obj
 0001:000008c0       ?GenerateName@ChooseTypeMenu@@QAEPAVStringBuffer@@PBVFileType@@@Z 100018c0 f   ChooseTypeMenu.obj
 0001:00000b20       ?fatalError@DefaultErrorHandler@@UAEXABVString@@@Z 10001b20 f i ParserFactory.obj
 0001:00000b20       ?error@DefaultErrorHandler@@UAEXABVString@@@Z 10001b20 f i ParserFactory.obj
 0001:00000b20       ?endParsing@RegionHandler@@UAEXH@Z 10001b20 f i LineRegionsCompactSupport.obj
 0001:00000b20       ?startJob@LineSource@@UAEXH@Z 10001b20 f i FarEditor.obj
 0001:00000b20       ?startParsing@RegionHandler@@UAEXH@Z 10001b20 f i LineRegionsSupport.obj
 0001:00000b20       ?endJob@LineSource@@UAEXH@Z 10001b20 f i FarEditor.obj
 0001:00000b20       ?warning@DefaultErrorHandler@@UAEXABVString@@@Z 10001b20 f i ParserFactory.obj
 0001:00000b30       ??1LineSource@@MAE@XZ      10001b30 f i FarEditor.obj
 0001:00000b40       ??_ELineSource@@MAEPAXI@Z  10001b40 f i  CIL library: CIL module
 0001:00000b40       ??_GLineSource@@MAEPAXI@Z  10001b40 f i FarEditor.obj
 0001:00000b70       ?cast@StyledRegion@@SAPBV1@PBVRegionDefine@@@Z 10001b70 f i FarEditor.obj
 0001:00000c10       ??0LineRegion@@QAE@ABV0@@Z 10001c10 f i FarEditor.obj
 0001:00000c50       ??1LineRegion@@QAE@XZ      10001c50 f i FarEditor.obj
 0001:00000c70       ??_GLineRegion@@QAEPAXI@Z  10001c70 f i FarEditor.obj
 0001:00000ca0       ??0FarEditor@@QAE@PAUPluginStartupInfo@@PAVParserFactory@@@Z 10001ca0 f   FarEditor.obj
 0001:00000fb0       ??_EFarEditor@@UAEPAXI@Z   10001fb0 f i  CIL library: CIL module
 0001:00000fb0       ??_GFarEditor@@UAEPAXI@Z   10001fb0 f i FarEditor.obj
 0001:00000fe0       ??1FarEditor@@UAE@XZ       10001fe0 f   FarEditor.obj
 0001:000010a0       ?endJob@FarEditor@@UAEXH@Z 100020a0 f   FarEditor.obj
 0001:000010d0       ?getLine@FarEditor@@UAEPAVString@@H@Z 100020d0 f   FarEditor.obj
 0001:000011a0       ?reloadTypeSettings@FarEditor@@AAEXXZ 100021a0 f   FarEditor.obj
 0001:00001530       ?setRegionMapper@FarEditor@@QAEXPAVRegionMapper@@@Z 10002530 f   FarEditor.obj
 0001:00001770       ?matchPair@FarEditor@@QAEXXZ 10002770 f   FarEditor.obj
 0001:00001820       ?selectPair@FarEditor@@QAEXXZ 10002820 f   FarEditor.obj
 0001:000018c0       ?selectBlock@FarEditor@@QAEXXZ 100028c0 f   FarEditor.obj
 0001:00001960       ?selectRegion@FarEditor@@QAEXXZ 10002960 f   FarEditor.obj
 0001:000019f0       ?locateFunction@FarEditor@@QAEXXZ 100029f0 f   FarEditor.obj
 0001:00001dc0       ?editorInput@FarEditor@@QAEHPBU_INPUT_RECORD@@@Z 10002dc0 f   FarEditor.obj
 0001:00001e20       ?editorEvent@FarEditor@@QAEHHPAX@Z 10002e20 f   FarEditor.obj
 0001:000029f0       ?showOutliner@FarEditor@@AAEXPAVOutliner@@@Z 100039f0 f   FarEditor.obj
 0001:00003960       ?convert@FarEditor@@AAE?AUcolor@@PBVStyledRegion@@@Z 10004960 f   FarEditor.obj
 0001:00003a60       ?foreDefault@FarEditor@@AAE_NUcolor@@@Z 10004a60 f   FarEditor.obj
 0001:00003aa0       ?backDefault@FarEditor@@AAE_NUcolor@@@Z 10004aa0 f   FarEditor.obj
 0001:00003ae0       ?addFARColor@FarEditor@@AAEXHHHUcolor@@@Z 10004ae0 f   FarEditor.obj
 0001:00003bc0       ?cleanEditor@FarEditor@@QAEXXZ 10004bc0 f   FarEditor.obj
 0001:00003c60       ??0FarEditorSet@@QAE@XZ    10004c60 f   FarEditorSet.obj
 0001:00003dc0       ??1FarEditorSet@@QAE@XZ    10004dc0 f   FarEditorSet.obj
 0001:00003f90       ?openMenu@FarEditorSet@@QAEXXZ 10004f90 f   FarEditorSet.obj
 0001:000043d0       ?viewFile@FarEditorSet@@QAEXABVString@@@Z 100053d0 f   FarEditorSet.obj
 0001:00004730       ?getCountFileTypeAndGroup@FarEditorSet@@AAEHXZ 10005730 f   FarEditorSet.obj
 0001:000047b0       ?getFileTypeByIndex@FarEditorSet@@AAEPAVFileTypeImpl@@H@Z 100057b0 f   FarEditorSet.obj
 0001:00004820       ?FillTypeMenu@FarEditorSet@@AAEXPAVChooseTypeMenu@@PAVFileType@@@Z 10005820 f   FarEditorSet.obj
 0001:00004970       ?KeyDialogProc@@YGJPAXHHJ@Z 10005970 f   FarEditorSet.obj
 0001:00004a70       ?chooseType@FarEditorSet@@AAEXXZ 10005a70 f   FarEditorSet.obj
 0001:00005010       ?getHRDescription@FarEditorSet@@QAEPBVString@@ABV2@VDString@@@Z 10006010 f   FarEditorSet.obj
 0001:000050c0       ?SettingDialogProc@@YGJPAXHHJ@Z 100060c0 f   FarEditorSet.obj
 0001:00005550       ??0DString@@QAE@ABV0@@Z    10006550 f i FarEditorSet.obj
 0001:000055a0       ??_GDString@@UAEPAXI@Z     100065a0 f i FarEditorSet.obj
 0001:000055a0       ??_EDString@@UAEPAXI@Z     100065a0 f i  CIL library: CIL module
 0001:00005640       ??_EString@@UAEPAXI@Z      10006640 f i  CIL library: CIL module
 0001:00005640       ??_GString@@UAEPAXI@Z      10006640 f i FarEditorSet.obj
 0001:00005690       ?configure@FarEditorSet@@QAEX_N@Z 10006690 f   FarEditorSet.obj
 0001:00006960       ?chooseHRDName@FarEditorSet@@QAEPBVString@@PBV2@VDString@@@Z 10007960 f   FarEditorSet.obj
 0001:00006c50       ?editorEvent@FarEditorSet@@QAEHHPAX@Z 10007c50 f   FarEditorSet.obj
 0001:00006e90       ?TestLoadBase@FarEditorSet@@QAE_NPB_W00H@Z 10007e90 f   FarEditorSet.obj
 0001:000075e0       ?ReloadBase@FarEditorSet@@AAEXXZ 100085e0 f   FarEditorSet.obj
 0001:00007ae0       ?addCurrentEditor@FarEditorSet@@AAEPAVFarEditor@@XZ 10008ae0 f   FarEditorSet.obj
 0001:00007cb0       ?getCurrentFileName@FarEditorSet@@AAEPAVString@@XZ 10008cb0 f   FarEditorSet.obj
 0001:00007ea0       ?getCurrentEditor@FarEditorSet@@AAEPAVFarEditor@@XZ 10008ea0 f   FarEditorSet.obj
 0001:00007fb0       ?disableColorer@FarEditorSet@@AAEXXZ 10008fb0 f   FarEditorSet.obj
 0001:00008010       ?ApplySettingsToEditors@FarEditorSet@@AAEXXZ 10009010 f   FarEditorSet.obj
 0001:000080e0       ?dropCurrentEditor@FarEditorSet@@AAEX_N@Z 100090e0 f   FarEditorSet.obj
 0001:000082b0       ?dropAllEditors@FarEditorSet@@AAEX_N@Z 100092b0 f   FarEditorSet.obj
 0001:00008340       ?ReadSettings@FarEditorSet@@QAEXXZ 10009340 f   FarEditorSet.obj
 0001:00008a80       ?SetDefaultSettings@FarEditorSet@@AAEXXZ 10009a80 f   FarEditorSet.obj
 0001:00008bb0       ?SaveSettings@FarEditorSet@@AAEXXZ 10009bb0 f   FarEditorSet.obj
 0001:00008d90       ?checkConEmu@FarEditorSet@@AAE_NXZ 10009d90 f   FarEditorSet.obj
 0001:00008de0       ?checkConsoleAnnotationAvailable@FarEditorSet@@AAE_NXZ 10009de0 f   FarEditorSet.obj
 0001:00008e60       ?SetBgEditor@FarEditorSet@@QAE_NXZ 10009e60 f   FarEditorSet.obj
 0001:00008fe0       ?LoadUserHrd@FarEditorSet@@QAEXPBVString@@PAVParserFactory@@@Z 10009fe0 f   FarEditorSet.obj
 0001:00009190       ??1DocumentBuilder@@QAE@XZ 1000a190 f i FarEditorSet.obj
 0001:00009270       ?LoadUserHrc@FarEditorSet@@QAEXPBVString@@PAVParserFactory@@@Z 1000a270 f   FarEditorSet.obj
 0001:00009320       ?getParamDefValue@FarEditorSet@@AAEPBVString@@PAVFileTypeImpl@@VSString@@@Z 1000a320 f   FarEditorSet.obj
 0001:000095b0       ?buildHrcList@FarEditorSet@@AAEPAUFarList@@XZ 1000a5b0 f   FarEditorSet.obj
 0001:00009700       ?buildParamsList@FarEditorSet@@AAEPAUFarList@@PAVFileTypeImpl@@@Z 1000a700 f   FarEditorSet.obj
 0001:00009820       ?setCrossValueListToCombobox@FarEditorSet@@AAEXPAVFileTypeImpl@@PAX@Z 1000a820 f   FarEditorSet.obj
 0001:00009b70       ?setCrossPosValueListToCombobox@FarEditorSet@@AAEXPAVFileTypeImpl@@PAX@Z 1000ab70 f   FarEditorSet.obj
 0001:00009e50       ?setYNListValueToCombobox@FarEditorSet@@AAEXPAVFileTypeImpl@@PAXVDString@@@Z 1000ae50 f   FarEditorSet.obj
 0001:0000a180       ?setTFListValueToCombobox@FarEditorSet@@AAEXPAVFileTypeImpl@@PAXVDString@@@Z 1000b180 f   FarEditorSet.obj
 0001:0000a4b0       ?setCustomListValueToCombobox@FarEditorSet@@AAEXPAVFileTypeImpl@@PAXVDString@@@Z 1000b4b0 f   FarEditorSet.obj
 0001:0000a710       ?OnChangeHrc@FarEditorSet@@QAEXPAX@Z 1000b710 f   FarEditorSet.obj
 0001:0000a780       ?SaveChangedValueParam@FarEditorSet@@AAEXPAX@Z 1000b780 f   FarEditorSet.obj
 0001:0000aae0       ?OnChangeParam@FarEditorSet@@QAEXPAXH@Z 1000bae0 f   FarEditorSet.obj
 0001:0000ae70       ?OnSaveHrcParams@FarEditorSet@@QAEXPAX@Z 1000be70 f   FarEditorSet.obj
 0001:0000aef0       ?SettingHrcDialogProc@@YGJPAXHHJ@Z 1000bef0 f   FarEditorSet.obj
 0001:0000afd0       ?configureHrc@FarEditorSet@@QAEXXZ 1000bfd0 f   FarEditorSet.obj
 0001:0000b3a0       ?next_int@?$HashtableCore@PAVFarEditor@@@@IBEPAPAVFarEditor@@XZ 1000c3a0 f i FarEditorSet.obj
 0001:0000b4e0       ?getAttribute@Element@@QAEPBVString@@ABV2@@Z 1000c4e0 f i FarHrcSettings.obj
 0001:0000b530       ?setParamDefaultValue@FileTypeImpl@@QAEXABVString@@PBV2@@Z 1000c530 f i FarHrcSettings.obj
 0001:0000b5c0       ?setParamDescription@FileTypeImpl@@QAEXABVString@@PBV2@@Z 1000c5c0 f i FarHrcSettings.obj
 0001:0000b660       ??0FarHrcSettingsException@@QAE@ABVString@@@Z 1000c660 f i FarHrcSettings.obj
 0001:0000b750       ?readProfile@FarHrcSettings@@QAEXXZ 1000c750 f   FarHrcSettings.obj
 0001:0000b8a0       ?readXML@FarHrcSettings@@QAEXPAVString@@_N@Z 1000c8a0 f   FarHrcSettings.obj
 0001:0000ba20       ?UpdatePrototype@FarHrcSettings@@AAEXPAVElement@@_N@Z 1000ca20 f   FarHrcSettings.obj
 0001:0000beb0       ?readUserProfile@FarHrcSettings@@QAEXXZ 1000ceb0 f   FarHrcSettings.obj
 0001:0000bf20       ?readProfileFromRegistry@FarHrcSettings@@AAEXPAUHKEY__@@@Z 1000cf20 f   FarHrcSettings.obj
 0001:0000c4c0       ?writeUserProfile@FarHrcSettings@@QAEXXZ 1000d4c0 f   FarHrcSettings.obj
 0001:0000c530       ?writeProfileToRegistry@FarHrcSettings@@AAEXXZ 1000d530 f   FarHrcSettings.obj
 0001:0000c710       _DllMain@12                1000d710 f   pcolorer.obj
 0001:0000c970       _SetStartupInfoW@4         1000d970 f   pcolorer.obj
 0001:0000c9b0       _GetPluginInfoW@4          1000d9b0 f   pcolorer.obj
 0001:0000ca10       _ExitFARW@0                1000da10 f   pcolorer.obj
 0001:0000ca40       _OpenPluginW@8             1000da40 f   pcolorer.obj
 0001:0000cb30       _ConfigureW@4              1000db30 f   pcolorer.obj
 0001:0000cb90       _ProcessEditorEventW@8     1000db90 f   pcolorer.obj
 0001:0000cbf0       _ProcessEditorInputW@4     1000dbf0 f   pcolorer.obj
 0001:0000cc30       ?rGetValueSz@@YAPA_WPAUHKEY__@@PB_W1@Z 1000dc30 f   registry_wide.obj
 0001:0000cd10       ?rtrim@@YAPA_WPA_W@Z       1000dd10 f   tools.obj
 0001:0000cd70       ?trim@@YAPA_WPA_W@Z        1000dd70 f   tools.obj
 0001:0000cda0       ?PathToFull@@YAPA_WPB_W_N@Z 1000dda0 f   tools.obj
 0001:0000d0c0       _adler32                   1000e0c0 f   adler32.obj
 0001:0000d330       _crc32                     1000e330 f   crc32.obj
 0001:0000d610       _inflate_fast              1000e610 f   inffast.obj
 0001:0000da20       _inflateReset              1000ea20 f   inflate.obj
 0001:0000da90       _inflateReset2             1000ea90 f   inflate.obj
 0001:0000dae0       _inflateInit2_             1000eae0 f   inflate.obj
 0001:0000dc60       _inflate                   1000ec60 f   inflate.obj
 0001:0000f190       _inflateEnd                10010190 f   inflate.obj
 0001:0000f1e0       _inflate_table             100101e0 f   inftrees.obj
 0001:0000f610       _zcalloc                   10010610 f   zutil.obj
 0001:0000f630       _zcfree                    10010630 f   zutil.obj
 0001:0000f650       _call_zseek64              10010650 f   ioapi.obj
 0001:000105d0       _unzClose                  100115d0 f   unzip.obj
 0001:00010aa0       _unzGetCurrentFileInfo     10011aa0 f   unzip.obj
 0001:00010b40       _unzGoToFirstFile          10011b40 f   unzip.obj
 0001:00010ba0       _unzGoToNextFile           10011ba0 f   unzip.obj
 0001:00010c40       _unzLocateFile             10011c40 f   unzip.obj
 0001:00010fe0       _unzOpenCurrentFile3       10011fe0 f   unzip.obj
 0001:000111a0       _unzReadCurrentFile        100121a0 f   unzip.obj
 0001:00011430       _unzCloseCurrentFile       10012430 f   unzip.obj
 0001:000114c0       ??1ErrorHandler@@UAE@XZ    100124c0 f i ParserFactory.obj
 0001:000114d0       ??_EErrorHandler@@UAEPAXI@Z 100124d0 f i  CIL library: CIL module
 0001:000114d0       ??_EDefaultErrorHandler@@UAEPAXI@Z 100124d0 f i  CIL library: CIL module
 0001:000114d0       ??_GErrorHandler@@UAEPAXI@Z 100124d0 f i ParserFactory.obj
 0001:000114d0       ??_GDefaultErrorHandler@@UAEPAXI@Z 100124d0 f i ParserFactory.obj
 0001:00011500       ??0ParserFactoryException@@QAE@ABVString@@@Z 10012500 f i ParserFactory.obj
 0001:000115f0       ?init@ParserFactory@@AAEXXZ 100125f0 f   ParserFactory.obj
 0001:00011a90       ?parseHRDSetsChild@ParserFactory@@QAEXPAVNode@@@Z 10012a90 f   ParserFactory.obj
 0001:000121b0       ?searchPath@ParserFactory@@AAEPAVString@@XZ 100131b0 f   ParserFactory.obj
 0001:00012d40       ??_EParserFactory@@UAEPAXI@Z 10013d40 f i  CIL library: CIL module
 0001:00012d40       ??_GParserFactory@@UAEPAXI@Z 10013d40 f i ParserFactory.obj
 0001:00012d70       ??0ParserFactory@@QAE@PBVString@@@Z 10013d70 f   ParserFactory.obj
 0001:00012e80       ??1ParserFactory@@UAE@XZ   10013e80 f   ParserFactory.obj
 0001:00013100       ?countHRD@ParserFactory@@QAEHABVString@@@Z 10014100 f   ParserFactory.obj
 0001:00013160       ?enumerateHRDInstances@ParserFactory@@QAEPBVString@@ABV2@H@Z 10014160 f   ParserFactory.obj
 0001:000131d0       ?getHRDescription@ParserFactory@@QAEPBVString@@ABV2@0@Z 100141d0 f   ParserFactory.obj
 0001:00013300       ?getHRCParser@ParserFactory@@QAEPAVHRCParser@@XZ 10014300 f   ParserFactory.obj
 0001:00013ac0       ?createStyledMapper@ParserFactory@@QAEPAVStyledHRDMapper@@PBVString@@0@Z 10014ac0 f   ParserFactory.obj
 0001:00013f90       ??0?$Vector@PBVString@@@@QAE@XZ 10014f90 f i ParserFactory.obj
 0001:00013fd0       ?put@?$HashtableCore@PAVFileTypeImpl@@@@QAE_NPBVString@@PAVFileTypeImpl@@@Z 10014fd0 f i HRCParserImpl.obj
 0001:00013fd0       ?put@?$HashtableCore@PAVFarEditor@@@@QAE_NPBVString@@PAVFarEditor@@@Z 10014fd0 f i FarEditorSet.obj
 0001:00013fd0       ?put@?$HashtableCore@PBVString@@@@QAE_NPBVString@@0@Z 10014fd0 f i ParserFactory.obj
 0001:00013fd0       ?put@?$HashtableCore@PBVRegion@@@@QAE_NPBVString@@PBVRegion@@@Z 10014fd0 f i HRCParserImpl.obj
 0001:00013fd0       ?put@?$HashtableCore@PAVString@@@@QAE_NPBVString@@PAV2@@Z 10014fd0 f i FarHrcSettings.obj
 0001:00013fd0       ?put@?$HashtableCore@PAVSchemeImpl@@@@QAE_NPBVString@@PAVSchemeImpl@@@Z 10014fd0 f i HRCParserImpl.obj
 0001:00013fd0       ?put@?$HashtableCore@PAVRegionDefine@@@@QAE_NPBVString@@PAVRegionDefine@@@Z 10014fd0 f i StyledHRDMapper.obj
 0001:00013fd0       ?put@?$HashtableCore@PAV?$Vector@PBVString@@@@@@QAE_NPBVString@@PAV?$Vector@PBVString@@@@@Z 10014fd0 f i ParserFactory.obj
 0001:00013fd0       ?put@?$HashtableCore@PAV?$Hashtable@PAV?$Vector@PBVString@@@@@@@@QAE_NPBVString@@PAV?$Hashtable@PAV?$Vector@PBVString@@@@@@@Z 10014fd0 f i ParserFactory.obj
 0001:00014140       ??1?$Vector@PAVRegionHandler@@@@QAE@XZ 10015140 f i BaseEditor.obj
 0001:00014140       ??1?$Vector@PAVEditorListener@@@@QAE@XZ 10015140 f i BaseEditor.obj
 0001:00014140       ??1?$Vector@PAVFileTypeImpl@@@@QAE@XZ 10015140 f i HRCParserImpl.obj
 0001:00014140       ??1?$Vector@PAVString@@@@QAE@XZ 10015140 f i ParserFactory.obj
 0001:00014140       ??1?$Vector@PAVVirtualEntry@@@@QAE@XZ 10015140 f i HRCParserHelpers.obj
 0001:00014140       ??1?$Vector@PAVOutlineItem@@@@QAE@XZ 10015140 f i Outliner.obj
 0001:00014140       ??1?$Vector@PBVString@@@@QAE@XZ 10015140 f i ParserFactory.obj
 0001:00014140       ??1?$Vector@PAVFileTypeChooser@@@@QAE@XZ 10015140 f i HRCParserImpl.obj
 0001:00014140       ??1?$Vector@PAE@@QAE@XZ    10015140 f i HTTPInputSource.obj
 0001:00014140       ??1?$Vector@PAVLineRegion@@@@QAE@XZ 10015140 f i LineRegionsSupport.obj
 0001:00014140       ??1?$Vector@PAVSchemeNode@@@@QAE@XZ 10015140 f i HRCParserImpl.obj
 0001:00014140       ??1?$Vector@PBVRegion@@@@QAE@XZ 10015140 f i HRCParserImpl.obj
 0001:00014140       ??1?$Vector@H@@QAE@XZ      10015140 f i FarEditor.obj
 0001:00014160       ?key@?$HashtableCore@PAV?$Vector@PBVString@@@@@@QBEPBVString@@H@Z 10015160 f i ParserFactory.obj
 0001:000141b0       ?insertElementAt@?$Vector@PAVString@@@@QAEXQAVString@@H@Z 100151b0 f i ChooseTypeMenu.obj
 0001:000141b0       ?insertElementAt@?$Vector@PBVString@@@@QAEXQBVString@@H@Z 100151b0 f i ParserFactory.obj
 0001:000142f0       ?rehash@?$HashtableCore@PAV?$Hashtable@PAV?$Vector@PBVString@@@@@@@@IAEXXZ 100152f0 f i ParserFactory.obj
 0001:000142f0       ?rehash@?$HashtableCore@PAVFarEditor@@@@IAEXXZ 100152f0 f i FarEditorSet.obj
 0001:000142f0       ?rehash@?$HashtableCore@PAV?$Vector@PBVString@@@@@@IAEXXZ 100152f0 f i ParserFactory.obj
 0001:000142f0       ?rehash@?$HashtableCore@PAVFileTypeImpl@@@@IAEXXZ 100152f0 f i HRCParserImpl.obj
 0001:000142f0       ?rehash@?$HashtableCore@PBVRegion@@@@IAEXXZ 100152f0 f i HRCParserImpl.obj
 0001:000142f0       ?rehash@?$HashtableCore@PAVSchemeImpl@@@@IAEXXZ 100152f0 f i HRCParserImpl.obj
 0001:000142f0       ?rehash@?$HashtableCore@PAVString@@@@IAEXXZ 100152f0 f i FarHrcSettings.obj
 0001:000142f0       ?rehash@?$HashtableCore@PAVRegionDefine@@@@IAEXXZ 100152f0 f i StyledHRDMapper.obj
 0001:000142f0       ?rehash@?$HashtableCore@PBVString@@@@IAEXXZ 100152f0 f i ParserFactory.obj
 0001:00014490       ?clear@?$HashtableCore@PBVString@@@@QAEXXZ 10015490 f i FarEditorSet.obj
 0001:00014490       ?clear@?$HashtableCore@H@@QAEXXZ 10015490 f i HRCParserImpl.obj
 0001:00014490       ?clear@?$HashtableCore@PBVRegion@@@@QAEXXZ 10015490 f i HRCParserImpl.obj
 0001:00014490       ?clear@?$HashtableCore@PAV?$Hashtable@PAV?$Vector@PBVString@@@@@@@@QAEXXZ 10015490 f i ParserFactory.obj
 0001:00014490       ?clear@?$HashtableCore@PAV?$Vector@PBVString@@@@@@QAEXXZ 10015490 f i ParserFactory.obj
 0001:00014490       ?clear@?$HashtableCore@PAVString@@@@QAEXXZ 10015490 f i FarHrcSettings.obj
 0001:00014490       ?clear@?$HashtableCore@PAVSharedInputSource@@@@QAEXXZ 10015490 f i SharedInputSource.obj
 0001:00014490       ?clear@?$HashtableCore@PAVFileTypeImpl@@@@QAEXXZ 10015490 f i HRCParserImpl.obj
 0001:00014490       ?clear@?$HashtableCore@PAVSchemeImpl@@@@QAEXXZ 10015490 f i HRCParserImpl.obj
 0001:00014490       ?clear@?$HashtableCore@PAVFarEditor@@@@QAEXXZ 10015490 f i FarEditorSet.obj
 0001:00014490       ?clear@?$HashtableCore@PAVRegionDefine@@@@QAEXXZ 10015490 f i StyledHRDMapper.obj
 0001:00014510       ??1Writer@@UAE@XZ          10015510 f i ConsoleTools.obj
 0001:00014520       ??_EWriter@@UAEPAXI@Z      10015520 f i  CIL library: CIL module
 0001:00014520       ??_GStreamWriter@@UAEPAXI@Z 10015520 f i StreamWriter.obj
 0001:00014520       ??_GWriter@@UAEPAXI@Z      10015520 f i ConsoleTools.obj
 0001:00014520       ??_EStreamWriter@@UAEPAXI@Z 10015520 f i  CIL library: CIL module
 0001:00014550       ?next_int@?$HashtableCore@PAV?$Vector@PBVString@@@@@@IBEPAPAV?$Vector@PBVString@@@@XZ 10015550 f i ParserFactory.obj
 0001:00014550       ?next_int@?$HashtableCore@PBVString@@@@IBEPAPBVString@@XZ 10015550 f i ParserFactory.obj
 0001:00014550       ?next_int@?$HashtableCore@PAVRegionDefine@@@@IBEPAPAVRegionDefine@@XZ 10015550 f i StyledHRDMapper.obj
 0001:00014550       ?next_int@?$HashtableCore@PAVSchemeImpl@@@@IBEPAPAVSchemeImpl@@XZ 10015550 f i HRCParserImpl.obj
 0001:00014550       ?next_int@?$HashtableCore@PAVFileTypeImpl@@@@IBEPAPAVFileTypeImpl@@XZ 10015550 f i HRCParserImpl.obj
 0001:00014550       ?next_int@?$HashtableCore@PAV?$Hashtable@PAV?$Vector@PBVString@@@@@@@@IBEPAPAV?$Hashtable@PAV?$Vector@PBVString@@@@@@XZ 10015550 f i ParserFactory.obj
 0001:00014550       ?next_int@?$HashtableCore@PAVString@@@@IBEPAPAVString@@XZ 10015550 f i ConsoleTools.obj
 0001:000146a0       ?view@TextConsoleViewer@@QAEXXZ 100156a0 f   TextConsoleViewer.obj
 0001:00014e30       ?replaceTabs@TextLinesStore@@AAEXH@Z 10015e30 f   TextLinesStore.obj
 0001:000150a0       ??_GTextLinesStore@@UAEPAXI@Z 100160a0 f i TextLinesStore.obj
 0001:000150a0       ??_ETextLinesStore@@UAEPAXI@Z 100160a0 f i  CIL library: CIL module
 0001:00015120       ??1TextLinesStore@@UAE@XZ  10016120 f   TextLinesStore.obj
 0001:00015180       ?freeFile@TextLinesStore@@IAEXXZ 10016180 f   TextLinesStore.obj
 0001:00015260       ?loadFile@TextLinesStore@@QAEXPBVString@@0_N@Z 10016260 f   TextLinesStore.obj
 0001:000155e0       ?getLine@TextLinesStore@@UAEPAVString@@H@Z 100165e0 f   TextLinesStore.obj
 0001:00015600       ?ensureCapacity@?$Vector@PAVString@@@@QAEXH@Z 10016600 f i TextLinesStore.obj
 0001:00015600       ?ensureCapacity@?$Vector@PAVOutlineItem@@@@QAEXH@Z 10016600 f i Outliner.obj
 0001:00015600       ?ensureCapacity@?$Vector@PAVLineRegion@@@@QAEXH@Z 10016600 f i LineRegionsSupport.obj
 0001:00015600       ?ensureCapacity@?$Vector@PBVRegionDefine@@@@QAEXH@Z 10016600 f i RegionMapperImpl.obj
 0001:00015660       ??0ErrorHandlerWriter@@QAE@PAVWriter@@@Z 10016660 f   ErrorHandlerWriter.obj
 0001:00015800       ??_GErrorHandlerWriter@@UAEPAXI@Z 10016800 f i ErrorHandlerWriter.obj
 0001:00015800       ??_EErrorHandlerWriter@@UAEPAXI@Z 10016800 f i  CIL library: CIL module
 0001:00015830       ??1ErrorHandlerWriter@@UAE@XZ 10016830 f   ErrorHandlerWriter.obj
 0001:000159d0       ?error@ErrorHandlerWriter@@UAEXABVString@@@Z 100169d0 f   ErrorHandlerWriter.obj
 0001:00015c30       ?fatalError@ErrorHandlerWriter@@UAEXABVString@@@Z 10016c30 f   ErrorHandlerWriter.obj
 0001:00015e90       ?warning@ErrorHandlerWriter@@UAEXABVString@@@Z 10016e90 f   ErrorHandlerWriter.obj
 0001:000160f0       ??0FileErrorHandler@@QAE@PBVString@@H_N@Z 100170f0 f   FileErrorHandler.obj
 0001:00016210       ??_GFileErrorHandler@@UAEPAXI@Z 10017210 f i FileErrorHandler.obj
 0001:00016210       ??_EFileErrorHandler@@UAEPAXI@Z 10017210 f i  CIL library: CIL module
 0001:000162a0       ?error@FileErrorHandler@@UAEXABVString@@@Z 100172a0 f   FileErrorHandler.obj
 0001:000162d0       ?fatalError@FileErrorHandler@@UAEXABVString@@@Z 100172d0 f   FileErrorHandler.obj
 0001:00016300       ?warning@FileErrorHandler@@UAEXABVString@@@Z 10017300 f   FileErrorHandler.obj
 0001:00016330       ??_GLineRegionsCompactSupport@@UAEPAXI@Z 10017330 f i LineRegionsCompactSupport.obj
 0001:00016330       ??_ELineRegionsCompactSupport@@UAEPAXI@Z 10017330 f i  CIL library: CIL module
 0001:00016370       ?addLineRegion@LineRegionsCompactSupport@@MAEXHPAVLineRegion@@@Z 10017370 f   LineRegionsCompactSupport.obj
 0001:00016750       ?clearLine@RegionHandler@@UAEXHPAVString@@@Z 10017750 f i LineRegionsSupport.obj
 0001:00016760       ??1RegionHandler@@MAE@XZ   10017760 f i LineRegionsSupport.obj
 0001:00016770       ??_GRegionHandler@@MAEPAXI@Z 10017770 f i LineRegionsSupport.obj
 0001:00016770       ??_ERegionHandler@@MAEPAXI@Z 10017770 f i  CIL library: CIL module
 0001:000167a0       ??0LineRegionsSupport@@QAE@XZ 100177a0 f   LineRegionsSupport.obj
 0001:00016870       ??_ELineRegionsSupport@@UAEPAXI@Z 10017870 f i  CIL library: CIL module
 0001:00016870       ??_GLineRegionsSupport@@UAEPAXI@Z 10017870 f i LineRegionsSupport.obj
 0001:000168a0       ??1LineRegionsSupport@@UAE@XZ 100178a0 f   LineRegionsSupport.obj
 0001:00016980       ?clear@LineRegionsSupport@@QAEXXZ 10017980 f   LineRegionsSupport.obj
 0001:00016a40       ?startParsing@LineRegionsSupport@@UAEXH@Z 10017a40 f   LineRegionsSupport.obj
 0001:00016b20       ?clearLine@LineRegionsSupport@@UAEXHPAVString@@@Z 10017b20 f   LineRegionsSupport.obj
 0001:00016c90       ?addRegion@LineRegionsSupport@@UAEXHPAVString@@HHPBVRegion@@@Z 10017c90 f   LineRegionsSupport.obj
 0001:00016d90       ?enterScheme@LineRegionsSupport@@UAEXHPAVString@@HHPBVRegion@@PBVScheme@@@Z 10017d90 f   LineRegionsSupport.obj
 0001:00016ee0       ?leaveScheme@LineRegionsSupport@@UAEXHPAVString@@HHPBVRegion@@PBVScheme@@@Z 10017ee0 f   LineRegionsSupport.obj
 0001:00016fe0       ?addLineRegion@LineRegionsSupport@@MAEXHPAVLineRegion@@@Z 10017fe0 f   LineRegionsSupport.obj
 0001:000170d0       ?removeElementAt@?$Vector@PAVLineRegion@@@@QAEXH@Z 100180d0 f i LineRegionsSupport.obj
 0001:000170d0       ?removeElementAt@?$Vector@PAVEditorListener@@@@QAEXH@Z 100180d0 f i BaseEditor.obj
 0001:000170d0       ?removeElementAt@?$Vector@PAVRegionHandler@@@@QAEXH@Z 100180d0 f i BaseEditor.obj
 0001:00017160       ?lastElement@?$Vector@PAVLineRegion@@@@QBEPAVLineRegion@@XZ 10018160 f i LineRegionsSupport.obj
 0001:00017210       ?getRegionDefine@RegionMapperImpl@@UBEPBVRegionDefine@@PBVRegion@@@Z 10018210 f   RegionMapperImpl.obj
 0001:00017400       ?getRegionDefine@RegionMapperImpl@@UBEPBVRegionDefine@@ABVString@@@Z 10018400 f   RegionMapperImpl.obj
 0001:00017460       ?setSize@?$Vector@PBVRegionDefine@@@@QAEXH@Z 10018460 f i RegionMapperImpl.obj
 0001:00017460       ?setSize@?$Vector@PAVLineRegion@@@@QAEXH@Z 10018460 f i LineRegionsSupport.obj
 0001:000174d0       ??4RegionDefine@@UAEAAV0@ABV0@@Z 100184d0 f i StyledHRDMapper.obj
 0001:000174f0       ??1RegionDefine@@UAE@XZ    100184f0 f i StyledHRDMapper.obj
 0001:00017500       ??1RegionMapperImpl@@UAE@XZ 10018500 f i StyledHRDMapper.obj
 0001:00017580       ??_ERegionMapperImpl@@UAEPAXI@Z 10018580 f i  CIL library: CIL module
 0001:00017580       ??_GRegionMapperImpl@@UAEPAXI@Z 10018580 f i StyledHRDMapper.obj
 0001:00017620       ?assignParent@StyledRegion@@UAEXPBVRegionDefine@@@Z 10018620 f i StyledHRDMapper.obj
 0001:000176f0       ?setValues@StyledRegion@@UAEXPBVRegionDefine@@@Z 100186f0 f i StyledHRDMapper.obj
 0001:000177c0       ?clone@StyledRegion@@UBEPAVRegionDefine@@XZ 100187c0 f i StyledHRDMapper.obj
 0001:00017850       ??_GStyledRegion@@UAEPAXI@Z 10018850 f i StyledHRDMapper.obj
 0001:00017850       ??_GRegionDefine@@UAEPAXI@Z 10018850 f i StyledHRDMapper.obj
 0001:00017850       ??_ERegionDefine@@UAEPAXI@Z 10018850 f i  CIL library: CIL module
 0001:00017850       ??_EStyledRegion@@UAEPAXI@Z 10018850 f i  CIL library: CIL module
 0001:00017880       ??0StyledHRDMapper@@QAE@XZ 10018880 f   StyledHRDMapper.obj
 0001:00017910       ??_EStyledHRDMapper@@UAEPAXI@Z 10018910 f i  CIL library: CIL module
 0001:00017910       ??_GStyledHRDMapper@@UAEPAXI@Z 10018910 f i StyledHRDMapper.obj
 0001:00017940       ??1StyledHRDMapper@@UAE@XZ 10018940 f   StyledHRDMapper.obj
 0001:00017a30       ?loadRegionMappings@StyledHRDMapper@@UAEXPAVInputSource@@@Z 10018a30 f   StyledHRDMapper.obj
 0001:00017f10       ?saveRegionMappings@StyledHRDMapper@@UBEXPAVWriter@@@Z 10018f10 f   StyledHRDMapper.obj
 0001:00018610       ?setRegionDefine@StyledHRDMapper@@UAEXABVString@@PBVRegionDefine@@@Z 10019610 f   StyledHRDMapper.obj
 0001:00018830       ?nextkey@?$HashtableCore@PAVRegionDefine@@@@QBEPAVString@@XZ 10019830 f i StyledHRDMapper.obj
 0001:00018970       ?setStart@PairMatch@@QAEXPAVLineRegion@@@Z 10019970 f i BaseEditor.obj
 0001:00018a30       ?setEnd@PairMatch@@QAEXPAVLineRegion@@@Z 10019a30 f i BaseEditor.obj
 0001:00018af0       ??_GPairMatch@@UAEPAXI@Z   10019af0 f i BaseEditor.obj
 0001:00018af0       ??_EPairMatch@@UAEPAXI@Z   10019af0 f i  CIL library: CIL module
 0001:00018b70       ??0BaseEditor@@QAE@PAVParserFactory@@PAVLineSource@@@Z 10019b70 f   BaseEditor.obj
 0001:00018ed0       ??_EBaseEditor@@UAEPAXI@Z  10019ed0 f i  CIL library: CIL module
 0001:00018ed0       ??_GBaseEditor@@UAEPAXI@Z  10019ed0 f i BaseEditor.obj
 0001:00018f00       ??1BaseEditor@@UAE@XZ      10019f00 f   BaseEditor.obj
 0001:00018fc0       ?remapLRS@BaseEditor@@AAEX_N@Z 10019fc0 f   BaseEditor.obj
 0001:000192a0       ?chooseFileTypeCh@BaseEditor@@AAEPAVFileType@@PBVString@@HH@Z 1001a2a0 f   BaseEditor.obj
 0001:000195e0       ?chooseFileType@BaseEditor@@QAEPAVFileType@@PBVString@@@Z 1001a5e0 f   BaseEditor.obj
 0001:000197c0       ?getPairMatch@BaseEditor@@AAEPAVPairMatch@@HH@Z 1001a7c0 f   BaseEditor.obj
 0001:00019970       ?searchLocalPair@BaseEditor@@QAEPAVPairMatch@@HH@Z 1001a970 f   BaseEditor.obj
 0001:00019b80       ?searchGlobalPair@BaseEditor@@QAEPAVPairMatch@@HH@Z 1001ab80 f   BaseEditor.obj
 0001:00019d80       ?validate@BaseEditor@@QAEXH_N@Z 1001ad80 f   BaseEditor.obj
 0001:00019eb0       ?idleJob@BaseEditor@@QAEXH@Z 1001aeb0 f   BaseEditor.obj
 0001:00019ef0       ?startParsing@BaseEditor@@UAEXH@Z 1001aef0 f   BaseEditor.obj
 0001:00019f90       ?endParsing@BaseEditor@@UAEXH@Z 1001af90 f   BaseEditor.obj
 0001:0001a030       ?clearLine@BaseEditor@@UAEXHPAVString@@@Z 1001b030 f   BaseEditor.obj
 0001:0001a0e0       ?addRegion@BaseEditor@@UAEXHPAVString@@HHPBVRegion@@@Z 1001b0e0 f   BaseEditor.obj
 0001:0001a1a0       ?enterScheme@BaseEditor@@UAEXHPAVString@@HHPBVRegion@@PBVScheme@@@Z 1001b1a0 f   BaseEditor.obj
 0001:0001a270       ?leaveScheme@BaseEditor@@UAEXHPAVString@@HHPBVRegion@@PBVScheme@@@Z 1001b270 f   BaseEditor.obj
 0001:0001a340       ?insertElementAt@?$Vector@PAVFileTypeImpl@@@@QAEXQAVFileTypeImpl@@H@Z 1001b340 f i HRCParserImpl.obj
 0001:0001a340       ?insertElementAt@?$Vector@PAVSchemeNode@@@@QAEXQAVSchemeNode@@H@Z 1001b340 f i HRCParserImpl.obj
 0001:0001a340       ?insertElementAt@?$Vector@PAVVirtualEntry@@@@QAEXQAVVirtualEntry@@H@Z 1001b340 f i HRCParserImpl.obj
 0001:0001a340       ?insertElementAt@?$Vector@PAVOutlineItem@@@@QAEXQAVOutlineItem@@H@Z 1001b340 f i Outliner.obj
 0001:0001a340       ?insertElementAt@?$Vector@PBVRegion@@@@QAEXQBVRegion@@H@Z 1001b340 f i HRCParserImpl.obj
 0001:0001a340       ?insertElementAt@?$Vector@H@@QAEXHH@Z 1001b340 f i Outliner.obj
 0001:0001a340       ?insertElementAt@?$Vector@PAVEditorListener@@@@QAEXQAVEditorListener@@H@Z 1001b340 f i BaseEditor.obj
 0001:0001a340       ?insertElementAt@?$Vector@PAE@@QAEXQAEH@Z 1001b340 f i MemoryChunks.obj
 0001:0001a340       ?insertElementAt@?$Vector@PAVRegionHandler@@@@QAEXQAVRegionHandler@@H@Z 1001b340 f i BaseEditor.obj
 0001:0001a340       ?insertElementAt@?$Vector@PAVLineRegion@@@@QAEXQAVLineRegion@@H@Z 1001b340 f i LineRegionsSupport.obj
 0001:0001a340       ?insertElementAt@?$Vector@PAVFileTypeChooser@@@@QAEXQAVFileTypeChooser@@H@Z 1001b340 f i HRCParserImpl.obj
 0001:0001a470       ??0OutlineItem@@QAE@HHHPAVString@@PBVRegion@@@Z 1001b470 f i Outliner.obj
 0001:0001a510       ??0Outliner@@QAE@PAVBaseEditor@@PBVRegion@@@Z 1001b510 f   Outliner.obj
 0001:0001a5d0       ??_GOutliner@@UAEPAXI@Z    1001b5d0 f i Outliner.obj
 0001:0001a5d0       ??_EOutliner@@UAEPAXI@Z    1001b5d0 f i  CIL library: CIL module
 0001:0001a600       ??1Outliner@@UAE@XZ        1001b600 f   Outliner.obj
 0001:0001a700       ?manageTree@Outliner@@SAHAAV?$Vector@H@@H@Z 1001b700 f   Outliner.obj
 0001:0001a830       ?modifyEvent@Outliner@@UAEXH@Z 1001b830 f   Outliner.obj
 0001:0001a9c0       ?startParsing@Outliner@@UAEXH@Z 1001b9c0 f   Outliner.obj
 0001:0001a9d0       ?endParsing@Outliner@@UAEXH@Z 1001b9d0 f   Outliner.obj
 0001:0001a9f0       ?clearLine@Outliner@@UAEXHPAVString@@@Z 1001b9f0 f   Outliner.obj
 0001:0001aa00       ?addRegion@Outliner@@UAEXHPAVString@@HHPBVRegion@@@Z 1001ba00 f   Outliner.obj
 0001:0001ab60       ?enterScheme@Outliner@@UAEXHPAVString@@HHPBVRegion@@PBVScheme@@@Z 1001bb60 f   Outliner.obj
 0001:0001ab70       ?leaveScheme@Outliner@@UAEXHPAVString@@HHPBVRegion@@PBVScheme@@@Z 1001bb70 f   Outliner.obj
 0001:0001ab80       ?lastElement@?$Vector@PAVOutlineItem@@@@QBEPAVOutlineItem@@XZ 1001bb80 f i Outliner.obj
 0001:0001ac00       ?lastElement@?$Vector@H@@QBEHXZ 1001bc00 f i Outliner.obj
 0001:0001ac90       ?getDescription@Region@@UBEPBVString@@XZ 1001bc90 f i HRCParserImpl.obj
 0001:0001aca0       ?getGroup@FileTypeImpl@@UAEPBVString@@XZ 1001bca0 f i HRCParserImpl.obj
 0001:0001aca0       ?length@SString@@UBEHXZ    1001bca0 f i SString.obj
 0001:0001aca0       ?getID@Region@@UBEHXZ      1001bca0 f i HRCParserImpl.obj
 0001:0001acb0       ??0Region@@QAE@PBVString@@0PBV0@H@Z 1001bcb0 f i HRCParserImpl.obj
 0001:0001ada0       ??_ERegion@@UAEPAXI@Z      1001bda0 f i  CIL library: CIL module
 0001:0001ada0       ??_GRegion@@UAEPAXI@Z      1001bda0 f i HRCParserImpl.obj
 0001:0001adf0       ??1RegionMapper@@UAE@XZ    1001bdf0 f i StyledHRDMapper.obj
 0001:0001adf0       ??1Scheme@@MAE@XZ          1001bdf0 f i HRCParserImpl.obj
 0001:0001ae00       ??_ERegionMapper@@UAEPAXI@Z 1001be00 f i  CIL library: CIL module
 0001:0001ae00       ??_EScheme@@MAEPAXI@Z      1001be00 f i  CIL library: CIL module
 0001:0001ae00       ??_GRegionMapper@@UAEPAXI@Z 1001be00 f i StyledHRDMapper.obj
 0001:0001ae00       ??_GScheme@@MAEPAXI@Z      1001be00 f i HRCParserImpl.obj
 0001:0001ae30       ??0VirtualEntry@@QAE@PBVString@@0@Z 1001be30 f i HRCParserImpl.obj
 0001:0001af10       ?getFileType@SchemeImpl@@UBEPAVFileType@@XZ 1001bf10 f i HRCParserImpl.obj
 0001:0001af20       ??0SchemeImpl@@IAE@PBVString@@@Z 1001bf20 f i HRCParserImpl.obj
 0001:0001aff0       ??1SchemeImpl@@MAE@XZ      1001bff0 f i HRCParserImpl.obj
 0001:0001b090       ??_GSchemeImpl@@MAEPAXI@Z  1001c090 f i HRCParserImpl.obj
 0001:0001b090       ??_ESchemeImpl@@MAEPAXI@Z  1001c090 f i  CIL library: CIL module
 0001:0001b0c0       ??0HRCParserException@@QAE@ABVString@@@Z 1001c0c0 f i HRCParserImpl.obj
 0001:0001b1b0       ??1HRCParser@@UAE@XZ       1001c1b0 f i HRCParserImpl.obj
 0001:0001b1b0       ??1FileType@@MAE@XZ        1001c1b0 f i HRCParserImpl.obj
 0001:0001b1c0       ??_EHRCParser@@UAEPAXI@Z   1001c1c0 f i  CIL library: CIL module
 0001:0001b1c0       ??_EFileType@@MAEPAXI@Z    1001c1c0 f i  CIL library: CIL module
 0001:0001b1c0       ??_GHRCParser@@UAEPAXI@Z   1001c1c0 f i HRCParserImpl.obj
 0001:0001b1c0       ??_GFileType@@MAEPAXI@Z    1001c1c0 f i HRCParserImpl.obj
 0001:0001b1f0       ?getName@FileTypeImpl@@UAEPBVString@@XZ 1001c1f0 f i HRCParserImpl.obj
 0001:0001b1f0       ?getParent@Region@@UBEPBV1@XZ 1001c1f0 f i HRCParserImpl.obj
 0001:0001b200       ?getDescription@FileTypeImpl@@UAEPBVString@@XZ 1001c200 f i HRCParserImpl.obj
 0001:0001b210       ?getBaseScheme@FileTypeImpl@@UAEPAVScheme@@XZ 1001c210 f i HRCParserImpl.obj
 0001:0001b230       ?enumerateParameters@FileTypeImpl@@UAEPBVString@@H@Z 1001c230 f i HRCParserImpl.obj
 0001:0001b2c0       ?getParameterDescription@FileTypeImpl@@UAEPBVString@@ABV2@@Z 1001c2c0 f i HRCParserImpl.obj
 0001:0001b320       ?getParamValue@FileTypeImpl@@UAEPBVString@@ABV2@@Z 1001c320 f i HRCParserImpl.obj
 0001:0001b3a0       ?getParamValueInt@FileTypeImpl@@UAEHABVString@@H@Z 1001c3a0 f i HRCParserImpl.obj
 0001:0001b3f0       ?getParamDefaultValue@FileTypeImpl@@UAEPBVString@@ABV2@@Z 1001c3f0 f i HRCParserImpl.obj
 0001:0001b450       ?setParamValue@FileTypeImpl@@UAEXABVString@@PBV2@@Z 1001c450 f i HRCParserImpl.obj
 0001:0001b4e0       ?getPriority@FileTypeImpl@@QBENPBVString@@0@Z 1001c4e0 f i HRCParserImpl.obj
 0001:0001b620       ??0FileTypeImpl@@IAE@PAVHRCParserImpl@@@Z 1001c620 f i HRCParserImpl.obj
 0001:0001b770       ??1FileTypeImpl@@MAE@XZ    1001c770 f i HRCParserImpl.obj
 0001:0001ba70       ??_GFileTypeImpl@@MAEPAXI@Z 1001ca70 f i HRCParserImpl.obj
 0001:0001ba70       ??_EFileTypeImpl@@MAEPAXI@Z 1001ca70 f i  CIL library: CIL module
 0001:0001baa0       ??0HRCParserImpl@@QAE@XZ   1001caa0 f   HRCParserImpl.obj
 0001:0001bc40       ??_EHRCParserImpl@@UAEPAXI@Z 1001cc40 f i  CIL library: CIL module
 0001:0001bc40       ??_GHRCParserImpl@@UAEPAXI@Z 1001cc40 f i HRCParserImpl.obj
 0001:0001bc70       ??1HRCParserImpl@@UAE@XZ   1001cc70 f   HRCParserImpl.obj
 0001:0001bf00       ?setErrorHandler@HRCParserImpl@@UAEXPAVErrorHandler@@@Z 1001cf00 f   HRCParserImpl.obj
 0001:0001bf10       ?loadSource@HRCParserImpl@@UAEXPAVInputSource@@@Z 1001cf10 f   HRCParserImpl.obj
 0001:0001bff0       ?unloadFileType@HRCParserImpl@@IAEXPAVFileTypeImpl@@@Z 1001cff0 f   HRCParserImpl.obj
 0001:0001c140       ?loadFileType@HRCParserImpl@@IAEXPAVFileType@@@Z 1001d140 f   HRCParserImpl.obj
 0001:0001c3b0       ?chooseFileType@HRCParserImpl@@UAEPAVFileType@@PBVString@@0H@Z 1001d3b0 f   HRCParserImpl.obj
 0001:0001c4b0       ?getFileType@HRCParserImpl@@UAEPAVFileType@@PBVString@@@Z 1001d4b0 f   HRCParserImpl.obj
 0001:0001c4d0       ?enumerateFileTypes@HRCParserImpl@@UAEPAVFileType@@H@Z 1001d4d0 f   HRCParserImpl.obj
 0001:0001c560       ?getFileTypesCount@HRCParserImpl@@UAEHXZ 1001d560 f   HRCParserImpl.obj
 0001:0001c570       ?getRegionCount@HRCParserImpl@@UAEHXZ 1001d570 f   HRCParserImpl.obj
 0001:0001c580       ?getRegion@HRCParserImpl@@UAEPBVRegion@@H@Z 1001d580 f   HRCParserImpl.obj
 0001:0001c5e0       ?getRegion@HRCParserImpl@@UAEPBVRegion@@PBVString@@@Z 1001d5e0 f   HRCParserImpl.obj
 0001:0001c600       ?getVersion@HRCParserImpl@@UAEPBVString@@XZ 1001d600 f   HRCParserImpl.obj
 0001:0001c610       ?parseHRC@HRCParserImpl@@IAEXPAVInputSource@@@Z 1001d610 f   HRCParserImpl.obj
 0001:0001c860       ?addPrototype@HRCParserImpl@@IAEXPAVElement@@@Z 1001d860 f   HRCParserImpl.obj
 0001:0001d770       ?addType@HRCParserImpl@@IAEXPAVElement@@@Z 1001e770 f   HRCParserImpl.obj
 0001:0001e160       ?addScheme@HRCParserImpl@@IAEXPAVElement@@@Z 1001f160 f   HRCParserImpl.obj
 0001:0001e5e0       ?addSchemeNodes@HRCParserImpl@@IAEXPAVSchemeImpl@@PAVNode@@@Z 1001f5e0 f   HRCParserImpl.obj
 0001:0001fe30       ?loadRegions@HRCParserImpl@@IAEXPAVSchemeNode@@PAVElement@@_N@Z 10020e30 f   HRCParserImpl.obj
 0001:000200d0       ?loadBlockRegions@HRCParserImpl@@IAEXPAVSchemeNode@@PAVElement@@@Z 100210d0 f   HRCParserImpl.obj
 0001:00020430       ?updateLinks@HRCParserImpl@@IAEXXZ 10021430 f   HRCParserImpl.obj
 0001:00020b60       ?qualifyOwnName@HRCParserImpl@@IAEPAVString@@PBV2@@Z 10021b60 f   HRCParserImpl.obj
 0001:00020e70       ?checkNameExist@HRCParserImpl@@IAE_NPBVString@@PAVFileTypeImpl@@W4QualifyNameType@1@_N@Z 10021e70 f   HRCParserImpl.obj
 0001:00021080       ?qualifyForeignName@HRCParserImpl@@IAEPAVString@@PBV2@W4QualifyNameType@1@_N@Z 10022080 f   HRCParserImpl.obj
 0001:00021600       ?useEntities@HRCParserImpl@@IAEPAVString@@PBV2@@Z 10022600 f   HRCParserImpl.obj
 0001:00021b40       ?getNCRegion@HRCParserImpl@@IAEPBVRegion@@PBVString@@_N@Z 10022b40 f   HRCParserImpl.obj
 0001:00021c50       ?getNCRegion@HRCParserImpl@@IAEPBVRegion@@PAVElement@@ABVString@@@Z 10022c50 f   HRCParserImpl.obj
 0001:00021cc0       ??0?$Hashtable@PAVFileTypeImpl@@@@QAE@HN@Z 10022cc0 f i HRCParserImpl.obj
 0001:00021cf0       ??0?$Hashtable@PAVSchemeImpl@@@@QAE@HN@Z 10022cf0 f i HRCParserImpl.obj
 0001:00021d20       ??1?$Hashtable@PAVRegionDefine@@@@UAE@XZ 10022d20 f i StyledHRDMapper.obj
 0001:00021d20       ??1?$Hashtable@PAVFarEditor@@@@UAE@XZ 10022d20 f i FarEditorSet.obj
 0001:00021d20       ??1?$Hashtable@PAVFileTypeImpl@@@@UAE@XZ 10022d20 f i HRCParserImpl.obj
 0001:00021d20       ??1?$Hashtable@PAVString@@@@UAE@XZ 10022d20 f i ConsoleTools.obj
 0001:00021d20       ??1?$Hashtable@PAV?$Hashtable@PAV?$Vector@PBVString@@@@@@@@UAE@XZ 10022d20 f i ParserFactory.obj
 0001:00021d20       ??1?$Hashtable@PBVRegion@@@@UAE@XZ 10022d20 f i HRCParserImpl.obj
 0001:00021d20       ??1?$Hashtable@PBVString@@@@UAE@XZ 10022d20 f i FarEditorSet.obj
 0001:00021d20       ??1?$Hashtable@H@@UAE@XZ   10022d20 f i HRCParserImpl.obj
 0001:00021d20       ??1?$Hashtable@PAVSchemeImpl@@@@UAE@XZ 10022d20 f i HRCParserImpl.obj
 0001:00021d50       ?get@?$Hashtable@PAVString@@@@QBEPAVString@@PBV2@@Z 10022d50 f i FarEditorSet.obj
 0001:00021d50       ?get@?$Hashtable@PAVFileTypeImpl@@@@QBEPAVFileTypeImpl@@PBVString@@@Z 10022d50 f i HRCParserImpl.obj
 0001:00021d50       ?get@?$Hashtable@PBVRegion@@@@QBEPBVRegion@@PBVString@@@Z 10022d50 f i HRCParserImpl.obj
 0001:00021d50       ?get@?$Hashtable@PAVRegionDefine@@@@QBEPAVRegionDefine@@PBVString@@@Z 10022d50 f i RegionMapperImpl.obj
 0001:00021d50       ?get@?$Hashtable@PAVSchemeImpl@@@@QBEPAVSchemeImpl@@PBVString@@@Z 10022d50 f i HRCParserImpl.obj
 0001:00021d50       ?get@?$Hashtable@PAV?$Hashtable@PAV?$Vector@PBVString@@@@@@@@QBEPAV?$Hashtable@PAV?$Vector@PBVString@@@@@@PBVString@@@Z 10022d50 f i ParserFactory.obj
 0001:00021d50       ?get@?$Hashtable@PAVFarEditor@@@@QBEPAVFarEditor@@PBVString@@@Z 10022d50 f i FarEditorSet.obj
 0001:00021d50       ?get@?$Hashtable@PBVString@@@@QBEPBVString@@PBV2@@Z 10022d50 f i FarHrcSettings.obj
 0001:00021d50       ?get@?$Hashtable@H@@QBEHPBVString@@@Z 10022d50 f i HRCParserImpl.obj
 0001:00021d50       ?get@?$Hashtable@PAV?$Vector@PBVString@@@@@@QBEPAV?$Vector@PBVString@@@@PBVString@@@Z 10022d50 f i ParserFactory.obj
 0001:00021da0       ??0?$Hashtable@PBVRegion@@@@QAE@HN@Z 10022da0 f i HRCParserImpl.obj
 0001:00021dd0       ??_G?$Hashtable@PAVRegionDefine@@@@UAEPAXI@Z 10022dd0 f i StyledHRDMapper.obj
 0001:00021dd0       ??_E?$HashtableCore@PAVSharedInputSource@@@@UAEPAXI@Z 10022dd0 f i  CIL library: CIL module
 0001:00021dd0       ??_G?$HashtableCore@PAVFarEditor@@@@UAEPAXI@Z 10022dd0 f i FarEditorSet.obj
 0001:00021dd0       ??_G?$Hashtable@PAV?$Vector@PBVString@@@@@@UAEPAXI@Z 10022dd0 f i ParserFactory.obj
 0001:00021dd0       ??_E?$HashtableCore@PBVRegion@@@@UAEPAXI@Z 10022dd0 f i  CIL library: CIL module
 0001:00021dd0       ??_E?$Hashtable@PAV?$Vector@PBVString@@@@@@UAEPAXI@Z 10022dd0 f i  CIL library: CIL module
 0001:00021dd0       ??_E?$HashtableCore@PAVFileTypeImpl@@@@UAEPAXI@Z 10022dd0 f i  CIL library: CIL module
 0001:00021dd0       ??_E?$HashtableCore@PAV?$Vector@PBVString@@@@@@UAEPAXI@Z 10022dd0 f i  CIL library: CIL module
 0001:00021dd0       ??_G?$Hashtable@H@@UAEPAXI@Z 10022dd0 f i HRCParserImpl.obj
 0001:00021dd0       ??_G?$HashtableCore@PAVSchemeImpl@@@@UAEPAXI@Z 10022dd0 f i HRCParserImpl.obj
 0001:00021dd0       ??_G?$HashtableCore@PAVString@@@@UAEPAXI@Z 10022dd0 f i ConsoleTools.obj
 0001:00021dd0       ??_G?$Hashtable@PAV?$Hashtable@PAV?$Vector@PBVString@@@@@@@@UAEPAXI@Z 10022dd0 f i ParserFactory.obj
 0001:00021dd0       ??_G?$HashtableCore@PAVSharedInputSource@@@@UAEPAXI@Z 10022dd0 f i SharedInputSource.obj
 0001:00021dd0       ??_G?$HashtableCore@PAVRegionDefine@@@@UAEPAXI@Z 10022dd0 f i StyledHRDMapper.obj
 0001:00021dd0       ??_G?$HashtableCore@PAV?$Vector@PBVString@@@@@@UAEPAXI@Z 10022dd0 f i ParserFactory.obj
 0001:00021dd0       ??_E?$Hashtable@PAVFarEditor@@@@UAEPAXI@Z 10022dd0 f i  CIL library: CIL module
 0001:00021dd0       ??_G?$HashtableCore@PBVRegion@@@@UAEPAXI@Z 10022dd0 f i HRCParserImpl.obj
 0001:00021dd0       ??_E?$HashtableCore@PAVSchemeImpl@@@@UAEPAXI@Z 10022dd0 f i  CIL library: CIL module
 0001:00021dd0       ??_G?$Hashtable@PBVRegion@@@@UAEPAXI@Z 10022dd0 f i HRCParserImpl.obj
 0001:00021dd0       ??_E?$Hashtable@PAV?$Hashtable@PAV?$Vector@PBVString@@@@@@@@UAEPAXI@Z 10022dd0 f i  CIL library: CIL module
 0001:00021dd0       ??_G?$Hashtable@PBVString@@@@UAEPAXI@Z 10022dd0 f i FarEditorSet.obj
 0001:00021dd0       ??_E?$HashtableCore@PAVFarEditor@@@@UAEPAXI@Z 10022dd0 f i  CIL library: CIL module
 0001:00021dd0       ??_E?$Hashtable@PAVSharedInputSource@@@@UAEPAXI@Z 10022dd0 f i  CIL library: CIL module
 0001:00021dd0       ??_G?$HashtableCore@PAVFileTypeImpl@@@@UAEPAXI@Z 10022dd0 f i HRCParserImpl.obj
 0001:00021dd0       ??_G?$HashtableCore@PAV?$Hashtable@PAV?$Vector@PBVString@@@@@@@@UAEPAXI@Z 10022dd0 f i ParserFactory.obj
 0001:00021dd0       ??_E?$Hashtable@PBVString@@@@UAEPAXI@Z 10022dd0 f i  CIL library: CIL module
 0001:00021dd0       ??_G?$Hashtable@PAVFileTypeImpl@@@@UAEPAXI@Z 10022dd0 f i HRCParserImpl.obj
 0001:00021dd0       ??_G?$Hashtable@PAVSchemeImpl@@@@UAEPAXI@Z 10022dd0 f i HRCParserImpl.obj
 0001:00021dd0       ??_G?$Hashtable@PAVSharedInputSource@@@@UAEPAXI@Z 10022dd0 f i SharedInputSource.obj
 0001:00021dd0       ??_E?$HashtableCore@PAVString@@@@UAEPAXI@Z 10022dd0 f i  CIL library: CIL module
 0001:00021dd0       ??_E?$Hashtable@PAVRegionDefine@@@@UAEPAXI@Z 10022dd0 f i  CIL library: CIL module
 0001:00021dd0       ??_E?$Hashtable@H@@UAEPAXI@Z 10022dd0 f i  CIL library: CIL module
 0001:00021dd0       ??_G?$HashtableCore@H@@UAEPAXI@Z 10022dd0 f i HRCParserImpl.obj
 0001:00021dd0       ??_G?$Hashtable@PAVFarEditor@@@@UAEPAXI@Z 10022dd0 f i FarEditorSet.obj
 0001:00021dd0       ??_E?$Hashtable@PAVString@@@@UAEPAXI@Z 10022dd0 f i  CIL library: CIL module
 0001:00021dd0       ??_E?$Hashtable@PAVFileTypeImpl@@@@UAEPAXI@Z 10022dd0 f i  CIL library: CIL module
 0001:00021dd0       ??_E?$Hashtable@PBVRegion@@@@UAEPAXI@Z 10022dd0 f i  CIL library: CIL module
 0001:00021dd0       ??_G?$HashtableCore@PBVString@@@@UAEPAXI@Z 10022dd0 f i FarEditorSet.obj
 0001:00021dd0       ??_E?$HashtableCore@PAVRegionDefine@@@@UAEPAXI@Z 10022dd0 f i  CIL library: CIL module
 0001:00021dd0       ??_E?$Hashtable@PAVSchemeImpl@@@@UAEPAXI@Z 10022dd0 f i  CIL library: CIL module
 0001:00021dd0       ??_E?$HashtableCore@PAV?$Hashtable@PAV?$Vector@PBVString@@@@@@@@UAEPAXI@Z 10022dd0 f i  CIL library: CIL module
 0001:00021dd0       ??_G?$Hashtable@PAVString@@@@UAEPAXI@Z 10022dd0 f i ConsoleTools.obj
 0001:00021dd0       ??_E?$HashtableCore@H@@UAEPAXI@Z 10022dd0 f i  CIL library: CIL module
 0001:00021dd0       ??_E?$HashtableCore@PBVString@@@@UAEPAXI@Z 10022dd0 f i  CIL library: CIL module
 0001:00021e10       ?elementAt@?$Vector@PAVLineRegion@@@@QBEPAVLineRegion@@H@Z 10022e10 f i LineRegionsSupport.obj
 0001:00021e10       ?elementAt@?$Vector@PAVVirtualEntry@@@@QBEPAVVirtualEntry@@H@Z 10022e10 f i HRCParserImpl.obj
 0001:00021e10       ?elementAt@?$Vector@PAVSchemeNode@@@@QBEPAVSchemeNode@@H@Z 10022e10 f i HRCParserImpl.obj
 0001:00021e10       ?elementAt@?$Vector@PBVRegion@@@@QBEPBVRegion@@H@Z 10022e10 f i HRCParserImpl.obj
 0001:00021e10       ?elementAt@?$Vector@PAVOutlineItem@@@@QBEPAVOutlineItem@@H@Z 10022e10 f i Outliner.obj
 0001:00021e10       ?elementAt@?$Vector@PBVString@@@@QBEPBVString@@H@Z 10022e10 f i ParserFactory.obj
 0001:00021e10       ?elementAt@?$Vector@PAVFileTypeChooser@@@@QBEPAVFileTypeChooser@@H@Z 10022e10 f i HRCParserImpl.obj
 0001:00021e10       ?elementAt@?$Vector@PAVString@@@@QBEPAVString@@H@Z 10022e10 f i ParserFactory.obj
 0001:00021e80       ??0?$HashtableCore@PAVFileTypeImpl@@@@QAE@HN@Z 10022e80 f i HRCParserImpl.obj
 0001:00021f00       ??0?$HashtableCore@PAVSchemeImpl@@@@QAE@HN@Z 10022f00 f i HRCParserImpl.obj
 0001:00021f80       ?remove@?$HashtableCore@PAVSchemeImpl@@@@QAE_NPBVString@@@Z 10022f80 f i HRCParserImpl.obj
 0001:00021f80       ?remove@?$HashtableCore@PAVString@@@@QAE_NPBVString@@@Z 10022f80 f i FarEditorSet.obj
 0001:00021f80       ?remove@?$HashtableCore@PAVFarEditor@@@@QAE_NPBVString@@@Z 10022f80 f i FarEditorSet.obj
 0001:00021f80       ?remove@?$HashtableCore@PAVFileTypeImpl@@@@QAE_NPBVString@@@Z 10022f80 f i HRCParserImpl.obj
 0001:00022030       ??0?$HashtableCore@PBVRegion@@@@QAE@HN@Z 10023030 f i HRCParserImpl.obj
 0001:000220b0       ??0ParseCache@@QAE@XZ      100230b0 f   TextParserHelpers.obj
 0001:000220e0       ??1ParseCache@@QAE@XZ      100230e0 f   TextParserHelpers.obj
 0001:000221e0       ??_GParseCache@@QAEPAXI@Z  100231e0 f i TextParserHelpers.obj
 0001:00022200       ?searchLine@ParseCache@@QAEPAV1@HPAPAV1@@Z 10023200 f   TextParserHelpers.obj
 0001:00022260       ?deltree@VTList@@QAEXXZ    10023260 f   TextParserHelpers.obj
 0001:000222a0       ??_GVTList@@QAEPAXI@Z      100232a0 f i TextParserHelpers.obj
 0001:000222e0       ?push@VTList@@QAE_NPAVSchemeNode@@@Z 100232e0 f   TextParserHelpers.obj
 0001:00022360       ?pop@VTList@@QAE_NXZ       10023360 f   TextParserHelpers.obj
 0001:000223c0       ?pushvirt@VTList@@QAEPAVSchemeImpl@@PAV2@@Z 100233c0 f   TextParserHelpers.obj
 0001:000224a0       ?store@VTList@@QAEPAPAV?$Vector@PAVVirtualEntry@@@@XZ 100234a0 f   TextParserHelpers.obj
 0001:00022500       ?restore@VTList@@QAE_NPAPAV?$Vector@PAVVirtualEntry@@@@@Z 10023500 f   TextParserHelpers.obj
 0001:00022590       ??1TextParser@@UAE@XZ      10023590 f i TextParserImpl.obj
 0001:000225a0       ??_GTextParser@@UAEPAXI@Z  100235a0 f i TextParserImpl.obj
 0001:000225a0       ??_ETextParser@@UAEPAXI@Z  100235a0 f i  CIL library: CIL module
 0001:000225d0       ??0TextParserImpl@@QAE@XZ  100235d0 f   TextParserImpl.obj
 0001:00022680       ??_ETextParserImpl@@UAEPAXI@Z 10023680 f i  CIL library: CIL module
 0001:00022680       ??_GTextParserImpl@@UAEPAXI@Z 10023680 f i TextParserImpl.obj
 0001:00022710       ?setFileType@TextParserImpl@@UAEXPAVFileType@@@Z 10023710 f   TextParserImpl.obj
 0001:00022740       ?setLineSource@TextParserImpl@@UAEXPAVLineSource@@@Z 10023740 f   TextParserImpl.obj
 0001:00022750       ?setRegionHandler@TextParserImpl@@UAEXPAVRegionHandler@@@Z 10023750 f   TextParserImpl.obj
 0001:00022760       ?parse@TextParserImpl@@UAEHHHW4TextParseMode@@@Z 10023760 f   TextParserImpl.obj
 0001:00022a30       ?clearCache@TextParserImpl@@UAEXXZ 10023a30 f   TextParserImpl.obj
 0001:00022af0       ?breakParse@TextParserImpl@@UAEXXZ 10023af0 f   TextParserImpl.obj
 0001:00022b00       ?enterScheme@TextParserImpl@@AAEXHPAUSMatches@@PBVSchemeNode@@@Z 10023b00 f   TextParserImpl.obj
 0001:00022c30       ?leaveScheme@TextParserImpl@@AAEXHPAUSMatches@@PBVSchemeNode@@@Z 10023c30 f   TextParserImpl.obj
 0001:00022d70       ?fillInvisibleSchemes@TextParserImpl@@AAEXPAVParseCache@@@Z 10023d70 f   TextParserImpl.obj
 0001:00022dc0       ?searchKW@TextParserImpl@@AAEHPBVSchemeNode@@HHH@Z 10023dc0 f   TextParserImpl.obj
 0001:00023360       ?searchRE@TextParserImpl@@AAEHPAVSchemeImpl@@HHH@Z 10024360 f   TextParserImpl.obj
 0001:00023a10       ?colorize@TextParserImpl@@AAE_NPAVCRegExp@@_N@Z 10024a10 f   TextParserImpl.obj
 0001:00023cf0       ??0KeywordList@@QAE@XZ     10024cf0 f   HRCParserHelpers.obj
 0001:00023d90       ??1KeywordList@@QAE@XZ     10024d90 f   HRCParserHelpers.obj
 0001:00023e00       ??_GCharacterClass@@QAEPAXI@Z 10024e00 f i HRCParserHelpers.obj
 0001:00023e30       ?kwCompare@@YAHPBX0@Z      10024e30 f   HRCParserHelpers.obj
 0001:00023e50       ?kwCompareI@@YAHPBX0@Z     10024e50 f   HRCParserHelpers.obj
 0001:00023e70       ?substrIndex@KeywordList@@QAEXXZ 10024e70 f   HRCParserHelpers.obj
 0001:000240d0       ??0SchemeNode@@QAE@XZ      100250d0 f   HRCParserHelpers.obj
 0001:00024170       ??1SchemeNode@@QAE@XZ      10025170 f   HRCParserHelpers.obj
 0001:000242c0       ?setBit@BitArray@@QAEXH@Z  100252c0 f   BitArray.obj
 0001:00024320       ?clearBit@BitArray@@QAEXH@Z 10025320 f   BitArray.obj
 0001:00024390       ?addRange@BitArray@@QAEXHH@Z 10025390 f   BitArray.obj
 0001:00024480       ?addBitArray@BitArray@@QAEXPADH@Z 10025480 f   BitArray.obj
 0001:00024550       ?clearBitArray@BitArray@@QAEXPADH@Z 10025550 f   BitArray.obj
 0001:00024620       ?toLowerCase@Character@@SA_W_W@Z 10025620 f   Character.obj
 0001:00024660       ?toUpperCase@Character@@SA_W_W@Z 10025660 f   Character.obj
 0001:000246a0       ?toTitleCase@Character@@SA_W_W@Z 100256a0 f   Character.obj
 0001:00024700       ?isLetter@Character@@SA_N_W@Z 10025700 f   Character.obj
 0001:00024730       ?isLetterOrDigit@Character@@SA_N_W@Z 10025730 f   Character.obj
 0001:00024760       ?isDigit@Character@@SA_N_W@Z 10025760 f   Character.obj
 0001:00024790       ?isWhitespace@Character@@SA_N_W@Z 10025790 f   Character.obj
 0001:000247e0       ??1CharacterClass@@QAE@XZ  100257e0 f   CharacterClass.obj
 0001:00024800       ?createCharClass@CharacterClass@@SAPAV1@ABVString@@HPAH@Z 10025800 f   CharacterClass.obj
 0001:00024ff0       ?addChar@CharacterClass@@QAEX_W@Z 10025ff0 f   CharacterClass.obj
 0001:00025060       ?addRange@CharacterClass@@QAEX_W0@Z 10026060 f   CharacterClass.obj
 0001:00025100       ?addCategory@CharacterClass@@QAEXW4ECharCategory@@@Z 10026100 f   CharacterClass.obj
 0001:000251b0       ?addCategory@CharacterClass@@QAEXABVString@@@Z 100261b0 f   CharacterClass.obj
 0001:000252c0       ?addCategory@CharacterClass@@QAEXPBD@Z 100262c0 f   CharacterClass.obj
 0001:00025390       ?clearCategory@CharacterClass@@QAEXW4ECharCategory@@@Z 10026390 f   CharacterClass.obj
 0001:00025430       ?clearCategory@CharacterClass@@QAEXABVString@@@Z 10026430 f   CharacterClass.obj
 0001:00025540       ?clearCategory@CharacterClass@@QAEXPBD@Z 10026540 f   CharacterClass.obj
 0001:00025610       ?addClass@CharacterClass@@QAEXABV1@@Z 10026610 f   CharacterClass.obj
 0001:000256f0       ?intersectClass@CharacterClass@@QAEXABV1@@Z 100266f0 f   CharacterClass.obj
 0001:000257c0       ?clearClass@CharacterClass@@QAEXABV1@@Z 100267c0 f   CharacterClass.obj
 0001:000258a0       ?clear@CharacterClass@@QAEXXZ 100268a0 f   CharacterClass.obj
 0001:00025900       ?fill@CharacterClass@@QAEXXZ 10026900 f   CharacterClass.obj
 0001:00025960       ?inClass@CharacterClass@@QBE_N_W@Z 10026960 f   CharacterClass.obj
 0001:000259a0       ??4DString@@QAEAAV0@ABV0@@Z 100269a0 f   DString.obj
 0001:00025a30       ??0DString@@QAE@PBEHH@Z    10026a30 f   DString.obj
 0001:00025e70       ??1OutOfBoundException@@UAE@XZ 10026e70 f i ChooseTypeMenu.obj
 0001:00025e70       ??1HRCParserException@@UAE@XZ 10026e70 f i HRCParserImpl.obj
 0001:00025e70       ??1InputSourceException@@UAE@XZ 10026e70 f i TextLinesStore.obj
 0001:00025e70       ??1StringIndexOutOfBoundsException@@UAE@XZ 10026e70 f i DString.obj
 0001:00025e70       ??1ParserFactoryException@@UAE@XZ 10026e70 f i ParserFactory.obj
 0001:00025e70       ??1ParseException@@UAE@XZ  10026e70 f i xmldom.obj
 0001:00025e70       ??1Exception@@UAE@XZ       10026e70 f i Exception.obj
 0001:00025e70       ??1UnsupportedEncodingException@@UAE@XZ 10026e70 f i DString.obj
 0001:00025e70       ??1FarHrcSettingsException@@UAE@XZ 10026e70 f i FarHrcSettings.obj
 0001:00025e90       ??0UnsupportedEncodingException@@QAE@ABV0@@Z 10026e90 f i DString.obj
 0001:00025e90       ??0StringIndexOutOfBoundsException@@QAE@ABV0@@Z 10026e90 f i DString.obj
 0001:00025e90       ??0OutOfBoundException@@QAE@ABV0@@Z 10026e90 f i ChooseTypeMenu.obj
 0001:00025e90       ??0FarHrcSettingsException@@QAE@ABV0@@Z 10026e90 f i FarHrcSettings.obj
 0001:00025e90       ??0HRCParserException@@QAE@ABV0@@Z 10026e90 f i HRCParserImpl.obj
 0001:00025e90       ??0ParserFactoryException@@QAE@ABV0@@Z 10026e90 f i ParserFactory.obj
 0001:00025f30       ??0DString@@QAE@PBDHHH@Z   10026f30 f   DString.obj
 0001:00025ff0       ??0DString@@QAE@PB_WHH@Z   10026ff0 f   DString.obj
 0001:000260c0       ??0DString@@QAE@PBVString@@HH@Z 100270c0 f   DString.obj
 0001:000260c0       ??0DString@@QAE@ABVString@@HH@Z 100270c0 f   DString.obj
 0001:000261b0       ??1DString@@UAE@XZ         100271b0 f   DString.obj
 0001:00026230       ??ADString@@UBE_WH@Z       10027230 f   DString.obj
 0001:00026440       ?length@DString@@UBEHXZ    10027440 f   DString.obj
 0001:00026450       ??0UnsupportedEncodingException@@QAE@ABVString@@@Z 10027450 f   Encodings.obj
 0001:000264e0       ?getEncodingIndex@Encodings@@SAHPBD@Z 100274e0 f   Encodings.obj
 0001:00026520       ?toBytes@Encodings@@SAHH_WPAE@Z 10027520 f   Encodings.obj
 0001:00026750       ?construct@SString@@IAEXPBVString@@HH@Z 10027750 f   SString.obj
 0001:00026870       ??0SString@@QAE@PBVString@@HH@Z 10027870 f   SString.obj
 0001:00026870       ??0SString@@QAE@ABVString@@HH@Z 10027870 f   SString.obj
 0001:000268c0       ??0SString@@QAE@PADH@Z     100278c0 f   SString.obj
 0001:000269b0       ??0SString@@QAE@PA_W@Z     100279b0 f   SString.obj
 0001:00026a90       ??0SString@@QAE@H@Z        10027a90 f   SString.obj
 0001:00026b90       ??1StringBuffer@@UAE@XZ    10027b90 f   StringBuffer.obj
 0001:00026b90       ??1SString@@UAE@XZ         10027b90 f   SString.obj
 0001:00026c10       ??ASString@@UBE_WH@Z       10027c10 f   SString.obj
 0001:00026c80       ??0StringIndexOutOfBoundsException@@QAE@ABVString@@@Z 10027c80 f   String.obj
 0001:00026d10       ??1String@@UAE@XZ          10027d10 f   String.obj
 0001:00026d40       ??8String@@QBE_NABV0@@Z    10027d40 f   String.obj
 0001:00026dc0       ??8String@@QBE_NPBD@Z      10027dc0 f   String.obj
 0001:00026ec0       ??9String@@QBE_NABV0@@Z    10027ec0 f   String.obj
 0001:00026f40       ??9String@@QBE_NPBD@Z      10027f40 f   String.obj
 0001:00027040       ?equals@String@@QBE_NPBD@Z 10028040 f   String.obj
 0001:00027130       ?equalsIgnoreCase@String@@QBE_NPBV1@@Z 10028130 f   String.obj
 0001:000272e0       ?compareTo@String@@QBEHABV1@@Z 100282e0 f   String.obj
 0001:00027380       ?compareToIgnoreCase@String@@QBEHABV1@@Z 10028380 f   String.obj
 0001:000274b0       ?getWChars@String@@UBEHPAPA_W@Z 100284b0 f   String.obj
 0001:00027530       ?getBytes@String@@UBEHPAPAEH@Z 10028530 f   String.obj
 0001:000276a0       ?getChars@String@@UBEPBDH@Z 100286a0 f   String.obj
 0001:000276e0       ?getWChars@String@@UBEPB_WXZ 100286e0 f   String.obj
 0001:00027710       ?indexOf@String@@UBEH_WH@Z 10028710 f   String.obj
 0001:00027770       ?indexOf@String@@UBEHABV1@H@Z 10028770 f   String.obj
 0001:00027810       ?indexOfIgnoreCase@String@@UBEHABV1@H@Z 10028810 f   String.obj
 0001:00027940       ?lastIndexOf@String@@UBEH_WH@Z 10028940 f   String.obj
 0001:000279a0       ?lastIndexOf@String@@UBEHABV1@H@Z 100289a0 f   String.obj
 0001:00027a50       ?startsWith@String@@UBE_NABV1@H@Z 10028a50 f   String.obj
 0001:00027ad0       ?replace@String@@QBEPAV1@ABV1@0@Z 10028ad0 f   String.obj
 0001:00027da0       ?hashCode@String@@QBEHXZ   10028da0 f   String.obj
 0001:00027df0       ??0StringBuffer@@QAE@XZ    10028df0 f   StringBuffer.obj
 0001:00027e70       ??_GStringBuffer@@UAEPAXI@Z 10028e70 f i StringBuffer.obj
 0001:00027e70       ??_ESString@@UAEPAXI@Z     10028e70 f i  CIL library: CIL module
 0001:00027e70       ??_EStringBuffer@@UAEPAXI@Z 10028e70 f i  CIL library: CIL module
 0001:00027e70       ??_GSString@@UAEPAXI@Z     10028e70 f i SString.obj
 0001:00027f10       ??0StringBuffer@@QAE@H@Z   10028f10 f   StringBuffer.obj
 0001:00027f80       ??0StringBuffer@@QAE@PBDHH@Z 10028f80 f   StringBuffer.obj
 0001:00028080       ??0StringBuffer@@QAE@PBVString@@HH@Z 10029080 f   StringBuffer.obj
 0001:000280e0       ?setLength@StringBuffer@@QAEXH@Z 100290e0 f   StringBuffer.obj
 0001:00028160       ?append@StringBuffer@@QAEAAV1@PBVString@@@Z 10029160 f   StringBuffer.obj
 0001:00028270       ?append@StringBuffer@@QAEAAV1@ABVString@@@Z 10029270 f   StringBuffer.obj
 0001:00028350       ??HStringBuffer@@QAEAAV0@PBD@Z 10029350 f   StringBuffer.obj
 0001:00028440       ?getNumber@UnicodeTools@@SA_NPBVString@@PAN@Z 10029440 f   UnicodeTools.obj
 0001:000287c0       ?getNumber@UnicodeTools@@SAHPBVString@@@Z 100297c0 f   UnicodeTools.obj
 0001:00028840       ?getHex@UnicodeTools@@SAH_W@Z 10029840 f   UnicodeTools.obj
 0001:000288a0       ?getHexNumber@UnicodeTools@@SAHPBVString@@@Z 100298a0 f   UnicodeTools.obj
 0001:00028950       ?getCurlyContent@UnicodeTools@@SAPAVDString@@ABVString@@H@Z 10029950 f   UnicodeTools.obj
 0001:00028ac0       ?getEscapedChar@UnicodeTools@@SA_WABVString@@HAAH@Z 10029ac0 f   UnicodeTools.obj
 0001:00028c10       ??0Exception@@QAE@ABV0@@Z  10029c10 f   Exception.obj
 0001:00028ca0       ??0Exception@@QAE@XZ       10029ca0 f   Exception.obj
 0001:00028d50       ??0Exception@@QAE@ABVString@@@Z 10029d50 f   Exception.obj
 0001:00028ea0       ??0InputSourceException@@QAE@ABVString@@@Z 10029ea0 f   Exception.obj
 0001:00028f90       ??0OutOfBoundException@@QAE@ABVString@@@Z 10029f90 f   Exception.obj
 0001:00029080       ??2@YAPAXI@Z               1002a080 f   MemoryChunks.obj
 0001:000290a0       ??3@YAXPAX@Z               1002a0a0 f   MemoryChunks.obj
 0001:000290b0       ?createRelative@InputSource@@UAEPAV1@PBVString@@@Z 1002a0b0 f i FileInputSource.obj
 0001:000290c0       ??1InputSource@@UAE@XZ     1002a0c0 f i FileInputSource.obj
 0001:000290d0       ??_GInputSource@@UAEPAXI@Z 1002a0d0 f i FileInputSource.obj
 0001:000290d0       ??_EInputSource@@UAEPAXI@Z 1002a0d0 f i  CIL library: CIL module
 0001:00029100       ??0FileInputSource@@QAE@PBVString@@PAV0@@Z 1002a100 f   FileInputSource.obj
 0001:00029680       ??_GFileInputSource@@UAEPAXI@Z 1002a680 f i FileInputSource.obj
 0001:00029680       ??_EFileInputSource@@UAEPAXI@Z 1002a680 f i  CIL library: CIL module
 0001:00029710       ?createRelative@FileInputSource@@MAEPAVInputSource@@PBVString@@@Z 1002a710 f   FileInputSource.obj
 0001:00029780       ?openStream@FileInputSource@@UAEPBEXZ 1002a780 f   FileInputSource.obj
 0001:000298d0       ?length@FileInputSource@@UBEHXZ 1002a8d0 f   FileInputSource.obj
 0001:000298d0       ?length@HTTPInputSource@@UBEHXZ 1002a8d0 f   HTTPInputSource.obj
 0001:00029970       ??0HTTPInputSource@@QAE@PBVString@@PAV0@@Z 1002a970 f   HTTPInputSource.obj
 0001:00029a70       ??_GHTTPInputSource@@UAEPAXI@Z 1002aa70 f i HTTPInputSource.obj
 0001:00029a70       ??_EHTTPInputSource@@UAEPAXI@Z 1002aa70 f i  CIL library: CIL module
 0001:00029b00       ?createRelative@HTTPInputSource@@MAEPAVInputSource@@PBVString@@@Z 1002ab00 f   HTTPInputSource.obj
 0001:00029b70       ?openStream@HTTPInputSource@@UAEPBEXZ 1002ab70 f   HTTPInputSource.obj
 0001:00029fd0       ?closeStream@HTTPInputSource@@UAEXXZ 1002afd0 f   HTTPInputSource.obj
 0001:00029fd0       ?closeStream@FileInputSource@@UAEXXZ 1002afd0 f   FileInputSource.obj
 0001:0002a050       ?getAbsolutePath@InputSource@@SAPAVString@@PBV2@0@Z 1002b050 f   InputSource.obj
 0001:0002a280       ?newInstance@InputSource@@SAPAV1@PBVString@@PAV1@@Z 1002b280 f   InputSource.obj
 0001:0002a580       ?isRelative@InputSource@@SA_NPBVString@@@Z 1002b580 f   InputSource.obj
 0001:0002a5d0       ?mem_open_file_func@@YAPAXPAXPBDH@Z 1002b5d0 f   JARInputSource.obj
 0001:0002a5f0       ?mem_read_file_func@@YAKPAX00K@Z 1002b5f0 f   JARInputSource.obj
 0001:0002a630       ?mem_tell_file_func@@YAJPAX0@Z 1002b630 f   JARInputSource.obj
 0001:0002a640       ?mem_seek_file_func@@YAJPAX0KH@Z 1002b640 f   JARInputSource.obj
 0001:0002a690       ?getAttributes@Node@@UAEPBV?$Vector@PBVString@@@@XZ 1002b690 f   xmldom.obj
 0001:0002a690       ?mem_write_file_func@@YAKPAX0PBXK@Z 1002b690 f   JARInputSource.obj
 0001:0002a690       ?mem_close_file_func@@YAHPAX0@Z 1002b690 f   JARInputSource.obj
 0001:0002a6a0       ?mem_error_file_func@@YAHPAX0@Z 1002b6a0 f   JARInputSource.obj
 0001:0002a6b0       ??0JARInputSource@@QAE@PBVString@@PAVInputSource@@@Z 1002b6b0 f   JARInputSource.obj
 0001:0002a960       ??_GJARInputSource@@UAEPAXI@Z 1002b960 f i JARInputSource.obj
 0001:0002a960       ??_EJARInputSource@@UAEPAXI@Z 1002b960 f i  CIL library: CIL module
 0001:0002aa10       ??0JARInputSource@@IAE@PBVString@@PAV0@_N@Z 1002ba10 f   JARInputSource.obj
 0001:0002ac10       ?createRelative@JARInputSource@@MAEPAVInputSource@@PBVString@@@Z 1002bc10 f   JARInputSource.obj
 0001:0002ac80       ?getName@Region@@UBEPBVString@@XZ 1002bc80 f   HRCParserImpl.obj
 0001:0002ac80       ?getName@SchemeImpl@@UBEPBVString@@XZ 1002bc80 f   HRCParserImpl.obj
 0001:0002ac80       ?getLocation@FileInputSource@@UBEPBVString@@XZ 1002bc80 f   FileInputSource.obj
 0001:0002ac80       ?getMessage@Exception@@UBEPBVString@@XZ 1002bc80 f   Exception.obj
 0001:0002ac80       ?getLocation@HTTPInputSource@@UBEPBVString@@XZ 1002bc80 f   HTTPInputSource.obj
 0001:0002ac80       ?getLocation@JARInputSource@@UBEPBVString@@XZ 1002bc80 f   JARInputSource.obj
 0001:0002ac90       ?openStream@JARInputSource@@UAEPBEXZ 1002bc90 f   JARInputSource.obj
 0001:0002b0b0       ?closeStream@JARInputSource@@UAEXXZ 1002c0b0 f   JARInputSource.obj
 0001:0002b130       ?length@JARInputSource@@UBEHXZ 1002c130 f   JARInputSource.obj
 0001:0002b1d0       ?getLocation@SharedInputSource@@UBEPBVString@@XZ 1002c1d0 f i SharedInputSource.obj
 0001:0002b1e0       ?openStream@SharedInputSource@@UAEPBEXZ 1002c1e0 f i SharedInputSource.obj
 0001:0002b1f0       ?closeStream@SharedInputSource@@UAEXXZ 1002c1f0 f i SharedInputSource.obj
 0001:0002b200       ?length@SharedInputSource@@UBEHXZ 1002c200 f i SharedInputSource.obj
 0001:0002b210       ??_GSharedInputSource@@EAEPAXI@Z 1002c210 f i SharedInputSource.obj
 0001:0002b210       ??_ESharedInputSource@@EAEPAXI@Z 1002c210 f i  CIL library: CIL module
 0001:0002b2b0       ?getInputSource@SharedInputSource@@SAPAV1@PBVString@@PAVInputSource@@@Z 1002c2b0 f   SharedInputSource.obj
 0001:0002b3e0       ?get@?$Hashtable@PAVSharedInputSource@@@@QBEPAVSharedInputSource@@PBVString@@@Z 1002c3e0 f i SharedInputSource.obj
 0001:0002b430       ??0?$HashtableCore@PAV?$Hashtable@PAV?$Vector@PBVString@@@@@@@@QAE@XZ 1002c430 f i ParserFactory.obj
 0001:0002b430       ??0?$HashtableCore@H@@QAE@XZ 1002c430 f i HRCParserImpl.obj
 0001:0002b430       ??0?$HashtableCore@PBVString@@@@QAE@XZ 1002c430 f i FarEditorSet.obj
 0001:0002b430       ??0?$HashtableCore@PAV?$Vector@PBVString@@@@@@QAE@XZ 1002c430 f i ParserFactory.obj
 0001:0002b430       ??0?$HashtableCore@PAVString@@@@QAE@XZ 1002c430 f i ConsoleTools.obj
 0001:0002b430       ??0?$HashtableCore@PAVSharedInputSource@@@@QAE@XZ 1002c430 f i SharedInputSource.obj
 0001:0002b430       ??0?$HashtableCore@PAVRegionDefine@@@@QAE@XZ 1002c430 f i StyledHRDMapper.obj
 0001:0002b430       ??0?$HashtableCore@PAVFarEditor@@@@QAE@XZ 1002c430 f i FarEditorSet.obj
 0001:0002b4a0       ?put@?$HashtableCore@PAVSharedInputSource@@@@QAE_NPBVString@@PAVSharedInputSource@@@Z 1002c4a0 f i SharedInputSource.obj
 0001:0002b620       ?remove@?$HashtableCore@PAVSharedInputSource@@@@QAE_NPBVString@@@Z 1002c620 f i SharedInputSource.obj
 0001:0002b6e0       ?rehash@?$HashtableCore@PAVSharedInputSource@@@@IAEXXZ 1002c6e0 f i SharedInputSource.obj
 0001:0002b880       ?init@StreamWriter@@IAEXPAU_iobuf@@H_N@Z 1002c880 f   StreamWriter.obj
 0001:0002b940       ?write@StreamWriter@@UAEX_W@Z 1002c940 f   StreamWriter.obj
 0001:0002b990       ?write@Writer@@UAEXABVString@@@Z 1002c990 f   Writer.obj
 0001:0002b9c0       ?write@Writer@@UAEXPBVString@@@Z 1002c9c0 f   Writer.obj
 0001:0002b9d0       ?write@Writer@@UAEXABVString@@HH@Z 1002c9d0 f   Writer.obj
 0001:0002ba10       ?write@Writer@@UAEXPBVString@@HH@Z 1002ca10 f   Writer.obj
 0001:0002ba20       ??0ParseException@@QAE@ABVString@@HH@Z 1002ca20 f i xmldom.obj
 0001:0002bd20       ??_EFarHrcSettingsException@@UAEPAXI@Z 1002cd20 f i  CIL library: CIL module
 0001:0002bd20       ??_GException@@UAEPAXI@Z   1002cd20 f i Exception.obj
 0001:0002bd20       ??_EStringIndexOutOfBoundsException@@UAEPAXI@Z 1002cd20 f i  CIL library: CIL module
 0001:0002bd20       ??_GParseException@@UAEPAXI@Z 1002cd20 f i xmldom.obj
 0001:0002bd20       ??_EParserFactoryException@@UAEPAXI@Z 1002cd20 f i  CIL library: CIL module
 0001:0002bd20       ??_GHRCParserException@@UAEPAXI@Z 1002cd20 f i HRCParserImpl.obj
 0001:0002bd20       ??_GOutOfBoundException@@UAEPAXI@Z 1002cd20 f i ChooseTypeMenu.obj
 0001:0002bd20       ??_EInputSourceException@@UAEPAXI@Z 1002cd20 f i  CIL library: CIL module
 0001:0002bd20       ??_GFarHrcSettingsException@@UAEPAXI@Z 1002cd20 f i FarHrcSettings.obj
 0001:0002bd20       ??_GParserFactoryException@@UAEPAXI@Z 1002cd20 f i ParserFactory.obj
 0001:0002bd20       ??_GInputSourceException@@UAEPAXI@Z 1002cd20 f i TextLinesStore.obj
 0001:0002bd20       ??_GUnsupportedEncodingException@@UAEPAXI@Z 1002cd20 f i DString.obj
 0001:0002bd20       ??_EOutOfBoundException@@UAEPAXI@Z 1002cd20 f i  CIL library: CIL module
 0001:0002bd20       ??_EUnsupportedEncodingException@@UAEPAXI@Z 1002cd20 f i  CIL library: CIL module
 0001:0002bd20       ??_GStringIndexOutOfBoundsException@@UAEPAXI@Z 1002cd20 f i DString.obj
 0001:0002bd20       ??_EParseException@@UAEPAXI@Z 1002cd20 f i  CIL library: CIL module
 0001:0002bd20       ??_EException@@UAEPAXI@Z   1002cd20 f i  CIL library: CIL module
 0001:0002bd20       ??_EHRCParserException@@UAEPAXI@Z 1002cd20 f i  CIL library: CIL module
 0001:0002bd60       ?resolveEntity@DefaultEntityResolver@@UAEPAVInputSource@@PBVString@@0@Z 1002cd60 f i xmldom.obj
 0001:0002bd80       ?peek@DocumentBuilder@@AAEHH@Z 1002cd80 f i xmldom.obj
 0001:0002bdf0       ?get@DocumentBuilder@@AAE_WXZ 1002cdf0 f i xmldom.obj
 0001:0002bef0       ??0ParseException@@QAE@ABV0@@Z 1002cef0 f i xmldom.obj
 0001:0002bef0       ??0InputSourceException@@QAE@ABV0@@Z 1002cef0 f i TextLinesStore.obj
 0001:0002bf90       ?serialize@Node@@UAEXPAVWriter@@FF@Z 1002cf90 f i xmldom.obj
 0001:0002bfa0       ??1Node@@UAE@XZ            1002cfa0 f i xmldom.obj
 0001:0002bfc0       ??_GNode@@UAEPAXI@Z        1002cfc0 f i xmldom.obj
 0001:0002bfc0       ??_ENode@@UAEPAXI@Z        1002cfc0 f i  CIL library: CIL module
 0001:0002bfc0       ??_EDocument@@UAEPAXI@Z    1002cfc0 f i  CIL library: CIL module
 0001:0002bfc0       ??_GDocument@@UAEPAXI@Z    1002cfc0 f i xmldom.obj
 0001:0002c000       ?appendChild@Document@@UAEPAVNode@@PAV2@@Z 1002d000 f i xmldom.obj
 0001:0002c0f0       ?getAttributes@Element@@UAEPBV?$Vector@PBVString@@@@XZ 1002d0f0 f i xmldom.obj
 0001:0002c100       ??0Element@@IAE@PBVString@@@Z 1002d100 f i xmldom.obj
 0001:0002c1a0       ??1Element@@MAE@XZ         1002d1a0 f i xmldom.obj
 0001:0002c2b0       ??_EElement@@MAEPAXI@Z     1002d2b0 f i  CIL library: CIL module
 0001:0002c2b0       ??_GElement@@MAEPAXI@Z     1002d2b0 f i xmldom.obj
 0001:0002c2e0       ??0ProcessingInstruction@@IAE@PBVString@@0@Z 1002d2e0 f i xmldom.obj
 0001:0002c3a0       ??_GProcessingInstruction@@MAEPAXI@Z 1002d3a0 f i xmldom.obj
 0001:0002c3a0       ??_EProcessingInstruction@@MAEPAXI@Z 1002d3a0 f i  CIL library: CIL module
 0001:0002c430       ??_GCharacterData@@MAEPAXI@Z 1002d430 f i xmldom.obj
 0001:0002c430       ??_GText@@UAEPAXI@Z        1002d430 f i xmldom.obj
 0001:0002c430       ??_GComment@@UAEPAXI@Z     1002d430 f i xmldom.obj
 0001:0002c430       ??_EComment@@UAEPAXI@Z     1002d430 f i  CIL library: CIL module
 0001:0002c430       ??_ECharacterData@@MAEPAXI@Z 1002d430 f i  CIL library: CIL module
 0001:0002c430       ??_EText@@UAEPAXI@Z        1002d430 f i  CIL library: CIL module
 0001:0002c4b0       ??0Text@@IAE@PBVString@@@Z 1002d4b0 f i xmldom.obj
 0001:0002c570       ?replaceEntity@@YAPAVString@@PBV1@@Z 1002d570 f   xmldom.obj
 0001:0002cd30       ?parse@DocumentBuilder@@QAEPAVDocument@@PAVInputSource@@PBD@Z 1002dd30 f   xmldom.obj
 0001:0002ce00       ?clearEntitiesHash@DocumentBuilder@@AAEXXZ 1002de00 f   xmldom.obj
 0001:0002cec0       ?parse@DocumentBuilder@@QAEPAVDocument@@PBEHPBD@Z 1002dec0 f   xmldom.obj
 0001:0002d4b0       ?consumeDocument@DocumentBuilder@@AAEXXZ 1002e4b0 f   xmldom.obj
 0001:0002d610       ?consumeXmlDecl@DocumentBuilder@@AAEXPAVNode@@@Z 1002e610 f   xmldom.obj
 0001:0002d800       ?consumeDTD@DocumentBuilder@@AAEXXZ 1002e800 f   xmldom.obj
 0001:0002dba0       ?isElement@DocumentBuilder@@AAE_NXZ 1002eba0 f   xmldom.obj
 0001:0002dc60       ?consumeElement@DocumentBuilder@@AAEXPAVNode@@@Z 1002ec60 f   xmldom.obj
 0001:0002e370       ?consumeContent@DocumentBuilder@@AAEXPAVNode@@@Z 1002f370 f   xmldom.obj
 0001:0002e510       ?appendToLastTextNode@DocumentBuilder@@AAEXPAVNode@@PAVString@@@Z 1002f510 f   xmldom.obj
 0001:0002e5d0       ?isCDataSection@DocumentBuilder@@AAE_NXZ 1002f5d0 f   xmldom.obj
 0001:0002e660       ?consumeCDataSection@DocumentBuilder@@AAEXPAVNode@@@Z 1002f660 f   xmldom.obj
 0001:0002e8d0       ?consumeText@DocumentBuilder@@AAEXPAVNode@@@Z 1002f8d0 f   xmldom.obj
 0001:0002eac0       ?isCharRef@DocumentBuilder@@AAE_NXZ 1002fac0 f   xmldom.obj
 0001:0002eb40       ?consumeCharRef@DocumentBuilder@@AAE_WXZ 1002fb40 f   xmldom.obj
 0001:0002edd0       ?isEntityRef@DocumentBuilder@@AAE_NXZ 1002fdd0 f   xmldom.obj
 0001:0002ee50       ?consumeEntityRef@DocumentBuilder@@AAEPAVString@@_N@Z 1002fe50 f   xmldom.obj
 0001:0002f1b0       ?consumeSpaces@DocumentBuilder@@AAEXH@Z 100301b0 f   xmldom.obj
 0001:0002f300       ?consumeAttributeValue@DocumentBuilder@@AAEPAVString@@XZ 10030300 f   xmldom.obj
 0001:0002f5e0       ?consumeQoutedValue@DocumentBuilder@@AAEPAVString@@XZ 100305e0 f   xmldom.obj
 0001:0002f7c0       ?consumeName@DocumentBuilder@@AAEPAVString@@XZ 100307c0 f   xmldom.obj
 0001:0002fa00       ?consumeNCName@DocumentBuilder@@AAEPAVString@@XZ 10030a00 f   xmldom.obj
 0001:0002fc20       ?isPI@DocumentBuilder@@AAE_NXZ 10030c20 f   xmldom.obj
 0001:0002fca0       ?consumePI@DocumentBuilder@@AAEXPAVNode@@@Z 10030ca0 f   xmldom.obj
 0001:0002ff10       ?isComment@DocumentBuilder@@AAE_NXZ 10030f10 f   xmldom.obj
 0001:0002ffa0       ?consumeComment@DocumentBuilder@@AAEXPAVNode@@@Z 10030fa0 f   xmldom.obj
 0001:00030220       ?consumeMisc@DocumentBuilder@@AAEXPAVNode@@@Z 10031220 f   xmldom.obj
 0001:00030310       ?consume@DocumentBuilder@@AAEXAAVString@@@Z 10031310 f   xmldom.obj
 0001:000304c0       ?consume@DocumentBuilder@@AAEXPADH@Z 100314c0 f   xmldom.obj
 0001:00030640       ?newDocument@DocumentBuilder@@QAEPAVDocument@@XZ 10031640 f   xmldom.obj
 0001:00030730       ?free@DocumentBuilder@@QAEXPAVDocument@@@Z 10031730 f   xmldom.obj
 0001:000307b0       ?getXMLNumber@DocumentBuilder@@CA_NABVString@@PAH@Z 100317b0 f   xmldom.obj
 0001:00030900       ?appendChild@Node@@UAEPAV1@PAV1@@Z 10031900 f   xmldom.obj
 0001:00030940       ?insertBefore@Node@@UAEPAV1@PAV1@0@Z 10031940 f   xmldom.obj
 0001:00030990       ?removeChild@Node@@UAEPAV1@PAV1@@Z 10031990 f   xmldom.obj
 0001:000309d0       ?createComment@Document@@QAEPAVComment@@PBVString@@@Z 100319d0 f   xmldom.obj
 0001:00030ad0       ?serialize@Document@@UAEXPAVWriter@@FF@Z 10031ad0 f   xmldom.obj
 0001:00030d70       ?serialize@Element@@UAEXPAVWriter@@FF@Z 10031d70 f   xmldom.obj
 0001:000315e0       ?serialize@ProcessingInstruction@@UAEXPAVWriter@@FF@Z 100325e0 f   xmldom.obj
 0001:00031850       ?serialize@Comment@@UAEXPAVWriter@@FF@Z 10032850 f   xmldom.obj
 0001:00031aa0       ?serialize@Text@@UAEXPAVWriter@@FF@Z 10032aa0 f   xmldom.obj
 0001:00032f90       _dlmalloc                  10033f90 f   malloc.obj
 0001:00033230       _dlfree                    10034230 f   malloc.obj
 0001:00033890       ??1SRegInfo@@QAE@XZ        10034890 f   cregexp.obj
 0001:00033910       ??_GSRegInfo@@QAEPAXI@Z    10034910 f i cregexp.obj
 0001:00033930       ??0CRegExp@@QAE@XZ         10034930 f   cregexp.obj
 0001:00033960       ??0CRegExp@@QAE@PBVString@@@Z 10034960 f   cregexp.obj
 0001:000339b0       ??1CRegExp@@QAE@XZ         100349b0 f   cregexp.obj
 0001:00033a00       ?setRELow@CRegExp@@AAE?AW4EError@@ABVString@@@Z 10034a00 f   cregexp.obj
 0001:00033e10       ?optimize@CRegExp@@AAEXXZ  10034e10 f   cregexp.obj
 0001:00033e80       ?setStructs@CRegExp@@AAE?AW4EError@@AAPAVSRegInfo@@ABVString@@AAH@Z 10034e80 f   cregexp.obj
 0001:00035020       ?isWordBoundary@CRegExp@@AAE_NAAH@Z 10036020 f   cregexp.obj
 0001:000350f0       ?checkMetaSymbol@CRegExp@@AAE_NW4EMetaSymbols@@AAH@Z 100360f0 f   cregexp.obj
 0001:00035630       ?insert_stack@CRegExp@@AAEXPAPAVSRegInfo@@0PAHPA_NHH00H@Z 10036630 f   cregexp.obj
 0001:00035750       ?lowParse@CRegExp@@AAE_NPAVSRegInfo@@0H@Z 10036750 f   cregexp.obj
 0001:00036380       ?quickCheck@CRegExp@@AAE_NH@Z 10037380 f i cregexp.obj
 0001:000363f0       ?parseRE@CRegExp@@AAE_NH@Z 100373f0 f i cregexp.obj
 0001:000364b0       ?getBracketNo@CRegExp@@QAEHPBVString@@@Z 100374b0 f   cregexp.obj
 0001:000366a0       _memmove                   100376a0 f   LIBCMT:memmove.obj
 0001:00036a01       _free                      10037a01 f   LIBCMT:free.obj
 0001:00036af1       ___onexitinit              10037af1 f   LIBCMT:onexit.obj
 0001:00036b22       __onexit                   10037b22 f   LIBCMT:onexit.obj
 0001:00036b5e       _atexit                    10037b5e f   LIBCMT:onexit.obj
 0001:00036b75       _realloc                   10037b75 f   LIBCMT:realloc.obj
 0001:00036c22       ??1type_info@@UAE@XZ       10037c22 f   LIBCMT:typinfo.obj
 0001:00036c32       ??_Gtype_info@@UAEPAXI@Z   10037c32 f i LIBCMT:typinfo.obj
 0001:00036c32       ??_Etype_info@@UAEPAXI@Z   10037c32 f i LIBCMT:typinfo.obj
 0001:00036c53       ??8type_info@@QBE_NABV0@@Z 10037c53 f   LIBCMT:typinfo.obj
 0001:00036c73       __wcsdup                   10037c73 f   LIBCMT:wcsdup.obj
 0001:00036cc8       __snwprintf                10037cc8 f   LIBCMT:snwprint.obj
 0001:00036d98       _wcsncpy                   10037d98 f   LIBCMT:wcsncpy.obj
 0001:00036de4       _wcsncat                   10037de4 f   LIBCMT:wcsncat.obj
 0001:00036e28       __purecall                 10037e28 f   LIBCMT:purevirt.obj
 0001:00036e52       _malloc                    10037e52 f   LIBCMT:malloc.obj
 0001:00036ee6       _wcsstr                    10037ee6 f   LIBCMT:wcsstr.obj
 0001:00036f46       ??0_LocaleUpdate@@QAE@PAUlocaleinfo_struct@@@Z 10037f46 f i LIBCMT:_wctype.obj
 0001:00036fcd       __isleadbyte_l             10037fcd f i LIBCMT:_wctype.obj
 0001:00037005       _isleadbyte                10038005 f i LIBCMT:_wctype.obj
 0001:00037018       _iswspace                  10038018 f i LIBCMT:_wctype.obj
 0001:0003702b       __ftelli64_nolock          1003802b f   LIBCMT:ftelli64.obj
 0001:00037375       __ftelli64                 10038375 f   LIBCMT:ftelli64.obj
 0001:000373e2       __fseeki64_nolock          100383e2 f   LIBCMT:fseeki64.obj
 0001:0003747e       __fseeki64                 1003847e f   LIBCMT:fseeki64.obj
 0001:000374fd       __fsopen                   100384fd f   LIBCMT:fopen.obj
 0001:000375b9       _fopen                     100385b9 f   LIBCMT:fopen.obj
 0001:000375d0       __fread_nolock_s           100385d0 f   LIBCMT:fread.obj
 0001:0003778c       _fread_s                   1003878c f   LIBCMT:fread.obj
 0001:0003781a       _fread                     1003881a f   LIBCMT:fread.obj
 0001:00037837       _ferror                    10038837 f   LIBCMT:feoferr.obj
 0001:0003785f       __fwrite_nolock            1003885f f   LIBCMT:fwrite.obj
 0001:000379b6       _fwrite                    100389b6 f   LIBCMT:fwrite.obj
 0001:00037a30       __fclose_nolock            10038a30 f   LIBCMT:fclose.obj
 0001:00037a9d       _fclose                    10038a9d f   LIBCMT:fclose.obj
 0001:00037b11       __access_s                 10038b11 f   LIBCMT:access.obj
 0001:00037b90       __access                   10038b90 f   LIBCMT:access.obj
 0001:00037ba8       __getenv_helper_nolock     10038ba8 f   LIBCMT:getenv.obj
 0001:00037c2f       _getenv                    10038c2f f   LIBCMT:getenv.obj
 0001:00037d83       __stat64i32                10038d83 f   LIBCMT:stati32.obj
 0001:000381da       _sprintf                   100391da f   LIBCMT:sprintf.obj
 0001:0003825e       __gets_helper              1003925e f   LIBCMT:gets.obj
 0001:00038459       _gets                      10039459 f   LIBCMT:gets.obj
 0001:0003846f       ___iob_func                1003946f f   LIBCMT:_file.obj
 0001:00038475       ___initstdio               10039475 f   LIBCMT:_file.obj
 0001:00038526       ___endstdio                10039526 f   LIBCMT:_file.obj
 0001:00038546       __lock_file                10039546 f   LIBCMT:_file.obj
 0001:00038587       __lock_file2               10039587 f   LIBCMT:_file.obj
 0001:000385b9       __unlock_file              100395b9 f   LIBCMT:_file.obj
 0001:000385f5       __unlock_file2             100395f5 f   LIBCMT:_file.obj
 0001:00038624       __get_printf_count_output  10039624 f   LIBCMT:printf.obj
 0001:0003863a       ___inittime                1003963a f   LIBCMT:clock.obj
 0001:00038668       __ctime64                  10039668 f   LIBCMT:ctime64.obj
 0001:000386d5       __time64                   100396d5 f   LIBCMT:time64.obj
 0001:00038726       __flush                    10039726 f   LIBCMT:fflush.obj
 0001:0003878e       __fflush_nolock            1003978e f   LIBCMT:fflush.obj
 0001:000388b0       _fflush                    100398b0 f   LIBCMT:fflush.obj
 0001:00038903       __flushall                 10039903 f   LIBCMT:fflush.obj
 0001:000389a0       _qsort                     100399a0 f   LIBCMT:qsort.obj
 0001:00038c2b       _strncmp                   10039c2b f   LIBCMT:strncmp.obj
 0001:00038ceb       ?_wopen@@YAHPB_WHH@Z       10039ceb f   LIBCMT:openo.obj
 0001:00038d18       __fstat64i32               10039d18 f   LIBCMT:fstati32.obj
 0001:0003906a       _putc                      1003a06a f   LIBCMT:fputc.obj
 0001:00039166       _abort                     1003a166 f   LIBCMT:abort.obj
 0001:00039199       __set_abort_behavior       1003a199 f   LIBCMT:abort.obj
 0001:000391ba       __CRT_INIT@12              1003a1ba f   LIBCMT:dllcrt0.obj
 0001:00039414       __DllMainCRTStartup@12     1003a414 f   LIBCMT:dllcrt0.obj
 0001:00039437       __VEC_memcpy               1003a437 f   LIBCMT:p4_memcpy.obj
 0001:0003953a       ___sse2_available_init     1003a53a f   LIBCMT:cpu_disp.obj
 0001:0003954a       __get_errno_from_oserr     1003a54a f   LIBCMT:dosmap.obj
 0001:0003958c       __errno                    1003a58c f   LIBCMT:dosmap.obj
 0001:0003959f       ___doserrno                1003a59f f   LIBCMT:dosmap.obj
 0001:000395b2       __dosmaperr                1003a5b2 f   LIBCMT:dosmap.obj
 0001:000395d5       __heap_init                1003a5d5 f   LIBCMT:heapinit.obj
 0001:000395f3       __heap_term                1003a5f3 f   LIBCMT:heapinit.obj
 0001:00039607       __malloc_crt               1003a607 f   LIBCMT:crtheap.obj
 0001:0003964c       __calloc_crt               1003a64c f   LIBCMT:crtheap.obj
 0001:00039698       __realloc_crt              1003a698 f   LIBCMT:crtheap.obj
 0001:000396e6       __recalloc_crt             1003a6e6 f   LIBCMT:crtheap.obj
 0001:00039738       __msize                    1003a738 f   LIBCMT:msize.obj
 0001:0003976b       ___crtCorExitProcess       1003a76b f   LIBCMT:crt0dat.obj
 0001:00039796       ___crtExitProcess          1003a796 f   LIBCMT:crt0dat.obj
 0001:000397ae       __lockexit                 1003a7ae f   LIBCMT:crt0dat.obj
 0001:000397b7       __unlockexit               1003a7b7 f   LIBCMT:crt0dat.obj
 0001:000397c0       __init_pointers            1003a7c0 f   LIBCMT:crt0dat.obj
 0001:000397f3       __initterm_e               1003a7f3 f   LIBCMT:crt0dat.obj
 0001:00039817       __cinit                    1003a817 f   LIBCMT:crt0dat.obj
 0001:000399ee       __exit                     1003a9ee f   LIBCMT:crt0dat.obj
 0001:00039a04       __cexit                    1003aa04 f   LIBCMT:crt0dat.obj
 0001:00039a13       __amsg_exit                1003aa13 f   LIBCMT:crt0dat.obj
 0001:00039a40       __SEH_prolog4              1003aa40 f   LIBCMT:sehprolg4.obj
 0001:00039a85       __SEH_epilog4              1003aa85 f   LIBCMT:sehprolg4.obj
 0001:00039aa0       __except_handler4          1003aaa0 f   LIBCMT:chandler4.obj
 0001:00039c2f       __initp_heap_handler       1003ac2f f   LIBCMT:handler.obj
 0001:00039c3e       __callnewh                 1003ac3e f   LIBCMT:handler.obj
 0001:00039c66       ?_Type_info_dtor@type_info@@CAXPAV1@@Z 1003ac66 f   LIBCMT:typname.obj
 0001:00039ce0       _strcmp                    1003ace0 f   LIBCMT:strcmp.obj
 0001:00039d68       __initp_misc_invarg        1003ad68 f   LIBCMT:invarg.obj
 0001:00039d77       __call_reportfault         1003ad77 f   LIBCMT:invarg.obj
 0001:00039ea0       __invoke_watson            1003aea0 f   LIBCMT:invarg.obj
 0001:00039ec5       __invalid_parameter        1003aec5 f   LIBCMT:invarg.obj
 0001:00039ef2       __invalid_parameter_noinfo 1003aef2 f   LIBCMT:invarg.obj
 0001:00039f02       _wcscpy_s                  1003af02 f   LIBCMT:wcscpy_s.obj
 0001:00039f65       _calloc                    1003af65 f   LIBCMT:calloc.obj
 0001:00039fa5       _wcslen                    1003afa5 f   LIBCMT:wcslen.obj
 0001:00039fc0       __flsbuf                   1003afc0 f   LIBCMT:_flsbuf.obj
 0001:0003a1ba       __woutput_l                1003b1ba f   LIBCMT:woutput.obj
 0001:0003ad82       __GET_RTERRMSG             1003bd82 f   LIBCMT:crt0msg.obj
 0001:0003ada8       __NMSG_WRITE               1003bda8 f   LIBCMT:crt0msg.obj
 0001:0003af57       __FF_MSGBANNER             1003bf57 f   LIBCMT:crt0msg.obj
 0001:0003af90       __initp_misc_purevirt      1003bf90 f   LIBCMT:inithelp.obj
 0001:0003b1c2       ___updatetmbcinfo          1003c1c2 f   LIBCMT:mbctype.obj
 0001:0003b2e2       __setmbcp_nolock           1003c2e2 f   LIBCMT:mbctype.obj
 0001:0003b4cb       __setmbcp                  1003c4cb f   LIBCMT:mbctype.obj
 0001:0003b665       ___initmbctable            1003c665 f   LIBCMT:mbctype.obj
 0001:0003b683       ___addlocaleref            1003c683 f   LIBCMT:localref.obj
 0001:0003b712       ___removelocaleref         1003c712 f   LIBCMT:localref.obj
 0001:0003b7ab       ___freetlocinfo            1003c7ab f   LIBCMT:localref.obj
 0001:0003b8f6       __updatetlocinfoEx_nolock  1003c8f6 f   LIBCMT:localref.obj
 0001:0003b943       ___updatetlocinfo          1003c943 f   LIBCMT:localref.obj
 0001:0003b9bc       __encoded_null             1003c9bc f   LIBCMT:tidtable.obj
 0001:0003b9c5       ___crtTlsAlloc@4           1003c9c5 f   LIBCMT:tidtable.obj
 0001:0003b9ce       ___set_flsgetvalue         1003c9ce f   LIBCMT:tidtable.obj
 0001:0003ba02       __mtterm                   1003ca02 f   LIBCMT:tidtable.obj
 0001:0003ba3f       __initptd                  1003ca3f f   LIBCMT:tidtable.obj
 0001:0003baf3       __getptd_noexit            1003caf3 f   LIBCMT:tidtable.obj
 0001:0003bb6c       __getptd                   1003cb6c f   LIBCMT:tidtable.obj
 0001:0003bb86       __freefls@4                1003cb86 f   LIBCMT:tidtable.obj
 0001:0003bcb5       __freeptd                  1003ccb5 f   LIBCMT:tidtable.obj
 0001:0003bd23       __mtinit                   1003cd23 f   LIBCMT:tidtable.obj
 0001:0003be9e       _iswctype                  1003ce9e f   LIBCMT:iswctype.obj
 0001:0003bef3       __read_nolock              1003cef3 f   LIBCMT:read.obj
 0001:0003c4aa       __read                     1003d4aa f   LIBCMT:read.obj
 0001:0003c4aa       _read                      1003d4aa f   LIBCMT:read.obj
 0001:0003c5a0       __ioinit                   1003d5a0 f   LIBCMT:ioinit.obj
 0001:0003c7e5       __ioterm                   1003d7e5 f   LIBCMT:ioinit.obj
 0001:0003c838       __lseeki64_nolock          1003d838 f   LIBCMT:lseeki64.obj
 0001:0003c8bd       __lseeki64                 1003d8bd f   LIBCMT:lseeki64.obj
 0001:0003c9a7       __fileno                   1003d9a7 f   LIBCMT:fileno.obj
 0001:0003c9cd       @__security_check_cookie@4 1003d9cd f   LIBCMT:secchk.obj
 0001:0003c9e0       __chkstk                   1003d9e0 f   LIBCMT:chkstk.obj
 0001:0003c9e0       __alloca_probe             1003d9e0     LIBCMT:chkstk.obj
 0001:0003ca0b       __openfile                 1003da0b f   LIBCMT:_open.obj
 0001:0003cca2       __getstream                1003dca2 f   LIBCMT:stream.obj
 0001:0003cde0       __local_unwind4            1003dde0 f   LIBCMT:exsup4.obj
 0001:0003ceb6       __seh_longjmp_unwind4@4    1003deb6 f   LIBCMT:exsup4.obj
 0001:0003ced2       @_EH4_CallFilterFunc@8     1003ded2 f   LIBCMT:exsup4.obj
 0001:0003cee9       @_EH4_TransferToHandler@8  1003dee9 f   LIBCMT:exsup4.obj
 0001:0003cf02       @_EH4_GlobalUnwind2@8      1003df02 f   LIBCMT:exsup4.obj
 0001:0003cf1b       @_EH4_LocalUnwind@16       1003df1b f   LIBCMT:exsup4.obj
 0001:0003cf32       __filbuf                   1003df32 f   LIBCMT:_filbuf.obj
 0001:0003d054       _memcpy_s                  1003e054 f   LIBCMT:memcpy_s.obj
 0001:0003d0d0       _memset                    1003e0d0 f   LIBCMT:memset.obj
 0001:0003d14a       __write_nolock             1003e14a f   LIBCMT:write.obj
 0001:0003d847       __write                    1003e847 f   LIBCMT:write.obj
 0001:0003d920       _memcpy                    1003e920 f   LIBCMT:memcpy.obj
 0001:0003dc81       __lseek_nolock             1003ec81 f   LIBCMT:lseek.obj
 0001:0003dcf6       __close_nolock             1003ecf6 f   LIBCMT:close.obj
 0001:0003dd92       __close                    1003ed92 f   LIBCMT:close.obj
 0001:0003dd92       _close                     1003ed92 f   LIBCMT:close.obj
 0001:0003de56       __freebuf                  1003ee56 f   LIBCMT:_freebuf.obj
 0001:0003de87       __mbsnbicoll_l             1003ee87 f   LIBCMT:mbsnbico.obj
 0001:0003df65       __mbsnbicoll               1003ef65 f   LIBCMT:mbsnbico.obj
 0001:0003df80       _strlen                    1003ef80 f   LIBCMT:strlen.obj
 0001:0003e00b       ___wtomb_environ           1003f00b f   LIBCMT:wtombenv.obj
 0001:0003e0a2       _strcpy_s                  1003f0a2 f   LIBCMT:strcpy_s.obj
 0001:0003e101       __mtinitlocks              1003f101 f   LIBCMT:mlock.obj
 0001:0003e14b       __mtdeletelocks            1003f14b f   LIBCMT:mlock.obj
 0001:0003e1a2       __unlock                   1003f1a2 f   LIBCMT:mlock.obj
 0001:0003e1b9       __mtinitlocknum            1003f1b9 f   LIBCMT:mlock.obj
 0001:0003e27b       __lock                     1003f27b f   LIBCMT:mlock.obj
 0001:0003e2ae       _strnlen                   1003f2ae f   LIBCMT:strlen_s.obj
 0001:0003e2cb       __fullpath                 1003f2cb f   LIBCMT:fullpath.obj
 0001:0003e3c2       ___dtoxmode                1003f3c2 f   LIBCMT:stat.obj
 0001:0003ebb3       __sopen_helper             1003fbb3 f   LIBCMT:open.obj
 0001:0003ec77       __sopen_s                  1003fc77 f   LIBCMT:open.obj
 0001:0003ec97       ___loctotime64_t           1003fc97 f   LIBCMT:dtoxtm64.obj
 0001:0003eefe       __getdrive                 1003fefe f   LIBCMT:drive.obj
 0001:0003efcc       __mbctolower_l             1003ffcc f   LIBCMT:mbtolwr.obj
 0001:0003f072       __mbctolower               10040072 f   LIBCMT:mbtolwr.obj
 0001:0003f085       __mbspbrk_l                10040085 f   LIBCMT:mbspbrk.obj
 0001:0003f14a       __mbspbrk                  1004014a f   LIBCMT:mbspbrk.obj
 0001:0003f1f6       __output_l                 100401f6 f   LIBCMT:output.obj
 0001:0003fdfe       __fcloseall                10040dfe f   LIBCMT:closeall.obj
 0001:0003fea0       __aulldiv                  10040ea0 f   LIBCMT:ulldiv.obj
 0001:0003ff08       _asctime                   10040f08 f   LIBCMT:asctime.obj
 0001:000400e6       __localtime64_s            100410e6 f   LIBCMT:loctim64.obj
 0001:0004036e       __commit                   1004136e f   LIBCMT:commit.obj
 0001:00040b7c       __wsopen_helper            10041b7c f   LIBCMT:wopen.obj
 0001:00040c40       __set_osfhnd               10041c40 f   LIBCMT:osfinfo.obj
 0001:00040cc1       __free_osfhnd              10041cc1 f   LIBCMT:osfinfo.obj
 0001:00040d47       __get_osfhandle            10041d47 f   LIBCMT:osfinfo.obj
 0001:00040db0       ___lock_fhandle            10041db0 f   LIBCMT:osfinfo.obj
 0001:00040e4f       __unlock_fhandle           10041e4f f   LIBCMT:osfinfo.obj
 0001:00040e76       __alloc_osfhnd             10041e76 f   LIBCMT:osfinfo.obj
 0001:00041010       __SEH_prolog4_GS           10042010 f   LIBCMT:sehprolg4gs.obj
 0001:00041058       __SEH_epilog4_GS           10042058 f   LIBCMT:sehprolg4gs.obj
 0001:00041067       __initp_misc_winsig        10042067 f   LIBCMT:winsig.obj
 0001:000410bc       ___get_sigabrt             100420bc f   LIBCMT:winsig.obj
 0001:000410c9       _raise                     100420c9 f   LIBCMT:winsig.obj
 0001:0004126c       __setenvp                  1004226c f   LIBCMT:stdenvp.obj
 0001:000414e2       __setargv                  100424e2 f   LIBCMT:stdargv.obj
 0001:0004159d       ___crtGetEnvironmentStringsA 1004259d f   LIBCMT:a_env.obj
 0001:00041634       __RTC_Initialize           10042634 f   LIBCMT:_initsect_.obj
 0001:0004165a       __RTC_Terminate            1004265a f   LIBCMT:_initsect_.obj
 0001:00041680       __XcptFilter               10042680 f   LIBCMT:winxfltr.obj
 0001:000417ca       ___CppXcptFilter           100427ca f   LIBCMT:winxfltr.obj
 0001:000417ea       ___security_init_cookie    100427ea f   LIBCMT:gs_support.obj
 0001:00041885       __calloc_impl              10042885 f   LIBCMT:calloc_impl.obj
 0001:00041907       __recalloc                 10042907 f   LIBCMT:recalloc.obj
 0001:00041975       ?terminate@@YAXXZ          10042975 f   LIBCMT:hooks.obj
 0001:000419ae       ?unexpected@@YAXXZ         100429ae f   LIBCMT:hooks.obj
 0001:000419c1       ?_inconsistency@@YAXXZ     100429c1 f   LIBCMT:hooks.obj
 0001:000419f9       __initp_eh_hooks           100429f9 f   LIBCMT:hooks.obj
 0001:00041a0a       __initp_misc_rand_s        10042a0a f   LIBCMT:rand_s.obj
 0001:00041a19       __initp_misc_cfltcvt_tab   10042a19 f   LIBCMT:cmiscdat.obj
 0001:00041a40       __ValidateImageBase        10042a40 f   LIBCMT:pesect.obj
 0001:00041a80       __FindPESection            10042a80 f   LIBCMT:pesect.obj
 0001:00041ad0       __IsNonwritableInCurrentImage 10042ad0 f   LIBCMT:pesect.obj
 0001:00041b8c       __crt_debugger_hook        10042b8c f   LIBCMT:dbghook.obj
 0001:00041b94       __getbuf                   10042b94 f   LIBCMT:_getbuf.obj
 0001:00041bdd       __isatty                   10042bdd f   LIBCMT:isatty.obj
 0001:00041c33       __fputwc_nolock            10042c33 f   LIBCMT:fputwc.obj
 0001:00041dba       __mbtowc_l                 10042dba f   LIBCMT:mbtowc.obj
 0001:00041ed0       _mbtowc                    10042ed0 f   LIBCMT:mbtowc.obj
 0001:00041ef0       __aulldvrm                 10042ef0 f   LIBCMT:ulldvrm.obj
 0001:00041f85       ___crtMessageBoxW          10042f85 f   LIBCMT:crtmboxw.obj
 0001:000420f1       _wcscat_s                  100430f1 f   LIBCMT:wcscat_s.obj
 0001:00042166       _wcsncpy_s                 10043166 f   LIBCMT:wcsncpy_s.obj
 0001:00042233       __set_error_mode           10043233 f   LIBCMT:errmode.obj
 0001:00042272       _strncpy_s                 10043272 f   LIBCMT:strncpy_s.obj
 0001:00042327       __freea                    10043327 f i LIBCMT:a_loc.obj
 0001:0004252e       ___crtLCMapStringA         1004352e f   LIBCMT:a_map.obj
 0001:0004265b       ___crtGetStringTypeA       1004365b f   LIBCMT:a_str.obj
 0001:0004269b       ___free_lc_time            1004369b f   LIBCMT:inittime.obj
 0001:00042a12       ___free_lconv_num          10043a12 f   LIBCMT:initnum.obj
 0001:00042a7b       ___free_lconv_mon          10043a7b f   LIBCMT:initmon.obj
 0001:00042b79       ___report_gsfailure        10043b79 f   LIBCMT:gs_report.obj
 0001:00042c7f       __mbsnbicmp_l              10043c7f f   LIBCMT:mbsnbicm.obj
 0001:00042e83       __mbsnbicmp                10043e83 f   LIBCMT:mbsnbicm.obj
 0001:00042e9d       __mbsnbcmp_l               10043e9d f   LIBCMT:mbsnbcmp.obj
 0001:00042fe9       __mbsnbcmp                 10043fe9 f   LIBCMT:mbsnbcmp.obj
 0001:00043010       __global_unwind2           10044010 f   LIBCMT:exsup.obj
 0001:00043075       __local_unwind2            10044075 f   LIBCMT:exsup.obj
 0001:000430f9       __abnormal_termination     100440f9 f   LIBCMT:exsup.obj
 0001:0004311c       __NLG_Notify1              1004411c f   LIBCMT:exsup.obj
 0001:00043125       __NLG_Notify               10044125 f   LIBCMT:exsup.obj
 0001:0004313c       __NLG_Dispatch             1004413c     LIBCMT:exsup.obj
 0001:0004313c       __NLG_Dispatch2            1004413c     LIBCMT:exsup.obj
 0001:00043144       __NLG_Call                 10044144 f   LIBCMT:exsup.obj
 0001:00043146       __NLG_Return2              10044146     LIBCMT:exsup.obj
 0001:00043147       __VEC_memzero              10044147 f   LIBCMT:p4_memset.obj
 0001:00043201       __putwch_nolock            10044201 f   LIBCMT:putwch.obj
 0001:000434b1       ___crtCompareStringA       100444b1 f   LIBCMT:a_cmp.obj
 0001:000434f3       __strnicoll_l              100444f3 f   LIBCMT:strnicol.obj
 0001:0004368f       ___crtsetenv               1004468f f   LIBCMT:setenv.obj
 0001:000438d1       __validdrive               100448d1 f   LIBCMT:getcwd.obj
 0001:0004392b       __getdcwd_nolock           1004492b f   LIBCMT:getcwd.obj
 0001:00043a4f       __getcwd                   10044a4f f   LIBCMT:getcwd.obj
 0001:00043a98       __mbsicmp_l                10044a98 f   LIBCMT:mbsicmp.obj
 0001:00043c8f       __mbsicmp                  10044c8f f   LIBCMT:mbsicmp.obj
 0001:00043ca6       __mbsrchr_l                10044ca6 f   LIBCMT:mbsrchr.obj
 0001:00043d50       __mbsrchr                  10044d50 f   LIBCMT:mbsrchr.obj
 0001:00043d67       __chsize_nolock            10044d67 f   LIBCMT:chsize.obj
 0001:00043f1d       __setmode_nolock           10044f1d f   LIBCMT:setmode.obj
 0001:00043fd8       __get_fmode                10044fd8 f   LIBCMT:setmode.obj
 0001:000446e6       ___tzset                   100456e6 f   LIBCMT:tzset.obj
 0001:00044735       __isindst                  10045735 f   LIBCMT:tzset.obj
 0001:00044776       __get_daylight             10045776 f   LIBCMT:timeset.obj
 0001:000447a3       __get_dstbias              100457a3 f   LIBCMT:timeset.obj
 0001:000447d0       __get_timezone             100457d0 f   LIBCMT:timeset.obj
 0001:000447fd       ___daylight                100457fd f   LIBCMT:timeset.obj
 0001:00044803       ___dstbias                 10045803 f   LIBCMT:timeset.obj
 0001:00044809       ___timezone                10045809 f   LIBCMT:timeset.obj
 0001:0004480f       ___tzname                  1004580f f   LIBCMT:timeset.obj
 0001:00044820       __allmul                   10045820 f   LIBCMT:llmul.obj
 0001:00044860       _strpbrk                   10045860 f   LIBCMT:strpbrk.obj
 0001:000448a0       __wctomb_s_l               100458a0 f   LIBCMT:wctomb.obj
 0001:000449f5       _wctomb_s                  100459f5 f   LIBCMT:wctomb.obj
 0001:00044a12       __gmtime64_s               10045a12 f   LIBCMT:gmtime64.obj
 0001:00044c50       __alldiv                   10045c50 f   LIBCMT:lldiv.obj
 0001:00044d00       __allrem                   10045d00 f   LIBCMT:llrem.obj
 0001:00044fdd       _strtol                    10045fdd f   LIBCMT:strtol.obj
 0001:0004505b       __ismbblead                1004605b f   LIBCMT:ismbbyte.obj
 0001:00045073       __fptrap                   10046073 f   LIBCMT:crt0fp.obj
 0001:0004507c       _atol                      1004607c f   LIBCMT:atox.obj
 0001:00045092       __flswbuf                  10046092 f   LIBCMT:_flswbuf.obj
 0001:00045210       __alloca_probe_16          10046210 f   LIBCMT:alloca16.obj
 0001:00045226       __alloca_probe_8           10046226     LIBCMT:alloca16.obj
 0001:0004523c       __strnicmp_l               1004623c f   LIBCMT:strnicmp.obj
 0001:0004531e       __strnicmp                 1004631e f   LIBCMT:strnicmp.obj
 0001:00045371       ___initconout              10046371 f   LIBCMT:initcon.obj
 0001:00045390       ___termconout              10046390 f   LIBCMT:initcon.obj
 0001:000453a7       __strdup                   100463a7 f   LIBCMT:strdup.obj
 0001:000453f9       __mbschr_l                 100463f9 f   LIBCMT:mbschr.obj
 0001:000454a9       __mbschr                   100464a9 f   LIBCMT:mbschr.obj
 0001:000454c0       ___ascii_stricmp           100464c0 f   LIBCMT:stricmp.obj
 0001:000454f9       __stricmp_l                100464f9 f   LIBCMT:stricmp.obj
 0001:000455b9       __stricmp                  100465b9 f   LIBCMT:stricmp.obj
 0001:000455b9       _stricmp                   100465b9 f   LIBCMT:stricmp.obj
 0001:00045600       _strrchr                   10046600 f   LIBCMT:strrchr.obj
 0001:0004562d       ____lc_codepage_func       1004662d f   LIBCMT:initctyp.obj
 0001:00045653       __isctype_l                10046653 f   LIBCMT:isctype.obj
 0001:0004570b       __tolower_l                1004670b f   LIBCMT:tolower.obj
 0001:00045820       _tolower                   10046820 f   LIBCMT:tolower.obj
 0001:00045850       ___ascii_strnicmp          10046850 f   LIBCMT:_strnicm.obj
 0001:000458c0       _strcspn                   100468c0 f   LIBCMT:strcspn.obj
 0001:00045920       _strchr                    10046920 f   LIBCMT:strchr.obj
 0001:00045926       ___from_strstr_to_strchr   10046926     LIBCMT:strchr.obj
 0001:000459de       _RtlUnwind@16              100469de f   kernel32:KERNEL32.dll
 0001:000459e4       __cfltcvt_init             100469e4 f   LIBCMT:_fpinit_.obj
 0001:00045a44       __fpmath                   10046a44 f   LIBCMT:_fpinit_.obj
 0001:00045a60       _pow                       10046a60 f   LIBCMT:_pow_.obj
 0001:00045aa0       __CIpow                    10046aa0 f   LIBCMT:_pow_.obj
 0001:00045adb       __CIpow_default            10046adb f   LIBCMT:_pow_.obj
 0001:00045af4       __pow_default              10046af4     LIBCMT:_pow_.obj
 0001:00045cea       ?_JumpToContinuation@@YGXPAXPAUEHRegistrationNode@@@Z 10046cea f   LIBCMT:_trnsctrl_.obj
 0001:00045d1c       ?_CallMemberFunction1@@YGXPAX00@Z 10046d1c f   LIBCMT:_trnsctrl_.obj
 0001:00045d1c       ?_CallMemberFunction2@@YGXPAX00H@Z 10046d1c f   LIBCMT:_trnsctrl_.obj
 0001:00045d1c       ?_CallMemberFunction0@@YGXPAX0@Z 10046d1c f   LIBCMT:_trnsctrl_.obj
 0001:00045d23       ?_UnwindNestedFrames@@YGXPAUEHRegistrationNode@@PAUEHExceptionRecord@@@Z 10046d23 f   LIBCMT:_trnsctrl_.obj
 0001:00045d77       ___CxxFrameHandler3        10046d77 f   LIBCMT:_trnsctrl_.obj
 0001:00045de0       ?_CallSETranslator@@YAHPAUEHExceptionRecord@@PAUEHRegistrationNode@@PAX2PBU_s_FuncInfo@@H1@Z 10046de0 f   LIBCMT:_trnsctrl_.obj
 0001:00045f56       ?_GetRangeOfTrysToCheck@@YAPBU_s_TryBlockMapEntry@@PBU_s_FuncInfo@@HHPAI1@Z 10046f56 f   LIBCMT:_trnsctrl_.obj
 0001:00045fc9       __CreateFrameInfo          10046fc9 f   LIBCMT:_trnsctrl_.obj
 0001:00045ff5       __IsExceptionObjectToBeDestroyed 10046ff5 f   LIBCMT:_trnsctrl_.obj
 0001:0004601c       __FindAndUnlinkFrame       1004701c f   LIBCMT:_trnsctrl_.obj
 0001:0004606e       ?_CallCatchBlock2@@YAPAXPAUEHRegistrationNode@@PBU_s_FuncInfo@@PAXHK@Z 1004706e f   LIBCMT:_trnsctrl_.obj
 0001:000460d0       __ftol2_sse                100470d0 f   LIBCMT:ftol2.obj
 0001:000460d9       __ftol2_pentium4           100470d9 f   LIBCMT:ftol2.obj
 0001:000460ec       __ftol2_sse_excpt          100470ec f   LIBCMT:ftol2.obj
 0001:00046106       __ftol2                    10047106 f   LIBCMT:ftol2.obj
 0001:0004617b       __CxxThrowException@8      1004717b f   LIBCMT:throw.obj
 0001:000461c7       __forcdecpt_l              100471c7 f   LIBCMT:cvt.obj
 0001:0004623b       __cropzeros_l              1004723b f   LIBCMT:cvt.obj
 0001:000462bd       __positive                 100472bd f   LIBCMT:cvt.obj
 0001:000462d9       __fassign_l                100472d9 f   LIBCMT:cvt.obj
 0001:0004631b       __fassign                  1004731b f   LIBCMT:cvt.obj
 0001:00046354       __forcdecpt                10047354 f   LIBCMT:cvt.obj
 0001:00046367       __cropzeros                10047367 f   LIBCMT:cvt.obj
 0001:000464db       __cftoe_l                  100474db f   LIBCMT:cvt.obj
 0001:000465a2       __cftoe                    100475a2 f   LIBCMT:cvt.obj
 0001:000465c2       __cftoa_l                  100475c2 f   LIBCMT:cvt.obj
 0001:00046a3b       __cftof_l                  10047a3b f   LIBCMT:cvt.obj
 0001:00046afc       __cftog_l                  10047afc f   LIBCMT:cvt.obj
 0001:00046be9       __cfltcvt_l                10047be9 f   LIBCMT:cvt.obj
 0001:00046c71       __cfltcvt                  10047c71 f   LIBCMT:cvt.obj
 0001:00046c94       __setdefaultprecision      10047c94 f   LIBCMT:fp8.obj
 0001:00046cbc       __sse2_mathfcns_init       10047cbc f   LIBCMT:_mathfcns_.obj
 0001:00046cd0       __CIpow_pentium4           10047cd0 f   LIBCMT:_pow_pentium4_.obj
 0001:00046ce9       __pow_pentium4             10047ce9     LIBCMT:_pow_pentium4_.obj
 0001:00047841       __fFEXP                    10048841     LIBCMT:_87tran_.obj
 0001:00047898       __rtinfpopse               10048898     LIBCMT:_87tran_.obj
 0001:0004789a       __rtinfnpopse              1004889a     LIBCMT:_87tran_.obj
 0001:000478aa       __fFLN                     100488aa     LIBCMT:_87tran_.obj
 0001:0004795f       __rtinfpop                 1004895f     LIBCMT:_87tran_.obj
 0001:00047961       __rtinfnpop                10048961     LIBCMT:_87tran_.obj
 0001:0004797e       __ffexpm1                  1004897e     LIBCMT:_87tran_.obj
 0001:00047a30       __trandisp1                10048a30 f   LIBCMT:_87disp_.obj
 0001:00047a97       __trandisp2                10048a97 f   LIBCMT:_87disp_.obj
 0001:00047b23       __rttospopde               10048b23     LIBCMT:_87disp_.obj
 0001:00047b28       __rttospop                 10048b28     LIBCMT:_87disp_.obj
 0001:00047b2a       __rtnospop                 10048b2a     LIBCMT:_87disp_.obj
 0001:00047b2c       __rttosnpop                10048b2c     LIBCMT:_87disp_.obj
 0001:00047b2d       __rtnospopde               10048b2d     LIBCMT:_87disp_.obj
 0001:00047b34       __rtzeropop                10048b34     LIBCMT:_87disp_.obj
 0001:00047b36       __rtzeronpop               10048b36     LIBCMT:_87disp_.obj
 0001:00047b3b       __rtonepop                 10048b3b     LIBCMT:_87disp_.obj
 0001:00047b3d       __rtonenpop                10048b3d     LIBCMT:_87disp_.obj
 0001:00047b42       __tosnan1                  10048b42     LIBCMT:_87disp_.obj
 0001:00047b6d       __nosnan2                  10048b6d     LIBCMT:_87disp_.obj
 0001:00047b6f       __tosnan2                  10048b6f     LIBCMT:_87disp_.obj
 0001:00047b97       __nan2                     10048b97     LIBCMT:_87disp_.obj
 0001:00047bd6       __rtindfpop                10048bd6     LIBCMT:_87disp_.obj
 0001:00047bd8       __rtindfnpop               10048bd8     LIBCMT:_87disp_.obj
 0001:00047be9       __rttosnpopde              10048be9     LIBCMT:_87disp_.obj
 0001:00047bf3       __rtchsifneg               10048bf3     LIBCMT:_87disp_.obj
 0001:00047c00       __startTwoArgErrorHandling 10048c00 f   LIBCMT:_genexcep_.obj
 0001:00047c17       __startOneArgErrorHandling 10048c17 f   LIBCMT:_genexcep_.obj
 0001:00047c60       __twoToTOS                 10048c60 f   LIBCMT:_common_.obj
 0001:00047c75       __load_CW                  10048c75 f   LIBCMT:_common_.obj
 0001:00047c8c       __convertTOStoQNaN         10048c8c f   LIBCMT:_common_.obj
 0001:00047ca5       __fload_withFB             10048ca5 f   LIBCMT:_common_.obj
 0001:00047ce8       __checkTOS_withFB          10048ce8 f   LIBCMT:_common_.obj
 0001:00047cfe       __fast_exit                10048cfe f   LIBCMT:_common_.obj
 0001:00047d0b       __math_exit                10048d0b f   LIBCMT:_common_.obj
 0001:00047d35       __check_overflow_exit      10048d35 f   LIBCMT:_common_.obj
 0001:00047d49       __check_range_exit         10048d49 f   LIBCMT:_common_.obj
 0001:00047dec       __d_inttype                10048dec f   LIBCMT:_powhlp_.obj
 0001:00047e56       __powhlp                   10048e56 f   LIBCMT:_powhlp_.obj
 0001:00047f81       ??1bad_exception@std@@UAE@XZ 10048f81 f i LIBCMT:frame.obj
 0001:00047f8c       ??_Ebad_exception@std@@UAEPAXI@Z 10048f8c f i LIBCMT:frame.obj
 0001:00047f8c       ??_Gbad_exception@std@@UAEPAXI@Z 10048f8c f i LIBCMT:frame.obj
 0001:00047fb3       ___TypeMatch               10048fb3 f   LIBCMT:frame.obj
 0001:00048012       ___FrameUnwindFilter       10049012 f   LIBCMT:frame.obj
 0001:00048061       ___FrameUnwindToState      10049061 f   LIBCMT:frame.obj
 0001:00048182       ___DestructExceptionObject 10049182 f   LIBCMT:frame.obj
 0001:000481d7       ___AdjustPointer           100491d7 f   LIBCMT:frame.obj
 0001:0004845b       ___BuildCatchObjectHelper  1004945b f   LIBCMT:frame.obj
 0001:000485da       ___BuildCatchObject        100495da f   LIBCMT:frame.obj
 0001:00048b56       ??0bad_exception@std@@QAE@ABV01@@Z 10049b56 f i LIBCMT:frame.obj
 0001:00048b73       ___InternalCxxFrameHandler 10049b73 f   LIBCMT:frame.obj
 0001:00048c60       __CallSettingFrame@12      10049c60 f   LIBCMT:lowhelpr.obj
 0001:00048c87       __NLG_Return               10049c87     LIBCMT:lowhelpr.obj
 0001:00048cac       __isdigit_l                10049cac f i LIBCMT:_ctype.obj
 0001:00048cfd       _isdigit                   10049cfd f i LIBCMT:_ctype.obj
 0001:00048d2b       __atodbl_l                 10049d2b f   LIBCMT:atodbl.obj
 0001:00048dd3       __atoflt_l                 10049dd3 f   LIBCMT:atodbl.obj
 0001:00048e7b       __fptostr                  10049e7b f   LIBCMT:_fptostr.obj
 0001:00048f2e       ___dtold                   10049f2e f   LIBCMT:_cfout_.obj
 0001:00048fe1       __fltout2                  10049fe1 f   LIBCMT:_cfout_.obj
 0001:00049070       __alldvrm                  1004a070 f   LIBCMT:lldvrm.obj
 0001:00049150       __aullshr                  1004a150 f   LIBCMT:ullshr.obj
 0001:0004916f       __controlfp_s              1004a16f f   LIBCMT:_contrlfp_.obj
 0001:000491ce       ___libm_error_support      1004a1ce f   LIBCMT:_libm_error_.obj
 0001:0004949a       __87except                 1004a49a f   LIBCMT:_87except_.obj
 0001:000495d9       __frnd                     1004a5d9 f   LIBCMT:_frnd_.obj
 0001:000495ed       __fpclass                  1004a5ed f   LIBCMT:_ieeemisc_.obj
 0001:0004968a       __set_exp                  1004a68a f   LIBCMT:_util_.obj
 0001:000496b7       __sptype                   1004a6b7 f   LIBCMT:_util_.obj
 0001:0004971d       __decomp                   1004a71d f   LIBCMT:_util_.obj
 0001:000497e0       ?what@exception@std@@UBEPBDXZ 1004a7e0 f   LIBCMT:stdexcpt.obj
 0001:000497ed       ?_Copy_str@exception@std@@AAEXPBD@Z 1004a7ed f   LIBCMT:stdexcpt.obj
 0001:0004982d       ?_Tidy@exception@std@@AAEXXZ 1004a82d f   LIBCMT:stdexcpt.obj
 0001:0004984b       ??0exception@std@@QAE@ABQBD@Z 1004a84b f   LIBCMT:stdexcpt.obj
 0001:00049872       ??4exception@std@@QAEAAV01@ABV01@@Z 1004a872 f   LIBCMT:stdexcpt.obj
 0001:000498a7       ??1exception@std@@UAE@XZ   1004a8a7 f   LIBCMT:stdexcpt.obj
 0001:000498b2       ??_Gexception@std@@UAEPAXI@Z 1004a8b2 f i LIBCMT:stdexcpt.obj
 0001:000498b2       ??_Eexception@std@@UAEPAXI@Z 1004a8b2 f i LIBCMT:stdexcpt.obj
 0001:000498d9       ??0exception@std@@QAE@ABV01@@Z 1004a8d9 f   LIBCMT:stdexcpt.obj
 0001:000498fe       __EH_prolog3_catch         1004a8fe f   LIBCMT:ehprolg3.obj
 0001:00049934       ?_ValidateRead@@YAHPBXI@Z  1004a934 f   LIBCMT:validate.obj
 0001:00049934       ?_ValidateExecute@@YAHP6GHXZ@Z 1004a934 f   LIBCMT:validate.obj
 0001:00049934       ?_ValidateWrite@@YAHPAXI@Z 1004a934 f   LIBCMT:validate.obj
 0001:00049946       __ld12tod                  1004a946 f   LIBCMT:_intrncvt_.obj
 0001:00049e97       __ld12tof                  1004ae97 f   LIBCMT:_intrncvt_.obj
 0001:0004a3e8       ___strgtold12_l            1004b3e8 f   LIBCMT:_strgtold_.obj
 0001:0004aac4       _$I10_OUTPUT               1004bac4 f   LIBCMT:_x10fout_.obj
 0001:0004b4ea       __control87                1004c4ea f i LIBCMT:_ieee87_.obj
 0001:0004b7fc       __matherr                  1004c7fc f   LIBCMT:_matherr_.obj
 0001:0004b7ff       __raise_exc_ex             1004c7ff f   LIBCMT:_fpexcept_.obj
 0001:0004badb       __raise_exc                1004cadb f   LIBCMT:_fpexcept_.obj
 0001:0004bafe       __handle_exc               1004cafe f   LIBCMT:_fpexcept_.obj
 0001:0004bce2       __set_errno_from_matherr   1004cce2 f   LIBCMT:_fpexcept_.obj
 0001:0004bd0f       __statfp                   1004cd0f f   LIBCMT:_fpctrl_.obj
 0001:0004bd1f       __clrfp                    1004cd1f f   LIBCMT:_fpctrl_.obj
 0001:0004bd30       __ctrlfp                   1004cd30 f   LIBCMT:_fpctrl_.obj
 0001:0004bd5b       __set_statfp               1004cd5b f   LIBCMT:_fpctrl_.obj
 0001:0004bdb3       ___set_fpsr_sse2           1004cdb3 f   LIBCMT:_fpctrl_.obj
 0001:0004be25       ___mtold12                 1004ce25 f   LIBCMT:_mantold_.obj
 0002:00000000       __imp__RegEnumKeyExW@32    10058000     advapi32:ADVAPI32.dll
 0002:00000004       __imp__RegOpenKeyExW@20    10058004     advapi32:ADVAPI32.dll
 0002:00000008       __imp__RegEnumValueW@32    10058008     advapi32:ADVAPI32.dll
 0002:0000000c       __imp__RegDeleteKeyW@8     1005800c     advapi32:ADVAPI32.dll
 0002:00000010       __imp__RegQueryValueExW@24 10058010     advapi32:ADVAPI32.dll
 0002:00000014       __imp__RegCreateKeyExW@36  10058014     advapi32:ADVAPI32.dll
 0002:00000018       __imp__RegCloseKey@4       10058018     advapi32:ADVAPI32.dll
 0002:0000001c       __imp__RegSetValueExW@24   1005801c     advapi32:ADVAPI32.dll
 0002:00000020       \177ADVAPI32_NULL_THUNK_DATA 10058020     advapi32:ADVAPI32.dll
 0002:00000024       __imp__ExpandEnvironmentStringsW@12 10058024     kernel32:KERNEL32.dll
 0002:00000028       __imp__FindFirstFileW@8    10058028     kernel32:KERNEL32.dll
 0002:0000002c       __imp__GetModuleHandleW@4  1005802c     kernel32:KERNEL32.dll
 0002:00000030       __imp__FindClose@4         10058030     kernel32:KERNEL32.dll
 0002:00000034       __imp__FindNextFileW@8     10058034     kernel32:KERNEL32.dll
 0002:00000038       __imp__WriteConsoleOutputW@20 10058038     kernel32:KERNEL32.dll
 0002:0000003c       __imp__SetConsoleActiveScreenBuffer@4 1005803c     kernel32:KERNEL32.dll
 0002:00000040       __imp__WriteConsoleOutputA@20 10058040     kernel32:KERNEL32.dll
 0002:00000044       __imp__SetConsoleMode@8    10058044     kernel32:KERNEL32.dll
 0002:00000048       __imp__CreateFileW@28      10058048     kernel32:KERNEL32.dll
 0002:0000004c       __imp__GetStdHandle@4      1005804c     kernel32:KERNEL32.dll
 0002:00000050       __imp__GetModuleFileNameW@12 10058050     kernel32:KERNEL32.dll
 0002:00000054       __imp__GetConsoleScreenBufferInfo@8 10058054     kernel32:KERNEL32.dll
 0002:00000058       __imp__SetConsoleCursorInfo@8 10058058     kernel32:KERNEL32.dll
 0002:0000005c       __imp__ReadConsoleInputW@16 1005805c     kernel32:KERNEL32.dll
 0002:00000060       __imp__VirtualQuery@12     10058060     kernel32:KERNEL32.dll
 0002:00000064       __imp__GetTickCount@0      10058064     kernel32:KERNEL32.dll
 0002:00000068       __imp__VirtualFree@12      10058068     kernel32:KERNEL32.dll
 0002:0000006c       __imp__VirtualAlloc@16     1005806c     kernel32:KERNEL32.dll
 0002:00000070       __imp__GetSystemInfo@4     10058070     kernel32:KERNEL32.dll
 0002:00000074       __imp__GetTimeZoneInformation@4 10058074     kernel32:KERNEL32.dll
 0002:00000078       __imp__GetProcessHeap@0    10058078     kernel32:KERNEL32.dll
 0002:0000007c       __imp__SetEndOfFile@4      1005807c     kernel32:KERNEL32.dll
 0002:00000080       __imp__CloseHandle@4       10058080     kernel32:KERNEL32.dll
 0002:00000084       __imp__OpenFileMappingW@12 10058084     kernel32:KERNEL32.dll
 0002:00000088       __imp__GetConsoleWindow@0  10058088     kernel32:KERNEL32.dll
 0002:0000008c       __imp__CreateConsoleScreenBuffer@20 1005808c     kernel32:KERNEL32.dll
 0002:00000090       __imp__HeapDestroy@4       10058090     kernel32:KERNEL32.dll
 0002:00000094       __imp__GetLastError@0      10058094     kernel32:KERNEL32.dll
 0002:00000098       __imp__HeapFree@12         10058098     kernel32:KERNEL32.dll
 0002:0000009c       __imp__EncodePointer@4     1005809c     kernel32:KERNEL32.dll
 0002:000000a0       __imp__DecodePointer@4     100580a0     kernel32:KERNEL32.dll
 0002:000000a4       __imp__HeapReAlloc@16      100580a4     kernel32:KERNEL32.dll
 0002:000000a8       __imp__HeapAlloc@12        100580a8     kernel32:KERNEL32.dll
 0002:000000ac       __imp__ReadFile@20         100580ac     kernel32:KERNEL32.dll
 0002:000000b0       __imp__GetFileAttributesA@4 100580b0     kernel32:KERNEL32.dll
 0002:000000b4       __imp__FileTimeToSystemTime@8 100580b4     kernel32:KERNEL32.dll
 0002:000000b8       __imp__FileTimeToLocalFileTime@8 100580b8     kernel32:KERNEL32.dll
 0002:000000bc       __imp__GetDriveTypeA@4     100580bc     kernel32:KERNEL32.dll
 0002:000000c0       __imp__FindFirstFileExA@24 100580c0     kernel32:KERNEL32.dll
 0002:000000c4       __imp__EnterCriticalSection@4 100580c4     kernel32:KERNEL32.dll
 0002:000000c8       __imp__LeaveCriticalSection@4 100580c8     kernel32:KERNEL32.dll
 0002:000000cc       __imp__GetSystemTimeAsFileTime@4 100580cc     kernel32:KERNEL32.dll
 0002:000000d0       __imp__GetFileInformationByHandle@8 100580d0     kernel32:KERNEL32.dll
 0002:000000d4       __imp__PeekNamedPipe@24    100580d4     kernel32:KERNEL32.dll
 0002:000000d8       __imp__GetFileType@4       100580d8     kernel32:KERNEL32.dll
 0002:000000dc       __imp__GetCurrentThreadId@0 100580dc     kernel32:KERNEL32.dll
 0002:000000e0       __imp__GetCommandLineA@0   100580e0     kernel32:KERNEL32.dll
 0002:000000e4       __imp__IsProcessorFeaturePresent@4 100580e4     kernel32:KERNEL32.dll
 0002:000000e8       __imp__HeapCreate@12       100580e8     kernel32:KERNEL32.dll
 0002:000000ec       __imp__RaiseException@16   100580ec     kernel32:KERNEL32.dll
 0002:000000f0       __imp__Sleep@4             100580f0     kernel32:KERNEL32.dll
 0002:000000f4       __imp__HeapSize@12         100580f4     kernel32:KERNEL32.dll
 0002:000000f8       __imp__GetProcAddress@8    100580f8     kernel32:KERNEL32.dll
 0002:000000fc       __imp__ExitProcess@4       100580fc     kernel32:KERNEL32.dll
 0002:00000100       __imp__UnhandledExceptionFilter@4 10058100     kernel32:KERNEL32.dll
 0002:00000104       __imp__SetUnhandledExceptionFilter@4 10058104     kernel32:KERNEL32.dll
 0002:00000108       __imp__IsDebuggerPresent@0 10058108     kernel32:KERNEL32.dll
 0002:0000010c       __imp__TerminateProcess@8  1005810c     kernel32:KERNEL32.dll
 0002:00000110       __imp__GetCurrentProcess@0 10058110     kernel32:KERNEL32.dll
 0002:00000114       __imp__WriteFile@20        10058114     kernel32:KERNEL32.dll
 0002:00000118       __imp__GetCPInfo@8         10058118     kernel32:KERNEL32.dll
 0002:0000011c       __imp__InterlockedIncrement@4 1005811c     kernel32:KERNEL32.dll
 0002:00000120       __imp__InterlockedDecrement@4 10058120     kernel32:KERNEL32.dll
 0002:00000124       __imp__GetACP@0            10058124     kernel32:KERNEL32.dll
 0002:00000128       __imp__GetOEMCP@0          10058128     kernel32:KERNEL32.dll
 0002:0000012c       __imp__IsValidCodePage@4   1005812c     kernel32:KERNEL32.dll
 0002:00000130       __imp__TlsAlloc@0          10058130     kernel32:KERNEL32.dll
 0002:00000134       __imp__TlsGetValue@4       10058134     kernel32:KERNEL32.dll
 0002:00000138       __imp__TlsSetValue@8       10058138     kernel32:KERNEL32.dll
 0002:0000013c       __imp__TlsFree@4           1005813c     kernel32:KERNEL32.dll
 0002:00000140       __imp__SetLastError@4      10058140     kernel32:KERNEL32.dll
 0002:00000144       __imp__GetStringTypeW@16   10058144     kernel32:KERNEL32.dll
 0002:00000148       __imp__MultiByteToWideChar@24 10058148     kernel32:KERNEL32.dll
 0002:0000014c       __imp__SetHandleCount@4    1005814c     kernel32:KERNEL32.dll
 0002:00000150       __imp__InitializeCriticalSectionAndSpinCount@8 10058150     kernel32:KERNEL32.dll
 0002:00000154       __imp__GetStartupInfoW@4   10058154     kernel32:KERNEL32.dll
 0002:00000158       __imp__DeleteCriticalSection@4 10058158     kernel32:KERNEL32.dll
 0002:0000015c       __imp__SetFilePointer@16   1005815c     kernel32:KERNEL32.dll
 0002:00000160       __imp__RtlUnwind@16        10058160     kernel32:KERNEL32.dll
 0002:00000164       __imp__WideCharToMultiByte@32 10058164     kernel32:KERNEL32.dll
 0002:00000168       __imp__GetConsoleCP@0      10058168     kernel32:KERNEL32.dll
 0002:0000016c       __imp__GetConsoleMode@8    1005816c     kernel32:KERNEL32.dll
 0002:00000170       __imp__GetFullPathNameA@16 10058170     kernel32:KERNEL32.dll
 0002:00000174       __imp__CreateFileA@28      10058174     kernel32:KERNEL32.dll
 0002:00000178       __imp__GetCurrentDirectoryW@8 10058178     kernel32:KERNEL32.dll
 0002:0000017c       __imp__FlushFileBuffers@4  1005817c     kernel32:KERNEL32.dll
 0002:00000180       __imp__SetStdHandle@8      10058180     kernel32:KERNEL32.dll
 0002:00000184       __imp__GetModuleFileNameA@12 10058184     kernel32:KERNEL32.dll
 0002:00000188       __imp__FreeEnvironmentStringsW@4 10058188     kernel32:KERNEL32.dll
 0002:0000018c       __imp__GetEnvironmentStringsW@0 1005818c     kernel32:KERNEL32.dll
 0002:00000190       __imp__QueryPerformanceCounter@4 10058190     kernel32:KERNEL32.dll
 0002:00000194       __imp__GetCurrentProcessId@0 10058194     kernel32:KERNEL32.dll
 0002:00000198       __imp__LoadLibraryW@4      10058198     kernel32:KERNEL32.dll
 0002:0000019c       __imp__LCMapStringW@24     1005819c     kernel32:KERNEL32.dll
 0002:000001a0       __imp__WriteConsoleW@20    100581a0     kernel32:KERNEL32.dll
 0002:000001a4       __imp__CompareStringW@24   100581a4     kernel32:KERNEL32.dll
 0002:000001a8       __imp__SetEnvironmentVariableA@8 100581a8     kernel32:KERNEL32.dll
 0002:000001ac       __imp__GetDriveTypeW@4     100581ac     kernel32:KERNEL32.dll
 0002:000001b0       \177KERNEL32_NULL_THUNK_DATA 100581b0     kernel32:KERNEL32.dll
 0002:000001b4       __imp__CharUpperBuffW@8    100581b4     user32:USER32.dll
 0002:000001b8       __imp__wsprintfW           100581b8     user32:USER32.dll
 0002:000001bc       \177USER32_NULL_THUNK_DATA 100581bc     user32:USER32.dll
 0002:000001c0       __imp__InternetCloseHandle@4 100581c0     wininet:WININET.dll
 0002:000001c4       __imp__InternetReadFile@16 100581c4     wininet:WININET.dll
 0002:000001c8       __imp__InternetOpenUrlW@24 100581c8     wininet:WININET.dll
 0002:000001cc       __imp__InternetOpenW@20    100581cc     wininet:WININET.dll
 0002:000001d0       \177WININET_NULL_THUNK_DATA 100581d0     wininet:WININET.dll
 0002:000001d4       ___xc_a                    100581d4     LIBCMT:crt0init.obj
 0002:00000328       ___xc_z                    10058328     LIBCMT:crt0init.obj
 0002:0000032c       ___xi_a                    1005832c     LIBCMT:crt0init.obj
 0002:00000348       ___xi_z                    10058348     LIBCMT:crt0init.obj
 0002:0000034c       ___xp_a                    1005834c     LIBCMT:crt0init.obj
 0002:00000358       ___xp_z                    10058358     LIBCMT:crt0init.obj
 0002:0000035c       ___xt_a                    1005835c     LIBCMT:crt0init.obj
 0002:00000360       ___xt_z                    10058360     LIBCMT:crt0init.obj
 0002:00000374       ??_7type_info@@6B@         10058374     LIBCMT:typinfo.obj
 0002:00000378       ??_C@_03LLEJOLGL@?4?1?2?$AA@ 10058378     LIBCMT:stati32.obj
 0002:0000037c       ??_C@_02EAOCEIGI@?$DP?$CK?$AA@ 1005837c     LIBCMT:stati32.obj
 0002:00000380       __pDefaultRawDllMain       10058380     LIBCMT:dllcrt0.obj
 0002:00000380       __pRawDllMain              10058380     LIBCMT:dllcrt0.obj
 0002:00000384       ??_C@_0P@MIGLKIOC@CorExitProcess?$AA@ 10058384     LIBCMT:crt0dat.obj
 0002:00000394       ??_C@_1BI@BGOHAHKC@?$AAm?$AAs?$AAc?$AAo?$AAr?$AAe?$AAe?$AA?4?$AAd?$AAl?$AAl?$AA?$AA@ 10058394     LIBCMT:crt0dat.obj
 0002:000003ac       ??_C@_1BO@BKOMIGKJ@?$AAr?$AAu?$AAn?$AAt?$AAi?$AAm?$AAe?$AA?5?$AAe?$AAr?$AAr?$AAo?$AAr?$AA?5?$AA?$AA@ 100583ac     LIBCMT:crt0msg.obj
 0002:000003cc       ??_C@_15JNBOKNOG@?$AA?$AN?$AA?6?$AA?$AA@ 100583cc     LIBCMT:crt0msg.obj
 0002:000003d4       ??_C@_1BM@JBBEPPHI@?$AAT?$AAL?$AAO?$AAS?$AAS?$AA?5?$AAe?$AAr?$AAr?$AAo?$AAr?$AA?$AN?$AA?6?$AA?$AA@ 100583d4     LIBCMT:crt0msg.obj
 0002:000003f0       ??_C@_1BK@KMOMNAAI@?$AAS?$AAI?$AAN?$AAG?$AA?5?$AAe?$AAr?$AAr?$AAo?$AAr?$AA?$AN?$AA?6?$AA?$AA@ 100583f0     LIBCMT:crt0msg.obj
 0002:0000040c       ??_C@_1BO@BFCDCGC@?$AAD?$AAO?$AAM?$AAA?$AAI?$AAN?$AA?5?$AAe?$AAr?$AAr?$AAo?$AAr?$AA?$AN?$AA?6?$AA?$AA@ 1005840c     LIBCMT:crt0msg.obj
 0002:00000430       ??_C@_1BOO@KGEDBGAJ@?$AAR?$AA6?$AA0?$AA3?$AA3?$AA?$AN?$AA?6?$AA?9?$AA?5?$AAA?$AAt?$AAt?$AAe?$AAm?$AAp?$AAt?$AA?5?$AAt?$AAo?$AA?5?$AAu?$AAs?$AAe?$AA?5?$AAM?$AAS?$AAI?$AAL?$AA?5?$AAc?$AAo?$AAd@ 10058430     LIBCMT:crt0msg.obj
 0002:00000620       ??_C@_1GG@GOPILAJP@?$AAR?$AA6?$AA0?$AA3?$AA2?$AA?$AN?$AA?6?$AA?9?$AA?5?$AAn?$AAo?$AAt?$AA?5?$AAe?$AAn?$AAo?$AAu?$AAg?$AAh?$AA?5?$AAs?$AAp?$AAa?$AAc?$AAe?$AA?5?$AAf?$AAo?$AAr?$AA?5?$AAl?$AAo@ 10058620     LIBCMT:crt0msg.obj
 0002:00000688       ??_C@_1MG@ENCOOIDF@?$AAR?$AA6?$AA0?$AA3?$AA1?$AA?$AN?$AA?6?$AA?9?$AA?5?$AAA?$AAt?$AAt?$AAe?$AAm?$AAp?$AAt?$AA?5?$AAt?$AAo?$AA?5?$AAi?$AAn?$AAi?$AAt?$AAi?$AAa?$AAl?$AAi?$AAz?$AAe?$AA?5?$AAt@ 10058688     LIBCMT:crt0msg.obj
 0002:00000750       ??_C@_1DO@BMFCDCD@?$AAR?$AA6?$AA0?$AA3?$AA0?$AA?$AN?$AA?6?$AA?9?$AA?5?$AAC?$AAR?$AAT?$AA?5?$AAn?$AAo?$AAt?$AA?5?$AAi?$AAn?$AAi?$AAt?$AAi?$AAa?$AAl?$AAi?$AAz?$AAe?$AAd?$AA?$AN?$AA?6?$AA?$AA@ 10058750     LIBCMT:crt0msg.obj
 0002:00000790       ??_C@_1EK@HHFLMAOL@?$AAR?$AA6?$AA0?$AA2?$AA8?$AA?$AN?$AA?6?$AA?9?$AA?5?$AAu?$AAn?$AAa?$AAb?$AAl?$AAe?$AA?5?$AAt?$AAo?$AA?5?$AAi?$AAn?$AAi?$AAt?$AAi?$AAa?$AAl?$AAi?$AAz?$AAe?$AA?5?$AAh?$AAe@ 10058790     LIBCMT:crt0msg.obj
 0002:000007e0       ??_C@_1GK@MFGOKLAG@?$AAR?$AA6?$AA0?$AA2?$AA7?$AA?$AN?$AA?6?$AA?9?$AA?5?$AAn?$AAo?$AAt?$AA?5?$AAe?$AAn?$AAo?$AAu?$AAg?$AAh?$AA?5?$AAs?$AAp?$AAa?$AAc?$AAe?$AA?5?$AAf?$AAo?$AAr?$AA?5?$AAl?$AAo@ 100587e0     LIBCMT:crt0msg.obj
 0002:00000850       ??_C@_1GK@MCAAGJMO@?$AAR?$AA6?$AA0?$AA2?$AA6?$AA?$AN?$AA?6?$AA?9?$AA?5?$AAn?$AAo?$AAt?$AA?5?$AAe?$AAn?$AAo?$AAu?$AAg?$AAh?$AA?5?$AAs?$AAp?$AAa?$AAc?$AAe?$AA?5?$AAf?$AAo?$AAr?$AA?5?$AAs?$AAt@ 10058850     LIBCMT:crt0msg.obj
 0002:000008c0       ??_C@_1EM@MAADIHMB@?$AAR?$AA6?$AA0?$AA2?$AA5?$AA?$AN?$AA?6?$AA?9?$AA?5?$AAp?$AAu?$AAr?$AAe?$AA?5?$AAv?$AAi?$AAr?$AAt?$AAu?$AAa?$AAl?$AA?5?$AAf?$AAu?$AAn?$AAc?$AAt?$AAi?$AAo?$AAn?$AA?5?$AAc@ 100588c0     LIBCMT:crt0msg.obj
 0002:00000910       ??_C@_1GK@FHCKBEFA@?$AAR?$AA6?$AA0?$AA2?$AA4?$AA?$AN?$AA?6?$AA?9?$AA?5?$AAn?$AAo?$AAt?$AA?5?$AAe?$AAn?$AAo?$AAu?$AAg?$AAh?$AA?5?$AAs?$AAp?$AAa?$AAc?$AAe?$AA?5?$AAf?$AAo?$AAr?$AA?5?$AA_?$AAo@ 10058910     LIBCMT:crt0msg.obj
 0002:00000980       ??_C@_1FC@ECHBIFBC@?$AAR?$AA6?$AA0?$AA1?$AA9?$AA?$AN?$AA?6?$AA?9?$AA?5?$AAu?$AAn?$AAa?$AAb?$AAl?$AAe?$AA?5?$AAt?$AAo?$AA?5?$AAo?$AAp?$AAe?$AAn?$AA?5?$AAc?$AAo?$AAn?$AAs?$AAo?$AAl?$AAe?$AA?5@ 10058980     LIBCMT:crt0msg.obj
 0002:000009d8       ??_C@_1EC@JIBHAOPH@?$AAR?$AA6?$AA0?$AA1?$AA8?$AA?$AN?$AA?6?$AA?9?$AA?5?$AAu?$AAn?$AAe?$AAx?$AAp?$AAe?$AAc?$AAt?$AAe?$AAd?$AA?5?$AAh?$AAe?$AAa?$AAp?$AA?5?$AAe?$AAr?$AAr?$AAo?$AAr?$AA?$AN?$AA?6@ 100589d8     LIBCMT:crt0msg.obj
 0002:00000a20       ??_C@_1FK@BEOGODMC@?$AAR?$AA6?$AA0?$AA1?$AA7?$AA?$AN?$AA?6?$AA?9?$AA?5?$AAu?$AAn?$AAe?$AAx?$AAp?$AAe?$AAc?$AAt?$AAe?$AAd?$AA?5?$AAm?$AAu?$AAl?$AAt?$AAi?$AAt?$AAh?$AAr?$AAe?$AAa?$AAd?$AA?5@ 10058a20     LIBCMT:crt0msg.obj
 0002:00000a80       ??_C@_1FI@LOGNIKDM@?$AAR?$AA6?$AA0?$AA1?$AA6?$AA?$AN?$AA?6?$AA?9?$AA?5?$AAn?$AAo?$AAt?$AA?5?$AAe?$AAn?$AAo?$AAu?$AAg?$AAh?$AA?5?$AAs?$AAp?$AAa?$AAc?$AAe?$AA?5?$AAf?$AAo?$AAr?$AA?5?$AAt?$AAh@ 10058a80     LIBCMT:crt0msg.obj
 0002:00000ad8       ??_C@_1EG@BEHAGFJD@?$AAR?$AA6?$AA0?$AA1?$AA0?$AA?$AN?$AA?6?$AA?9?$AA?5?$AAa?$AAb?$AAo?$AAr?$AAt?$AA?$CI?$AA?$CJ?$AA?5?$AAh?$AAa?$AAs?$AA?5?$AAb?$AAe?$AAe?$AAn?$AA?5?$AAc?$AAa?$AAl?$AAl?$AAe?$AAd@ 10058ad8     LIBCMT:crt0msg.obj
 0002:00000b20       ??_C@_1FI@HONFMGBI@?$AAR?$AA6?$AA0?$AA0?$AA9?$AA?$AN?$AA?6?$AA?9?$AA?5?$AAn?$AAo?$AAt?$AA?5?$AAe?$AAn?$AAo?$AAu?$AAg?$AAh?$AA?5?$AAs?$AAp?$AAa?$AAc?$AAe?$AA?5?$AAf?$AAo?$AAr?$AA?5?$AAe?$AAn@ 10058b20     LIBCMT:crt0msg.obj
 0002:00000b78       ??_C@_1FE@LLNEDJMD@?$AAR?$AA6?$AA0?$AA0?$AA8?$AA?$AN?$AA?6?$AA?9?$AA?5?$AAn?$AAo?$AAt?$AA?5?$AAe?$AAn?$AAo?$AAu?$AAg?$AAh?$AA?5?$AAs?$AAp?$AAa?$AAc?$AAe?$AA?5?$AAf?$AAo?$AAr?$AA?5?$AAa?$AAr@ 10058b78     LIBCMT:crt0msg.obj
 0002:00000bd0       ??_C@_1FK@PGACCAFB@?$AAR?$AA6?$AA0?$AA0?$AA2?$AA?$AN?$AA?6?$AA?9?$AA?5?$AAf?$AAl?$AAo?$AAa?$AAt?$AAi?$AAn?$AAg?$AA?5?$AAp?$AAo?$AAi?$AAn?$AAt?$AA?5?$AAs?$AAu?$AAp?$AAp?$AAo?$AAr?$AAt?$AA?5@ 10058bd0     LIBCMT:crt0msg.obj
 0002:00000ce0       ??_C@_1EK@MBDPDCGA@?$AAM?$AAi?$AAc?$AAr?$AAo?$AAs?$AAo?$AAf?$AAt?$AA?5?$AAV?$AAi?$AAs?$AAu?$AAa?$AAl?$AA?5?$AAC?$AA?$CL?$AA?$CL?$AA?5?$AAR?$AAu?$AAn?$AAt?$AAi?$AAm?$AAe?$AA?5?$AAL?$AAi?$AAb@ 10058ce0     LIBCMT:crt0msg.obj
 0002:00000d2c       ??_C@_15IABLJNFO@?$AA?6?$AA?6?$AA?$AA@ 10058d2c     LIBCMT:crt0msg.obj
 0002:00000d34       ??_C@_17LGKOMLJ@?$AA?4?$AA?4?$AA?4?$AA?$AA@ 10058d34     LIBCMT:crt0msg.obj
 0002:00000d3c       ??_C@_1CO@EAEJAADC@?$AA?$DM?$AAp?$AAr?$AAo?$AAg?$AAr?$AAa?$AAm?$AA?5?$AAn?$AAa?$AAm?$AAe?$AA?5?$AAu?$AAn?$AAk?$AAn?$AAo?$AAw?$AAn?$AA?$DO?$AA?$AA@ 10058d3c     LIBCMT:crt0msg.obj
 0002:00000d6c       ??_C@_1DE@JNGNBFGO@?$AAR?$AAu?$AAn?$AAt?$AAi?$AAm?$AAe?$AA?5?$AAE?$AAr?$AAr?$AAo?$AAr?$AA?$CB?$AA?6?$AA?6?$AAP?$AAr?$AAo?$AAg?$AAr?$AAa?$AAm?$AA?3?$AA?5?$AA?$AA@ 10058d6c     LIBCMT:crt0msg.obj
 0002:00000da0       ??_C@_1BC@GDGBMEMK@?$AAH?$AAH?$AA?3?$AAm?$AAm?$AA?3?$AAs?$AAs?$AA?$AA@ 10058da0     LIBCMT:nlsdata2.obj
 0002:00000db4       ??_C@_1CI@KNAKOEBC@?$AAd?$AAd?$AAd?$AAd?$AA?0?$AA?5?$AAM?$AAM?$AAM?$AAM?$AA?5?$AAd?$AAd?$AA?0?$AA?5?$AAy?$AAy?$AAy?$AAy?$AA?$AA@ 10058db4     LIBCMT:nlsdata2.obj
 0002:00000ddc       ??_C@_1BC@IEBCMHCM@?$AAM?$AAM?$AA?1?$AAd?$AAd?$AA?1?$AAy?$AAy?$AA?$AA@ 10058ddc     LIBCMT:nlsdata2.obj
 0002:00000df0       ??_C@_15CLMNNGEL@?$AAP?$AAM?$AA?$AA@ 10058df0     LIBCMT:nlsdata2.obj
 0002:00000df8       ??_C@_15ODEHAHHF@?$AAA?$AAM?$AA?$AA@ 10058df8     LIBCMT:nlsdata2.obj
 0002:00000e00       ??_C@_1BC@FEMKIFH@?$AAD?$AAe?$AAc?$AAe?$AAm?$AAb?$AAe?$AAr?$AA?$AA@ 10058e00     LIBCMT:nlsdata2.obj
 0002:00000e14       ??_C@_1BC@BGLIFPF@?$AAN?$AAo?$AAv?$AAe?$AAm?$AAb?$AAe?$AAr?$AA?$AA@ 10058e14     LIBCMT:nlsdata2.obj
 0002:00000e28       ??_C@_1BA@EPANDLNG@?$AAO?$AAc?$AAt?$AAo?$AAb?$AAe?$AAr?$AA?$AA@ 10058e28     LIBCMT:nlsdata2.obj
 0002:00000e38       ??_C@_1BE@DKAAMBJL@?$AAS?$AAe?$AAp?$AAt?$AAe?$AAm?$AAb?$AAe?$AAr?$AA?$AA@ 10058e38     LIBCMT:nlsdata2.obj
 0002:00000e4c       ??_C@_1O@PAHLKOAC@?$AAA?$AAu?$AAg?$AAu?$AAs?$AAt?$AA?$AA@ 10058e4c     LIBCMT:nlsdata2.obj
 0002:00000e5c       ??_C@_19BIFMLPCD@?$AAJ?$AAu?$AAl?$AAy?$AA?$AA@ 10058e5c     LIBCMT:nlsdata2.obj
 0002:00000e68       ??_C@_19EPFLPGAP@?$AAJ?$AAu?$AAn?$AAe?$AA?$AA@ 10058e68     LIBCMT:nlsdata2.obj
 0002:00000e74       ??_C@_1M@GJNLMHFD@?$AAA?$AAp?$AAr?$AAi?$AAl?$AA?$AA@ 10058e74     LIBCMT:nlsdata2.obj
 0002:00000e80       ??_C@_1M@IKEENEDF@?$AAM?$AAa?$AAr?$AAc?$AAh?$AA?$AA@ 10058e80     LIBCMT:nlsdata2.obj
 0002:00000e8c       ??_C@_1BC@JGDDFFAM@?$AAF?$AAe?$AAb?$AAr?$AAu?$AAa?$AAr?$AAy?$AA?$AA@ 10058e8c     LIBCMT:nlsdata2.obj
 0002:00000ea0       ??_C@_1BA@EFMEIEBA@?$AAJ?$AAa?$AAn?$AAu?$AAa?$AAr?$AAy?$AA?$AA@ 10058ea0     LIBCMT:nlsdata2.obj
 0002:00000eb0       ??_C@_17EGKACKIF@?$AAD?$AAe?$AAc?$AA?$AA@ 10058eb0     LIBCMT:nlsdata2.obj
 0002:00000eb8       ??_C@_17BBDMLCIG@?$AAN?$AAo?$AAv?$AA?$AA@ 10058eb8     LIBCMT:nlsdata2.obj
 0002:00000ec0       ??_C@_17FNLKOI@?$AAO?$AAc?$AAt?$AA?$AA@ 10058ec0     LIBCMT:nlsdata2.obj
 0002:00000ec8       ??_C@_17HCHCOKMG@?$AAS?$AAe?$AAp?$AA?$AA@ 10058ec8     LIBCMT:nlsdata2.obj
 0002:00000ed0       ??_C@_17ICPELBCN@?$AAA?$AAu?$AAg?$AA?$AA@ 10058ed0     LIBCMT:nlsdata2.obj
 0002:00000ed8       ??_C@_17IJPCKHK@?$AAJ?$AAu?$AAl?$AA?$AA@ 10058ed8     LIBCMT:nlsdata2.obj
 0002:00000ee0       ??_C@_17KCJGOCPB@?$AAJ?$AAu?$AAn?$AA?$AA@ 10058ee0     LIBCMT:nlsdata2.obj
 0002:00000ee8       ??_C@_17PNNKMEED@?$AAM?$AAa?$AAy?$AA?$AA@ 10058ee8     LIBCMT:nlsdata2.obj
 0002:00000ef0       ??_C@_17LFPOIHDD@?$AAA?$AAp?$AAr?$AA?$AA@ 10058ef0     LIBCMT:nlsdata2.obj
 0002:00000ef8       ??_C@_17CKNLEDEC@?$AAM?$AAa?$AAr?$AA?$AA@ 10058ef8     LIBCMT:nlsdata2.obj
 0002:00000f00       ??_C@_17LMDJEKJN@?$AAF?$AAe?$AAb?$AA?$AA@ 10058f00     LIBCMT:nlsdata2.obj
 0002:00000f08       ??_C@_17DKNBKCHM@?$AAJ?$AAa?$AAn?$AA?$AA@ 10058f08     LIBCMT:nlsdata2.obj
 0002:00000f10       ??_C@_1BC@ENMNNPAJ@?$AAS?$AAa?$AAt?$AAu?$AAr?$AAd?$AAa?$AAy?$AA?$AA@ 10058f10     LIBCMT:nlsdata2.obj
 0002:00000f24       ??_C@_1O@PDICJHAG@?$AAF?$AAr?$AAi?$AAd?$AAa?$AAy?$AA?$AA@ 10058f24     LIBCMT:nlsdata2.obj
 0002:00000f34       ??_C@_1BC@HHMNLIHE@?$AAT?$AAh?$AAu?$AAr?$AAs?$AAd?$AAa?$AAy?$AA?$AA@ 10058f34     LIBCMT:nlsdata2.obj
 0002:00000f48       ??_C@_1BE@EBOGMDOH@?$AAW?$AAe?$AAd?$AAn?$AAe?$AAs?$AAd?$AAa?$AAy?$AA?$AA@ 10058f48     LIBCMT:nlsdata2.obj
 0002:00000f5c       ??_C@_1BA@ENFBFFEK@?$AAT?$AAu?$AAe?$AAs?$AAd?$AAa?$AAy?$AA?$AA@ 10058f5c     LIBCMT:nlsdata2.obj
 0002:00000f6c       ??_C@_1O@MMNBFLIA@?$AAM?$AAo?$AAn?$AAd?$AAa?$AAy?$AA?$AA@ 10058f6c     LIBCMT:nlsdata2.obj
 0002:00000f7c       ??_C@_1O@IHNHDHPB@?$AAS?$AAu?$AAn?$AAd?$AAa?$AAy?$AA?$AA@ 10058f7c     LIBCMT:nlsdata2.obj
 0002:00000f8c       ??_C@_17GGIBDPIH@?$AAS?$AAa?$AAt?$AA?$AA@ 10058f8c     LIBCMT:nlsdata2.obj
 0002:00000f94       ??_C@_17HFOLPPLP@?$AAF?$AAr?$AAi?$AA?$AA@ 10058f94     LIBCMT:nlsdata2.obj
 0002:00000f9c       ??_C@_17PDPHAADD@?$AAT?$AAh?$AAu?$AA?$AA@ 10058f9c     LIBCMT:nlsdata2.obj
 0002:00000fa4       ??_C@_17CJEDCEPE@?$AAW?$AAe?$AAd?$AA?$AA@ 10058fa4     LIBCMT:nlsdata2.obj
 0002:00000fac       ??_C@_17BMKGEGOJ@?$AAT?$AAu?$AAe?$AA?$AA@ 10058fac     LIBCMT:nlsdata2.obj
 0002:00000fb4       ??_C@_17KBOMKBF@?$AAM?$AAo?$AAn?$AA?$AA@ 10058fb4     LIBCMT:nlsdata2.obj
 0002:00000fbc       ??_C@_17MBGCMIPB@?$AAS?$AAu?$AAn?$AA?$AA@ 10058fbc     LIBCMT:nlsdata2.obj
 0002:00000fc4       ??_C@_08JCCMCCIL@HH?3mm?3ss?$AA@ 10058fc4     LIBCMT:nlsdata2.obj
 0002:00000fd0       ??_C@_0BE@CKGJFCPC@dddd?0?5MMMM?5dd?0?5yyyy?$AA@ 10058fd0     LIBCMT:nlsdata2.obj
 0002:00000fe4       ??_C@_08BPBNCDIB@MM?1dd?1yy?$AA@ 10058fe4     LIBCMT:nlsdata2.obj
 0002:00000ff0       ??_C@_02CJNFDJBF@PM?$AA@   10058ff0     LIBCMT:nlsdata2.obj
 0002:00000ff4       ??_C@_02DEDBPAFC@AM?$AA@   10058ff4     LIBCMT:nlsdata2.obj
 0002:00000ff8       ??_C@_08EDHMEBNP@December?$AA@ 10058ff8     LIBCMT:nlsdata2.obj
 0002:00001004       ??_C@_08HCHEGEOA@November?$AA@ 10059004     LIBCMT:nlsdata2.obj
 0002:00001010       ??_C@_07JJNFCEND@October?$AA@ 10059010     LIBCMT:nlsdata2.obj
 0002:00001018       ??_C@_09BHHEALKD@September?$AA@ 10059018     LIBCMT:nlsdata2.obj
 0002:00001024       ??_C@_06LBBHFDDG@August?$AA@ 10059024     LIBCMT:nlsdata2.obj
 0002:0000102c       ??_C@_04MIEPOIFP@July?$AA@ 1005902c     LIBCMT:nlsdata2.obj
 0002:00001034       ??_C@_04CNLMGBGM@June?$AA@ 10059034     LIBCMT:nlsdata2.obj
 0002:0000103c       ??_C@_05DMJDNLEJ@April?$AA@ 1005903c     LIBCMT:nlsdata2.obj
 0002:00001044       ??_C@_05HPCKOFNC@March?$AA@ 10059044     LIBCMT:nlsdata2.obj
 0002:0000104c       ??_C@_08GNJGEPFN@February?$AA@ 1005904c     LIBCMT:nlsdata2.obj
 0002:00001058       ??_C@_07CGJPFGJA@January?$AA@ 10059058     LIBCMT:nlsdata2.obj
 0002:00001060       ??_C@_03MKABNOCG@Dec?$AA@  10059060     LIBCMT:nlsdata2.obj
 0002:00001064       ??_C@_03JPJOFNIA@Nov?$AA@  10059064     LIBCMT:nlsdata2.obj
 0002:00001068       ??_C@_03BMAOKBAD@Oct?$AA@  10059068     LIBCMT:nlsdata2.obj
 0002:0000106c       ??_C@_03GGCAPAJC@Sep?$AA@  1005906c     LIBCMT:nlsdata2.obj
 0002:00001070       ??_C@_03IFJFEIGA@Aug?$AA@  10059070     LIBCMT:nlsdata2.obj
 0002:00001074       ??_C@_03LBGABGKK@Jul?$AA@  10059074     LIBCMT:nlsdata2.obj
 0002:00001078       ??_C@_03IDFGHECI@Jun?$AA@  10059078     LIBCMT:nlsdata2.obj
 0002:0000107c       ??_C@_03CNMDKL@May?$AA@    1005907c     LIBCMT:nlsdata2.obj
 0002:00001080       ??_C@_03LEOLGMJP@Apr?$AA@  10059080     LIBCMT:nlsdata2.obj
 0002:00001084       ??_C@_03ODNJBKGA@Mar?$AA@  10059084     LIBCMT:nlsdata2.obj
 0002:00001088       ??_C@_03HJBDCHOM@Feb?$AA@  10059088     LIBCMT:nlsdata2.obj
 0002:0000108c       ??_C@_03JIHJHPIE@Jan?$AA@  1005908c     LIBCMT:nlsdata2.obj
 0002:00001090       ??_C@_08INBOOONO@Saturday?$AA@ 10059090     LIBCMT:nlsdata2.obj
 0002:0000109c       ??_C@_06JECMNKMI@Friday?$AA@ 1005909c     LIBCMT:nlsdata2.obj
 0002:000010a4       ??_C@_08HACCIKIA@Thursday?$AA@ 100590a4     LIBCMT:nlsdata2.obj
 0002:000010b0       ??_C@_09DLIGFAKA@Wednesday?$AA@ 100590b0     LIBCMT:nlsdata2.obj
 0002:000010bc       ??_C@_07BAAGCFCM@Tuesday?$AA@ 100590bc     LIBCMT:nlsdata2.obj
 0002:000010c4       ??_C@_06JLEDEDGH@Monday?$AA@ 100590c4     LIBCMT:nlsdata2.obj
 0002:000010cc       ??_C@_06OOPIFAJ@Sunday?$AA@ 100590cc     LIBCMT:nlsdata2.obj
 0002:000010d4       ??_C@_03FEFJNEK@Sat?$AA@   100590d4     LIBCMT:nlsdata2.obj
 0002:000010d8       ??_C@_03IDIOELNC@Fri?$AA@  100590d8     LIBCMT:nlsdata2.obj
 0002:000010dc       ??_C@_03IOFIKPDN@Thu?$AA@  100590dc     LIBCMT:nlsdata2.obj
 0002:000010e0       ??_C@_03MHOMLAJA@Wed?$AA@  100590e0     LIBCMT:nlsdata2.obj
 0002:000010e4       ??_C@_03NAGEINEP@Tue?$AA@  100590e4     LIBCMT:nlsdata2.obj
 0002:000010e8       ??_C@_03PDAGKDH@Mon?$AA@   100590e8     LIBCMT:nlsdata2.obj
 0002:000010ec       ??_C@_03KOEHGMDN@Sun?$AA@  100590ec     LIBCMT:nlsdata2.obj
 0002:000010f0       ??_C@_1BK@DBDEIDLH@?$AAK?$AAE?$AAR?$AAN?$AAE?$AAL?$AA3?$AA2?$AA?4?$AAD?$AAL?$AAL?$AA?$AA@ 100590f0     LIBCMT:tidtable.obj
 0002:0000110c       ??_C@_07PEJMOBNF@FlsFree?$AA@ 1005910c     LIBCMT:tidtable.obj
 0002:00001114       ??_C@_0M@JCPCPOEF@FlsSetValue?$AA@ 10059114     LIBCMT:tidtable.obj
 0002:00001120       ??_C@_0M@GDNOONDI@FlsGetValue?$AA@ 10059120     LIBCMT:tidtable.obj
 0002:0000112c       ??_C@_08KNHFBNJ@FlsAlloc?$AA@ 1005912c     LIBCMT:tidtable.obj
 0002:00001158       ??_C@_04PNGHFIJN@?4com?$AA@ 10059158     LIBCMT:stat.obj
 0002:00001160       ??_C@_04NEEFLLOK@?4bat?$AA@ 10059160     LIBCMT:stat.obj
 0002:00001168       ??_C@_04CPCBDHLK@?4cmd?$AA@ 10059168     LIBCMT:stat.obj
 0002:00001170       ??_C@_04JLMDILM@?4exe?$AA@ 10059170     LIBCMT:stat.obj
 0002:00001178       ??_C@_1O@CEDCILHN@?$AA?$CI?$AAn?$AAu?$AAl?$AAl?$AA?$CJ?$AA?$AA@ 10059178     LIBCMT:output.obj
 0002:00001188       ??_C@_06OJHGLDPL@?$CInull?$CJ?$AA@ 10059188     LIBCMT:output.obj
 0002:00001190       ___lookuptable             10059190     LIBCMT:output.obj
 0002:000011f0       ___lookuptable_s           100591f0     LIBCMT:outputs.obj
 0002:00001250       __XcptActTab               10059250     LIBCMT:winxfltr.obj
 0002:000012e0       __First_FPE_Indx           100592e0     LIBCMT:winxfltr.obj
 0002:000012e4       __Num_FPE                  100592e4     LIBCMT:winxfltr.obj
 0002:000012e8       __XcptActTabSize           100592e8     LIBCMT:winxfltr.obj
 0002:000012ec       __XcptActTabCount          100592ec     LIBCMT:winxfltr.obj
 0002:000012f0       ??_C@_0BK@CFCOFLF@?5Complete?5Object?5Locator?8?$AA@ 100592f0     LIBCMT:undname.obj
 0002:0000130c       ??_C@_0BN@MECKDCOJ@?5Class?5Hierarchy?5Descriptor?8?$AA@ 1005930c     LIBCMT:undname.obj
 0002:0000132c       ??_C@_0BD@LGICGFMM@?5Base?5Class?5Array?8?$AA@ 1005932c     LIBCMT:undname.obj
 0002:00001340       ??_C@_0BM@LDKODKLH@?5Base?5Class?5Descriptor?5at?5?$CI?$AA@ 10059340     LIBCMT:undname.obj
 0002:0000135c       ??_C@_0BC@DAFEJGAK@?5Type?5Descriptor?8?$AA@ 1005935c     LIBCMT:undname.obj
 0002:00001370       ??_C@_0BM@PMGGMLDN@?$GAlocal?5static?5thread?5guard?8?$AA@ 10059370     LIBCMT:undname.obj
 0002:0000138c       ??_C@_0CL@FGIJHLCE@?$GAmanaged?5vector?5copy?5constructor@ 1005938c     LIBCMT:undname.obj
 0002:000013b8       ??_C@_0CJ@GJELGAMM@?$GAvector?5vbase?5copy?5constructor?5i@ 100593b8     LIBCMT:undname.obj
 0002:000013e4       ??_C@_0CD@CGAJBKEJ@?$GAvector?5copy?5constructor?5iterato@ 100593e4     LIBCMT:undname.obj
 0002:00001408       ??_C@_0CB@PDBIFEP@?$GAdynamic?5atexit?5destructor?5for?5?8@ 10059408     LIBCMT:undname.obj
 0002:0000142c       ??_C@_0BL@CLIPGLGB@?$GAdynamic?5initializer?5for?5?8?$AA@ 1005942c     LIBCMT:undname.obj
 0002:00001448       ??_C@_0CM@FCBBDIGB@?$GAeh?5vector?5vbase?5copy?5constructo@ 10059448     LIBCMT:undname.obj
 0002:00001474       ??_C@_0CG@HLDDJMAG@?$GAeh?5vector?5copy?5constructor?5iter@ 10059474     LIBCMT:undname.obj
 0002:0000149c       ??_C@_0CF@IMGKMJNO@?$GAmanaged?5vector?5destructor?5itera@ 1005949c     LIBCMT:undname.obj
 0002:000014c4       ??_C@_0CG@CFDHKGGD@?$GAmanaged?5vector?5constructor?5iter@ 100594c4     LIBCMT:undname.obj
 0002:000014ec       ??_C@_0BN@CKNJLHMB@?$GAplacement?5delete?$FL?$FN?5closure?8?$AA@ 100594ec     LIBCMT:undname.obj
 0002:0000150c       ??_C@_0BL@CNOONJFP@?$GAplacement?5delete?5closure?8?$AA@ 1005950c     LIBCMT:undname.obj
 0002:00001528       ??_C@_0P@HJKNJFNN@?$GAomni?5callsig?8?$AA@ 10059528     LIBCMT:undname.obj
 0002:00001538       ??_C@_09LBNFPBCA@?5delete?$FL?$FN?$AA@ 10059538     LIBCMT:undname.obj
 0002:00001544       ??_C@_06FHBGPFGH@?5new?$FL?$FN?$AA@ 10059544     LIBCMT:undname.obj
 0002:0000154c       ??_C@_0CE@IIHCMGGL@?$GAlocal?5vftable?5constructor?5closu@ 1005954c     LIBCMT:undname.obj
 0002:00001570       ??_C@_0BA@KKLDJDLB@?$GAlocal?5vftable?8?$AA@ 10059570     LIBCMT:undname.obj
 0002:00001580       ??_C@_05KHLCHHI@?$GARTTI?$AA@ 10059580     LIBCMT:undname.obj
 0002:00001588       ??_C@_03KLGMFNMG@?$GAEH?$AA@ 10059588     LIBCMT:undname.obj
 0002:0000158c       ??_C@_0BA@KBCDOMBN@?$GAudt?5returning?8?$AA@ 1005958c     LIBCMT:undname.obj
 0002:0000159c       ??_C@_0BL@LLKPOHJI@?$GAcopy?5constructor?5closure?8?$AA@ 1005959c     LIBCMT:undname.obj
 0002:000015b8       ??_C@_0CH@OOJPLCPH@?$GAeh?5vector?5vbase?5constructor?5ite@ 100595b8     LIBCMT:undname.obj
 0002:000015e0       ??_C@_0CA@GCEOPDGL@?$GAeh?5vector?5destructor?5iterator?8?$AA@ 100595e0     LIBCMT:undname.obj
 0002:00001600       ??_C@_0CB@JONCMFFK@?$GAeh?5vector?5constructor?5iterator?8@ 10059600     LIBCMT:undname.obj
 0002:00001624       ??_C@_0BL@NILFHHPC@?$GAvirtual?5displacement?5map?8?$AA@ 10059624     LIBCMT:undname.obj
 0002:00001640       ??_C@_0CE@IKBNEHA@?$GAvector?5vbase?5constructor?5iterat@ 10059640     LIBCMT:undname.obj
 0002:00001664       ??_C@_0BN@LFPFMEDL@?$GAvector?5destructor?5iterator?8?$AA@ 10059664     LIBCMT:undname.obj
 0002:00001684       ??_C@_0BO@PFGOCPJJ@?$GAvector?5constructor?5iterator?8?$AA@ 10059684     LIBCMT:undname.obj
 0002:000016a4       ??_C@_0BN@IMDCHIKM@?$GAscalar?5deleting?5destructor?8?$AA@ 100596a4     LIBCMT:undname.obj
 0002:000016c4       ??_C@_0BO@OBMKPJIG@?$GAdefault?5constructor?5closure?8?$AA@ 100596c4     LIBCMT:undname.obj
 0002:000016e4       ??_C@_0BN@DEGPLNFK@?$GAvector?5deleting?5destructor?8?$AA@ 100596e4     LIBCMT:undname.obj
 0002:00001704       ??_C@_0BD@JDLKDPAB@?$GAvbase?5destructor?8?$AA@ 10059704     LIBCMT:undname.obj
 0002:00001718       ??_C@_08OBABFOLI@?$GAstring?8?$AA@ 10059718     LIBCMT:undname.obj
 0002:00001724       ??_C@_0BF@KDPPACIK@?$GAlocal?5static?5guard?8?$AA@ 10059724     LIBCMT:undname.obj
 0002:0000173c       ??_C@_08LLFFHHDJ@?$GAtypeof?8?$AA@ 1005973c     LIBCMT:undname.obj
 0002:00001748       ??_C@_07FEEIOKP@?$GAvcall?8?$AA@ 10059748     LIBCMT:undname.obj
 0002:00001750       ??_C@_09BLBHBJP@?$GAvbtable?8?$AA@ 10059750     LIBCMT:undname.obj
 0002:0000175c       ??_C@_09IFPLHPGF@?$GAvftable?8?$AA@ 1005975c     LIBCMT:undname.obj
 0002:00001768       ??_C@_02MHEGNOJ@?$FO?$DN?$AA@ 10059768     LIBCMT:undname.obj
 0002:0000176c       ??_C@_02DHLNPPGH@?$HM?$DN?$AA@ 1005976c     LIBCMT:undname.obj
 0002:00001770       ??_C@_02FGJGFEAB@?$CG?$DN?$AA@ 10059770     LIBCMT:undname.obj
 0002:00001774       ??_C@_03CDNPDDLA@?$DM?$DM?$DN?$AA@ 10059774     LIBCMT:undname.obj
 0002:00001778       ??_C@_03IKFCCPFF@?$DO?$DO?$DN?$AA@ 10059778     LIBCMT:undname.obj
 0002:0000177c       ??_C@_02FENAOKFI@?$CF?$DN?$AA@ 1005977c     LIBCMT:undname.obj
 0002:00001780       ??_C@_02FJEHGPIO@?1?$DN?$AA@ 10059780     LIBCMT:undname.obj
 0002:00001784       ??_C@_02FKMDLLOA@?9?$DN?$AA@ 10059784     LIBCMT:undname.obj
 0002:00001788       ??_C@_02FOEOMHFC@?$CL?$DN?$AA@ 10059788     LIBCMT:undname.obj
 0002:0000178c       ??_C@_02FPIMKNGF@?$CK?$DN?$AA@ 1005978c     LIBCMT:undname.obj
 0002:00001790       ??_C@_02NONPIBCD@?$HM?$HM?$AA@ 10059790     LIBCMT:undname.obj
 0002:00001794       ??_C@_02PPKAJPJL@?$CG?$CG?$AA@ 10059794     LIBCMT:undname.obj
 0002:00001798       ??_C@_01DNKMNLPK@?$HM?$AA@ 10059798     LIBCMT:undname.obj
 0002:0000179c       ??_C@_01JKBOJNNK@?$FO?$AA@ 1005979c     LIBCMT:undname.obj
 0002:000017a0       ??_C@_01PJKLJHI@?$HO?$AA@  100597a0     LIBCMT:undname.obj
 0002:000017a4       ??_C@_02HCKGKOFO@?$CI?$CJ?$AA@ 100597a4     LIBCMT:undname.obj
 0002:000017a8       ??_C@_01IHBHIGKO@?0?$AA@   100597a8     LIBCMT:undname.obj
 0002:000017ac       ??_C@_02EEKDKGMJ@?$DO?$DN?$AA@ 100597ac     LIBCMT:undname.obj
 0002:000017b0       ??_C@_02EHCHHCKH@?$DM?$DN?$AA@ 100597b0     LIBCMT:undname.obj
 0002:000017b4       ??_C@_01FGNFDNOH@?$CF?$AA@ 100597b4     LIBCMT:undname.obj
 0002:000017b8       ??_C@_03MNHNFDLC@?9?$DO?$CK?$AA@ 100597b8     LIBCMT:undname.obj
 0002:000017bc       ??_C@_01MIFGBAGJ@?$CL?$AA@ 100597bc     LIBCMT:undname.obj
 0002:000017c0       ??_C@_02ECNGHCIF@?$CL?$CL?$AA@ 100597c0     LIBCMT:undname.obj
 0002:000017c4       ??_C@_01NBENCBCI@?$CK?$AA@ 100597c4     LIBCMT:undname.obj
 0002:000017c8       ??_C@_02HBOOOICD@?9?$DO?$AA@ 100597c8     LIBCMT:undname.obj
 0002:000017cc       ??_C@_08LHJFAFGD@operator?$AA@ 100597cc     LIBCMT:undname.obj
 0002:000017d8       ??_C@_02GPECMEKF@?$FL?$FN?$AA@ 100597d8     LIBCMT:undname.obj
 0002:000017dc       ??_C@_02FDNJECIE@?$CB?$DN?$AA@ 100597dc     LIBCMT:undname.obj
 0002:000017e0       ??_C@_02EGOFBIJA@?$DN?$DN?$AA@ 100597e0     LIBCMT:undname.obj
 0002:000017e4       ??_C@_02FODMEDOG@?$DM?$DM?$AA@ 100597e4     LIBCMT:undname.obj
 0002:000017e8       ??_C@_02GPIOPFAK@?$DO?$DO?$AA@ 100597e8     LIBCMT:undname.obj
 0002:000017ec       ??_C@_07FPCDHGMM@?5delete?$AA@ 100597ec     LIBCMT:undname.obj
 0002:000017f4       ??_C@_04NIHEBCM@?5new?$AA@ 100597f4     LIBCMT:undname.obj
 0002:000017fc       ??_C@_0M@GFIIJFMG@__unaligned?$AA@ 100597fc     LIBCMT:undname.obj
 0002:00001808       ??_C@_0L@PILCLIHE@__restrict?$AA@ 10059808     LIBCMT:undname.obj
 0002:00001814       ??_C@_07JOMMBBKO@__ptr64?$AA@ 10059814     LIBCMT:undname.obj
 0002:0000181c       ??_C@_06GHPCKEAG@__eabi?$AA@ 1005981c     LIBCMT:undname.obj
 0002:00001824       ??_C@_09HIJEGCPM@__clrcall?$AA@ 10059824     LIBCMT:undname.obj
 0002:00001830       ??_C@_0L@JMKHOMEK@__fastcall?$AA@ 10059830     LIBCMT:undname.obj
 0002:0000183c       ??_C@_0L@NPHFGOKO@__thiscall?$AA@ 1005983c     LIBCMT:undname.obj
 0002:00001848       ??_C@_09IFJBGAPI@__stdcall?$AA@ 10059848     LIBCMT:undname.obj
 0002:00001854       ??_C@_08GHMPAG@__pascal?$AA@ 10059854     LIBCMT:undname.obj
 0002:00001860       ??_C@_07KOLFKCDI@__cdecl?$AA@ 10059860     LIBCMT:undname.obj
 0002:00001868       ??_C@_08EHJDFFNH@__based?$CI?$AA@ 10059868     LIBCMT:undname.obj
 0002:000019fc       ??_C@_0BI@DFKBFLJE@GetProcessWindowStation?$AA@ 100599fc     LIBCMT:crtmboxw.obj
 0002:00001a14       ??_C@_0BK@DEKFELLI@GetUserObjectInformationW?$AA@ 10059a14     LIBCMT:crtmboxw.obj
 0002:00001a30       ??_C@_0BD@HHGDFDBJ@GetLastActivePopup?$AA@ 10059a30     LIBCMT:crtmboxw.obj
 0002:00001a44       ??_C@_0BA@HNOPNCHB@GetActiveWindow?$AA@ 10059a44     LIBCMT:crtmboxw.obj
 0002:00001a54       ??_C@_0M@DLDCCGNP@MessageBoxW?$AA@ 10059a54     LIBCMT:crtmboxw.obj
 0002:00001a60       ??_C@_1BG@GOEBHBDC@?$AAU?$AAS?$AAE?$AAR?$AA3?$AA2?$AA?4?$AAD?$AAL?$AAL?$AA?$AA@ 10059a60     LIBCMT:crtmboxw.obj
 0002:00001a78       ___newctype                10059a78     LIBCMT:ctype.obj
 0002:00001d78       __wctype                   10059d78     LIBCMT:ctype.obj
 0002:00001f80       ___newclmap                10059f80     LIBCMT:ctype.obj
 0002:00002100       ___newcumap                1005a100     LIBCMT:ctype.obj
 0002:00002288       ??_C@_02CLFPBFFP@TZ?$AA@   1005a288     LIBCMT:tzset.obj
 0002:0000228c       ___dnames                  1005a28c     LIBCMT:timeset.obj
 0002:000022a4       ___mnames                  1005a2a4     LIBCMT:timeset.obj
 0002:000022cc       ??_C@_1BA@BALFACEM@?$AAC?$AAO?$AAN?$AAO?$AAU?$AAT?$AA$?$AA?$AA@ 1005a2cc     LIBCMT:initcon.obj
 0002:00002360       ??_C@_0L@IGDPGFPH@show?9cross?$AA@ 1005a360     ChooseTypeMenu.obj
 0002:0000236c       ??_C@_04CGFJFPFD@none?$AA@ 1005a36c     ChooseTypeMenu.obj
 0002:00002374       ??_C@_08NEOMLJGJ@vertical?$AA@ 1005a374     ChooseTypeMenu.obj
 0002:00002380       ??_C@_0L@LMMKHPOB@horizontal?$AA@ 1005a380     ChooseTypeMenu.obj
 0002:0000238c       ??_C@_04EHLGOKLJ@both?$AA@ 1005a38c     ChooseTypeMenu.obj
 0002:00002394       ??_C@_0N@CLDFDHNK@cross?9zorder?$AA@ 1005a394     ChooseTypeMenu.obj
 0002:000023a4       ??_C@_06PMMPCIPB@bottom?$AA@ 1005a3a4     ChooseTypeMenu.obj
 0002:000023ac       ??_C@_03FGFCOCMD@top?$AA@  1005a3ac     ChooseTypeMenu.obj
 0002:000023b0       ??_C@_03ICICOMAL@yes?$AA@  1005a3b0     ChooseTypeMenu.obj
 0002:000023b4       ??_C@_02KAJCLHKP@no?$AA@   1005a3b4     ChooseTypeMenu.obj
 0002:000023b8       ??_C@_04LOAJBDKD@true?$AA@ 1005a3b8     ChooseTypeMenu.obj
 0002:000023c0       ??_C@_05LAPONLG@false?$AA@ 1005a3c0     ChooseTypeMenu.obj
 0002:000023c8       ??_C@_09HFNBBLKE@backparse?$AA@ 1005a3c8     ChooseTypeMenu.obj
 0002:000023d4       ??_C@_0O@PFNGMNPK@maxlinelength?$AA@ 1005a3d4     ChooseTypeMenu.obj
 0002:000023e4       ??_C@_0N@KMNJLGEC@default?9fore?$AA@ 1005a3e4     ChooseTypeMenu.obj
 0002:000023f4       ??_C@_0N@DKOBIDHI@default?9back?$AA@ 1005a3f4     ChooseTypeMenu.obj
 0002:00002404       ??_C@_08ENOPBGGF@fullback?$AA@ 1005a404     ChooseTypeMenu.obj
 0002:00002410       ??_C@_06HDPMGCPF@hotkey?$AA@ 1005a410     ChooseTypeMenu.obj
 0002:00002418       ??_C@_08NCJKLPIM@favorite?$AA@ 1005a418     ChooseTypeMenu.obj
 0002:00002424       ??_C@_03LPDOBDFE@?$CGA?5?$AA@ 1005a424     ChooseTypeMenu.obj
 0002:00002428       ??_C@_01HNPIGOCE@?$CG?$AA@ 1005a428     ChooseTypeMenu.obj
 0002:0000242c       ??_C@_01CLKCMJKC@?5?$AA@   1005a42c     ChooseTypeMenu.obj
 0002:00002430       ??_C@_0CK@CPPKMCFJ@Bad?5type?5cast?5exception?5into?5Sty@ 1005a430     FarEditor.obj
 0002:0000245c       ??_C@_0N@MLFMAGHI@def?3Outlined?$AA@ 1005a45c     FarEditor.obj
 0002:0000246c       ??_C@_09ILCJHDEG@def?3Error?$AA@ 1005a46c     FarEditor.obj
 0002:00002478       ??_C@_07DLHCIBDH@default?$AA@ 1005a478     FarEditor.obj
 0002:00002480       ??_C@_0BN@OLBJGIFH@No?5?8default?8?5file?5type?5found?$AA@ 1005a480     FarEditor.obj
 0002:000024a0       ??_C@_0CL@ENAIIFKG@HRD?5Background?5region?5?8def?3Text?8@ 1005a4a0     FarEditor.obj
 0002:000024cc       ??_C@_19IHNBOAOI@?$AA?$CF?$AA4?$AAd?$AA?5?$AA?$AA@ 1005a4cc     FarEditor.obj
 0002:000024d8       ??_C@_17FBJJOGO@?$AA?$CF?$AAc?$AA?5?$AA?$AA@ 1005a4d8     FarEditor.obj
 0002:000024e0       ??_C@_13HGPDMIBE@?$AA?$DP?$AA?$AA@ 1005a4e0     FarEditor.obj
 0002:000024e4       ??_C@_17KBLNKNKL@?$AAa?$AAd?$AAd?$AA?$AA@ 1005a4e4     FarEditor.obj
 0002:000024ec       ??_7LineSource@@6B@        1005a4ec     FarEditor.obj
 0002:000024fc       ??_7FarEditor@@6B@         1005a4fc     FarEditor.obj
 0002:00002520       ?ENC_UTF8_BOM@Encodings@@2HB 1005a520     Encodings.obj
 0002:00002524       ?ENC_UTF16_BOM@Encodings@@2HB 1005a524     Encodings.obj
 0002:00002528       ?ENC_UTF16BE_BOM@Encodings@@2HB 1005a528     Encodings.obj
 0002:0000252c       ?ENC_UTF32_BOM@Encodings@@2HB 1005a52c     Encodings.obj
 0002:00002530       ?ENC_UTF32BE_BOM@Encodings@@2HB 1005a530     Encodings.obj
 0002:00002534       ?ENC_UTF32BE@Encodings@@2HB 1005a534     Encodings.obj
 0002:00002538       ?ENC_UTF32@Encodings@@2HB  1005a538     Encodings.obj
 0002:0000253c       ?ENC_UTF16BE@Encodings@@2HB 1005a53c     Encodings.obj
 0002:00002540       ?ENC_UTF16@Encodings@@2HB  1005a540     Encodings.obj
 0002:00002544       ?ENC_UTF8@Encodings@@2HB   1005a544     Encodings.obj
 0002:00002548       ?RD_BOLD@StyledRegion@@2HB 1005a548     StyledHRDMapper.obj
 0002:0000254c       ?RD_ITALIC@StyledRegion@@2HB 1005a54c     StyledHRDMapper.obj
 0002:00002550       ?RD_UNDERLINE@StyledRegion@@2HB 1005a550     StyledHRDMapper.obj
 0002:00002554       ?RD_STRIKEOUT@StyledRegion@@2HB 1005a554     StyledHRDMapper.obj
 0002:00002558       _unz_copyright             1005a558     unzip.obj
 0002:000025ac       _z_errmsg                  1005a5ac     zutil.obj
 0002:000025d4       _inflate_copyright         1005a5d4     inftrees.obj
 0002:0000512c       ??_C@_07PMJAFAE@console?$AA@ 1005d12c     FarEditorSet.obj
 0002:00005134       ??_C@_03FNOJMHE@rgb?$AA@   1005d134     FarEditorSet.obj
 0002:00005138       ??_C@_09IOAPNCJN@?$DMdefault?$DO?$AA@ 1005d138     FarEditorSet.obj
 0002:00005144       ??_C@_0L@JHGOBHFD@autodetect?$AA@ 1005d144     FarEditorSet.obj
 0002:00005150       ??_C@_1BG@MMHCHEFB@?$AA?$CF?$AAs?$AA?2?$AAc?$AAo?$AAl?$AAo?$AAr?$AAe?$AAr?$AA?$AA@ 1005d150     FarEditorSet.obj
 0002:00005168       ??_C@_19MOHIIIBC@?$AAm?$AAe?$AAn?$AAu?$AA?$AA@ 1005d168     FarEditorSet.obj
 0002:00005174       ??_C@_0CE@HHEPLIC@Can?8t?5find?5current?5editor?5in?5arr@ 1005d174     FarEditorSet.obj
 0002:00005198       ??_C@_0L@MJPGIICB@openMenu?3?5?$AA@ 1005d198     FarEditorSet.obj
 0002:000051a4       ??_C@_1BE@EHNIEDM@?$AAe?$AAx?$AAc?$AAe?$AAp?$AAt?$AAi?$AAo?$AAn?$AA?$AA@ 1005d1a4     FarEditorSet.obj
 0002:000051b8       ??_C@_0BE@NNHNGOG@Colorer?5is?5disabled?$AA@ 1005d1b8     FarEditorSet.obj
 0002:000051cc       ??_C@_08BNCPCDBC@def?3Text?$AA@ 1005d1cc     FarEditorSet.obj
 0002:000051d8       ??_C@_1BO@KAODFIIF@?$AAf?$AAi?$AAl?$AAe?$AAt?$AAy?$AAp?$AAe?$AAc?$AAh?$AAo?$AAo?$AAs?$AAe?$AA?$AA@ 1005d1d8     FarEditorSet.obj
 0002:000051f8       ??_C@_11LOCGONAA@?$AA?$AA@ 1005d1f8     FarEditorSet.obj
 0002:000051fc       ??_C@_1BE@LCKEBMOF@?$AAk?$AAe?$AAy?$AAa?$AAs?$AAs?$AAi?$AAg?$AAn?$AA?$AA@ 1005d1fc     FarEditorSet.obj
 0002:00005210       ??_C@_1BA@NDGBPBIE@?$AAc?$AAa?$AAt?$AAa?$AAl?$AAo?$AAg?$AA?$AA@ 1005d210     FarEditorSet.obj
 0002:00005220       ??_C@_1BA@OEPENKP@?$AAu?$AAs?$AAe?$AAr?$AAh?$AAr?$AAc?$AA?$AA@ 1005d220     FarEditorSet.obj
 0002:00005230       ??_C@_1BA@JDJIHFBG@?$AAu?$AAs?$AAe?$AAr?$AAh?$AAr?$AAd?$AA?$AA@ 1005d230     FarEditorSet.obj
 0002:00005240       ??_C@_1O@NEJONDGE@?$AAc?$AAo?$AAn?$AAf?$AAi?$AAg?$AA?$AA@ 1005d240     FarEditorSet.obj
 0002:00005250       ??_C@_0M@BBFFIMII@configure?3?5?$AA@ 1005d250     FarEditorSet.obj
 0002:0000525c       ??_C@_17GLHNFHAG@?$AAh?$AAr?$AAd?$AA?$AA@ 1005d25c     FarEditorSet.obj
 0002:00005264       ??_C@_0O@CFBCBJIA@editorEvent?3?5?$AA@ 1005d264     FarEditorSet.obj
 0002:00005274       ??_C@_02LMMGGCAJ@?3?5?$AA@ 1005d274     FarEditorSet.obj
 0002:00005278       ??_C@_1DK@MADFMCPB@?$AAC?$AAo?$AAn?$AAs?$AAo?$AAl?$AAe?$AA_?$AAa?$AAn?$AAn?$AAo?$AAt?$AAa?$AAt?$AAi?$AAo?$AAn?$AAI?$AAn?$AAf?$AAo?$AA_?$AA?$CF?$AAx?$AA_?$AA?$CF?$AAx?$AA?$AA@ 1005d278     FarEditorSet.obj
 0002:000052b4       ??_C@_08DBJDFHIJ@hrd?9sets?$AA@ 1005d2b4     FarEditorSet.obj
 0002:000052c0       ??_C@_0CC@DANINIGD@main?5?8?$DMhrd?9sets?$DO?8?5block?5not?5foun@ 1005d2c0     FarEditorSet.obj
 0002:000052e4       ??_C@_03HGMNONJC@hrd?$AA@  1005d2e4     FarEditorSet.obj
 0002:000052e8       ??_C@_09OPOAJDAP@?$DMdefault?9?$AA@ 1005d2e8     FarEditorSet.obj
 0002:000052f4       ??_C@_01PPODPGHN@?$DO?$AA@ 1005d2f4     FarEditorSet.obj
 0002:000052f8       ??_C@_1BG@FNMAPHHK@?$AA?$DM?$AAn?$AAo?$AA?5?$AAg?$AAr?$AAo?$AAu?$AAp?$AA?$DO?$AA?$AA@ 1005d2f8     FarEditorSet.obj
 0002:00005310       ??_C@_1O@JMBLCINJ@?$AA?$CF?$AAs?$AA?3?$AA?5?$AA?$CF?$AAs?$AA?$AA@ 1005d310     FarEditorSet.obj
 0002:00005320       ??_C@_0L@JPKFMNBJ@firstlines?$AA@ 1005d320     FarEditorSet.obj
 0002:0000532c       ??_C@_0P@JFLNJMMK@firstlinebytes?$AA@ 1005d32c     FarEditorSet.obj
 0002:0000533c       ??_C@_1BE@OGFIAMJH@?$AAc?$AAo?$AAn?$AAf?$AAi?$AAg?$AAh?$AAr?$AAc?$AA?$AA@ 1005d33c     FarEditorSet.obj
 0002:00005350       ??_C@_0DF@DNNOFLMI@Hashtable?5enumeration?5fault?5?9?5ob@ 1005d350     FarEditorSet.obj
 0002:00005388       ??_C@_0CO@MBGHDCJJ@Hashtable?5enumeration?5fault?5?9?5en@ 1005d388     FarEditorSet.obj
 0002:000053b8       ??_7String@@6B@            1005d3b8     FarEditorSet.obj
 0002:000053ec       ??_7DString@@6B@           1005d3ec     FarEditorSet.obj
 0002:00005420       ??_C@_0BK@NLCJIMMN@FarHrcSettingsException?3?5?$AA@ 1005d420     FarHrcSettings.obj
 0002:0000543c       ??_C@_0N@MAHPFPMA@hrc?9settings?$AA@ 1005d43c     FarHrcSettings.obj
 0002:0000544c       ??_C@_0CG@CIKEJAHN@main?5?8?$DMhrc?9settings?$DO?8?5block?5not?5@ 1005d44c     FarHrcSettings.obj
 0002:00005474       ??_C@_09IKDJFMEJ@prototype?$AA@ 1005d474     FarHrcSettings.obj
 0002:00005480       ??_C@_04MEMAJGDJ@name?$AA@ 1005d480     FarHrcSettings.obj
 0002:00005488       ??_C@_05LJDNNBIK@param?$AA@ 1005d488     FarHrcSettings.obj
 0002:00005490       ??_C@_05MFEJDJP@value?$AA@ 1005d490     FarHrcSettings.obj
 0002:00005498       ??_C@_0M@PPJNHBMP@description?$AA@ 1005d498     FarHrcSettings.obj
 0002:000054a4       ??_C@_1CO@CHFEHJFP@?$AA?$CF?$AAs?$AA?2?$AAc?$AAo?$AAl?$AAo?$AAr?$AAe?$AAr?$AA?2?$AAH?$AAr?$AAc?$AAS?$AAe?$AAt?$AAt?$AAi?$AAn?$AAg?$AAs?$AA?$AA@ 1005d4a4     FarHrcSettings.obj
 0002:000054d4       ??_C@_1DE@FMBFINHC@?$AA?$CF?$AAs?$AA?2?$AAc?$AAo?$AAl?$AAo?$AAr?$AAe?$AAr?$AA?2?$AAH?$AAr?$AAc?$AAS?$AAe?$AAt?$AAt?$AAi?$AAn?$AAg?$AAs?$AA?2?$AA?$CF?$AAs?$AA?$AA@ 1005d4d4     FarHrcSettings.obj
 0002:00005508       ??_C@_17HKLJCAPI@?$AAc?$AAl?$AAr?$AA?$AA@ 1005d508     pcolorer.obj
 0002:00005510       ??_C@_19MJCDBCKE@?$AA?2?$AA?2?$AA?$DP?$AA?2?$AA?$AA@ 1005d510     tools.obj
 0002:0000551c       ??_C@_15LEKKCGMK@?$AA?2?$AA?2?$AA?$AA@ 1005d51c     tools.obj
 0002:00005524       ??_C@_1BA@BFGBFLGI@?$AA?2?$AA?2?$AA?$DP?$AA?2?$AAU?$AAN?$AAC?$AA?$AA@ 1005d524     tools.obj
 0002:00005534       ??_C@_0BO@ECPMAOGG@invalid?5distance?5too?5far?5back?$AA@ 1005d534     inffast.obj
 0002:00005554       ??_C@_0BG@LBKINIKP@invalid?5distance?5code?$AA@ 1005d554     inffast.obj
 0002:0000556c       ??_C@_0BM@FFFLPBBC@invalid?5literal?1length?5code?$AA@ 1005d56c     inffast.obj
 0002:00005588       ??_C@_0BH@LIBMMIGA@incorrect?5header?5check?$AA@ 1005d588     inflate.obj
 0002:000055a0       ??_C@_0BL@IHKGDAEE@unknown?5compression?5method?$AA@ 1005d5a0     inflate.obj
 0002:000055bc       ??_C@_0BE@EMOGCLGO@invalid?5window?5size?$AA@ 1005d5bc     inflate.obj
 0002:000055d0       ??_C@_0BJ@BLBBCOMO@unknown?5header?5flags?5set?$AA@ 1005d5d0     inflate.obj
 0002:000055ec       ??_C@_0BE@GONKLEPM@header?5crc?5mismatch?$AA@ 1005d5ec     inflate.obj
 0002:00005600       ??_C@_0BD@PJCBIDD@invalid?5block?5type?$AA@ 1005d600     inflate.obj
 0002:00005614       ??_C@_0BN@LGAADGOK@invalid?5stored?5block?5lengths?$AA@ 1005d614     inflate.obj
 0002:00005634       ??_C@_0CE@GMIGFPBB@too?5many?5length?5or?5distance?5symb@ 1005d634     inflate.obj
 0002:00005658       ??_C@_0BJ@HDEPPGOH@invalid?5code?5lengths?5set?$AA@ 1005d658     inflate.obj
 0002:00005674       ??_C@_0BK@BMMPFBBH@invalid?5bit?5length?5repeat?$AA@ 1005d674     inflate.obj
 0002:00005690       ??_C@_0CF@DGDMADCD@invalid?5code?5?9?9?5missing?5end?9of?9b@ 1005d690     inflate.obj
 0002:000056b8       ??_C@_0BM@IIMGAINC@invalid?5literal?1lengths?5set?$AA@ 1005d6b8     inflate.obj
 0002:000056d4       ??_C@_0BG@GMDFCBGP@invalid?5distances?5set?$AA@ 1005d6d4     inflate.obj
 0002:000056ec       ??_C@_0BF@MEIGEHBE@incorrect?5data?5check?$AA@ 1005d6ec     inflate.obj
 0002:00005704       ??_C@_0BH@FGKKJGOC@incorrect?5length?5check?$AA@ 1005d704     inflate.obj
 0002:0000571c       ??_C@_0BF@CJFPCCEG@incompatible?5version?$AA@ 1005d71c     zutil.obj
 0002:00005734       ??_C@_0N@DFPGLBGC@buffer?5error?$AA@ 1005d734     zutil.obj
 0002:00005744       ??_C@_0BE@OGGJBMCE@insufficient?5memory?$AA@ 1005d744     zutil.obj
 0002:00005758       ??_C@_0L@HAHMBNLP@data?5error?$AA@ 1005d758     zutil.obj
 0002:00005764       ??_C@_0N@MKKNPMJD@stream?5error?$AA@ 1005d764     zutil.obj
 0002:00005774       ??_C@_0L@KIJFAKBJ@file?5error?$AA@ 1005d774     zutil.obj
 0002:0000577f       ??_C@_00CNPNBAHC@?$AA@     1005d77f     zutil.obj
 0002:00005780       ??_C@_0L@FNAOCBOG@stream?5end?$AA@ 1005d780     zutil.obj
 0002:0000578c       ??_C@_0BA@MOKMMFOD@need?5dictionary?$AA@ 1005d78c     zutil.obj
 0002:0000579c       ??_C@_02JDPG@rb?$AA@       1005d79c     ioapi.obj
 0002:000057a0       ??_C@_03HMFOOINA@r?$CLb?$AA@ 1005d7a0     ioapi.obj
 0002:000057a4       ??_C@_02GMLFBBN@wb?$AA@    1005d7a4     ioapi.obj
 0002:000057a8       ??_C@_0BJ@IKGPACGH@ParserFactoryException?3?5?$AA@ 1005d7a8     ParserFactory.obj
 0002:000057c4       ??_C@_07MFFOOIHD@catalog?$AA@ 1005d7c4     ParserFactory.obj
 0002:000057cc       ??_C@_0BG@KNJAMOAD@bad?5catalog?5structure?$AA@ 1005d7cc     ParserFactory.obj
 0002:000057e4       ??_C@_08PEDEGJAH@hrc?9sets?$AA@ 1005d7e4     ParserFactory.obj
 0002:000057f0       ??_C@_0N@MFKLFMOI@log?9location?$AA@ 1005d7f0     ParserFactory.obj
 0002:00005800       ??_C@_08CBBFJFMD@location?$AA@ 1005d800     ParserFactory.obj
 0002:0000580c       ??_C@_04OHHBHOGB@link?$AA@ 1005d80c     ParserFactory.obj
 0002:00005814       ??_C@_05ENKANFLO@class?$AA@ 1005d814     ParserFactory.obj
 0002:0000581c       ??_C@_0BG@JJKJOMLH@Duplicate?5hrd?5class?5?8?$AA@ 1005d81c     ParserFactory.obj
 0002:00005834       ??_C@_01GEODFPGF@?8?$AA@   1005d834     ParserFactory.obj
 0002:00005838       ??_C@_01JOAMLHOP@?9?$AA@   1005d838     ParserFactory.obj
 0002:0000583c       ??_C@_1BA@KDEKKIGH@?$AAc?$AAo?$AAl?$AAo?$AAr?$AAe?$AAr?$AA?$AA@ 1005d83c     ParserFactory.obj
 0002:0000584c       ??_C@_0N@KPOBKDCG@?2catalog?4xml?$AA@ 1005d84c     ParserFactory.obj
 0002:0000585c       ??_C@_0BA@HHPGLKLH@COLORER5CATALOG?$AA@ 1005d85c     ParserFactory.obj
 0002:0000586c       ??_C@_09OBKBLLMN@HOMEDRIVE?$AA@ 1005d86c     ParserFactory.obj
 0002:00005878       ??_C@_08LOOGKGJL@HOMEPATH?$AA@ 1005d878     ParserFactory.obj
 0002:00005884       ??_C@_0BC@PFKFHFCO@?1?4colorer5catalog?$AA@ 1005d884     ParserFactory.obj
 0002:00005898       ??_C@_0L@CLNGBNDK@SYSTEMROOT?$AA@ 1005d898     ParserFactory.obj
 0002:000058a4       ??_C@_06KIMFAMMH@WINDIR?$AA@ 1005d8a4     ParserFactory.obj
 0002:000058b0       ??_C@_0ED@ODBJFPOE@Can?8t?5find?5suitable?5catalog?4xml?5@ 1005d8b0     ParserFactory.obj
 0002:000058f4       ??_C@_07CAIJGPF@file?3?1?1?$AA@ 1005d8f4     ParserFactory.obj
 0002:000058fc       ??_C@_06MONEMCJK@file?3?1?$AA@ 1005d8fc     ParserFactory.obj
 0002:00005904       ??_C@_05BOPHDICO@file?3?$AA@ 1005d904     ParserFactory.obj
 0002:0000590c       ??_C@_04FGAJMCLA@?2?$CK?4?$CK?$AA@ 1005d90c     ParserFactory.obj
 0002:00005914       ??_C@_01KICIPPFI@?2?$AA@   1005d914     ParserFactory.obj
 0002:00005918       ??_C@_0BB@JCAFBFOJ@Can?8t?5load?5hrc?3?5?$AA@ 1005d918     ParserFactory.obj
 0002:0000592c       ??_C@_0BG@LNPACFPD@can?8t?5find?5hrdClass?5?8?$AA@ 1005d92c     ParserFactory.obj
 0002:00005944       ??_C@_0M@IPPAKKCD@COLORER5HRD?$AA@ 1005d944     ParserFactory.obj
 0002:00005950       ??_C@_0BF@KEKNMLOJ@can?8t?5find?5hrdName?5?8?$AA@ 1005d950     ParserFactory.obj
 0002:00005968       ??_C@_0BB@PNCCNFA@Can?8t?5load?5hrd?3?5?$AA@ 1005d968     ParserFactory.obj
 0002:0000597c       ??_C@_0P@NHKDLEJN@Error?5load?5hrd?$AA@ 1005d97c     ParserFactory.obj
 0002:0000598c       ??_7ErrorHandler@@6B@      1005d98c     ParserFactory.obj
 0002:0000599c       ??_7DefaultErrorHandler@@6B@ 1005d99c     ParserFactory.obj
 0002:000059ac       ??_7ParserFactory@@6B@     1005d9ac     ParserFactory.obj
 0002:000059b0       ??_C@_01JLIPDDHJ@?3?$AA@   1005d9b0     ConsoleTools.obj
 0002:000059b4       ??_C@_02BAABKJLB@?9?9?$AA@ 1005d9b4     ConsoleTools.obj
 0002:000059b8       ??_C@_05JKJFEODM@?$CGamp?$DL?$AA@ 1005d9b8     ConsoleTools.obj
 0002:000059c0       ??_C@_04GJOGLFEJ@?$CGlt?$DL?$AA@ 1005d9c0     ConsoleTools.obj
 0002:000059c8       ??_C@_06MMEMGLOP@scheme?$AA@ 1005d9c8     ConsoleTools.obj
 0002:000059d0       ??_C@_01EEMJAFIK@?6?$AA@   1005d9d0     ConsoleTools.obj
 0002:000059d4       ??_7Writer@@6B@            1005d9d4     ConsoleTools.obj
 0002:000059ec       ??_C@_1O@PNMIMBDD@?$AAC?$AAO?$AAN?$AAI?$AAN?$AA$?$AA?$AA@ 1005d9ec     TextConsoleViewer.obj
 0002:000059fc       ??_C@_04PFOHOKJK@?5?5?5?5?$AA@ 1005d9fc     TextLinesStore.obj
 0002:00005a04       ??_C@_01GPOEFGEJ@?7?$AA@   1005da04     TextLinesStore.obj
 0002:00005a08       ??_7TextLinesStore@@6B@    1005da08     TextLinesStore.obj
 0002:00005a18       ??_C@_0BI@FDANEDOH@?6?9?9?9?5start?5logging?5?9?9?9?5?$AA@ 1005da18     ErrorHandlerWriter.obj
 0002:00005a30       ??_C@_0BH@IEFAHEGG@?9?9?9?5end?5?5?5logging?5?9?9?9?5?$AA@ 1005da30     ErrorHandlerWriter.obj
 0002:00005a48       ??_C@_07FJOHCPOO@error?3?5?$AA@ 1005da48     ErrorHandlerWriter.obj
 0002:00005a50       ??_C@_07FIPBNDIO@fatal?3?5?$AA@ 1005da50     ErrorHandlerWriter.obj
 0002:00005a58       ??_C@_07GNCLHBHC@warn?5?3?5?$AA@ 1005da58     ErrorHandlerWriter.obj
 0002:00005a60       ??_7ErrorHandlerWriter@@6B@ 1005da60     ErrorHandlerWriter.obj
 0002:00005a70       ??_C@_03GAACFCKC@ab?$CL?$AA@ 1005da70     FileErrorHandler.obj
 0002:00005a74       ??_C@_0CO@OPIBPNFJ@Can?8t?5open?5output?5stream?5for?5err@ 1005da74     FileErrorHandler.obj
 0002:00005aa4       ??_7FileErrorHandler@@6B@  1005daa4     FileErrorHandler.obj
 0002:00005ab4       ??_7LineRegionsCompactSupport@@6B@ 1005dab4     LineRegionsCompactSupport.obj
 0002:00005ad4       ??_C@_0BP@NOPMDOFN@no?5lastElement?5in?5empty?5vector?$AA@ 1005dad4     LineRegionsSupport.obj
 0002:00005af4       ??_7RegionHandler@@6B@     1005daf4     LineRegionsSupport.obj
 0002:00005b10       ??_7LineRegionsSupport@@6B@ 1005db10     LineRegionsSupport.obj
 0002:00005b30       ??_C@_0BH@JFINGNFA@Error?5loading?5HRD?5file?$AA@ 1005db30     StyledHRDMapper.obj
 0002:00005b48       ??_C@_06IMFOKBKF@assign?$AA@ 1005db48     StyledHRDMapper.obj
 0002:00005b50       ??_C@_04DBFEOIG@fore?$AA@  1005db50     StyledHRDMapper.obj
 0002:00005b58       ??_C@_04JFCNHLLM@back?$AA@ 1005db58     StyledHRDMapper.obj
 0002:00005b60       ??_C@_05IAKJCFIM@style?$AA@ 1005db60     StyledHRDMapper.obj
 0002:00005b68       ??_C@_0EB@LJNFMDDF@?$DM?$DPxml?5version?$DN?$CC1?40?$CC?$DP?$DO?6?$DM?$CBDOCTYPE?5@ 1005db68     StyledHRDMapper.obj
 0002:00005bac       ??_C@_0BB@EPCEEOII@?5?5?$DMdefine?5name?$DN?8?$AA@ 1005dbac     StyledHRDMapper.obj
 0002:00005bc0       ??_C@_0O@MCFILJAF@?5fore?$DN?$CC?$CD?$CF06x?$CC?$AA@ 1005dbc0     StyledHRDMapper.obj
 0002:00005bd0       ??_C@_0O@JKGBCLDF@?5back?$DN?$CC?$CD?$CF06x?$CC?$AA@ 1005dbd0     StyledHRDMapper.obj
 0002:00005be0       ??_C@_0P@NMGBKHLN@?5style?$DN?$CC?$CD?$CF06x?$CC?$AA@ 1005dbe0     StyledHRDMapper.obj
 0002:00005bf0       ??_C@_03PCPALPJL@?1?$DO?6?$AA@ 1005dbf0     StyledHRDMapper.obj
 0002:00005bf4       ??_C@_08GAKEBAFE@?6?$DM?1hrd?$DO?6?$AA@ 1005dbf4     StyledHRDMapper.obj
 0002:00005c00       ??_7RegionDefine@@6B@      1005dc00     StyledHRDMapper.obj
 0002:00005c14       ??_7RegionMapperImpl@@6B@  1005dc14     StyledHRDMapper.obj
 0002:00005c2c       ??_7StyledRegion@@6B@      1005dc2c     StyledHRDMapper.obj
 0002:00005c40       ??_7StyledHRDMapper@@6B@   1005dc40     StyledHRDMapper.obj
 0002:00005c58       ??_C@_0CG@EKPGKOMG@Bad?5BaseEditor?5constructor?5param@ 1005dc58     BaseEditor.obj
 0002:00005c80       ??_C@_0L@CKHDNACL@def?3Syntax?$AA@ 1005dc80     BaseEditor.obj
 0002:00005c8c       ??_C@_0M@JOACOAKJ@def?3Special?$AA@ 1005dc8c     BaseEditor.obj
 0002:00005c98       ??_C@_0O@PKOIPAPG@def?3PairStart?$AA@ 1005dc98     BaseEditor.obj
 0002:00005ca8       ??_C@_0M@NCAHNDMK@def?3PairEnd?$AA@ 1005dca8     BaseEditor.obj
 0002:00005cb4       ??_C@_0O@DGKHPFJK@def?3HorzCross?$AA@ 1005dcb4     BaseEditor.obj
 0002:00005cc4       ??_C@_0O@MKNBLFAC@def?3VertCross?$AA@ 1005dcc4     BaseEditor.obj
 0002:00005cd4       ??_7PairMatch@@6B@         1005dcd4     BaseEditor.obj
 0002:00005cd8       ??_7BaseEditor@@6B@        1005dcd8     BaseEditor.obj
 0002:00005cf4       ??_7EditorListener@@6B@    1005dcf4     Outliner.obj
 0002:00005cf8       ??_7Outliner@@6BRegionHandler@@@ 1005dcf8     Outliner.obj
 0002:00005d14       ??_7Outliner@@6BEditorListener@@@ 1005dd14     Outliner.obj
 0002:00005d18       ??_C@_0BF@EEHAMAGA@HRCParserException?3?5?$AA@ 1005dd18     HRCParserImpl.obj
 0002:00005d30       ??_C@_0DG@BMIEHEED@Can?8t?5open?5stream?5for?5type?5witho@ 1005dd30     HRCParserImpl.obj
 0002:00005d68       ??_C@_0BL@EGGMECPO@Can?8t?5open?5source?5stream?3?5?$AA@ 1005dd68     HRCParserImpl.obj
 0002:00005d84       ??_C@_02GBLMOEJC@?5?$FL?$AA@ 1005dd84     HRCParserImpl.obj
 0002:00005d88       ??_C@_01LBDDMOBJ@?$FN?$AA@ 1005dd88     HRCParserImpl.obj
 0002:00005d8c       ??_C@_0CB@PEMPEAPH@Unknown?5exception?5while?5loading?5@ 1005dd8c     HRCParserImpl.obj
 0002:00005db0       ??_C@_03DJIMHLFF@hrc?$AA@  1005ddb0     HRCParserImpl.obj
 0002:00005db4       ??_C@_0BN@IBPBELDI@main?5?8?$DMhrc?$DO?8?5block?5not?5found?$AA@ 1005ddb4     HRCParserImpl.obj
 0002:00005dd4       ??_C@_07CPCPJPKL@version?$AA@ 1005ddd4     HRCParserImpl.obj
 0002:00005ddc       ??_C@_07KNEGBPNO@package?$AA@ 1005dddc     HRCParserImpl.obj
 0002:00005de4       ??_C@_04GPMDFGEJ@type?$AA@ 1005dde4     HRCParserImpl.obj
 0002:00005dec       ??_C@_05MGJOOGAJ@group?$AA@ 1005ddec     HRCParserImpl.obj
 0002:00005df4       ??_C@_0BD@FGPOGEAJ@unnamed?5prototype?5?$AA@ 1005ddf4     HRCParserImpl.obj
 0002:00005e08       ??_C@_0BG@JKCKKJLL@Duplicate?5prototype?5?8?$AA@ 1005de08     HRCParserImpl.obj
 0002:00005e20       ??_C@_0CN@FEIIBLGL@Bad?5?8location?8?5link?5attribute?5in@ 1005de20     HRCParserImpl.obj
 0002:00005e50       ??_C@_08BABJIOEM@filename?$AA@ 1005de50     HRCParserImpl.obj
 0002:00005e5c       ??_C@_09NDCFJMMA@firstline?$AA@ 1005de5c     HRCParserImpl.obj
 0002:00005e68       ??_C@_05PODDDPBH@Bad?5?8?$AA@ 1005de68     HRCParserImpl.obj
 0002:00005e70       ??_C@_0BJ@JECHMMNI@?8?5element?5in?5prototype?5?8?$AA@ 1005de70     HRCParserImpl.obj
 0002:00005e8c       ??_C@_0BN@IBPFBBPH@Fault?5compiling?5chooser?5RE?5?8?$AA@ 1005de8c     HRCParserImpl.obj
 0002:00005eac       ??_C@_0BB@MKKOFGOB@?8?5in?5prototype?5?8?$AA@ 1005deac     HRCParserImpl.obj
 0002:00005ec0       ??_C@_06CMCBKMCB@weight?$AA@ 1005dec0     HRCParserImpl.obj
 0002:00005ec8       ??_C@_0L@HHPOFMCB@parameters?$AA@ 1005dec8     HRCParserImpl.obj
 0002:00005ed4       ??_C@_0BN@EFFBAECH@Bad?5parameter?5in?5prototype?5?8?$AA@ 1005ded4     HRCParserImpl.obj
 0002:00005ef4       ??_C@_0BD@EHEIHHIN@Unnamed?5type?5found?$AA@ 1005def4     HRCParserImpl.obj
 0002:00005f08       ??_C@_06EBDLJLML@type?5?8?$AA@ 1005df08     HRCParserImpl.obj
 0002:00005f10       ??_C@_0BE@NLONNFCP@?8?5without?5prototype?$AA@ 1005df10     HRCParserImpl.obj
 0002:00005f24       ??_C@_0BE@CDHEHAOE@?8?5is?5already?5loaded?$AA@ 1005df24     HRCParserImpl.obj
 0002:00005f38       ??_C@_06JEJEKGIK@region?$AA@ 1005df38     HRCParserImpl.obj
 0002:00005f40       ??_C@_06MLKDMCBD@parent?$AA@ 1005df40     HRCParserImpl.obj
 0002:00005f48       ??_C@_0CI@PCLBFOHJ@No?5?8name?8?5attribute?5in?5?$DMregion?$DO?5@ 1005df48     HRCParserImpl.obj
 0002:00005f70       ??_C@_0BD@NHCDHBB@Duplicate?5region?5?8?$AA@ 1005df70     HRCParserImpl.obj
 0002:00005f84       ??_C@_0BH@JIPLKABB@?8?5definition?5in?5type?5?8?$AA@ 1005df84     HRCParserImpl.obj
 0002:00005f9c       ??_C@_06GOJKNBFM@entity?$AA@ 1005df9c     HRCParserImpl.obj
 0002:00005fa4       ??_C@_0BG@DJJPKMIL@Bad?5entity?5attributes?$AA@ 1005dfa4     HRCParserImpl.obj
 0002:00005fbc       ??_C@_06EOGGDCGF@import?$AA@ 1005dfbc     HRCParserImpl.obj
 0002:00005fc4       ??_C@_0BC@DHCJDPLK@Import?5with?5bad?5?8?$AA@ 1005dfc4     HRCParserImpl.obj
 0002:00005fd8       ??_C@_0BG@MLDGDJHP@?8?5attribute?5in?5type?5?8?$AA@ 1005dfd8     HRCParserImpl.obj
 0002:00005ff0       ??_C@_0BI@OPLAGMOO@?8?5has?5no?5default?5scheme?$AA@ 1005dff0     HRCParserImpl.obj
 0002:00006008       ??_C@_0BK@BIDDPFAH@bad?5scheme?5name?5in?5type?5?8?$AA@ 1005e008     HRCParserImpl.obj
 0002:00006024       ??_C@_0BI@HCFMJDMD@duplicate?5scheme?5name?5?8?$AA@ 1005e024     HRCParserImpl.obj
 0002:0000603c       ??_C@_02HEBPBKGD@if?$AA@   1005e03c     HRCParserImpl.obj
 0002:00006040       ??_C@_06OMKCNAGG@unless?$AA@ 1005e040     HRCParserImpl.obj
 0002:00006048       ??_C@_07PGOGPNPO@inherit?$AA@ 1005e048     HRCParserImpl.obj
 0002:00006050       ??_C@_0DG@HFGOKJPC@empty?5scheme?5name?5in?5inheritance@ 1005e050     HRCParserImpl.obj
 0002:00006088       ??_C@_07HIMIIOGA@virtual?$AA@ 1005e088     HRCParserImpl.obj
 0002:00006090       ??_C@_0N@DPHJOAIB@subst?9scheme?$AA@ 1005e090     HRCParserImpl.obj
 0002:000060a0       ??_C@_0CG@KCLHEGOB@bad?5virtualize?5attributes?5in?5sch@ 1005e0a0     HRCParserImpl.obj
 0002:000060c8       ??_C@_06BDGKJDBI@regexp?$AA@ 1005e0c8     HRCParserImpl.obj
 0002:000060d0       ??_C@_05FNONLPDI@match?$AA@ 1005e0d0     HRCParserImpl.obj
 0002:000060d8       ??_C@_0CA@KGAJJIOA@no?5?8match?8?5in?5regexp?5in?5scheme?5?$AA@ 1005e0d8     HRCParserImpl.obj
 0002:000060f8       ??_C@_03IMLOALHE@low?$AA@  1005e0f8     HRCParserImpl.obj
 0002:000060fc       ??_C@_08IIJFADMF@priority?$AA@ 1005e0fc     HRCParserImpl.obj
 0002:00006108       ??_C@_0BJ@KOKNBJDL@fault?5compiling?5regexp?5?8?$AA@ 1005e108     HRCParserImpl.obj
 0002:00006124       ??_C@_0O@DFGPHDMJ@?8?5in?5scheme?5?8?$AA@ 1005e124     HRCParserImpl.obj
 0002:00006134       ??_C@_05PIBOEKAB@block?$AA@ 1005e134     HRCParserImpl.obj
 0002:0000613c       ??_C@_05FAGFPHJG@start?$AA@ 1005e13c     HRCParserImpl.obj
 0002:00006144       ??_C@_03JBJLGPFL@end?$AA@  1005e144     HRCParserImpl.obj
 0002:00006148       ??_C@_0CO@HFBEKDN@?8start?8?5block?5attribute?5not?5foun@ 1005e148     HRCParserImpl.obj
 0002:00006178       ??_C@_0CM@BNLOOKHI@?8end?8?5block?5attribute?5not?5found?5@ 1005e178     HRCParserImpl.obj
 0002:000061a4       ??_C@_0CM@NKOCIMIG@block?5with?5bad?5scheme?5attribute?5@ 1005e1a4     HRCParserImpl.obj
 0002:000061d0       ??_C@_0BB@EKMOBOGD@content?9priority?$AA@ 1005e1d0     HRCParserImpl.obj
 0002:000061e4       ??_C@_0N@MHMDLOAI@inner?9region?$AA@ 1005e1e4     HRCParserImpl.obj
 0002:000061f4       ??_C@_08KBIEDDDE@keywords?$AA@ 1005e1f4     HRCParserImpl.obj
 0002:00006200       ??_C@_0L@CBELJKHN@ignorecase?$AA@ 1005e200     HRCParserImpl.obj
 0002:0000620c       ??_C@_06IKLLLDHL@normal?$AA@ 1005e20c     HRCParserImpl.obj
 0002:00006214       ??_C@_07OBMJLHNP@worddiv?$AA@ 1005e214     HRCParserImpl.obj
 0002:0000621c       ??_C@_0CB@HHDLLBKI@fault?5compiling?5worddiv?5regexp?5?8@ 1005e21c     HRCParserImpl.obj
 0002:00006240       ??_C@_04EHIOMBPF@word?$AA@ 1005e240     HRCParserImpl.obj
 0002:00006248       ??_C@_04IGFMCMLN@symb?$AA@ 1005e248     HRCParserImpl.obj
 0002:00006250       ??_C@_0BN@CJNNILKB@cannot?5resolve?5scheme?5name?5?8?$AA@ 1005e250     HRCParserImpl.obj
 0002:00006270       ??_C@_0BL@EPABPCAE@cannot?5virtualize?5scheme?5?8?$AA@ 1005e270     HRCParserImpl.obj
 0002:0000628c       ??_C@_0CO@HEIMCDIP@cannot?5virtualize?5using?5subst?9sc@ 1005e28c     HRCParserImpl.obj
 0002:000062bc       ??_C@_0BI@DPPKKDOE@type?5name?5qualifer?5in?5?8?$AA@ 1005e2bc     HRCParserImpl.obj
 0002:000062d4       ??_C@_0BH@PBKHKCO@?8?5doesn?8t?5match?5type?5?8?$AA@ 1005e2d4     HRCParserImpl.obj
 0002:000062ec       ??_C@_08BMFBBGAN@region?5?8?$AA@ 1005e2ec     HRCParserImpl.obj
 0002:000062f8       ??_C@_0BI@FFHBAHCC@?8?0?5referenced?5in?5type?5?8?$AA@ 1005e2f8     HRCParserImpl.obj
 0002:00006310       ??_C@_0BC@LFPMEFFO@?8?0?5is?5not?5defined?$AA@ 1005e310     HRCParserImpl.obj
 0002:00006324       ??_C@_08FFCGKAF@entity?5?8?$AA@ 1005e324     HRCParserImpl.obj
 0002:00006330       ??_C@_08OBAOGPDK@scheme?5?8?$AA@ 1005e330     HRCParserImpl.obj
 0002:0000633c       ??_C@_0BJ@ELMJJJDM@?8?5doesn?8t?5match?5any?5type?$AA@ 1005e33c     HRCParserImpl.obj
 0002:00006358       ??_C@_0BD@LLMBEMND@unqualified?5name?5?8?$AA@ 1005e358     HRCParserImpl.obj
 0002:0000636c       ??_C@_0CI@BPOMGHGI@?8?5doesn?8t?5belong?5to?5any?5imported@ 1005e36c     HRCParserImpl.obj
 0002:00006394       ??_C@_08DEGAALM@?3default?$AA@ 1005e394     HRCParserImpl.obj
 0002:000063a0       ??_7Region@@6B@            1005e3a0     HRCParserImpl.obj
 0002:000063b4       ??_7Scheme@@6B@            1005e3b4     HRCParserImpl.obj
 0002:000063b4       ??_7RegionMapper@@6B@      1005e3b4     StyledHRDMapper.obj
 0002:000063c0       ??_7SchemeImpl@@6B@        1005e3c0     HRCParserImpl.obj
 0002:000063cc       ??_7FileTypeImpl@@6B@      1005e3cc     HRCParserImpl.obj
 0002:000063f8       ??_7HRCParserImpl@@6B@     1005e3f8     HRCParserImpl.obj
 0002:00006424       ??_7FileType@@6B@          1005e424     HRCParserImpl.obj
 0002:00006424       ??_7HRCParser@@6B@         1005e424     HRCParserImpl.obj
 0002:00006450       ??_7?$Hashtable@PAVString@@@@6B@ 1005e450     ConsoleTools.obj
 0002:00006450       ??_7?$HashtableCore@PAVFileTypeImpl@@@@6B@ 1005e450     HRCParserImpl.obj
 0002:00006450       ??_7?$HashtableCore@PBVString@@@@6B@ 1005e450     FarEditorSet.obj
 0002:00006450       ??_7?$Hashtable@PAV?$Vector@PBVString@@@@@@6B@ 1005e450     ParserFactory.obj
 0002:00006450       ??_7?$HashtableCore@PAV?$Hashtable@PAV?$Vector@PBVString@@@@@@@@6B@ 1005e450     ParserFactory.obj
 0002:00006450       ??_7?$HashtableCore@PAV?$Vector@PBVString@@@@@@6B@ 1005e450     ParserFactory.obj
 0002:00006450       ??_7?$HashtableCore@PAVSharedInputSource@@@@6B@ 1005e450     SharedInputSource.obj
 0002:00006450       ??_7?$Hashtable@PAVFarEditor@@@@6B@ 1005e450     FarEditorSet.obj
 0002:00006450       ??_7?$HashtableCore@H@@6B@ 1005e450     HRCParserImpl.obj
 0002:00006450       ??_7?$HashtableCore@PBVRegion@@@@6B@ 1005e450     HRCParserImpl.obj
 0002:00006450       ??_7?$HashtableCore@PAVSchemeImpl@@@@6B@ 1005e450     HRCParserImpl.obj
 0002:00006450       ??_7?$Hashtable@PAVSchemeImpl@@@@6B@ 1005e450     HRCParserImpl.obj
 0002:00006450       ??_7?$HashtableCore@PAVRegionDefine@@@@6B@ 1005e450     StyledHRDMapper.obj
 0002:00006450       ??_7?$Hashtable@PBVRegion@@@@6B@ 1005e450     HRCParserImpl.obj
 0002:00006450       ??_7?$Hashtable@PBVString@@@@6B@ 1005e450     FarEditorSet.obj
 0002:00006450       ??_7?$Hashtable@PAV?$Hashtable@PAV?$Vector@PBVString@@@@@@@@6B@ 1005e450     ParserFactory.obj
 0002:00006450       ??_7?$Hashtable@PAVSharedInputSource@@@@6B@ 1005e450     SharedInputSource.obj
 0002:00006450       ??_7?$HashtableCore@PAVFarEditor@@@@6B@ 1005e450     FarEditorSet.obj
 0002:00006450       ??_7?$Hashtable@H@@6B@     1005e450     HRCParserImpl.obj
 0002:00006450       ??_7?$HashtableCore@PAVString@@@@6B@ 1005e450     ConsoleTools.obj
 0002:00006450       ??_7?$Hashtable@PAVRegionDefine@@@@6B@ 1005e450     StyledHRDMapper.obj
 0002:00006450       ??_7?$Hashtable@PAVFileTypeImpl@@@@6B@ 1005e450     HRCParserImpl.obj
 0002:00006454       ??_C@_0CF@KDPIPOII@null?5String?5passed?5into?5the?5pars@ 1005e454     TextParserImpl.obj
 0002:0000647c       ??_7TextParser@@6B@        1005e47c     TextParserImpl.obj
 0002:00006498       ??_7TextParserImpl@@6B@    1005e498     TextParserImpl.obj
 0002:000064b4       ??_C@_07LLLEBHK@INHERIT?$AA@ 1005e4b4     HRCParserHelpers.obj
 0002:000064bc       ??_C@_08NOCIANBD@KEYWORDS?$AA@ 1005e4bc     HRCParserHelpers.obj
 0002:000064c8       ??_C@_06MIGHLFDN@SCHEME?$AA@ 1005e4c8     HRCParserHelpers.obj
 0002:000064d0       ??_C@_02OCIIGHHD@RE?$AA@   1005e4d0     HRCParserHelpers.obj
 0002:000064d4       ??_C@_05HKAKDGKI@EMPTY?$AA@ 1005e4d4     HRCParserHelpers.obj
 0002:000064dc       ??_C@_03NIFPGLBG@ALL?$AA@  1005e4dc     CharacterClass.obj
 0002:000064e0       ??_C@_08ECIAMOMD@ASSIGNED?$AA@ 1005e4e0     CharacterClass.obj
 0002:000064ec       ??_C@_0L@EGJECNPE@UNASSIGNED?$AA@ 1005e4ec     CharacterClass.obj
 0002:000064f8       ??_C@_01OCOKONAJ@L?$AA@    1005e4f8     CharacterClass.obj
 0002:000064fc       ??_C@_01POHCFINO@Z?$AA@    1005e4fc     CharacterClass.obj
 0002:00006500       ??_C@_09GHEONEIE@encoding?$DN?$AA@ 1005e500     DString.obj
 0002:0000650c       ??_C@_0BP@EJEACAND@encoding?5conflict?5?9?5can?8t?5use?5?$AA@ 1005e50c     DString.obj
 0002:0000652c       ??_C@_0CC@FOKJPJOB@bad?5string?5constructor?5parameter@ 1005e52c     DString.obj
 0002:00006550       ??_C@_0BP@BFHIEPOL@UnsupportedEncodingException?3?5?$AA@ 1005e550     Encodings.obj
 0002:00006570       ??_C@_02DPKJAMEF@?$CFd?$AA@ 1005e570     SString.obj
 0002:00006574       ??_7StringBuffer@@6B@      1005e574     StringBuffer.obj
 0002:00006574       ??_7SString@@6B@           1005e574     SString.obj
 0002:000065a8       ??_C@_0CC@HJGKLFDF@StringIndexOutOfBoundsException?3@ 1005e5a8     String.obj
 0002:000065cc       ??_C@_04MLLLIHIP@null?$AA@ 1005e5cc     StringBuffer.obj
 0002:000065d4       ??_C@_0M@KDEACOCM@Exception?3?5?$AA@ 1005e5d4     Exception.obj
 0002:000065e0       ??_C@_0BH@MDDPLPDL@InputSourceException?3?5?$AA@ 1005e5e0     Exception.obj
 0002:000065f8       ??_C@_0BG@CHIPDAFO@OutOfBoundException?3?5?$AA@ 1005e5f8     Exception.obj
 0002:00006610       ??_7HRCParserException@@6B@ 1005e610     HRCParserImpl.obj
 0002:00006610       ??_7OutOfBoundException@@6B@ 1005e610     ChooseTypeMenu.obj
 0002:00006610       ??_7UnsupportedEncodingException@@6B@ 1005e610     DString.obj
 0002:00006610       ??_7FarHrcSettingsException@@6B@ 1005e610     FarHrcSettings.obj
 0002:00006610       ??_7Exception@@6B@         1005e610     Exception.obj
 0002:00006610       ??_7ParseException@@6B@    1005e610     xmldom.obj
 0002:00006610       ??_7ParserFactoryException@@6B@ 1005e610     ParserFactory.obj
 0002:00006610       ??_7InputSourceException@@6B@ 1005e610     TextLinesStore.obj
 0002:00006610       ??_7StringIndexOutOfBoundsException@@6B@ 1005e610     DString.obj
 0002:00006618       ??_C@_0P@IJGGOEPP@JavaLineSource?$AA@ 1005e618     Logging.obj
 0002:00006628       ??_C@_0BB@NAGIDBKD@BaseEditorNative?$AA@ 1005e628     Logging.obj
 0002:0000663c       ??_C@_04BEADLPGM@INFO?$AA@ 1005e63c     Logging.obj
 0002:00006644       ??_C@_05EHILDPJH@TRACE?$AA@ 1005e644     Logging.obj
 0002:0000664c       ??_C@_04JBIELMDE@WARN?$AA@ 1005e64c     Logging.obj
 0002:00006654       ??_C@_05MBDEGLCK@ERROR?$AA@ 1005e654     Logging.obj
 0002:0000665c       ??_C@_05DHIGAFHJ@QUIET?$AA@ 1005e65c     Logging.obj
 0002:00006664       ??_C@_01KMDKNFGN@?1?$AA@   1005e664     FileInputSource.obj
 0002:00006668       ??_C@_0CO@ECBNJMED@openStream?$CI?$CJ?3?5source?5stream?5alre@ 1005e668     FileInputSource.obj
 0002:00006698       ??_C@_0BC@PNMECEJF@Can?8t?5open?5file?5?8?$AA@ 1005e698     FileInputSource.obj
 0002:000066ac       ??_C@_0CP@IPKCKMMM@closeStream?$CI?$CJ?3?5source?5stream?5is?5@ 1005e6ac     FileInputSource.obj
 0002:000066dc       ??_C@_0CD@GIBHKNBA@length?$CI?$CJ?3?5stream?5is?5not?5yet?5open@ 1005e6dc     FileInputSource.obj
 0002:00006700       ??_7InputSource@@6B@       1005e700     FileInputSource.obj
 0002:00006718       ??_7FileInputSource@@6B@   1005e718     FileInputSource.obj
 0002:00006730       ??_C@_1EA@ODIMDLKH@?$AAC?$AAo?$AAl?$AAo?$AAr?$AAe?$AAr?$AA?9?$AAt?$AAa?$AAk?$AAe?$AA5?$AA?5?$AAl?$AAi?$AAb?$AAr?$AAa?$AAr?$AAy?$AA?5?$AAc?$AAo?$AAn?$AAn?$AAe?$AAc?$AAt?$AAo?$AAr?$AA?$AA@ 1005e730     HTTPInputSource.obj
 0002:00006770       ??_C@_0CB@NLGKHBPA@Can?8t?5create?5internet?5connection@ 1005e770     HTTPInputSource.obj
 0002:00006794       ??_C@_0BD@CBLEANBJ@Can?8t?5access?5URL?5?8?$AA@ 1005e794     HTTPInputSource.obj
 0002:000067a8       ??_C@_0BJ@DINGBAGA@Can?8t?5read?5http?5stream?3?5?$AA@ 1005e7a8     HTTPInputSource.obj
 0002:000067c4       ??_7HTTPInputSource@@6B@   1005e7c4     HTTPInputSource.obj
 0002:000067dc       ??_C@_0CH@DLLLHDOD@InputSource?3?3newInstance?3?5path?5i@ 1005e7dc     InputSource.obj
 0002:00006804       ??_C@_07FGAOOBMN@http?3?1?1?$AA@ 1005e804     InputSource.obj
 0002:0000680c       ??_C@_04BLBJJFCP@jar?3?$AA@ 1005e80c     InputSource.obj
 0002:00006814       ??_C@_0BK@MHABJOLD@Unknown?5input?5source?5type?$AA@ 1005e814     InputSource.obj
 0002:00006830       ??_C@_0BI@LODBIIEF@Can?8t?5create?5jar?5source?$AA@ 1005e830     JARInputSource.obj
 0002:00006848       ??_C@_0BF@JAHHNEBF@Bad?5jar?5uri?5format?3?5?$AA@ 1005e848     JARInputSource.obj
 0002:00006860       ??_C@_01DCLJPIOD@?$CB?$AA@ 1005e860     JARInputSource.obj
 0002:00006864       ??_C@_0CE@EDJIMBNH@Can?8t?5locate?5file?5in?5JAR?5content@ 1005e864     JARInputSource.obj
 0002:00006888       ??_C@_0CO@DFLAPANK@Can?8t?5retrieve?5current?5file?5in?5J@ 1005e888     JARInputSource.obj
 0002:000068b8       ??_C@_0CK@JBOBENOM@Can?8t?5open?5current?5file?5in?5JAR?5c@ 1005e8b8     JARInputSource.obj
 0002:000068e4       ??_C@_0CK@DGNHPGFK@Can?8t?5read?5current?5file?5in?5JAR?5c@ 1005e8e4     JARInputSource.obj
 0002:00006910       ??_C@_03IGEOFPCO@?8?5?$CI?$AA@ 1005e910     JARInputSource.obj
 0002:00006914       ??_C@_01PKGAHCOL@?$CJ?$AA@ 1005e914     JARInputSource.obj
 0002:00006918       ??_C@_0BB@GGAABBBB@Bad?5JAR?5file?5CRC?$AA@ 1005e918     JARInputSource.obj
 0002:0000692c       ??_7JARInputSource@@6B@    1005e92c     JARInputSource.obj
 0002:00006944       ??_7SharedInputSource@@6B@ 1005e944     SharedInputSource.obj
 0002:0000695c       ??_C@_0P@KOFPNFCE@Invalid?5stream?$AA@ 1005e95c     StreamWriter.obj
 0002:0000696c       ??_7StreamWriter@@6B@      1005e96c     StreamWriter.obj
 0002:00006984       ??_C@_0BB@OHEMGNIP@ParseException?3?5?$AA@ 1005e984     xmldom.obj
 0002:00006998       ??_C@_0L@INJHKMPP@?5at?5line?3?5?$AA@ 1005e998     xmldom.obj
 0002:000069a4       ??_C@_07COALMINI@?0?5pos?3?5?$AA@ 1005e9a4     xmldom.obj
 0002:000069ac       ??_C@_0BJ@BGLLIKLB@End?5of?5stream?5is?5reached?$AA@ 1005e9ac     xmldom.obj
 0002:000069c8       ??_C@_0BO@FGDBEJIC@Invalid?5document?5root?5content?$AA@ 1005e9c8     xmldom.obj
 0002:000069e8       ??_C@_09DFKKGJPK@?$CDdocument?$AA@ 1005e9e8     xmldom.obj
 0002:000069f4       ??_C@_03IMPCJIIN@?$CDpi?$AA@ 1005e9f4     xmldom.obj
 0002:000069f8       ??_C@_06NCJAKFPF@?$CDcdata?$AA@ 1005e9f8     xmldom.obj
 0002:00006a00       ??_C@_01MNNFJEPP@?$DM?$AA@ 1005ea00     xmldom.obj
 0002:00006a04       ??_C@_04LOOHDCEI@?$CGgt?$DL?$AA@ 1005ea04     xmldom.obj
 0002:00006a0c       ??_C@_06DDLNFFBN@?$CGquot?$DL?$AA@ 1005ea0c     xmldom.obj
 0002:00006a14       ??_C@_01BJJEKLCA@?$CC?$AA@ 1005ea14     xmldom.obj
 0002:00006a18       ??_C@_06PNMEMOHD@?$CGapos?$DL?$AA@ 1005ea18     xmldom.obj
 0002:00006a20       ??_C@_03DCBBJBAA@amp?$AA@  1005ea20     xmldom.obj
 0002:00006a24       ??_C@_02KCAKIFL@lt?$AA@    1005ea24     xmldom.obj
 0002:00006a28       ??_C@_02GHFEHLK@gt?$AA@    1005ea28     xmldom.obj
 0002:00006a2c       ??_C@_04KJFGKBNM@quot?$AA@ 1005ea2c     xmldom.obj
 0002:00006a34       ??_C@_04LBCJFAKL@apos?$AA@ 1005ea34     xmldom.obj
 0002:00006a3c       ??_C@_0P@DAEICJJF@Empty?5document?$AA@ 1005ea3c     xmldom.obj
 0002:00006a4c       ??_C@_0CE@LNAIDPOG@Extra?5markup?5after?5the?5root?5elem@ 1005ea4c     xmldom.obj
 0002:00006a70       ??_C@_05DJDIECHG@?$DM?$DPxml?$AA@ 1005ea70     xmldom.obj
 0002:00006a78       ??_C@_01NEMOKFLO@?$DN?$AA@ 1005ea78     xmldom.obj
 0002:00006a7c       ??_C@_08MLPGAEIK@encoding?$AA@ 1005ea7c     xmldom.obj
 0002:00006a88       ??_C@_0L@FLHGMILF@standalone?$AA@ 1005ea88     xmldom.obj
 0002:00006a94       ??_C@_02GOEMJPDN@?$DP?$DO?$AA@ 1005ea94     xmldom.obj
 0002:00006a98       ??_C@_09PHEMGOEJ@?$DM?$CBDOCTYPE?$AA@ 1005ea98     xmldom.obj
 0002:00006aa4       ??_C@_06FDHFNJBJ@SYSTEM?$AA@ 1005eaa4     xmldom.obj
 0002:00006aac       ??_C@_06EKOLBGFH@PUBLIC?$AA@ 1005eaac     xmldom.obj
 0002:00006ab4       ??_C@_01OHGJGJJP@?$FL?$AA@ 1005eab4     xmldom.obj
 0002:00006ab8       ??_C@_08OMANJFFA@?$DM?$CBENTITY?$AA@ 1005eab8     xmldom.obj
 0002:00006ac4       ??_C@_02HCGKDMEN@?1?$DO?$AA@ 1005eac4     xmldom.obj
 0002:00006ac8       ??_C@_02DPNDACHE@?$DM?1?$AA@ 1005eac8     xmldom.obj
 0002:00006acc       ??_C@_09BLLNCBLF@?$DM?$CB?$FLCDATA?$FL?$AA@ 1005eacc     xmldom.obj
 0002:00006ad8       ??_C@_03MCHNFBAC@?$FN?$FN?$DO?$AA@ 1005ead8     xmldom.obj
 0002:00006adc       ??_C@_0CN@PHKMPDEB@?$CG?$CD?5syntax?5of?5Character?5Reference@ 1005eadc     xmldom.obj
 0002:00006b0c       ??_C@_02ICNHGLNO@?$CG?$CD?$AA@ 1005eb0c     xmldom.obj
 0002:00006b10       ??_C@_01IPJKGB@?$CD?$AA@   1005eb10     xmldom.obj
 0002:00006b14       ??_C@_0CK@ODGPOHFD@Invalid?5Character?5Reference?5nume@ 1005eb14     xmldom.obj
 0002:00006b40       ??_C@_0BL@DLBCBMHD@Undefined?5Entity?5Reference?$AA@ 1005eb40     xmldom.obj
 0002:00006b5c       ??_C@_0BC@CNMDCPHP@Space?5is?5required?$AA@ 1005eb5c     xmldom.obj
 0002:00006b70       ??_C@_0CB@PANLFAMH@Qoute?5character?5is?5required?5here@ 1005eb70     xmldom.obj
 0002:00006b94       ??_C@_0BG@IGAPHLFH@Name?5is?5required?5here?$AA@ 1005eb94     xmldom.obj
 0002:00006bac       ??_C@_0BF@KJBFLKON@NCName?5required?5here?$AA@ 1005ebac     xmldom.obj
 0002:00006bc4       ??_C@_02HFBBBACF@?$DM?$DP?$AA@ 1005ebc4     xmldom.obj
 0002:00006bc8       ??_C@_04FFDNBKGC@?$DM?$CB?9?9?$AA@ 1005ebc8     xmldom.obj
 0002:00006bd0       ??_C@_03PNLDJJMO@?9?9?$DO?$AA@ 1005ebd0     xmldom.obj
 0002:00006bd4       ??_C@_0CA@DBOFLDNH@Invalid?5sequence?4?5waiting?5for?5?8?$AA@ 1005ebd4     xmldom.obj
 0002:00006bf4       ??_C@_0BA@FMELJKHC@?$DM?$DPxml?5version?$DN?$CC?$AA@ 1005ebf4     xmldom.obj
 0002:00006c04       ??_C@_0N@OCOAJNOF@?$CC?5encoding?$DN?$CC?$AA@ 1005ec04     xmldom.obj
 0002:00006c14       ??_C@_04POIOLMGB@?$CC?$DP?$DO?6?$AA@ 1005ec14     xmldom.obj
 0002:00006c1c       ??_C@_02NEKEAGPN@?$DO?6?$AA@ 1005ec1c     xmldom.obj
 0002:00006c20       ??_C@_03KCOJOIAE@?$DP?$DO?6?$AA@ 1005ec20     xmldom.obj
 0002:00006c24       ??_C@_04IGMOLEKE@?9?9?$DO?6?$AA@ 1005ec24     xmldom.obj
 0002:00006c2c       ??_7Node@@6B@              1005ec2c     xmldom.obj
 0002:00006c44       ??_7Document@@6B@          1005ec44     xmldom.obj
 0002:00006c5c       ??_7Element@@6B@           1005ec5c     xmldom.obj
 0002:00006c74       ??_7ProcessingInstruction@@6B@ 1005ec74     xmldom.obj
 0002:00006c8c       ??_7CharacterData@@6B@     1005ec8c     xmldom.obj
 0002:00006ca4       ??_7Comment@@6B@           1005eca4     xmldom.obj
 0002:00006cbc       ??_7Text@@6B@              1005ecbc     xmldom.obj
 0002:00006cd4       ??_7DefaultEntityResolver@@6B@ 1005ecd4     xmldom.obj
 0002:00006cd8       __real@4024000000000000    1005ecd8      CIL library: CIL module
 0002:00006ce0       __real@0000000000000000    1005ece0      CIL library: CIL module
 0002:00006ce8       __real@3fe8000000000000    1005ece8      CIL library: CIL module
 0002:00006cf0       __real@3f847ae147ae147b    1005ecf0      CIL library: CIL module
 0002:00006cf8       __real@3eb0c6f7a0b5ed8d    1005ecf8      CIL library: CIL module
 0002:00006d00       __FPinit                   1005ed00     LIBCMT:_fpinit_.obj
 0002:00006d24       ??_C@_05KLBDPFGC@e?$CL000?$AA@ 1005ed24     LIBCMT:cvt.obj
 0002:0000a670       __infinity                 10062670     LIBCMT:_87tran_.obj
 0002:0000a67a       __minfinity                1006267a     LIBCMT:_87tran_.obj
 0002:0000a684       __logemax                  10062684     LIBCMT:_87tran_.obj
 0002:0000a6aa       __OP_EXPjmptab             100626aa     LIBCMT:_87tran_.obj
 0002:0000a6d0       __indefinite               100626d0     LIBCMT:_87disp_.obj
 0002:0000a6da       __piby2                    100626da     LIBCMT:_87disp_.obj
 0002:0000a708       __DEFAULT_CW_in_mem        10062708     LIBCMT:_common_.obj
 0002:0000a70a       __pi_by_2_to_61            1006270a     LIBCMT:_common_.obj
 0002:0000a748       __real@3fe0000000000000    10062748     LIBCMT:_powhlp_.obj
 0002:0000a750       __pDestructExceptionObject 10062750     LIBCMT:frame.obj
 0002:0000a758       ??_7bad_exception@std@@6B@ 10062758     LIBCMT:frame.obj
 0002:0000a760       ??_C@_0O@DPKOEFFH@bad?5exception?$AA@ 10062760     LIBCMT:frame.obj
 0002:0000a7d8       ??_C@_03IIINPABG@tan?$AA@  100627d8     LIBCMT:_libm_error_.obj
 0002:0000a7dc       ??_C@_03LALBNOCG@cos?$AA@  100627dc     LIBCMT:_libm_error_.obj
 0002:0000a7e0       ??_C@_03BLEJJJBH@sin?$AA@  100627e0     LIBCMT:_libm_error_.obj
 0002:0000a7e4       ??_C@_04EHEDPDJG@modf?$AA@ 100627e4     LIBCMT:_libm_error_.obj
 0002:0000a7ec       ??_C@_05PBJFFIGL@floor?$AA@ 100627ec     LIBCMT:_libm_error_.obj
 0002:0000a7f4       ??_C@_04GFPJNGEK@ceil?$AA@ 100627f4     LIBCMT:_libm_error_.obj
 0002:0000a7fc       ??_C@_04MLLJIGOK@atan?$AA@ 100627fc     LIBCMT:_libm_error_.obj
 0002:0000a804       ??_C@_05EOHGHCHD@exp10?$AA@ 10062804     LIBCMT:_libm_error_.obj
 0002:0000a80c       ??_C@_04PDIFKINK@acos?$AA@ 1006280c     LIBCMT:_libm_error_.obj
 0002:0000a814       ??_C@_04FIHNOPOL@asin?$AA@ 10062814     LIBCMT:_libm_error_.obj
 0002:0000a81c       ??_C@_03MGHMBJCF@log?$AA@  1006281c     LIBCMT:_libm_error_.obj
 0002:0000a820       ??_C@_05HGHHAHAP@log10?$AA@ 10062820     LIBCMT:_libm_error_.obj
 0002:0000a828       ??_C@_03KHJOGHMM@exp?$AA@  10062828     LIBCMT:_libm_error_.obj
 0002:0000a82c       ??_C@_03JGHBODFD@pow?$AA@  1006282c     LIBCMT:_libm_error_.obj
 0002:0000a834       ??_7exception@std@@6B@     10062834     LIBCMT:stdexcpt.obj
 0002:0000a83c       ??_C@_0BC@EOODALEL@Unknown?5exception?$AA@ 1006283c     LIBCMT:stdexcpt.obj
 0002:0000a850       ??_C@_06IMKFLFPG@1?$CDQNAN?$AA@ 10062850     LIBCMT:_x10fout_.obj
 0002:0000a858       ??_C@_05DNEBIAHO@1?$CDINF?$AA@ 10062858     LIBCMT:_x10fout_.obj
 0002:0000a860       ??_C@_05PHHOCPM@1?$CDIND?$AA@ 10062860     LIBCMT:_x10fout_.obj
 0002:0000a868       ??_C@_06PGGFOGJG@1?$CDSNAN?$AA@ 10062868     LIBCMT:_x10fout_.obj
 0002:0000a870       ??_C@_0L@KDOEJCKC@_nextafter?$AA@ 10062870     LIBCMT:_fpexcept_.obj
 0002:0000a87c       ??_C@_05JGDBENOH@_logb?$AA@ 1006287c     LIBCMT:_fpexcept_.obj
 0002:0000a884       ??_C@_03ONILCKOB@_yn?$AA@  10062884     LIBCMT:_fpexcept_.obj
 0002:0000a888       ??_C@_03NAKIGLHK@_y1?$AA@  10062888     LIBCMT:_fpexcept_.obj
 0002:0000a88c       ??_C@_03MJLDFKDL@_y0?$AA@  1006288c     LIBCMT:_fpexcept_.obj
 0002:0000a890       ??_C@_05GKKHEGJL@frexp?$AA@ 10062890     LIBCMT:_fpexcept_.obj
 0002:0000a898       ??_C@_04KEPJIHGP@fmod?$AA@ 10062898     LIBCMT:_fpexcept_.obj
 0002:0000a8a0       ??_C@_06MEIMCGCF@_hypot?$AA@ 100628a0     LIBCMT:_fpexcept_.obj
 0002:0000a8a8       ??_C@_05KBKMEMPO@_cabs?$AA@ 100628a8     LIBCMT:_fpexcept_.obj
 0002:0000a8b0       ??_C@_05CEJMAHNP@ldexp?$AA@ 100628b0     LIBCMT:_fpexcept_.obj
 0002:0000a8b8       ??_C@_04ODHECPBC@fabs?$AA@ 100628b8     LIBCMT:_fpexcept_.obj
 0002:0000a8c0       ??_C@_04EIAKFFMI@sqrt?$AA@ 100628c0     LIBCMT:_fpexcept_.obj
 0002:0000a8c8       ??_C@_05KNGEOGJB@atan2?$AA@ 100628c8     LIBCMT:_fpexcept_.obj
 0002:0000a8d0       ??_C@_04FJHINJAO@tanh?$AA@ 100628d0     LIBCMT:_fpexcept_.obj
 0002:0000a8d8       ??_C@_04HPJJNFIM@cosh?$AA@ 100628d8     LIBCMT:_fpexcept_.obj
 0002:0000a8e0       ??_C@_04COOMCNPB@sinh?$AA@ 100628e0     LIBCMT:_fpexcept_.obj
 0002:0000a8e8       __load_config_used         100628e8     LIBCMT:loadcfg.obj
 0002:0000a930       ??_R4type_info@@6B@        10062930     LIBCMT:typinfo.obj
 0002:0000a944       ??_R3type_info@@8          10062944     LIBCMT:typinfo.obj
 0002:0000a954       ??_R2type_info@@8          10062954     LIBCMT:typinfo.obj
 0002:0000a95c       ??_R1A@?0A@EA@type_info@@8 1006295c     LIBCMT:typinfo.obj
 0002:0000a978       ??_R4bad_exception@std@@6B@ 10062978     LIBCMT:frame.obj
 0002:0000a98c       ??_R3bad_exception@std@@8  1006298c     LIBCMT:frame.obj
 0002:0000a99c       ??_R2bad_exception@std@@8  1006299c     LIBCMT:frame.obj
 0002:0000a9a8       ??_R1A@?0A@EA@bad_exception@std@@8 100629a8     LIBCMT:frame.obj
 0002:0000a9c4       ??_R1A@?0A@EA@exception@std@@8 100629c4     LIBCMT:frame.obj
 0002:0000a9e0       ??_R3exception@std@@8      100629e0     LIBCMT:frame.obj
 0002:0000a9f0       ??_R2exception@std@@8      100629f0     LIBCMT:frame.obj
 0002:0000a9f8       ??_R4exception@std@@6B@    100629f8     LIBCMT:stdexcpt.obj
 0002:0000aa10       ___safe_se_handler_table   10062a10     <linker-defined>
 0002:0000afa8       ___rtc_iaa                 10062fa8     LIBCMT:_initsect_.obj
 0002:0000afac       ___rtc_izz                 10062fac     LIBCMT:_initsect_.obj
 0002:0000afb0       ___rtc_taa                 10062fb0     LIBCMT:_initsect_.obj
 0002:0000afb4       ___rtc_tzz                 10062fb4     LIBCMT:_initsect_.obj
 0002:0000b514       __CT??_R0?AVException@@@8??0Exception@@QAE@ABV0@@Z8 10063514     ChooseTypeMenu.obj
 0002:0000b530       __CT??_R0?AVOutOfBoundException@@@8??0OutOfBoundException@@QAE@ABV0@@Z8 10063530     ChooseTypeMenu.obj
 0002:0000b54c       __CTA2?AVOutOfBoundException@@ 1006354c     ChooseTypeMenu.obj
 0002:0000b558       __TI2?AVOutOfBoundException@@ 10063558     ChooseTypeMenu.obj
 0002:0000b568       __CTA1?AVException@@       10063568     FarEditor.obj
 0002:0000b570       __TI1?AVException@@        10063570     FarEditor.obj
 0002:0000b580       __CT??_R0?AVFarHrcSettingsException@@@8??0FarHrcSettingsException@@QAE@ABV0@@Z8 10063580     FarHrcSettings.obj
 0002:0000b59c       __CTA2?AVFarHrcSettingsException@@ 1006359c     FarHrcSettings.obj
 0002:0000b5a8       __TI2?AVFarHrcSettingsException@@ 100635a8     FarHrcSettings.obj
 0002:0000b5b8       __CT??_R0?AVParserFactoryException@@@8??0ParserFactoryException@@QAE@ABV0@@Z8 100635b8     ParserFactory.obj
 0002:0000b5d4       __CTA2?AVParserFactoryException@@ 100635d4     ParserFactory.obj
 0002:0000b5e0       __TI2?AVParserFactoryException@@ 100635e0     ParserFactory.obj
 0002:0000b5f0       __CT??_R0?AVInputSourceException@@@8??0InputSourceException@@QAE@ABV0@@Z8 100635f0     TextLinesStore.obj
 0002:0000b60c       __CTA2?AVInputSourceException@@ 1006360c     TextLinesStore.obj
 0002:0000b618       __TI2?AVInputSourceException@@ 10063618     TextLinesStore.obj
 0002:0000b628       __CT??_R0?AVHRCParserException@@@8??0HRCParserException@@QAE@ABV0@@Z8 10063628     HRCParserImpl.obj
 0002:0000b644       __CTA2?AVHRCParserException@@ 10063644     HRCParserImpl.obj
 0002:0000b650       __TI2?AVHRCParserException@@ 10063650     HRCParserImpl.obj
 0002:0000b660       __CT??_R0?AVUnsupportedEncodingException@@@8??0UnsupportedEncodingException@@QAE@ABV0@@Z8 10063660     DString.obj
 0002:0000b67c       __CTA2?AVUnsupportedEncodingException@@ 1006367c     DString.obj
 0002:0000b688       __TI2?AVUnsupportedEncodingException@@ 10063688     DString.obj
 0002:0000b698       __CT??_R0?AVStringIndexOutOfBoundsException@@@8??0StringIndexOutOfBoundsException@@QAE@ABV0@@Z8 10063698     DString.obj
 0002:0000b6b4       __CTA2?AVStringIndexOutOfBoundsException@@ 100636b4     DString.obj
 0002:0000b6c0       __TI2?AVStringIndexOutOfBoundsException@@ 100636c0     DString.obj
 0002:0000b6d0       __CT??_R0?AVParseException@@@8??0ParseException@@QAE@ABV0@@Z8 100636d0     xmldom.obj
 0002:0000b6ec       __CTA2?AVParseException@@  100636ec     xmldom.obj
 0002:0000b6f8       __TI2?AVParseException@@   100636f8     xmldom.obj
 0002:00012954       __TI2?AVbad_exception@std@@ 1006a954     LIBCMT:frame.obj
 0002:00012964       __CTA2?AVbad_exception@std@@ 1006a964     LIBCMT:frame.obj
 0002:00012970       __CT??_R0?AVbad_exception@std@@@8??0bad_exception@std@@QAE@ABV01@@Z12 1006a970     LIBCMT:frame.obj
 0002:0001298c       __CT??_R0?AVexception@std@@@8??0exception@std@@QAE@ABV01@@Z12 1006a98c     LIBCMT:frame.obj
 0002:000129c4       __IMPORT_DESCRIPTOR_WININET 1006a9c4     wininet:WININET.dll
 0002:000129d8       __IMPORT_DESCRIPTOR_KERNEL32 1006a9d8     kernel32:KERNEL32.dll
 0002:000129ec       __IMPORT_DESCRIPTOR_USER32 1006a9ec     user32:USER32.dll
 0002:00012a00       __IMPORT_DESCRIPTOR_ADVAPI32 1006aa00     advapi32:ADVAPI32.dll
 0002:00012a14       __NULL_IMPORT_DESCRIPTOR   1006aa14     wininet:WININET.dll
 0003:00000000       ??_R0?AVtype_info@@@8      1006c000     LIBCMT:typinfo.obj
 0003:00000018       __iob                      1006c018     LIBCMT:_file.obj
 0003:00000298       ___abort_behavior          1006c298     LIBCMT:abort.obj
 0003:00000410       ___initialmbcinfo          1006c410     LIBCMT:mbctype.obj
 0003:00000630       __mbctype                  1006c630     LIBCMT:mbctype.obj
 0003:00000738       __mbcasemap                1006c738     LIBCMT:mbctype.obj
 0003:00000838       ___ptmbcinfo               1006c838     LIBCMT:mbctype.obj
 0003:00000930       ___globallocalestatus      1006c930     LIBCMT:glstatus.obj
 0003:00000934       ___clocalestr              1006c934     LIBCMT:nlsdata2.obj
 0003:00000938       ___lc_time_c               1006c938     LIBCMT:nlsdata2.obj
 0003:00000aa0       ___initiallocinfo          1006caa0     LIBCMT:nlsdata2.obj
 0003:00000b78       ___ptlocinfo               1006cb78     LIBCMT:nlsdata2.obj
 0003:00000b7c       ___initiallocalestructinfo 1006cb7c     LIBCMT:nlsdata2.obj
 0003:00000b84       ___flsindex                1006cb84     LIBCMT:tidtable.obj
 0003:00000b88       ___getvalueindex           1006cb88     LIBCMT:tidtable.obj
 0003:00000b90       __lookuptrailbytes         1006cb90     LIBCMT:read.obj
 0003:00000c90       ___badioinfo               1006cc90     LIBCMT:ioinit.obj
 0003:00000cd0       ___security_cookie         1006ccd0     LIBCMT:gs_cookie.obj
 0003:00000cd4       ___security_cookie_complement 1006ccd4     LIBCMT:gs_cookie.obj
 0003:00000e00       ___nullstring              1006ce00     LIBCMT:output.obj
 0003:00000e04       ___wnullstring             1006ce04     LIBCMT:output.obj
 0003:00000e10       __cfltcvt_tab              1006ce10     LIBCMT:cmiscdat.obj
 0003:00000e40       ___lconv_static_decimal    1006ce40     LIBCMT:lconv.obj
 0003:00000e44       ___lconv_static_W_decimal  1006ce44     LIBCMT:lconv.obj
 0003:00000e48       ___lconv_c                 1006ce48     LIBCMT:lconv.obj
 0003:00000e98       ___lconv                   1006ce98     LIBCMT:lconv.obj
 0003:00000e9c       __pctype                   1006ce9c     LIBCMT:ctype.obj
 0003:00000ea0       __pwctype                  1006cea0     LIBCMT:ctype.obj
 0003:00000eb0       __NLG_Destination          1006ceb0     LIBCMT:exsup.obj
 0003:00000ed8       __timezone                 1006ced8     LIBCMT:timeset.obj
 0003:00000edc       __daylight                 1006cedc     LIBCMT:timeset.obj
 0003:00000ee0       __dstbias                  1006cee0     LIBCMT:timeset.obj
 0003:00000f68       __tzname                   1006cf68     LIBCMT:timeset.obj
 0003:00000f70       __lpdays                   1006cf70     LIBCMT:days.obj
 0003:00000fa4       __days                     1006cfa4     LIBCMT:days.obj
 0003:00000fe0       __confh                    1006cfe0     LIBCMT:initcon.obj
 0003:00000ff0       ___mb_cur_max              1006cff0     LIBCMT:nlsdata1.obj
 0003:00000ff4       ___decimal_point           1006cff4     LIBCMT:nlsdata1.obj
 0003:00000ff8       ___decimal_point_length    1006cff8     LIBCMT:nlsdata1.obj
 0003:00001000       ??_R0?AVException@@@8      1006d000     ChooseTypeMenu.obj
 0003:00001018       ??_R0?AVOutOfBoundException@@@8 1006d018     ChooseTypeMenu.obj
 0003:0000103c       ??_R0?AVParserFactoryException@@@8 1006d03c     FarEditorSet.obj
 0003:00001064       ??_R0?AVFarHrcSettingsException@@@8 1006d064     FarHrcSettings.obj
 0003:0000108c       ??_R0?AVInputSourceException@@@8 1006d08c     ParserFactory.obj
 0003:000010b0       ??_R0?AVHRCParserException@@@8 1006d0b0     HRCParserImpl.obj
 0003:00015144       ?schemeNodeTypeNames@@3PAPADA 10081144     HRCParserHelpers.obj
 0003:00015bd8       ??_R0?AVUnsupportedEncodingException@@@8 10081bd8     DString.obj
 0003:00015c04       ??_R0?AVStringIndexOutOfBoundsException@@@8 10081c04     DString.obj
 0003:00015c34       ??_R0?AVParseException@@@8 10081c34     xmldom.obj
 0003:00015c54       __fltused                  10081c54     LIBCMT:_fpinit_.obj
 0003:00015c58       __ldused                   10081c58     LIBCMT:_fpinit_.obj
 0003:00015c60       __half                     10081c60     LIBCMT:_pow_.obj
 0003:00015c70       ??_R0?AVbad_exception@std@@@8 10081c70     LIBCMT:frame.obj
 0003:00015c90       ??_R0?AVexception@std@@@8  10081c90     LIBCMT:frame.obj
 0003:00015cb0       __d_inf                    10081cb0     LIBCMT:_util_.obj
 0003:00015cb8       __d_ind                    10081cb8     LIBCMT:_util_.obj
 0003:00015cc0       __d_max                    10081cc0     LIBCMT:_util_.obj
 0003:00015cc8       __d_min                    10081cc8     LIBCMT:_util_.obj
 0003:00015cd0       __d_mzero                  10081cd0     LIBCMT:_util_.obj
 0003:00015d08       __matherr_flag             10081d08     LIBCMT:_matherr_.obj
 0003:00015e18       __pow10pos                 10081e18     LIBCMT:_constpow_.obj
 0003:00015f78       __pow10neg                 10081f78     LIBCMT:_constpow_.obj
 0003:000160e0       __cflush                   100820e0     LIBCMT:_file.obj
 0003:000160f4       __aenvptr                  100820f4     LIBCMT:dllcrt0.obj
 0003:000160f8       __wenvptr                  100820f8     LIBCMT:dllcrt0.obj
 0003:000160fc       ___error_mode              100820fc     LIBCMT:dllcrt0.obj
 0003:00016100       ___app_type                10082100     LIBCMT:dllcrt0.obj
 0003:00016104       __crtheap                  10082104     LIBCMT:heapinit.obj
 0003:00016108       __maxwait                  10082108     LIBCMT:crtheap.obj
 0003:0001610c       __umaskval                 1008210c     LIBCMT:crt0dat.obj
 0003:00016110       ___argc                    10082110     LIBCMT:crt0dat.obj
 0003:00016114       ___argv                    10082114     LIBCMT:crt0dat.obj
 0003:00016118       ___wargv                   10082118     LIBCMT:crt0dat.obj
 0003:0001611c       __environ                  1008211c     LIBCMT:crt0dat.obj
 0003:00016120       ___initenv                 10082120     LIBCMT:crt0dat.obj
 0003:00016124       __wenviron                 10082124     LIBCMT:crt0dat.obj
 0003:00016128       ___winitenv                10082128     LIBCMT:crt0dat.obj
 0003:0001612c       __pgmptr                   1008212c     LIBCMT:crt0dat.obj
 0003:00016130       __wpgmptr                  10082130     LIBCMT:crt0dat.obj
 0003:00016134       __exitflag                 10082134     LIBCMT:crt0dat.obj
 0003:00016138       __C_Termination_Done       10082138     LIBCMT:crt0dat.obj
 0003:0001613c       __C_Exit_Done              1008213c     LIBCMT:crt0dat.obj
 0003:00016140       ?_pnhHeap@@3P6AHI@ZA       10082140     LIBCMT:handler.obj
 0003:00016144       __newmode                  10082144     LIBCMT:_newmode.obj
 0003:00016150       ___pInvalidArgHandler      10082150     LIBCMT:invarg.obj
 0003:00016780       ___pPurecall               10082780     LIBCMT:inithelp.obj
 0003:00016788       ___mbulinfo                10082788     LIBCMT:mbctype.obj
 0003:00016794       ___mbcodepage              10082794     LIBCMT:mbctype.obj
 0003:00016798       ___ismbcodepage            10082798     LIBCMT:mbctype.obj
 0003:0001679c       ___mblcid                  1008279c     LIBCMT:mbctype.obj
 0003:000167a0       _gpFlsAlloc                100827a0     LIBCMT:tidtable.obj
 0003:000167a4       _gpFlsGetValue             100827a4     LIBCMT:tidtable.obj
 0003:000167a8       _gpFlsSetValue             100827a8     LIBCMT:tidtable.obj
 0003:000167ac       _gpFlsFree                 100827ac     LIBCMT:tidtable.obj
 0003:00016900       __stdbuf                   10082900     LIBCMT:_sftbuf.obj
 0003:00016a40       ?__pInconsistency@@3P6AXXZA 10082a40     LIBCMT:hooks.obj
 0003:00016a5c       ?pArgList@UnDecorator@@0PAVReplicator@@A 10082a5c     LIBCMT:undname.obj
 0003:00016a60       ?pZNameList@UnDecorator@@0PAVReplicator@@A 10082a60     LIBCMT:undname.obj
 0003:00016a64       ?pTemplateArgList@UnDecorator@@0PAVReplicator@@A 10082a64     LIBCMT:undname.obj
 0003:00016a68       ?gName@UnDecorator@@0PBDB  10082a68     LIBCMT:undname.obj
 0003:00016a6c       ?name@UnDecorator@@0PBDB   10082a6c     LIBCMT:undname.obj
 0003:00016a70       ?outputString@UnDecorator@@0PADA 10082a70     LIBCMT:undname.obj
 0003:00016a74       ?maxStringLength@UnDecorator@@0HA 10082a74     LIBCMT:undname.obj
 0003:00016a78       ?disableFlags@UnDecorator@@0KA 10082a78     LIBCMT:undname.obj
 0003:00016a7c       ?m_pGetParameter@UnDecorator@@0P6APADJ@ZA 10082a7c     LIBCMT:undname.obj
 0003:00016a80       ?fExplicitTemplateParams@UnDecorator@@0_NA 10082a80     LIBCMT:undname.obj
 0003:00016a81       ?fGetTemplateArgumentList@UnDecorator@@0_NA 10082a81     LIBCMT:undname.obj
 0003:00016a98       ___lconv_static_null       10082a98     LIBCMT:lconv.obj
 0003:00016a9c       ___lconv_static_W_null     10082a9c     LIBCMT:lconv.obj
 0003:00016dc4       __commode                  10082dc4     LIBCMT:ncommode.obj
 0003:00016e80       ___locale_changed          10082e80     LIBCMT:setlocal.obj
 0003:00016e84       __fmode                    10082e84     LIBCMT:txtmode.obj
 0003:00016e90       ?PluginPath@@3PAVStringBuffer@@A 10082e90     pcolorer.obj
 0003:00016e94       ?eh@@3PAVErrorHandler@@A   10082e94     BaseEditor.obj
 0003:00016e98       ?Info@@3UPluginStartupInfo@@A 10082e98     pcolorer.obj
 0003:00016f20       ?FSF@@3UFarStandardFunctions@@A 10082f20     pcolorer.obj
 0003:000171f4       ?editorSet@@3PAVFarEditorSet@@A 100831f4     pcolorer.obj
 0003:00017204       ?total_req@@3IA            10083204     MemoryChunks.obj
 0003:00017208       ?new_calls@@3HA            10083208     MemoryChunks.obj
 0003:0001720c       ?free_calls@@3HA           1008320c     MemoryChunks.obj
 0003:00017210       ?isHash@SharedInputSource@@0PAV?$Hashtable@PAVSharedInputSource@@@@A 10083210     SharedInputSource.obj
 0003:00017220       ___fastflag                10083220     LIBCMT:_fpinit_.obj
 0003:00017224       __outputformat             10083224     LIBCMT:outputformat.obj
 0003:0001722c       __pmatherr                 1008322c     <common>
 0003:00017230       ___use_sse2_mathfcns       10083230     <common>
 0003:00017234       __debugger_hook_dummy      10083234     <common>
 0003:00017238       __nhandle                  10083238     <common>
 0003:00017240       ___pioinfo                 10083240     <common>
 0003:00017340       ___env_initialized         10083340     <common>
 0003:00017344       ___onexitend               10083344     <common>
 0003:00017348       ___onexitbegin             10083348     <common>
 0003:0001734c       ___mbctype_initialized     1008334c     <common>
 0003:00017350       ___dyn_tls_init_callback   10083350     <common>
 0003:00017354       ___sse2_available          10083354     <common>
 0003:00017358       __acmdln                   10083358     <common>
 0003:0001735c       ___piob                    1008335c     <common>
 0003:00017360       __bufin                    10083360     <common>
 0003:00018360       __nstream                  10084360     <common>

 entry point at        0001:00039414

 Static symbols

 0001:000042d7       __catch$?openMenu@FarEditorSet@@QAEXXZ$0 100052d7 f    CIL library: CIL module
 0001:000044f7       __catch$?viewFile@FarEditorSet@@QAEXABVString@@@Z$0 100054f7 f    CIL library: CIL module
 0001:000046ba       __catch$?viewFile@FarEditorSet@@QAEXABVString@@@Z$2 100056ba f    CIL library: CIL module
 0001:00006887       __catch$?configure@FarEditorSet@@QAEX_N@Z$0 10007887 f    CIL library: CIL module
 0001:00006da0       __catch$?editorEvent@FarEditorSet@@QAEHHPAX@Z$0 10007da0 f    CIL library: CIL module
 0001:00007218       __catch$?TestLoadBase@FarEditorSet@@QAE_NPB_W00H@Z$0 10008218 f    CIL library: CIL module
 0001:00007290       __catch$?TestLoadBase@FarEditorSet@@QAE_NPB_W00H@Z$2 10008290 f    CIL library: CIL module
 0001:000074df       __catch$?TestLoadBase@FarEditorSet@@QAE_NPB_W00H@Z$4 100084df f    CIL library: CIL module
 0001:00007963       __catch$?ReloadBase@FarEditorSet@@AAEXXZ$0 10008963 f    CIL library: CIL module
 0001:000079d3       __catch$?ReloadBase@FarEditorSet@@AAEXXZ$2 100089d3 f    CIL library: CIL module
 0001:000092ef       __catch$?LoadUserHrc@FarEditorSet@@QAEXPBVString@@PAVParserFactory@@@Z$0 1000a2ef f    CIL library: CIL module
 0001:0000d350       _crc32_little              1000e350 f    CIL library: CIL module
 0001:0000db60       _updatewindow              1000eb60 f    CIL library: CIL module
 0001:0000f6a0       _fopen64_file_func         100106a0 f    CIL library: CIL module
 0001:0000f6f0       _fread_file_func           100106f0 f    CIL library: CIL module
 0001:0000f710       _fwrite_file_func          10010710 f    CIL library: CIL module
 0001:0000f730       _ftell64_file_func         10010730 f    CIL library: CIL module
 0001:0000f750       _fseek64_file_func         10010750 f    CIL library: CIL module
 0001:0000f7a0       _fclose_file_func          100107a0 f    CIL library: CIL module
 0001:0000f7c0       _ferror_file_func          100107c0 f    CIL library: CIL module
 0001:0000f7e0       _unz64local_getShort       100107e0 f    CIL library: CIL module
 0001:0000f880       _unz64local_getLong        10010880 f    CIL library: CIL module
 0001:0000f990       _unz64local_getLong64      10010990 f    CIL library: CIL module
 0001:0000fbf0       _strcmpcasenosensitive_internal 10010bf0 f    CIL library: CIL module
 0001:0000fc40       _unz64local_SearchCentralDir 10010c40 f    CIL library: CIL module
 0001:0000fe50       _unz64local_SearchCentralDir64 10010e50 f    CIL library: CIL module
 0001:00010140       _unzOpenInternal           10011140 f    CIL library: CIL module
 0001:00010610       _unz64local_GetCurrentFileInfoInternal 10011610 f    CIL library: CIL module
 0001:00010d60       _unz64local_CheckCurrentFileCoherencyHeader 10011d60 f    CIL library: CIL module
 0001:00011816       __catch$?init@ParserFactory@@AAEXXZ$2 10012816 f    CIL library: CIL module
 0001:00011a6b       __catch$?init@ParserFactory@@AAEXXZ$0 10012a6b f    CIL library: CIL module
 0001:000128be       __catch$?searchPath@ParserFactory@@AAEPAVString@@XZ$0 100138be f    CIL library: CIL module
 0001:00012a5a       __catch$?searchPath@ParserFactory@@AAEPAVString@@XZ$2 10013a5a f    CIL library: CIL module
 0001:00012b12       __catch$?searchPath@ParserFactory@@AAEPAVString@@XZ$4 10013b12 f    CIL library: CIL module
 0001:000138f2       __catch$?getHRCParser@ParserFactory@@QAEPAVHRCParser@@XZ$0 100148f2 f    CIL library: CIL module
 0001:000139c8       __catch$?getHRCParser@ParserFactory@@QAEPAVHRCParser@@XZ$2 100149c8 f    CIL library: CIL module
 0001:00013e55       __catch$?createStyledMapper@ParserFactory@@QAEPAVStyledHRDMapper@@PBVString@@0@Z$0 10014e55 f    CIL library: CIL module
 0001:000155af       __catch$?loadFile@TextLinesStore@@QAEXPBVString@@0_N@Z$0 100165af f    CIL library: CIL module
 0001:0001bfc0       __catch$?loadSource@HRCParserImpl@@UAEXPAVInputSource@@@Z$0 1001cfc0 f    CIL library: CIL module
 0001:0001c1a9       __catch$?loadFileType@HRCParserImpl@@IAEXPAVFileType@@@Z$0 1001d1a9 f    CIL library: CIL module
 0001:0001c216       __catch$?loadFileType@HRCParserImpl@@IAEXPAVFileType@@@Z$1 1001d216 f    CIL library: CIL module
 0001:0001c2ad       __catch$?loadFileType@HRCParserImpl@@IAEXPAVFileType@@@Z$2 1001d2ad f    CIL library: CIL module
 0001:0001c344       __catch$?loadFileType@HRCParserImpl@@IAEXPAVFileType@@@Z$3 1001d344 f    CIL library: CIL module
 0001:0002cdc6       __catch$?parse@DocumentBuilder@@QAEPAVDocument@@PAVInputSource@@PBD@Z$0 1002ddc6 f    CIL library: CIL module
 0001:0002d465       __catch$?parse@DocumentBuilder@@QAEPAVDocument@@PBEHPBD@Z$0 1002e465 f    CIL library: CIL module
 0001:00031ad0       _segment_holding           10032ad0 f    CIL library: CIL module
 0001:00031af0       _init_mparams              10032af0 f    CIL library: CIL module
 0001:00031b80       _mmap_alloc                10032b80 f    CIL library: CIL module
 0001:00031c10       _init_top                  10032c10 f    CIL library: CIL module
 0001:00031c40       _prepend_alloc             10032c40 f    CIL library: CIL module
 0001:00032010       _add_segment               10033010 f    CIL library: CIL module
 0001:000322a0       _sys_alloc                 100332a0 f    CIL library: CIL module
 0001:000324f0       _release_unused_segments   100334f0 f    CIL library: CIL module
 0001:00032810       _sys_trim                  10033810 f    CIL library: CIL module
 0001:00032950       _tmalloc_large             10033950 f    CIL library: CIL module
 0001:00032d80       _tmalloc_small             10033d80 f    CIL library: CIL module
 0001:00036a3b       __onexit_nolock            10037a3b f   LIBCMT:onexit.obj
 0001:00037ca9       _IsRootUNCName             10038ca9 f   LIBCMT:stati32.obj
 0001:00037d23       __fullpath_helper          10038d23 f   LIBCMT:stati32.obj
 0001:000387d6       _flsall                    100397d6 f   LIBCMT:fflush.obj
 0001:00038910       _shortsort                 10039910 f   LIBCMT:qsort.obj
 0001:0003931e       ___DllMainCRTStartup       1003a31e f   LIBCMT:dllcrt0.obj
 0001:000398ae       _doexit                    1003a8ae f   LIBCMT:crt0dat.obj
 0001:0003a124       _write_char                1003b124 f   LIBCMT:woutput.obj
 0001:0003a153       _write_string              1003b153 f   LIBCMT:woutput.obj
 0001:0003af9f       ?CPtoLCID@@YAHH@Z          1003bf9f f   LIBCMT:mbctype.obj
 0001:0003afce       ?setSBCS@@YAXPAUthreadmbcinfostruct@@@Z 1003bfce f   LIBCMT:mbctype.obj
 0001:0003b032       ?setSBUpLow@@YAXPAUthreadmbcinfostruct@@@Z 1003c032 f   LIBCMT:mbctype.obj
 0001:0003b266       ?getSystemCP@@YAHH@Z       1003c266 f   LIBCMT:mbctype.obj
 0001:0003ce70       __unwind_handler4          1003de70 f   LIBCMT:exsup4.obj
 0001:0003e47f       __tsopen_nolock            1003f47f f   LIBCMT:open.obj
 0001:0003f161       _write_char                10040161 f   LIBCMT:output.obj
 0001:0003f194       _write_string              10040194 f   LIBCMT:output.obj
 0001:00040447       __tsopen_nolock            10041447 f   LIBCMT:wopen.obj
 0001:00041085       _siglookup                 10042085 f   LIBCMT:winsig.obj
 0001:00041348       _parse_cmdline             10042348 f   LIBCMT:stdargv.obj
 0001:00042347       ?__crtLCMapStringA_stat@@YAHPAUlocaleinfo_struct@@KKPBDHPADHHH@Z 10043347 f   LIBCMT:a_map.obj
 0001:00042574       ?__crtGetStringTypeA_stat@@YAHPAUlocaleinfo_struct@@KPBDHPAGHHH@Z 10043574 f   LIBCMT:a_str.obj
 0001:00043030       __unwind_handler           10044030 f   LIBCMT:exsup.obj
 0001:00043243       ?__crtCompareStringA_stat@@YAHPAUlocaleinfo_struct@@KKPBDH1HH@Z 10044243 f   LIBCMT:a_cmp.obj
 0001:000435dd       _findenv                   100445dd f   LIBCMT:setenv.obj
 0001:0004362f       _copy_environ              1004462f f   LIBCMT:setenv.obj
 0001:00044005       __tzset_nolock             10045005 f   LIBCMT:tzset.obj
 0001:00044318       _cvtdate                   10045318 f   LIBCMT:tzset.obj
 0001:0004450f       __isindst_nolock           1004550f f   LIBCMT:tzset.obj
 0001:00044db2       ?strtoxl@@YAKPAUlocaleinfo_struct@@PBDPAPBDHH@Z 10045db2 f   LIBCMT:strtol.obj
 0001:00045008       ?x_ismbbtype_l@@YAHPAUlocaleinfo_struct@@IHH@Z 10046008 f   LIBCMT:ismbbyte.obj
 0001:00045dad       ?CatchGuardHandler@@YA?AW4_EXCEPTION_DISPOSITION@@PAUEHExceptionRecord@@PAUCatchGuardRN@@PAX2@Z 10046dad f   LIBCMT:_trnsctrl_.obj
 0001:00045eb7       ?TranslatorGuardHandler@@YA?AW4_EXCEPTION_DISPOSITION@@PAUEHExceptionRecord@@PAUTranslatorGuardRN@@PAX2@Z 10046eb7 f   LIBCMT:_trnsctrl_.obj
 0001:00046335       __shift                    10047335 f   LIBCMT:cvt.obj
 0001:0004637a       __cftoe2_l                 1004737a f   LIBCMT:cvt.obj
 0001:00046938       __cftof2_l                 10047938 f   LIBCMT:cvt.obj
 0001:0004813d       ?ExFilterRethrow@@YAHPAU_EXCEPTION_POINTERS@@@Z 1004913d f   LIBCMT:frame.obj
 0001:00048200       ?IsInExceptionSpec@@YAEPAUEHExceptionRecord@@PBU_s_ESTypeList@@@Z 10049200 f   LIBCMT:frame.obj
 0001:00048276       ?CallUnexpected@@YAXPBU_s_ESTypeList@@@Z 10049276 f   LIBCMT:frame.obj
 0001:000482a7       __catch$?CallUnexpected@@YAXPBU_s_ESTypeList@@@Z$0 100492a7 f   LIBCMT:frame.obj
 0001:000482bf       ?CallCatchBlock@@YAPAXPAUEHExceptionRecord@@PAUEHRegistrationNode@@PAU_CONTEXT@@PBU_s_FuncInfo@@PAXHK@Z 100492bf f   LIBCMT:frame.obj
 0001:0004866c       ?CatchIt@@YAXPAUEHExceptionRecord@@PAUEHRegistrationNode@@PAU_CONTEXT@@PAXPBU_s_FuncInfo@@PBU_s_HandlerType@@PBU_s_CatchableType@@PBU_s_TryBlockMapEntry@@H1E@Z 1004966c f   LIBCMT:frame.obj
 0001:000486da       ?FindHandlerForForeignException@@YAXPAUEHExceptionRecord@@PAUEHRegistrationNode@@PAU_CONTEXT@@PAXPBU_s_FuncInfo@@HH1@Z 100496da f   LIBCMT:frame.obj
 0001:000487e1       ?FindHandler@@YAXPAUEHExceptionRecord@@PAUEHRegistrationNode@@PAU_CONTEXT@@PAXPBU_s_FuncInfo@@EH1@Z 100497e1 f   LIBCMT:frame.obj
 0001:0004b3bc       __hw_cw                    1004c3bc f   LIBCMT:_ieee87_.obj
 0001:0004b44a       ___hw_cw_sse2              1004c44a f   LIBCMT:_ieee87_.obj
 0001:0004c010       __unwindfunclet$??0SString@@QAE@ABVString@@HH@Z$0 1004d010 f    CIL library: CIL module
 0001:0004c010       __unwindfunclet$??1DString@@UAE@XZ$0 1004d010 f    CIL library: CIL module
 0001:0004c010       __unwindfunclet$??0SString@@QAE@PBVString@@HH@Z$0 1004d010 f    CIL library: CIL module
 0001:0004c010       __unwindfunclet$??1SString@@UAE@XZ$0 1004d010 f    CIL library: CIL module
 0001:0004c010       __unwindfunclet$??0StringBuffer@@QAE@PBVString@@HH@Z$1 1004d010 f    CIL library: CIL module
 0001:0004c010       __unwindfunclet$??1StringBuffer@@UAE@XZ$1 1004d010 f    CIL library: CIL module
 0001:0004c018       __ehhandler$??1SString@@UAE@XZ 1004d018 f    CIL library: CIL module
 0001:0004c018       __ehhandler$??0SString@@QAE@ABVString@@HH@Z 1004d018 f    CIL library: CIL module
 0001:0004c018       __ehhandler$??1DString@@UAE@XZ 1004d018 f    CIL library: CIL module
 0001:0004c018       __ehhandler$??0SString@@QAE@PBVString@@HH@Z 1004d018 f    CIL library: CIL module
 0001:0004c018       __ehhandler$??0StringBuffer@@QAE@PBVString@@HH@Z 1004d018 f    CIL library: CIL module
 0001:0004c018       __ehhandler$??1StringBuffer@@UAE@XZ 1004d018 f    CIL library: CIL module
 0001:0004c030       __unwindfunclet$??0DString@@QAE@PBDHHH@Z$0 1004d030 f    CIL library: CIL module
 0001:0004c038       __unwindfunclet$??0DString@@QAE@PBDHHH@Z$1 1004d038 f    CIL library: CIL module
 0001:0004c042       __ehhandler$??0DString@@QAE@PBDHHH@Z 1004d042 f    CIL library: CIL module
 0001:0004c050       __unwindfunclet$??1BaseEditor@@UAE@XZ$0 1004d050 f    CIL library: CIL module
 0001:0004c058       __unwindfunclet$??1BaseEditor@@UAE@XZ$1 1004d058 f    CIL library: CIL module
 0001:0004c063       __unwindfunclet$??1BaseEditor@@UAE@XZ$2 1004d063 f    CIL library: CIL module
 0001:0004c06e       __ehhandler$??1BaseEditor@@UAE@XZ 1004d06e f    CIL library: CIL module
 0001:0004c080       __unwindfunclet$?clone@StyledRegion@@UBEPAVRegionDefine@@XZ$0 1004d080 f    CIL library: CIL module
 0001:0004c08b       __unwindfunclet$?clone@StyledRegion@@UBEPAVRegionDefine@@XZ$1 1004d08b f    CIL library: CIL module
 0001:0004c093       __ehhandler$?clone@StyledRegion@@UBEPAVRegionDefine@@XZ 1004d093 f    CIL library: CIL module
 0001:0004c0a0       __unwindfunclet$??1RegionMapperImpl@@UAE@XZ$0 1004d0a0 f    CIL library: CIL module
 0001:0004c0a0       __unwindfunclet$??0StyledHRDMapper@@QAE@XZ$1 1004d0a0 f    CIL library: CIL module
 0001:0004c0a8       __unwindfunclet$??0StyledHRDMapper@@QAE@XZ$2 1004d0a8 f    CIL library: CIL module
 0001:0004c0a8       __unwindfunclet$??1RegionMapperImpl@@UAE@XZ$1 1004d0a8 f    CIL library: CIL module
 0001:0004c0b3       __ehhandler$??0StyledHRDMapper@@QAE@XZ 1004d0b3 f    CIL library: CIL module
 0001:0004c0b3       __ehhandler$??1RegionMapperImpl@@UAE@XZ 1004d0b3 f    CIL library: CIL module
 0001:0004c0c0       __unwindfunclet$??0LineRegionsSupport@@QAE@XZ$0 1004d0c0 f    CIL library: CIL module
 0001:0004c0c8       __unwindfunclet$??0LineRegionsSupport@@QAE@XZ$1 1004d0c8 f    CIL library: CIL module
 0001:0004c0d3       __ehhandler$??0LineRegionsSupport@@QAE@XZ 1004d0d3 f    CIL library: CIL module
 0001:0004c0e0       __unwindfunclet$??_GFileErrorHandler@@UAEPAXI@Z$0 1004d0e0 f    CIL library: CIL module
 0001:0004c0e8       __ehhandler$??_GFileErrorHandler@@UAEPAXI@Z 1004d0e8 f    CIL library: CIL module
 0001:0004c100       __unwindfunclet$??1ErrorHandlerWriter@@UAE@XZ$0 1004d100 f    CIL library: CIL module
 0001:0004c108       __unwindfunclet$??1ErrorHandlerWriter@@UAE@XZ$3 1004d108 f    CIL library: CIL module
 0001:0004c110       __unwindfunclet$??1ErrorHandlerWriter@@UAE@XZ$1 1004d110 f    CIL library: CIL module
 0001:0004c11a       __unwindfunclet$??1ErrorHandlerWriter@@UAE@XZ$8 1004d11a f    CIL library: CIL module
 0001:0004c122       __unwindfunclet$??1ErrorHandlerWriter@@UAE@XZ$9 1004d122 f    CIL library: CIL module
 0001:0004c12a       __unwindfunclet$??1ErrorHandlerWriter@@UAE@XZ$2 1004d12a f    CIL library: CIL module
 0001:0004c134       __unwindfunclet$??1ErrorHandlerWriter@@UAE@XZ$11 1004d134 f    CIL library: CIL module
 0001:0004c13c       __ehhandler$??1ErrorHandlerWriter@@UAE@XZ 1004d13c f    CIL library: CIL module
 0001:0004c150       __unwindfunclet$??0ErrorHandlerWriter@@QAE@PAVWriter@@@Z$0 1004d150 f    CIL library: CIL module
 0001:0004c158       __unwindfunclet$??0ErrorHandlerWriter@@QAE@PAVWriter@@@Z$3 1004d158 f    CIL library: CIL module
 0001:0004c160       __unwindfunclet$??0ErrorHandlerWriter@@QAE@PAVWriter@@@Z$1 1004d160 f    CIL library: CIL module
 0001:0004c16a       __unwindfunclet$??0ErrorHandlerWriter@@QAE@PAVWriter@@@Z$8 1004d16a f    CIL library: CIL module
 0001:0004c172       __unwindfunclet$??0ErrorHandlerWriter@@QAE@PAVWriter@@@Z$9 1004d172 f    CIL library: CIL module
 0001:0004c17a       __unwindfunclet$??0ErrorHandlerWriter@@QAE@PAVWriter@@@Z$2 1004d17a f    CIL library: CIL module
 0001:0004c184       __unwindfunclet$??0ErrorHandlerWriter@@QAE@PAVWriter@@@Z$14 1004d184 f    CIL library: CIL module
 0001:0004c18c       __ehhandler$??0ErrorHandlerWriter@@QAE@PAVWriter@@@Z 1004d18c f    CIL library: CIL module
 0001:0004c1a0       __unwindfunclet$??1DocumentBuilder@@QAE@XZ$0 1004d1a0 f    CIL library: CIL module
 0001:0004c1ab       __unwindfunclet$??1DocumentBuilder@@QAE@XZ$1 1004d1ab f    CIL library: CIL module
 0001:0004c1b6       __unwindfunclet$??1DocumentBuilder@@QAE@XZ$3 1004d1b6 f    CIL library: CIL module
 0001:0004c1be       __ehhandler$??1DocumentBuilder@@QAE@XZ 1004d1be f    CIL library: CIL module
 0001:0004c1d0       __unwindfunclet$?serialize@Comment@@UAEXPAVWriter@@FF@Z$3 1004d1d0 f    CIL library: CIL module
 0001:0004c1d8       __unwindfunclet$?serialize@Comment@@UAEXPAVWriter@@FF@Z$0 1004d1d8 f    CIL library: CIL module
 0001:0004c1e2       __unwindfunclet$?serialize@Comment@@UAEXPAVWriter@@FF@Z$5 1004d1e2 f    CIL library: CIL module
 0001:0004c1ea       __unwindfunclet$?serialize@Comment@@UAEXPAVWriter@@FF@Z$1 1004d1ea f    CIL library: CIL module
 0001:0004c1f4       __unwindfunclet$?serialize@Comment@@UAEXPAVWriter@@FF@Z$7 1004d1f4 f    CIL library: CIL module
 0001:0004c1fc       __unwindfunclet$?serialize@Comment@@UAEXPAVWriter@@FF@Z$8 1004d1fc f    CIL library: CIL module
 0001:0004c204       __unwindfunclet$?serialize@Comment@@UAEXPAVWriter@@FF@Z$2 1004d204 f    CIL library: CIL module
 0001:0004c20e       __unwindfunclet$?serialize@Comment@@UAEXPAVWriter@@FF@Z$10 1004d20e f    CIL library: CIL module
 0001:0004c216       __unwindfunclet$?serialize@Comment@@UAEXPAVWriter@@FF@Z$11 1004d216 f    CIL library: CIL module
 0001:0004c21e       __ehhandler$?serialize@Comment@@UAEXPAVWriter@@FF@Z 1004d21e f    CIL library: CIL module
 0001:0004c230       __unwindfunclet$?serialize@ProcessingInstruction@@UAEXPAVWriter@@FF@Z$3 1004d230 f    CIL library: CIL module
 0001:0004c230       __unwindfunclet$?serialize@Document@@UAEXPAVWriter@@FF@Z$3 1004d230 f    CIL library: CIL module
 0001:0004c238       __unwindfunclet$?serialize@Document@@UAEXPAVWriter@@FF@Z$0 1004d238 f    CIL library: CIL module
 0001:0004c238       __unwindfunclet$?serialize@ProcessingInstruction@@UAEXPAVWriter@@FF@Z$0 1004d238 f    CIL library: CIL module
 0001:0004c242       __unwindfunclet$?serialize@Document@@UAEXPAVWriter@@FF@Z$5 1004d242 f    CIL library: CIL module
 0001:0004c242       __unwindfunclet$?serialize@ProcessingInstruction@@UAEXPAVWriter@@FF@Z$5 1004d242 f    CIL library: CIL module
 0001:0004c24a       __unwindfunclet$?serialize@Document@@UAEXPAVWriter@@FF@Z$6 1004d24a f    CIL library: CIL module
 0001:0004c24a       __unwindfunclet$?serialize@ProcessingInstruction@@UAEXPAVWriter@@FF@Z$6 1004d24a f    CIL library: CIL module
 0001:0004c252       __unwindfunclet$?serialize@ProcessingInstruction@@UAEXPAVWriter@@FF@Z$1 1004d252 f    CIL library: CIL module
 0001:0004c252       __unwindfunclet$?serialize@Document@@UAEXPAVWriter@@FF@Z$1 1004d252 f    CIL library: CIL module
 0001:0004c25c       __unwindfunclet$?serialize@ProcessingInstruction@@UAEXPAVWriter@@FF@Z$8 1004d25c f    CIL library: CIL module
 0001:0004c25c       __unwindfunclet$?serialize@Document@@UAEXPAVWriter@@FF@Z$8 1004d25c f    CIL library: CIL module
 0001:0004c264       __unwindfunclet$?serialize@ProcessingInstruction@@UAEXPAVWriter@@FF@Z$9 1004d264 f    CIL library: CIL module
 0001:0004c264       __unwindfunclet$?serialize@Document@@UAEXPAVWriter@@FF@Z$9 1004d264 f    CIL library: CIL module
 0001:0004c26c       __unwindfunclet$?serialize@ProcessingInstruction@@UAEXPAVWriter@@FF@Z$2 1004d26c f    CIL library: CIL module
 0001:0004c26c       __unwindfunclet$?serialize@Document@@UAEXPAVWriter@@FF@Z$2 1004d26c f    CIL library: CIL module
 0001:0004c276       __unwindfunclet$?serialize@ProcessingInstruction@@UAEXPAVWriter@@FF@Z$11 1004d276 f    CIL library: CIL module
 0001:0004c276       __unwindfunclet$?serialize@Document@@UAEXPAVWriter@@FF@Z$11 1004d276 f    CIL library: CIL module
 0001:0004c27e       __ehhandler$?serialize@ProcessingInstruction@@UAEXPAVWriter@@FF@Z 1004d27e f    CIL library: CIL module
 0001:0004c27e       __ehhandler$?serialize@Document@@UAEXPAVWriter@@FF@Z 1004d27e f    CIL library: CIL module
 0001:0004c290       __unwindfunclet$??_GComment@@UAEPAXI@Z$1 1004d290 f    CIL library: CIL module
 0001:0004c290       __unwindfunclet$??_GProcessingInstruction@@MAEPAXI@Z$0 1004d290 f    CIL library: CIL module
 0001:0004c290       __unwindfunclet$??_GText@@UAEPAXI@Z$1 1004d290 f    CIL library: CIL module
 0001:0004c290       __unwindfunclet$??_GCharacterData@@MAEPAXI@Z$0 1004d290 f    CIL library: CIL module
 0001:0004c298       __ehhandler$??_GComment@@UAEPAXI@Z 1004d298 f    CIL library: CIL module
 0001:0004c298       __ehhandler$??_GProcessingInstruction@@MAEPAXI@Z 1004d298 f    CIL library: CIL module
 0001:0004c298       __ehhandler$??_GText@@UAEPAXI@Z 1004d298 f    CIL library: CIL module
 0001:0004c298       __ehhandler$??_GCharacterData@@MAEPAXI@Z 1004d298 f    CIL library: CIL module
 0001:0004c2b0       __unwindfunclet$??0Text@@IAE@PBVString@@@Z$1 1004d2b0 f    CIL library: CIL module
 0001:0004c2b0       __unwindfunclet$??0ProcessingInstruction@@IAE@PBVString@@0@Z$0 1004d2b0 f    CIL library: CIL module
 0001:0004c2bb       __unwindfunclet$??0ProcessingInstruction@@IAE@PBVString@@0@Z$2 1004d2bb f    CIL library: CIL module
 0001:0004c2bb       __unwindfunclet$??0Text@@IAE@PBVString@@@Z$3 1004d2bb f    CIL library: CIL module
 0001:0004c2c3       __ehhandler$??0Text@@IAE@PBVString@@@Z 1004d2c3 f    CIL library: CIL module
 0001:0004c2c3       __ehhandler$??0ProcessingInstruction@@IAE@PBVString@@0@Z 1004d2c3 f    CIL library: CIL module
 0001:0004c2d0       __unwindfunclet$??0Element@@IAE@PBVString@@@Z$0 1004d2d0 f    CIL library: CIL module
 0001:0004c2d8       __unwindfunclet$??0Element@@IAE@PBVString@@@Z$1 1004d2d8 f    CIL library: CIL module
 0001:0004c2e3       __ehhandler$??0Element@@IAE@PBVString@@@Z 1004d2e3 f    CIL library: CIL module
 0001:0004c2f0       __unwindfunclet$??_GFileInputSource@@UAEPAXI@Z$0 1004d2f0 f    CIL library: CIL module
 0001:0004c2f0       __unwindfunclet$??_GJARInputSource@@UAEPAXI@Z$0 1004d2f0 f    CIL library: CIL module
 0001:0004c2f0       __unwindfunclet$??_GHTTPInputSource@@UAEPAXI@Z$0 1004d2f0 f    CIL library: CIL module
 0001:0004c2f0       __unwindfunclet$??_GSharedInputSource@@EAEPAXI@Z$0 1004d2f0 f    CIL library: CIL module
 0001:0004c2f8       __ehhandler$??_GFileInputSource@@UAEPAXI@Z 1004d2f8 f    CIL library: CIL module
 0001:0004c2f8       __ehhandler$??_GJARInputSource@@UAEPAXI@Z 1004d2f8 f    CIL library: CIL module
 0001:0004c2f8       __ehhandler$??_GHTTPInputSource@@UAEPAXI@Z 1004d2f8 f    CIL library: CIL module
 0001:0004c2f8       __ehhandler$??_GSharedInputSource@@EAEPAXI@Z 1004d2f8 f    CIL library: CIL module
 0001:0004c310       __unwindfunclet$??_GDString@@UAEPAXI@Z$0 1004d310 f    CIL library: CIL module
 0001:0004c310       __unwindfunclet$??_GStringBuffer@@UAEPAXI@Z$1 1004d310 f    CIL library: CIL module
 0001:0004c310       __unwindfunclet$??_GSString@@UAEPAXI@Z$0 1004d310 f    CIL library: CIL module
 0001:0004c318       __ehhandler$??_GSString@@UAEPAXI@Z 1004d318 f    CIL library: CIL module
 0001:0004c318       __ehhandler$??_GDString@@UAEPAXI@Z 1004d318 f    CIL library: CIL module
 0001:0004c318       __ehhandler$??_GStringBuffer@@UAEPAXI@Z 1004d318 f    CIL library: CIL module
 0001:0004c330       __unwindfunclet$??0StringBuffer@@QAE@XZ$0 1004d330 f    CIL library: CIL module
 0001:0004c330       __unwindfunclet$??0StringBuffer@@QAE@H@Z$0 1004d330 f    CIL library: CIL module
 0001:0004c33a       __ehhandler$??0StringBuffer@@QAE@XZ 1004d33a f    CIL library: CIL module
 0001:0004c33a       __ehhandler$??0StringBuffer@@QAE@H@Z 1004d33a f    CIL library: CIL module
 0001:0004c350       __unwindfunclet$??HStringBuffer@@QAEAAV0@PBD@Z$1 1004d350 f    CIL library: CIL module
 0001:0004c350       __unwindfunclet$?append@StringBuffer@@QAEAAV1@PBVString@@@Z$1 1004d350 f    CIL library: CIL module
 0001:0004c350       __unwindfunclet$??8String@@QBE_NPBD@Z$1 1004d350 f    CIL library: CIL module
 0001:0004c350       __unwindfunclet$??9String@@QBE_NPBD@Z$1 1004d350 f    CIL library: CIL module
 0001:0004c358       __unwindfunclet$??HStringBuffer@@QAEAAV0@PBD@Z$0 1004d358 f    CIL library: CIL module
 0001:0004c358       __unwindfunclet$??8String@@QBE_NPBD@Z$0 1004d358 f    CIL library: CIL module
 0001:0004c358       __unwindfunclet$?append@StringBuffer@@QAEAAV1@PBVString@@@Z$0 1004d358 f    CIL library: CIL module
 0001:0004c358       __unwindfunclet$??9String@@QBE_NPBD@Z$0 1004d358 f    CIL library: CIL module
 0001:0004c362       __unwindfunclet$??9String@@QBE_NPBD@Z$6 1004d362 f    CIL library: CIL module
 0001:0004c362       __unwindfunclet$??8String@@QBE_NPBD@Z$6 1004d362 f    CIL library: CIL module
 0001:0004c362       __unwindfunclet$?append@StringBuffer@@QAEAAV1@PBVString@@@Z$6 1004d362 f    CIL library: CIL module
 0001:0004c362       __unwindfunclet$??HStringBuffer@@QAEAAV0@PBD@Z$6 1004d362 f    CIL library: CIL module
 0001:0004c36a       __ehhandler$?append@StringBuffer@@QAEAAV1@PBVString@@@Z 1004d36a f    CIL library: CIL module
 0001:0004c36a       __ehhandler$??8String@@QBE_NPBD@Z 1004d36a f    CIL library: CIL module
 0001:0004c36a       __ehhandler$??HStringBuffer@@QAEAAV0@PBD@Z 1004d36a f    CIL library: CIL module
 0001:0004c36a       __ehhandler$??9String@@QBE_NPBD@Z 1004d36a f    CIL library: CIL module
 0001:0004c380       __unwindfunclet$?cast@StyledRegion@@SAPBV1@PBVRegionDefine@@@Z$1 1004d380 f    CIL library: CIL module
 0001:0004c380       __unwindfunclet$?construct@SString@@IAEXPBVString@@HH@Z$1 1004d380 f    CIL library: CIL module
 0001:0004c380       __unwindfunclet$?lastElement@?$Vector@PAVLineRegion@@@@QBEPAVLineRegion@@XZ$1 1004d380 f    CIL library: CIL module
 0001:0004c380       __unwindfunclet$?assignParent@StyledRegion@@UAEXPBVRegionDefine@@@Z$1 1004d380 f    CIL library: CIL module
 0001:0004c380       __unwindfunclet$?appendChild@Document@@UAEPAVNode@@PAV2@@Z$1 1004d380 f    CIL library: CIL module
 0001:0004c380       __unwindfunclet$?getNCRegion@HRCParserImpl@@IAEPBVRegion@@PBVString@@_N@Z$1 1004d380 f    CIL library: CIL module
 0001:0004c380       __unwindfunclet$?length@HTTPInputSource@@UBEHXZ$1 1004d380 f    CIL library: CIL module
 0001:0004c380       __unwindfunclet$?init@StreamWriter@@IAEXPAU_iobuf@@H_N@Z$1 1004d380 f    CIL library: CIL module
 0001:0004c380       __unwindfunclet$?setValues@StyledRegion@@UAEXPBVRegionDefine@@@Z$1 1004d380 f    CIL library: CIL module
 0001:0004c380       __unwindfunclet$?length@JARInputSource@@UBEHXZ$1 1004d380 f    CIL library: CIL module
 0001:0004c380       __unwindfunclet$?length@FileInputSource@@UBEHXZ$1 1004d380 f    CIL library: CIL module
 0001:0004c388       __unwindfunclet$?setValues@StyledRegion@@UAEXPBVRegionDefine@@@Z$0 1004d388 f    CIL library: CIL module
 0001:0004c388       __unwindfunclet$?length@HTTPInputSource@@UBEHXZ$0 1004d388 f    CIL library: CIL module
 0001:0004c388       __unwindfunclet$?init@StreamWriter@@IAEXPAU_iobuf@@H_N@Z$0 1004d388 f    CIL library: CIL module
 0001:0004c388       __unwindfunclet$?getNCRegion@HRCParserImpl@@IAEPBVRegion@@PBVString@@_N@Z$0 1004d388 f    CIL library: CIL module
 0001:0004c388       __unwindfunclet$?length@FileInputSource@@UBEHXZ$0 1004d388 f    CIL library: CIL module
 0001:0004c388       __unwindfunclet$?appendChild@Document@@UAEPAVNode@@PAV2@@Z$0 1004d388 f    CIL library: CIL module
 0001:0004c388       __unwindfunclet$?cast@StyledRegion@@SAPBV1@PBVRegionDefine@@@Z$0 1004d388 f    CIL library: CIL module
 0001:0004c388       __unwindfunclet$?construct@SString@@IAEXPBVString@@HH@Z$0 1004d388 f    CIL library: CIL module
 0001:0004c388       __unwindfunclet$?assignParent@StyledRegion@@UAEXPBVRegionDefine@@@Z$0 1004d388 f    CIL library: CIL module
 0001:0004c388       __unwindfunclet$?lastElement@?$Vector@PAVLineRegion@@@@QBEPAVLineRegion@@XZ$0 1004d388 f    CIL library: CIL module
 0001:0004c388       __unwindfunclet$?length@JARInputSource@@UBEHXZ$0 1004d388 f    CIL library: CIL module
 0001:0004c392       __ehhandler$?setValues@StyledRegion@@UAEXPBVRegionDefine@@@Z 1004d392 f    CIL library: CIL module
 0001:0004c392       __ehhandler$?appendChild@Document@@UAEPAVNode@@PAV2@@Z 1004d392 f    CIL library: CIL module
 0001:0004c392       __ehhandler$?assignParent@StyledRegion@@UAEXPBVRegionDefine@@@Z 1004d392 f    CIL library: CIL module
 0001:0004c392       __ehhandler$?init@StreamWriter@@IAEXPAU_iobuf@@H_N@Z 1004d392 f    CIL library: CIL module
 0001:0004c392       __ehhandler$?getNCRegion@HRCParserImpl@@IAEPBVRegion@@PBVString@@_N@Z 1004d392 f    CIL library: CIL module
 0001:0004c392       __ehhandler$?cast@StyledRegion@@SAPBV1@PBVRegionDefine@@@Z 1004d392 f    CIL library: CIL module
 0001:0004c392       __ehhandler$?length@FileInputSource@@UBEHXZ 1004d392 f    CIL library: CIL module
 0001:0004c392       __ehhandler$?length@HTTPInputSource@@UBEHXZ 1004d392 f    CIL library: CIL module
 0001:0004c392       __ehhandler$?length@JARInputSource@@UBEHXZ 1004d392 f    CIL library: CIL module
 0001:0004c392       __ehhandler$?lastElement@?$Vector@PAVLineRegion@@@@QBEPAVLineRegion@@XZ 1004d392 f    CIL library: CIL module
 0001:0004c392       __ehhandler$?construct@SString@@IAEXPBVString@@HH@Z 1004d392 f    CIL library: CIL module
 0001:0004c3a0       __unwindfunclet$?chooseFileTypeCh@BaseEditor@@AAEPAVFileType@@PBVString@@HH@Z$4 1004d3a0 f    CIL library: CIL module
 0001:0004c3aa       __unwindfunclet$?chooseFileTypeCh@BaseEditor@@AAEPAVFileType@@PBVString@@HH@Z$0 1004d3aa f    CIL library: CIL module
 0001:0004c3b4       __unwindfunclet$?chooseFileTypeCh@BaseEditor@@AAEPAVFileType@@PBVString@@HH@Z$5 1004d3b4 f    CIL library: CIL module
 0001:0004c3bc       __unwindfunclet$?chooseFileTypeCh@BaseEditor@@AAEPAVFileType@@PBVString@@HH@Z$1 1004d3bc f    CIL library: CIL module
 0001:0004c3c6       __unwindfunclet$?chooseFileTypeCh@BaseEditor@@AAEPAVFileType@@PBVString@@HH@Z$7 1004d3c6 f    CIL library: CIL module
 0001:0004c3ce       __unwindfunclet$?chooseFileTypeCh@BaseEditor@@AAEPAVFileType@@PBVString@@HH@Z$8 1004d3ce f    CIL library: CIL module
 0001:0004c3d6       __unwindfunclet$?chooseFileTypeCh@BaseEditor@@AAEPAVFileType@@PBVString@@HH@Z$2 1004d3d6 f    CIL library: CIL module
 0001:0004c3e0       __unwindfunclet$?chooseFileTypeCh@BaseEditor@@AAEPAVFileType@@PBVString@@HH@Z$10 1004d3e0 f    CIL library: CIL module
 0001:0004c3e8       __unwindfunclet$?chooseFileTypeCh@BaseEditor@@AAEPAVFileType@@PBVString@@HH@Z$11 1004d3e8 f    CIL library: CIL module
 0001:0004c3f0       __unwindfunclet$?chooseFileTypeCh@BaseEditor@@AAEPAVFileType@@PBVString@@HH@Z$3 1004d3f0 f    CIL library: CIL module
 0001:0004c3fa       __unwindfunclet$?chooseFileTypeCh@BaseEditor@@AAEPAVFileType@@PBVString@@HH@Z$13 1004d3fa f    CIL library: CIL module
 0001:0004c402       __unwindfunclet$?chooseFileTypeCh@BaseEditor@@AAEPAVFileType@@PBVString@@HH@Z$15 1004d402 f    CIL library: CIL module
 0001:0004c40a       __ehhandler$?chooseFileTypeCh@BaseEditor@@AAEPAVFileType@@PBVString@@HH@Z 1004d40a f    CIL library: CIL module
 0001:0004c420       __unwindfunclet$??_GRegionMapperImpl@@UAEPAXI@Z$0 1004d420 f    CIL library: CIL module
 0001:0004c428       __unwindfunclet$??_GRegionMapperImpl@@UAEPAXI@Z$1 1004d428 f    CIL library: CIL module
 0001:0004c433       __ehhandler$??_GRegionMapperImpl@@UAEPAXI@Z 1004d433 f    CIL library: CIL module
 0001:0004c440       __unwindfunclet$??1FarEditor@@UAE@XZ$0 1004d440 f    CIL library: CIL module
 0001:0004c448       __ehhandler$??1FarEditor@@UAE@XZ 1004d448 f    CIL library: CIL module
 0001:0004c460       __unwindfunclet$?GenerateName@ChooseTypeMenu@@QAEPAVStringBuffer@@PBVFileType@@@Z$0 1004d460 f    CIL library: CIL module
 0001:0004c46b       __unwindfunclet$?GenerateName@ChooseTypeMenu@@QAEPAVStringBuffer@@PBVFileType@@@Z$4 1004d46b f    CIL library: CIL module
 0001:0004c475       __unwindfunclet$?GenerateName@ChooseTypeMenu@@QAEPAVStringBuffer@@PBVFileType@@@Z$5 1004d475 f    CIL library: CIL module
 0001:0004c47d       __unwindfunclet$?GenerateName@ChooseTypeMenu@@QAEPAVStringBuffer@@PBVFileType@@@Z$1 1004d47d f    CIL library: CIL module
 0001:0004c487       __unwindfunclet$?GenerateName@ChooseTypeMenu@@QAEPAVStringBuffer@@PBVFileType@@@Z$7 1004d487 f    CIL library: CIL module
 0001:0004c48f       __unwindfunclet$?GenerateName@ChooseTypeMenu@@QAEPAVStringBuffer@@PBVFileType@@@Z$2 1004d48f f    CIL library: CIL module
 0001:0004c499       __unwindfunclet$?GenerateName@ChooseTypeMenu@@QAEPAVStringBuffer@@PBVFileType@@@Z$9 1004d499 f    CIL library: CIL module
 0001:0004c4a1       __unwindfunclet$?GenerateName@ChooseTypeMenu@@QAEPAVStringBuffer@@PBVFileType@@@Z$10 1004d4a1 f    CIL library: CIL module
 0001:0004c4a9       __unwindfunclet$?GenerateName@ChooseTypeMenu@@QAEPAVStringBuffer@@PBVFileType@@@Z$3 1004d4a9 f    CIL library: CIL module
 0001:0004c4b3       __unwindfunclet$?GenerateName@ChooseTypeMenu@@QAEPAVStringBuffer@@PBVFileType@@@Z$12 1004d4b3 f    CIL library: CIL module
 0001:0004c4bb       __ehhandler$?GenerateName@ChooseTypeMenu@@QAEPAVStringBuffer@@PBVFileType@@@Z 1004d4bb f    CIL library: CIL module
 0001:0004c4d0       __unwindfunclet$?createComment@Document@@QAEPAVComment@@PBVString@@@Z$0 1004d4d0 f    CIL library: CIL module
 0001:0004c4d0       __unwindfunclet$?newDocument@DocumentBuilder@@QAEPAVDocument@@XZ$0 1004d4d0 f    CIL library: CIL module
 0001:0004c4db       __unwindfunclet$?createComment@Document@@QAEPAVComment@@PBVString@@@Z$2 1004d4db f    CIL library: CIL module
 0001:0004c4db       __unwindfunclet$?newDocument@DocumentBuilder@@QAEPAVDocument@@XZ$1 1004d4db f    CIL library: CIL module
 0001:0004c4e6       __unwindfunclet$?newDocument@DocumentBuilder@@QAEPAVDocument@@XZ$3 1004d4e6 f    CIL library: CIL module
 0001:0004c4e6       __unwindfunclet$?createComment@Document@@QAEPAVComment@@PBVString@@@Z$4 1004d4e6 f    CIL library: CIL module
 0001:0004c4ee       __ehhandler$?newDocument@DocumentBuilder@@QAEPAVDocument@@XZ 1004d4ee f    CIL library: CIL module
 0001:0004c4ee       __ehhandler$?createComment@Document@@QAEPAVComment@@PBVString@@@Z 1004d4ee f    CIL library: CIL module
 0001:0004c500       __unwindfunclet$??0SString@@QAE@H@Z$0 1004d500 f    CIL library: CIL module
 0001:0004c508       __unwindfunclet$??0SString@@QAE@H@Z$2 1004d508 f    CIL library: CIL module
 0001:0004c510       __unwindfunclet$??0SString@@QAE@H@Z$1 1004d510 f    CIL library: CIL module
 0001:0004c51a       __unwindfunclet$??0SString@@QAE@H@Z$10 1004d51a f    CIL library: CIL module
 0001:0004c522       __ehhandler$??0SString@@QAE@H@Z 1004d522 f    CIL library: CIL module
 0001:0004c530       __unwindfunclet$??0SString@@QAE@PADH@Z$0 1004d530 f    CIL library: CIL module
 0001:0004c538       __unwindfunclet$??0SString@@QAE@PADH@Z$2 1004d538 f    CIL library: CIL module
 0001:0004c540       __unwindfunclet$??0SString@@QAE@PADH@Z$1 1004d540 f    CIL library: CIL module
 0001:0004c54a       __unwindfunclet$??0SString@@QAE@PADH@Z$7 1004d54a f    CIL library: CIL module
 0001:0004c552       __ehhandler$??0SString@@QAE@PADH@Z 1004d552 f    CIL library: CIL module
 0001:0004c560       __unwindfunclet$??_GTextParserImpl@@UAEPAXI@Z$0 1004d560 f    CIL library: CIL module
 0001:0004c568       __ehhandler$??_GTextParserImpl@@UAEPAXI@Z 1004d568 f    CIL library: CIL module
 0001:0004c580       __unwindfunclet$??0TextParserImpl@@QAE@XZ$0 1004d580 f    CIL library: CIL module
 0001:0004c588       __ehhandler$??0TextParserImpl@@QAE@XZ 1004d588 f    CIL library: CIL module
 0001:0004c5a0       __unwindfunclet$??0SchemeImpl@@IAE@PBVString@@@Z$0 1004d5a0 f    CIL library: CIL module
 0001:0004c5a8       __unwindfunclet$??0SchemeImpl@@IAE@PBVString@@@Z$1 1004d5a8 f    CIL library: CIL module
 0001:0004c5b3       __unwindfunclet$??0SchemeImpl@@IAE@PBVString@@@Z$2 1004d5b3 f    CIL library: CIL module
 0001:0004c5be       __unwindfunclet$??0SchemeImpl@@IAE@PBVString@@@Z$3 1004d5be f    CIL library: CIL module
 0001:0004c5c6       __ehhandler$??0SchemeImpl@@IAE@PBVString@@@Z 1004d5c6 f    CIL library: CIL module
 0001:0004c5d0       __unwindfunclet$??0Region@@QAE@PBVString@@0PBV0@H@Z$0 1004d5d0 f    CIL library: CIL module
 0001:0004c5d0       __unwindfunclet$??0VirtualEntry@@QAE@PBVString@@0@Z$0 1004d5d0 f    CIL library: CIL module
 0001:0004c5db       __unwindfunclet$??0VirtualEntry@@QAE@PBVString@@0@Z$2 1004d5db f    CIL library: CIL module
 0001:0004c5db       __unwindfunclet$??0Region@@QAE@PBVString@@0PBV0@H@Z$2 1004d5db f    CIL library: CIL module
 0001:0004c5e3       __unwindfunclet$??0VirtualEntry@@QAE@PBVString@@0@Z$1 1004d5e3 f    CIL library: CIL module
 0001:0004c5e3       __unwindfunclet$??0Region@@QAE@PBVString@@0PBV0@H@Z$1 1004d5e3 f    CIL library: CIL module
 0001:0004c5ee       __unwindfunclet$??0VirtualEntry@@QAE@PBVString@@0@Z$6 1004d5ee f    CIL library: CIL module
 0001:0004c5ee       __unwindfunclet$??0Region@@QAE@PBVString@@0PBV0@H@Z$6 1004d5ee f    CIL library: CIL module
 0001:0004c5f6       __ehhandler$??0Region@@QAE@PBVString@@0PBV0@H@Z 1004d5f6 f    CIL library: CIL module
 0001:0004c5f6       __ehhandler$??0VirtualEntry@@QAE@PBVString@@0@Z 1004d5f6 f    CIL library: CIL module
 0001:0004c600       __unwindfunclet$?chooseFileType@BaseEditor@@QAEPAVFileType@@PBVString@@@Z$3 1004d600 f    CIL library: CIL module
 0001:0004c608       __unwindfunclet$?chooseFileType@BaseEditor@@QAEPAVFileType@@PBVString@@@Z$0 1004d608 f    CIL library: CIL module
 0001:0004c612       __unwindfunclet$?chooseFileType@BaseEditor@@QAEPAVFileType@@PBVString@@@Z$5 1004d612 f    CIL library: CIL module
 0001:0004c61a       __unwindfunclet$?chooseFileType@BaseEditor@@QAEPAVFileType@@PBVString@@@Z$6 1004d61a f    CIL library: CIL module
 0001:0004c622       __unwindfunclet$?chooseFileType@BaseEditor@@QAEPAVFileType@@PBVString@@@Z$1 1004d622 f    CIL library: CIL module
 0001:0004c62c       __unwindfunclet$?chooseFileType@BaseEditor@@QAEPAVFileType@@PBVString@@@Z$8 1004d62c f    CIL library: CIL module
 0001:0004c634       __unwindfunclet$?chooseFileType@BaseEditor@@QAEPAVFileType@@PBVString@@@Z$2 1004d634 f    CIL library: CIL module
 0001:0004c63e       __ehhandler$?chooseFileType@BaseEditor@@QAEPAVFileType@@PBVString@@@Z 1004d63e f    CIL library: CIL module
 0001:0004c650       __unwindfunclet$?dropCurrentEditor@FarEditorSet@@AAEX_N@Z$0 1004d650 f    CIL library: CIL module
 0001:0004c65d       __unwindfunclet$?dropCurrentEditor@FarEditorSet@@AAEX_N@Z$2 1004d65d f    CIL library: CIL module
 0001:0004c668       __unwindfunclet$?dropCurrentEditor@FarEditorSet@@AAEX_N@Z$1 1004d668 f    CIL library: CIL module
 0001:0004c672       __unwindfunclet$?dropCurrentEditor@FarEditorSet@@AAEX_N@Z$3 1004d672 f    CIL library: CIL module
 0001:0004c67a       __ehhandler$?dropCurrentEditor@FarEditorSet@@AAEX_N@Z 1004d67a f    CIL library: CIL module
 0001:0004c690       __unwindfunclet$?getCurrentEditor@FarEditorSet@@AAEPAVFarEditor@@XZ$0 1004d690 f    CIL library: CIL module
 0001:0004c69a       __unwindfunclet$?getCurrentEditor@FarEditorSet@@AAEPAVFarEditor@@XZ$1 1004d69a f    CIL library: CIL module
 0001:0004c6a2       __ehhandler$?getCurrentEditor@FarEditorSet@@AAEPAVFarEditor@@XZ 1004d6a2 f    CIL library: CIL module
 0001:0004c6b0       __unwindfunclet$?appendToLastTextNode@DocumentBuilder@@AAEXPAVNode@@PAVString@@@Z$0 1004d6b0 f    CIL library: CIL module
 0001:0004c6bb       __ehhandler$?appendToLastTextNode@DocumentBuilder@@AAEXPAVNode@@PAVString@@@Z 1004d6bb f    CIL library: CIL module
 0001:0004c6d0       __unwindfunclet$??0ParseException@@QAE@ABVString@@HH@Z$0 1004d6d0 f    CIL library: CIL module
 0001:0004c6d8       __unwindfunclet$??0ParseException@@QAE@ABVString@@HH@Z$6 1004d6d8 f    CIL library: CIL module
 0001:0004c6e0       __unwindfunclet$??0ParseException@@QAE@ABVString@@HH@Z$1 1004d6e0 f    CIL library: CIL module
 0001:0004c6ea       __unwindfunclet$??0ParseException@@QAE@ABVString@@HH@Z$8 1004d6ea f    CIL library: CIL module
 0001:0004c6f2       __unwindfunclet$??0ParseException@@QAE@ABVString@@HH@Z$2 1004d6f2 f    CIL library: CIL module
 0001:0004c6fc       __unwindfunclet$??0ParseException@@QAE@ABVString@@HH@Z$9 1004d6fc f    CIL library: CIL module
 0001:0004c704       __unwindfunclet$??0ParseException@@QAE@ABVString@@HH@Z$3 1004d704 f    CIL library: CIL module
 0001:0004c70e       __unwindfunclet$??0ParseException@@QAE@ABVString@@HH@Z$11 1004d70e f    CIL library: CIL module
 0001:0004c716       __unwindfunclet$??0ParseException@@QAE@ABVString@@HH@Z$12 1004d716 f    CIL library: CIL module
 0001:0004c71e       __unwindfunclet$??0ParseException@@QAE@ABVString@@HH@Z$4 1004d71e f    CIL library: CIL module
 0001:0004c728       __unwindfunclet$??0ParseException@@QAE@ABVString@@HH@Z$13 1004d728 f    CIL library: CIL module
 0001:0004c730       __unwindfunclet$??0ParseException@@QAE@ABVString@@HH@Z$5 1004d730 f    CIL library: CIL module
 0001:0004c73a       __unwindfunclet$??0ParseException@@QAE@ABVString@@HH@Z$15 1004d73a f    CIL library: CIL module
 0001:0004c742       __unwindfunclet$??0ParseException@@QAE@ABVString@@HH@Z$16 1004d742 f    CIL library: CIL module
 0001:0004c74a       __ehhandler$??0ParseException@@QAE@ABVString@@HH@Z 1004d74a f    CIL library: CIL module
 0001:0004c760       __unwindfunclet$??0OutOfBoundException@@QAE@ABVString@@@Z$0 1004d760 f    CIL library: CIL module
 0001:0004c760       __unwindfunclet$??0InputSourceException@@QAE@ABVString@@@Z$0 1004d760 f    CIL library: CIL module
 0001:0004c760       __unwindfunclet$??0FarHrcSettingsException@@QAE@ABVString@@@Z$0 1004d760 f    CIL library: CIL module
 0001:0004c760       __unwindfunclet$??0HRCParserException@@QAE@ABVString@@@Z$0 1004d760 f    CIL library: CIL module
 0001:0004c760       __unwindfunclet$??0ParserFactoryException@@QAE@ABVString@@@Z$0 1004d760 f    CIL library: CIL module
 0001:0004c768       __unwindfunclet$??0OutOfBoundException@@QAE@ABVString@@@Z$2 1004d768 f    CIL library: CIL module
 0001:0004c768       __unwindfunclet$??0HRCParserException@@QAE@ABVString@@@Z$2 1004d768 f    CIL library: CIL module
 0001:0004c768       __unwindfunclet$??0InputSourceException@@QAE@ABVString@@@Z$2 1004d768 f    CIL library: CIL module
 0001:0004c768       __unwindfunclet$??0FarHrcSettingsException@@QAE@ABVString@@@Z$2 1004d768 f    CIL library: CIL module
 0001:0004c768       __unwindfunclet$??0ParserFactoryException@@QAE@ABVString@@@Z$2 1004d768 f    CIL library: CIL module
 0001:0004c770       __unwindfunclet$??0OutOfBoundException@@QAE@ABVString@@@Z$1 1004d770 f    CIL library: CIL module
 0001:0004c770       __unwindfunclet$??0HRCParserException@@QAE@ABVString@@@Z$1 1004d770 f    CIL library: CIL module
 0001:0004c770       __unwindfunclet$??0InputSourceException@@QAE@ABVString@@@Z$1 1004d770 f    CIL library: CIL module
 0001:0004c770       __unwindfunclet$??0FarHrcSettingsException@@QAE@ABVString@@@Z$1 1004d770 f    CIL library: CIL module
 0001:0004c770       __unwindfunclet$??0ParserFactoryException@@QAE@ABVString@@@Z$1 1004d770 f    CIL library: CIL module
 0001:0004c77a       __unwindfunclet$??0OutOfBoundException@@QAE@ABVString@@@Z$7 1004d77a f    CIL library: CIL module
 0001:0004c77a       __unwindfunclet$??0InputSourceException@@QAE@ABVString@@@Z$7 1004d77a f    CIL library: CIL module
 0001:0004c77a       __unwindfunclet$??0ParserFactoryException@@QAE@ABVString@@@Z$7 1004d77a f    CIL library: CIL module
 0001:0004c77a       __unwindfunclet$??0FarHrcSettingsException@@QAE@ABVString@@@Z$7 1004d77a f    CIL library: CIL module
 0001:0004c77a       __unwindfunclet$??0HRCParserException@@QAE@ABVString@@@Z$7 1004d77a f    CIL library: CIL module
 0001:0004c782       __ehhandler$??0OutOfBoundException@@QAE@ABVString@@@Z 1004d782 f    CIL library: CIL module
 0001:0004c782       __ehhandler$??0FarHrcSettingsException@@QAE@ABVString@@@Z 1004d782 f    CIL library: CIL module
 0001:0004c782       __ehhandler$??0HRCParserException@@QAE@ABVString@@@Z 1004d782 f    CIL library: CIL module
 0001:0004c782       __ehhandler$??0InputSourceException@@QAE@ABVString@@@Z 1004d782 f    CIL library: CIL module
 0001:0004c782       __ehhandler$??0ParserFactoryException@@QAE@ABVString@@@Z 1004d782 f    CIL library: CIL module
 0001:0004c790       __unwindfunclet$??0StringBuffer@@QAE@PBDHH@Z$2 1004d790 f    CIL library: CIL module
 0001:0004c798       __unwindfunclet$??0StringBuffer@@QAE@PBDHH@Z$0 1004d798 f    CIL library: CIL module
 0001:0004c7a2       __unwindfunclet$??0StringBuffer@@QAE@PBDHH@Z$10 1004d7a2 f    CIL library: CIL module
 0001:0004c7aa       __unwindfunclet$??0StringBuffer@@QAE@PBDHH@Z$1 1004d7aa f    CIL library: CIL module
 0001:0004c7b4       __unwindfunclet$??0StringBuffer@@QAE@PBDHH@Z$14 1004d7b4 f    CIL library: CIL module
 0001:0004c7bc       __ehhandler$??0StringBuffer@@QAE@PBDHH@Z 1004d7bc f    CIL library: CIL module
 0001:0004c7d0       __unwindfunclet$??0StringIndexOutOfBoundsException@@QAE@ABVString@@@Z$0 1004d7d0 f    CIL library: CIL module
 0001:0004c7d0       __unwindfunclet$??0UnsupportedEncodingException@@QAE@ABVString@@@Z$0 1004d7d0 f    CIL library: CIL module
 0001:0004c7d8       __unwindfunclet$??0StringIndexOutOfBoundsException@@QAE@ABVString@@@Z$1 1004d7d8 f    CIL library: CIL module
 0001:0004c7d8       __unwindfunclet$??0UnsupportedEncodingException@@QAE@ABVString@@@Z$1 1004d7d8 f    CIL library: CIL module
 0001:0004c7e3       __ehhandler$??0UnsupportedEncodingException@@QAE@ABVString@@@Z 1004d7e3 f    CIL library: CIL module
 0001:0004c7e3       __ehhandler$??0StringIndexOutOfBoundsException@@QAE@ABVString@@@Z 1004d7e3 f    CIL library: CIL module
 0001:0004c7f0       __unwindfunclet$??ADString@@UBE_WH@Z$0 1004d7f0 f    CIL library: CIL module
 0001:0004c7fa       __unwindfunclet$??ADString@@UBE_WH@Z$1 1004d7fa f    CIL library: CIL module
 0001:0004c802       __unwindfunclet$??ADString@@UBE_WH@Z$2 1004d802 f    CIL library: CIL module
 0001:0004c80d       __ehhandler$??ADString@@UBE_WH@Z 1004d80d f    CIL library: CIL module
 0001:0004c820       __unwindfunclet$??0DString@@QAE@PBEHH@Z$0 1004d820 f    CIL library: CIL module
 0001:0004c828       __unwindfunclet$??0DString@@QAE@PBEHH@Z$2 1004d828 f    CIL library: CIL module
 0001:0004c832       __unwindfunclet$??0DString@@QAE@PBEHH@Z$1 1004d832 f    CIL library: CIL module
 0001:0004c83c       __unwindfunclet$??0DString@@QAE@PBEHH@Z$3 1004d83c f    CIL library: CIL module
 0001:0004c846       __ehhandler$??0DString@@QAE@PBEHH@Z 1004d846 f    CIL library: CIL module
 0001:0004c850       __unwindfunclet$?elementAt@?$Vector@PAVOutlineItem@@@@QBEPAVOutlineItem@@H@Z$0 1004d850 f    CIL library: CIL module
 0001:0004c850       __unwindfunclet$?startParsing@LineRegionsSupport@@UAEXH@Z$0 1004d850 f    CIL library: CIL module
 0001:0004c850       __unwindfunclet$?elementAt@?$Vector@PBVRegion@@@@QBEPBVRegion@@H@Z$0 1004d850 f    CIL library: CIL module
 0001:0004c850       __unwindfunclet$??ASString@@UBE_WH@Z$0 1004d850 f    CIL library: CIL module
 0001:0004c850       __unwindfunclet$?insertElementAt@?$Vector@PAVString@@@@QAEXQAVString@@H@Z$0 1004d850 f    CIL library: CIL module
 0001:0004c850       __unwindfunclet$?elementAt@?$Vector@PAVSchemeNode@@@@QBEPAVSchemeNode@@H@Z$0 1004d850 f    CIL library: CIL module
 0001:0004c850       __unwindfunclet$?elementAt@?$Vector@PAVVirtualEntry@@@@QBEPAVVirtualEntry@@H@Z$0 1004d850 f    CIL library: CIL module
 0001:0004c850       __unwindfunclet$?elementAt@?$Vector@PAVString@@@@QBEPAVString@@H@Z$0 1004d850 f    CIL library: CIL module
 0001:0004c850       __unwindfunclet$?elementAt@?$Vector@PAVFileTypeChooser@@@@QBEPAVFileTypeChooser@@H@Z$0 1004d850 f    CIL library: CIL module
 0001:0004c850       __unwindfunclet$?removeElementAt@?$Vector@PAVLineRegion@@@@QAEXH@Z$0 1004d850 f    CIL library: CIL module
 0001:0004c850       __unwindfunclet$?removeElementAt@?$Vector@PAVEditorListener@@@@QAEXH@Z$0 1004d850 f    CIL library: CIL module
 0001:0004c850       __unwindfunclet$?elementAt@?$Vector@PAVLineRegion@@@@QBEPAVLineRegion@@H@Z$0 1004d850 f    CIL library: CIL module
 0001:0004c850       __unwindfunclet$?enumerateFileTypes@HRCParserImpl@@UAEPAVFileType@@H@Z$0 1004d850 f    CIL library: CIL module
 0001:0004c850       __unwindfunclet$?elementAt@?$Vector@PBVString@@@@QBEPBVString@@H@Z$0 1004d850 f    CIL library: CIL module
 0001:0004c850       __unwindfunclet$?removeElementAt@?$Vector@PAVRegionHandler@@@@QAEXH@Z$0 1004d850 f    CIL library: CIL module
 0001:0004c850       __unwindfunclet$?chooseFileType@HRCParserImpl@@UAEPAVFileType@@PBVString@@0H@Z$0 1004d850 f    CIL library: CIL module
 0001:0004c850       __unwindfunclet$?addLineRegion@LineRegionsSupport@@MAEXHPAVLineRegion@@@Z$1 1004d850 f    CIL library: CIL module
 0001:0004c850       __unwindfunclet$?pushvirt@VTList@@QAEPAVSchemeImpl@@PAV2@@Z$0 1004d850 f    CIL library: CIL module
 0001:0004c850       __unwindfunclet$?leaveScheme@BaseEditor@@UAEXHPAVString@@HHPBVRegion@@PBVScheme@@@Z$0 1004d850 f    CIL library: CIL module
 0001:0004c850       __unwindfunclet$?enumerateParameters@FileTypeImpl@@UAEPBVString@@H@Z$0 1004d850 f    CIL library: CIL module
 0001:0004c850       __unwindfunclet$?enterScheme@BaseEditor@@UAEXHPAVString@@HHPBVRegion@@PBVScheme@@@Z$0 1004d850 f    CIL library: CIL module
 0001:0004c850       __unwindfunclet$?startParsing@BaseEditor@@UAEXH@Z$0 1004d850 f    CIL library: CIL module
 0001:0004c850       __unwindfunclet$?addRegion@BaseEditor@@UAEXHPAVString@@HHPBVRegion@@@Z$0 1004d850 f    CIL library: CIL module
 0001:0004c850       __unwindfunclet$?endParsing@BaseEditor@@UAEXH@Z$0 1004d850 f    CIL library: CIL module
 0001:0004c850       __unwindfunclet$?clearLine@BaseEditor@@UAEXHPAVString@@@Z$0 1004d850 f    CIL library: CIL module
 0001:0004c850       __unwindfunclet$?insertElementAt@?$Vector@PBVString@@@@QAEXQBVString@@H@Z$0 1004d850 f    CIL library: CIL module
 0001:0004c85a       __ehhandler$?addRegion@BaseEditor@@UAEXHPAVString@@HHPBVRegion@@@Z 1004d85a f    CIL library: CIL module
 0001:0004c85a       __ehhandler$?endParsing@BaseEditor@@UAEXH@Z 1004d85a f    CIL library: CIL module
 0001:0004c85a       __ehhandler$?enterScheme@BaseEditor@@UAEXHPAVString@@HHPBVRegion@@PBVScheme@@@Z 1004d85a f    CIL library: CIL module
 0001:0004c85a       __ehhandler$?startParsing@BaseEditor@@UAEXH@Z 1004d85a f    CIL library: CIL module
 0001:0004c85a       __ehhandler$?leaveScheme@BaseEditor@@UAEXHPAVString@@HHPBVRegion@@PBVScheme@@@Z 1004d85a f    CIL library: CIL module
 0001:0004c85a       __ehhandler$?removeElementAt@?$Vector@PAVRegionHandler@@@@QAEXH@Z 1004d85a f    CIL library: CIL module
 0001:0004c85a       __ehhandler$?removeElementAt@?$Vector@PAVEditorListener@@@@QAEXH@Z 1004d85a f    CIL library: CIL module
 0001:0004c85a       __ehhandler$?elementAt@?$Vector@PAVOutlineItem@@@@QBEPAVOutlineItem@@H@Z 1004d85a f    CIL library: CIL module
 0001:0004c85a       __ehhandler$?insertElementAt@?$Vector@PAVString@@@@QAEXQAVString@@H@Z 1004d85a f    CIL library: CIL module
 0001:0004c85a       __ehhandler$?chooseFileType@HRCParserImpl@@UAEPAVFileType@@PBVString@@0H@Z 1004d85a f    CIL library: CIL module
 0001:0004c85a       __ehhandler$?insertElementAt@?$Vector@PBVString@@@@QAEXQBVString@@H@Z 1004d85a f    CIL library: CIL module
 0001:0004c85a       __ehhandler$??ASString@@UBE_WH@Z 1004d85a f    CIL library: CIL module
 0001:0004c85a       __ehhandler$?pushvirt@VTList@@QAEPAVSchemeImpl@@PAV2@@Z 1004d85a f    CIL library: CIL module
 0001:0004c85a       __ehhandler$?elementAt@?$Vector@PBVString@@@@QBEPBVString@@H@Z 1004d85a f    CIL library: CIL module
 0001:0004c85a       __ehhandler$?enumerateParameters@FileTypeImpl@@UAEPBVString@@H@Z 1004d85a f    CIL library: CIL module
 0001:0004c85a       __ehhandler$?addLineRegion@LineRegionsSupport@@MAEXHPAVLineRegion@@@Z 1004d85a f    CIL library: CIL module
 0001:0004c85a       __ehhandler$?elementAt@?$Vector@PAVFileTypeChooser@@@@QBEPAVFileTypeChooser@@H@Z 1004d85a f    CIL library: CIL module
 0001:0004c85a       __ehhandler$?startParsing@LineRegionsSupport@@UAEXH@Z 1004d85a f    CIL library: CIL module
 0001:0004c85a       __ehhandler$?enumerateFileTypes@HRCParserImpl@@UAEPAVFileType@@H@Z 1004d85a f    CIL library: CIL module
 0001:0004c85a       __ehhandler$?elementAt@?$Vector@PBVRegion@@@@QBEPBVRegion@@H@Z 1004d85a f    CIL library: CIL module
 0001:0004c85a       __ehhandler$?elementAt@?$Vector@PAVString@@@@QBEPAVString@@H@Z 1004d85a f    CIL library: CIL module
 0001:0004c85a       __ehhandler$?elementAt@?$Vector@PAVSchemeNode@@@@QBEPAVSchemeNode@@H@Z 1004d85a f    CIL library: CIL module
 0001:0004c85a       __ehhandler$?elementAt@?$Vector@PAVLineRegion@@@@QBEPAVLineRegion@@H@Z 1004d85a f    CIL library: CIL module
 0001:0004c85a       __ehhandler$?elementAt@?$Vector@PAVVirtualEntry@@@@QBEPAVVirtualEntry@@H@Z 1004d85a f    CIL library: CIL module
 0001:0004c85a       __ehhandler$?removeElementAt@?$Vector@PAVLineRegion@@@@QAEXH@Z 1004d85a f    CIL library: CIL module
 0001:0004c85a       __ehhandler$?clearLine@BaseEditor@@UAEXHPAVString@@@Z 1004d85a f    CIL library: CIL module
 0001:0004c870       __unwindfunclet$?checkNameExist@HRCParserImpl@@IAE_NPBVString@@PAVFileTypeImpl@@W4QualifyNameType@1@_N@Z$0 1004d870 f    CIL library: CIL module
 0001:0004c87a       __unwindfunclet$?checkNameExist@HRCParserImpl@@IAE_NPBVString@@PAVFileTypeImpl@@W4QualifyNameType@1@_N@Z$1 1004d87a f    CIL library: CIL module
 0001:0004c884       __unwindfunclet$?checkNameExist@HRCParserImpl@@IAE_NPBVString@@PAVFileTypeImpl@@W4QualifyNameType@1@_N@Z$2 1004d884 f    CIL library: CIL module
 0001:0004c88e       __ehhandler$?checkNameExist@HRCParserImpl@@IAE_NPBVString@@PAVFileTypeImpl@@W4QualifyNameType@1@_N@Z 1004d88e f    CIL library: CIL module
 0001:0004c8a0       __ehhandler$?getRegion@HRCParserImpl@@UAEPBVRegion@@H@Z 1004d8a0 f    CIL library: CIL module
 0001:0004c8b0       __unwindfunclet$?loadFileType@HRCParserImpl@@IAEXPAVFileType@@@Z$5 1004d8b0 f    CIL library: CIL module
 0001:0004c8ba       __unwindfunclet$?loadFileType@HRCParserImpl@@IAEXPAVFileType@@@Z$6 1004d8ba f    CIL library: CIL module
 0001:0004c8c4       __unwindfunclet$?loadFileType@HRCParserImpl@@IAEXPAVFileType@@@Z$7 1004d8c4 f    CIL library: CIL module
 0001:0004c8ce       __unwindfunclet$?loadFileType@HRCParserImpl@@IAEXPAVFileType@@@Z$8 1004d8ce f    CIL library: CIL module
 0001:0004c8d8       __ehhandler$?loadFileType@HRCParserImpl@@IAEXPAVFileType@@@Z 1004d8d8 f    CIL library: CIL module
 0001:0004c8f0       __unwindfunclet$??0HRCParserImpl@@QAE@XZ$0 1004d8f0 f    CIL library: CIL module
 0001:0004c8f8       __unwindfunclet$??0HRCParserImpl@@QAE@XZ$1 1004d8f8 f    CIL library: CIL module
 0001:0004c903       __unwindfunclet$??0HRCParserImpl@@QAE@XZ$2 1004d903 f    CIL library: CIL module
 0001:0004c90e       __unwindfunclet$??0HRCParserImpl@@QAE@XZ$3 1004d90e f    CIL library: CIL module
 0001:0004c919       __unwindfunclet$??0HRCParserImpl@@QAE@XZ$4 1004d919 f    CIL library: CIL module
 0001:0004c924       __unwindfunclet$??0HRCParserImpl@@QAE@XZ$5 1004d924 f    CIL library: CIL module
 0001:0004c931       __unwindfunclet$??0HRCParserImpl@@QAE@XZ$6 1004d931 f    CIL library: CIL module
 0001:0004c93e       __unwindfunclet$??0HRCParserImpl@@QAE@XZ$7 1004d93e f    CIL library: CIL module
 0001:0004c94b       __unwindfunclet$??0HRCParserImpl@@QAE@XZ$14 1004d94b f    CIL library: CIL module
 0001:0004c956       __ehhandler$??0HRCParserImpl@@QAE@XZ 1004d956 f    CIL library: CIL module
 0001:0004c960       __unwindfunclet$??0FileTypeImpl@@IAE@PAVHRCParserImpl@@@Z$0 1004d960 f    CIL library: CIL module
 0001:0004c968       __unwindfunclet$??0FileTypeImpl@@IAE@PAVHRCParserImpl@@@Z$1 1004d968 f    CIL library: CIL module
 0001:0004c973       __unwindfunclet$??0FileTypeImpl@@IAE@PAVHRCParserImpl@@@Z$2 1004d973 f    CIL library: CIL module
 0001:0004c97e       __unwindfunclet$??0FileTypeImpl@@IAE@PAVHRCParserImpl@@@Z$3 1004d97e f    CIL library: CIL module
 0001:0004c989       __unwindfunclet$??0FileTypeImpl@@IAE@PAVHRCParserImpl@@@Z$4 1004d989 f    CIL library: CIL module
 0001:0004c996       __unwindfunclet$??0FileTypeImpl@@IAE@PAVHRCParserImpl@@@Z$5 1004d996 f    CIL library: CIL module
 0001:0004c9a3       __ehhandler$??0FileTypeImpl@@IAE@PAVHRCParserImpl@@@Z 1004d9a3 f    CIL library: CIL module
 0001:0004c9b0       __unwindfunclet$?lastElement@?$Vector@PAVOutlineItem@@@@QBEPAVOutlineItem@@XZ$1 1004d9b0 f    CIL library: CIL module
 0001:0004c9b0       __unwindfunclet$?lastElement@?$Vector@H@@QBEHXZ$1 1004d9b0 f    CIL library: CIL module
 0001:0004c9b8       __unwindfunclet$?lastElement@?$Vector@H@@QBEHXZ$0 1004d9b8 f    CIL library: CIL module
 0001:0004c9b8       __unwindfunclet$?lastElement@?$Vector@PAVOutlineItem@@@@QBEPAVOutlineItem@@XZ$0 1004d9b8 f    CIL library: CIL module
 0001:0004c9c2       __ehhandler$?lastElement@?$Vector@H@@QBEHXZ 1004d9c2 f    CIL library: CIL module
 0001:0004c9c2       __ehhandler$?lastElement@?$Vector@PAVOutlineItem@@@@QBEPAVOutlineItem@@XZ 1004d9c2 f    CIL library: CIL module
 0001:0004c9d0       __unwindfunclet$?modifyEvent@Outliner@@UAEXH@Z$3 1004d9d0 f    CIL library: CIL module
 0001:0004c9db       __unwindfunclet$?modifyEvent@Outliner@@UAEXH@Z$4 1004d9db f    CIL library: CIL module
 0001:0004c9e5       __unwindfunclet$?modifyEvent@Outliner@@UAEXH@Z$0 1004d9e5 f    CIL library: CIL module
 0001:0004c9ef       __ehhandler$?modifyEvent@Outliner@@UAEXH@Z 1004d9ef f    CIL library: CIL module
 0001:0004ca00       __unwindfunclet$?manageTree@Outliner@@SAHAAV?$Vector@H@@H@Z$1 1004da00 f    CIL library: CIL module
 0001:0004ca08       __unwindfunclet$?manageTree@Outliner@@SAHAAV?$Vector@H@@H@Z$0 1004da08 f    CIL library: CIL module
 0001:0004ca12       __unwindfunclet$?manageTree@Outliner@@SAHAAV?$Vector@H@@H@Z$3 1004da12 f    CIL library: CIL module
 0001:0004ca1c       __ehhandler$?manageTree@Outliner@@SAHAAV?$Vector@H@@H@Z 1004da1c f    CIL library: CIL module
 0001:0004ca30       __unwindfunclet$??0OutlineItem@@QAE@HHHPAVString@@PBVRegion@@@Z$0 1004da30 f    CIL library: CIL module
 0001:0004ca3b       __unwindfunclet$??0OutlineItem@@QAE@HHHPAVString@@PBVRegion@@@Z$2 1004da3b f    CIL library: CIL module
 0001:0004ca43       __ehhandler$??0OutlineItem@@QAE@HHHPAVString@@PBVRegion@@@Z 1004da43 f    CIL library: CIL module
 0001:0004ca50       __unwindfunclet$?getRegionDefine@RegionMapperImpl@@UBEPBVRegionDefine@@PBVRegion@@@Z$0 1004da50 f    CIL library: CIL module
 0001:0004ca5a       __unwindfunclet$?getRegionDefine@RegionMapperImpl@@UBEPBVRegionDefine@@PBVRegion@@@Z$1 1004da5a f    CIL library: CIL module
 0001:0004ca64       __unwindfunclet$?getRegionDefine@RegionMapperImpl@@UBEPBVRegionDefine@@PBVRegion@@@Z$2 1004da64 f    CIL library: CIL module
 0001:0004ca6e       __ehhandler$?getRegionDefine@RegionMapperImpl@@UBEPBVRegionDefine@@PBVRegion@@@Z 1004da6e f    CIL library: CIL module
 0001:0004ca80       __unwindfunclet$?getCurlyContent@UnicodeTools@@SAPAVDString@@ABVString@@H@Z$0 1004da80 f    CIL library: CIL module
 0001:0004ca80       __unwindfunclet$?leaveScheme@LineRegionsSupport@@UAEXHPAVString@@HHPBVRegion@@PBVScheme@@@Z$0 1004da80 f    CIL library: CIL module
 0001:0004ca80       __unwindfunclet$?enterScheme@LineRegionsSupport@@UAEXHPAVString@@HHPBVRegion@@PBVScheme@@@Z$1 1004da80 f    CIL library: CIL module
 0001:0004ca8b       __ehhandler$?enterScheme@LineRegionsSupport@@UAEXHPAVString@@HHPBVRegion@@PBVScheme@@@Z 1004da8b f    CIL library: CIL module
 0001:0004ca8b       __ehhandler$?getCurlyContent@UnicodeTools@@SAPAVDString@@ABVString@@H@Z 1004da8b f    CIL library: CIL module
 0001:0004ca8b       __ehhandler$?leaveScheme@LineRegionsSupport@@UAEXHPAVString@@HHPBVRegion@@PBVScheme@@@Z 1004da8b f    CIL library: CIL module
 0001:0004caa0       __unwindfunclet$?addLineRegion@LineRegionsCompactSupport@@MAEXHPAVLineRegion@@@Z$2 1004daa0 f    CIL library: CIL module
 0001:0004caaa       __unwindfunclet$?addLineRegion@LineRegionsCompactSupport@@MAEXHPAVLineRegion@@@Z$3 1004daaa f    CIL library: CIL module
 0001:0004cab4       __unwindfunclet$?addLineRegion@LineRegionsCompactSupport@@MAEXHPAVLineRegion@@@Z$0 1004dab4 f    CIL library: CIL module
 0001:0004cabf       __unwindfunclet$?addLineRegion@LineRegionsCompactSupport@@MAEXHPAVLineRegion@@@Z$4 1004dabf f    CIL library: CIL module
 0001:0004cac9       __ehhandler$?addLineRegion@LineRegionsCompactSupport@@MAEXHPAVLineRegion@@@Z 1004dac9 f    CIL library: CIL module
 0001:0004cae0       __unwindfunclet$?rehash@?$HashtableCore@PBVRegion@@@@IAEXXZ$0 1004dae0 f    CIL library: CIL module
 0001:0004cae0       __unwindfunclet$?rehash@?$HashtableCore@PAVFarEditor@@@@IAEXXZ$0 1004dae0 f    CIL library: CIL module
 0001:0004cae0       __unwindfunclet$?rehash@?$HashtableCore@PAV?$Hashtable@PAV?$Vector@PBVString@@@@@@@@IAEXXZ$0 1004dae0 f    CIL library: CIL module
 0001:0004cae0       __unwindfunclet$?rehash@?$HashtableCore@PAV?$Vector@PBVString@@@@@@IAEXXZ$0 1004dae0 f    CIL library: CIL module
 0001:0004cae0       __unwindfunclet$?rehash@?$HashtableCore@PBVString@@@@IAEXXZ$0 1004dae0 f    CIL library: CIL module
 0001:0004cae0       __unwindfunclet$?rehash@?$HashtableCore@PAVFileTypeImpl@@@@IAEXXZ$0 1004dae0 f    CIL library: CIL module
 0001:0004cae0       __unwindfunclet$?rehash@?$HashtableCore@PAVSchemeImpl@@@@IAEXXZ$0 1004dae0 f    CIL library: CIL module
 0001:0004cae0       __unwindfunclet$?rehash@?$HashtableCore@PAVSharedInputSource@@@@IAEXXZ$0 1004dae0 f    CIL library: CIL module
 0001:0004cae0       __unwindfunclet$?rehash@?$HashtableCore@PAVRegionDefine@@@@IAEXXZ$0 1004dae0 f    CIL library: CIL module
 0001:0004cae0       __unwindfunclet$?rehash@?$HashtableCore@PAVString@@@@IAEXXZ$0 1004dae0 f    CIL library: CIL module
 0001:0004caeb       __unwindfunclet$?rehash@?$HashtableCore@PAVString@@@@IAEXXZ$1 1004daeb f    CIL library: CIL module
 0001:0004caeb       __unwindfunclet$?rehash@?$HashtableCore@PBVRegion@@@@IAEXXZ$1 1004daeb f    CIL library: CIL module
 0001:0004caeb       __unwindfunclet$?rehash@?$HashtableCore@PAVSchemeImpl@@@@IAEXXZ$1 1004daeb f    CIL library: CIL module
 0001:0004caeb       __unwindfunclet$?rehash@?$HashtableCore@PAV?$Hashtable@PAV?$Vector@PBVString@@@@@@@@IAEXXZ$1 1004daeb f    CIL library: CIL module
 0001:0004caeb       __unwindfunclet$?rehash@?$HashtableCore@PAVFileTypeImpl@@@@IAEXXZ$1 1004daeb f    CIL library: CIL module
 0001:0004caeb       __unwindfunclet$?rehash@?$HashtableCore@PAV?$Vector@PBVString@@@@@@IAEXXZ$1 1004daeb f    CIL library: CIL module
 0001:0004caeb       __unwindfunclet$?rehash@?$HashtableCore@PBVString@@@@IAEXXZ$1 1004daeb f    CIL library: CIL module
 0001:0004caeb       __unwindfunclet$?rehash@?$HashtableCore@PAVRegionDefine@@@@IAEXXZ$1 1004daeb f    CIL library: CIL module
 0001:0004caeb       __unwindfunclet$?rehash@?$HashtableCore@PAVSharedInputSource@@@@IAEXXZ$1 1004daeb f    CIL library: CIL module
 0001:0004caeb       __unwindfunclet$?rehash@?$HashtableCore@PAVFarEditor@@@@IAEXXZ$1 1004daeb f    CIL library: CIL module
 0001:0004caf6       __unwindfunclet$?rehash@?$HashtableCore@PAVSharedInputSource@@@@IAEXXZ$2 1004daf6 f    CIL library: CIL module
 0001:0004caf6       __unwindfunclet$?rehash@?$HashtableCore@PBVRegion@@@@IAEXXZ$2 1004daf6 f    CIL library: CIL module
 0001:0004caf6       __unwindfunclet$?rehash@?$HashtableCore@PAVFarEditor@@@@IAEXXZ$2 1004daf6 f    CIL library: CIL module
 0001:0004caf6       __unwindfunclet$?rehash@?$HashtableCore@PAV?$Vector@PBVString@@@@@@IAEXXZ$2 1004daf6 f    CIL library: CIL module
 0001:0004caf6       __unwindfunclet$?rehash@?$HashtableCore@PAVFileTypeImpl@@@@IAEXXZ$2 1004daf6 f    CIL library: CIL module
 0001:0004caf6       __unwindfunclet$?rehash@?$HashtableCore@PAVString@@@@IAEXXZ$2 1004daf6 f    CIL library: CIL module
 0001:0004caf6       __unwindfunclet$?rehash@?$HashtableCore@PAV?$Hashtable@PAV?$Vector@PBVString@@@@@@@@IAEXXZ$2 1004daf6 f    CIL library: CIL module
 0001:0004caf6       __unwindfunclet$?rehash@?$HashtableCore@PAVSchemeImpl@@@@IAEXXZ$2 1004daf6 f    CIL library: CIL module
 0001:0004caf6       __unwindfunclet$?rehash@?$HashtableCore@PAVRegionDefine@@@@IAEXXZ$2 1004daf6 f    CIL library: CIL module
 0001:0004caf6       __unwindfunclet$?rehash@?$HashtableCore@PBVString@@@@IAEXXZ$2 1004daf6 f    CIL library: CIL module
 0001:0004cafe       __ehhandler$?rehash@?$HashtableCore@PAVSchemeImpl@@@@IAEXXZ 1004dafe f    CIL library: CIL module
 0001:0004cafe       __ehhandler$?rehash@?$HashtableCore@PAVFarEditor@@@@IAEXXZ 1004dafe f    CIL library: CIL module
 0001:0004cafe       __ehhandler$?rehash@?$HashtableCore@PAV?$Vector@PBVString@@@@@@IAEXXZ 1004dafe f    CIL library: CIL module
 0001:0004cafe       __ehhandler$?rehash@?$HashtableCore@PAV?$Hashtable@PAV?$Vector@PBVString@@@@@@@@IAEXXZ 1004dafe f    CIL library: CIL module
 0001:0004cafe       __ehhandler$?rehash@?$HashtableCore@PAVFileTypeImpl@@@@IAEXXZ 1004dafe f    CIL library: CIL module
 0001:0004cafe       __ehhandler$?rehash@?$HashtableCore@PAVSharedInputSource@@@@IAEXXZ 1004dafe f    CIL library: CIL module
 0001:0004cafe       __ehhandler$?rehash@?$HashtableCore@PAVString@@@@IAEXXZ 1004dafe f    CIL library: CIL module
 0001:0004cafe       __ehhandler$?rehash@?$HashtableCore@PBVRegion@@@@IAEXXZ 1004dafe f    CIL library: CIL module
 0001:0004cafe       __ehhandler$?rehash@?$HashtableCore@PAVRegionDefine@@@@IAEXXZ 1004dafe f    CIL library: CIL module
 0001:0004cafe       __ehhandler$?rehash@?$HashtableCore@PBVString@@@@IAEXXZ 1004dafe f    CIL library: CIL module
 0001:0004cb10       __unwindfunclet$?getHRDescription@ParserFactory@@QAEPBVString@@ABV2@0@Z$2 1004db10 f    CIL library: CIL module
 0001:0004cb18       __unwindfunclet$?getHRDescription@ParserFactory@@QAEPBVString@@ABV2@0@Z$0 1004db18 f    CIL library: CIL module
 0001:0004cb22       __unwindfunclet$?getHRDescription@ParserFactory@@QAEPBVString@@ABV2@0@Z$7 1004db22 f    CIL library: CIL module
 0001:0004cb2a       __ehhandler$?getHRDescription@ParserFactory@@QAEPBVString@@ABV2@0@Z 1004db2a f    CIL library: CIL module
 0001:0004cb40       __unwindfunclet$?parseHRDSetsChild@ParserFactory@@QAEXPAVNode@@@Z$12 1004db40 f    CIL library: CIL module
 0001:0004cb4b       __unwindfunclet$?parseHRDSetsChild@ParserFactory@@QAEXPAVNode@@@Z$0 1004db4b f    CIL library: CIL module
 0001:0004cb58       __unwindfunclet$?parseHRDSetsChild@ParserFactory@@QAEXPAVNode@@@Z$14 1004db58 f    CIL library: CIL module
 0001:0004cb63       __unwindfunclet$?parseHRDSetsChild@ParserFactory@@QAEXPAVNode@@@Z$15 1004db63 f    CIL library: CIL module
 0001:0004cb6e       __unwindfunclet$?parseHRDSetsChild@ParserFactory@@QAEXPAVNode@@@Z$1 1004db6e f    CIL library: CIL module
 0001:0004cb7b       __unwindfunclet$?parseHRDSetsChild@ParserFactory@@QAEXPAVNode@@@Z$17 1004db7b f    CIL library: CIL module
 0001:0004cb86       __unwindfunclet$?parseHRDSetsChild@ParserFactory@@QAEXPAVNode@@@Z$2 1004db86 f    CIL library: CIL module
 0001:0004cb94       __unwindfunclet$?parseHRDSetsChild@ParserFactory@@QAEXPAVNode@@@Z$3 1004db94 f    CIL library: CIL module
 0001:0004cb9e       __unwindfunclet$?parseHRDSetsChild@ParserFactory@@QAEXPAVNode@@@Z$4 1004db9e f    CIL library: CIL module
 0001:0004cbac       __unwindfunclet$?parseHRDSetsChild@ParserFactory@@QAEXPAVNode@@@Z$5 1004dbac f    CIL library: CIL module
 0001:0004cbba       __unwindfunclet$?parseHRDSetsChild@ParserFactory@@QAEXPAVNode@@@Z$6 1004dbba f    CIL library: CIL module
 0001:0004cbc8       __unwindfunclet$?parseHRDSetsChild@ParserFactory@@QAEXPAVNode@@@Z$19 1004dbc8 f    CIL library: CIL module
 0001:0004cbd0       __unwindfunclet$?parseHRDSetsChild@ParserFactory@@QAEXPAVNode@@@Z$7 1004dbd0 f    CIL library: CIL module
 0001:0004cbf0       __unwindfunclet$?parseHRDSetsChild@ParserFactory@@QAEXPAVNode@@@Z$21 1004dbf0 f    CIL library: CIL module
 0001:0004cbfb       __unwindfunclet$?parseHRDSetsChild@ParserFactory@@QAEXPAVNode@@@Z$8 1004dbfb f    CIL library: CIL module
 0001:0004cc09       __unwindfunclet$?parseHRDSetsChild@ParserFactory@@QAEXPAVNode@@@Z$25 1004dc09 f    CIL library: CIL module
 0001:0004cc14       __unwindfunclet$?parseHRDSetsChild@ParserFactory@@QAEXPAVNode@@@Z$30 1004dc14 f    CIL library: CIL module
 0001:0004cc1c       __unwindfunclet$?parseHRDSetsChild@ParserFactory@@QAEXPAVNode@@@Z$9 1004dc1c f    CIL library: CIL module
 0001:0004cc26       __unwindfunclet$?parseHRDSetsChild@ParserFactory@@QAEXPAVNode@@@Z$10 1004dc26 f    CIL library: CIL module
 0001:0004cc34       __unwindfunclet$?parseHRDSetsChild@ParserFactory@@QAEXPAVNode@@@Z$34 1004dc34 f    CIL library: CIL module
 0001:0004cc3c       __unwindfunclet$?parseHRDSetsChild@ParserFactory@@QAEXPAVNode@@@Z$11 1004dc3c f    CIL library: CIL module
 0001:0004cc5c       __unwindfunclet$?parseHRDSetsChild@ParserFactory@@QAEXPAVNode@@@Z$36 1004dc5c f    CIL library: CIL module
 0001:0004cc67       __ehhandler$?parseHRDSetsChild@ParserFactory@@QAEXPAVNode@@@Z 1004dc67 f    CIL library: CIL module
 0001:0004cc80       __unwindfunclet$?chooseHRDName@FarEditorSet@@QAEPBVString@@PBV2@VDString@@@Z$0 1004dc80 f    CIL library: CIL module
 0001:0004cc8a       __unwindfunclet$?chooseHRDName@FarEditorSet@@QAEPBVString@@PBV2@VDString@@@Z$1 1004dc8a f    CIL library: CIL module
 0001:0004cc92       __unwindfunclet$?chooseHRDName@FarEditorSet@@QAEPBVString@@PBV2@VDString@@@Z$2 1004dc92 f    CIL library: CIL module
 0001:0004cc9a       __unwindfunclet$?chooseHRDName@FarEditorSet@@QAEPBVString@@PBV2@VDString@@@Z$3 1004dc9a f    CIL library: CIL module
 0001:0004cca2       __ehhandler$?chooseHRDName@FarEditorSet@@QAEPBVString@@PBV2@VDString@@@Z 1004dca2 f    CIL library: CIL module
 0001:0004ccb0       __unwindfunclet$?getHRDescription@FarEditorSet@@QAEPBVString@@ABV2@VDString@@@Z$0 1004dcb0 f    CIL library: CIL module
 0001:0004ccba       __unwindfunclet$?getHRDescription@FarEditorSet@@QAEPBVString@@ABV2@VDString@@@Z$1 1004dcba f    CIL library: CIL module
 0001:0004ccc2       __ehhandler$?getHRDescription@FarEditorSet@@QAEPBVString@@ABV2@VDString@@@Z 1004dcc2 f    CIL library: CIL module
 0001:0004ccd0       __unwindfunclet$?get@DocumentBuilder@@AAE_WXZ$1 1004dcd0 f    CIL library: CIL module
 0001:0004ccd0       __unwindfunclet$?consumeSpaces@DocumentBuilder@@AAEXH@Z$1 1004dcd0 f    CIL library: CIL module
 0001:0004ccd8       __unwindfunclet$?consumeSpaces@DocumentBuilder@@AAEXH@Z$0 1004dcd8 f    CIL library: CIL module
 0001:0004ccd8       __unwindfunclet$?get@DocumentBuilder@@AAE_WXZ$0 1004dcd8 f    CIL library: CIL module
 0001:0004cce2       __unwindfunclet$?get@DocumentBuilder@@AAE_WXZ$9 1004dce2 f    CIL library: CIL module
 0001:0004cce2       __unwindfunclet$?consumeSpaces@DocumentBuilder@@AAEXH@Z$3 1004dce2 f    CIL library: CIL module
 0001:0004ccea       __ehhandler$?consumeSpaces@DocumentBuilder@@AAEXH@Z 1004dcea f    CIL library: CIL module
 0001:0004ccea       __ehhandler$?get@DocumentBuilder@@AAE_WXZ 1004dcea f    CIL library: CIL module
 0001:0004cd00       __unwindfunclet$?put@?$HashtableCore@PAVSharedInputSource@@@@QAE_NPBVString@@PAVSharedInputSource@@@Z$0 1004dd00 f    CIL library: CIL module
 0001:0004cd00       __unwindfunclet$?put@?$HashtableCore@PBVString@@@@QAE_NPBVString@@0@Z$0 1004dd00 f    CIL library: CIL module
 0001:0004cd00       __unwindfunclet$?put@?$HashtableCore@PAVString@@@@QAE_NPBVString@@PAV2@@Z$0 1004dd00 f    CIL library: CIL module
 0001:0004cd00       __unwindfunclet$?put@?$HashtableCore@PAV?$Hashtable@PAV?$Vector@PBVString@@@@@@@@QAE_NPBVString@@PAV?$Hashtable@PAV?$Vector@PBVString@@@@@@@Z$0 1004dd00 f    CIL library: CIL module
 0001:0004cd00       __unwindfunclet$?put@?$HashtableCore@PBVRegion@@@@QAE_NPBVString@@PBVRegion@@@Z$0 1004dd00 f    CIL library: CIL module
 0001:0004cd00       __unwindfunclet$?put@?$HashtableCore@PAVFileTypeImpl@@@@QAE_NPBVString@@PAVFileTypeImpl@@@Z$0 1004dd00 f    CIL library: CIL module
 0001:0004cd00       __unwindfunclet$?put@?$HashtableCore@PAVRegionDefine@@@@QAE_NPBVString@@PAVRegionDefine@@@Z$0 1004dd00 f    CIL library: CIL module
 0001:0004cd00       __unwindfunclet$?put@?$HashtableCore@PAV?$Vector@PBVString@@@@@@QAE_NPBVString@@PAV?$Vector@PBVString@@@@@Z$0 1004dd00 f    CIL library: CIL module
 0001:0004cd00       __unwindfunclet$?put@?$HashtableCore@PAVFarEditor@@@@QAE_NPBVString@@PAVFarEditor@@@Z$0 1004dd00 f    CIL library: CIL module
 0001:0004cd00       __unwindfunclet$?put@?$HashtableCore@PAVSchemeImpl@@@@QAE_NPBVString@@PAVSchemeImpl@@@Z$0 1004dd00 f    CIL library: CIL module
 0001:0004cd0b       __unwindfunclet$?put@?$HashtableCore@PBVRegion@@@@QAE_NPBVString@@PBVRegion@@@Z$1 1004dd0b f    CIL library: CIL module
 0001:0004cd0b       __unwindfunclet$?put@?$HashtableCore@PAV?$Vector@PBVString@@@@@@QAE_NPBVString@@PAV?$Vector@PBVString@@@@@Z$1 1004dd0b f    CIL library: CIL module
 0001:0004cd0b       __unwindfunclet$?put@?$HashtableCore@PAV?$Hashtable@PAV?$Vector@PBVString@@@@@@@@QAE_NPBVString@@PAV?$Hashtable@PAV?$Vector@PBVString@@@@@@@Z$1 1004dd0b f    CIL library: CIL module
 0001:0004cd0b       __unwindfunclet$?put@?$HashtableCore@PAVSharedInputSource@@@@QAE_NPBVString@@PAVSharedInputSource@@@Z$1 1004dd0b f    CIL library: CIL module
 0001:0004cd0b       __unwindfunclet$?put@?$HashtableCore@PBVString@@@@QAE_NPBVString@@0@Z$1 1004dd0b f    CIL library: CIL module
 0001:0004cd0b       __unwindfunclet$?put@?$HashtableCore@PAVFileTypeImpl@@@@QAE_NPBVString@@PAVFileTypeImpl@@@Z$1 1004dd0b f    CIL library: CIL module
 0001:0004cd0b       __unwindfunclet$?put@?$HashtableCore@PAVString@@@@QAE_NPBVString@@PAV2@@Z$1 1004dd0b f    CIL library: CIL module
 0001:0004cd0b       __unwindfunclet$?put@?$HashtableCore@PAVRegionDefine@@@@QAE_NPBVString@@PAVRegionDefine@@@Z$1 1004dd0b f    CIL library: CIL module
 0001:0004cd0b       __unwindfunclet$?put@?$HashtableCore@PAVFarEditor@@@@QAE_NPBVString@@PAVFarEditor@@@Z$1 1004dd0b f    CIL library: CIL module
 0001:0004cd0b       __unwindfunclet$?put@?$HashtableCore@PAVSchemeImpl@@@@QAE_NPBVString@@PAVSchemeImpl@@@Z$1 1004dd0b f    CIL library: CIL module
 0001:0004cd16       __unwindfunclet$?put@?$HashtableCore@PAVSchemeImpl@@@@QAE_NPBVString@@PAVSchemeImpl@@@Z$2 1004dd16 f    CIL library: CIL module
 0001:0004cd16       __unwindfunclet$?put@?$HashtableCore@PBVRegion@@@@QAE_NPBVString@@PBVRegion@@@Z$2 1004dd16 f    CIL library: CIL module
 0001:0004cd16       __unwindfunclet$?put@?$HashtableCore@PAVString@@@@QAE_NPBVString@@PAV2@@Z$2 1004dd16 f    CIL library: CIL module
 0001:0004cd16       __unwindfunclet$?put@?$HashtableCore@PAVFileTypeImpl@@@@QAE_NPBVString@@PAVFileTypeImpl@@@Z$2 1004dd16 f    CIL library: CIL module
 0001:0004cd16       __unwindfunclet$?put@?$HashtableCore@PBVString@@@@QAE_NPBVString@@0@Z$2 1004dd16 f    CIL library: CIL module
 0001:0004cd16       __unwindfunclet$?put@?$HashtableCore@PAV?$Vector@PBVString@@@@@@QAE_NPBVString@@PAV?$Vector@PBVString@@@@@Z$2 1004dd16 f    CIL library: CIL module
 0001:0004cd16       __unwindfunclet$?put@?$HashtableCore@PAVFarEditor@@@@QAE_NPBVString@@PAVFarEditor@@@Z$2 1004dd16 f    CIL library: CIL module
 0001:0004cd16       __unwindfunclet$?put@?$HashtableCore@PAVSharedInputSource@@@@QAE_NPBVString@@PAVSharedInputSource@@@Z$2 1004dd16 f    CIL library: CIL module
 0001:0004cd16       __unwindfunclet$?put@?$HashtableCore@PAV?$Hashtable@PAV?$Vector@PBVString@@@@@@@@QAE_NPBVString@@PAV?$Hashtable@PAV?$Vector@PBVString@@@@@@@Z$2 1004dd16 f    CIL library: CIL module
 0001:0004cd16       __unwindfunclet$?put@?$HashtableCore@PAVRegionDefine@@@@QAE_NPBVString@@PAVRegionDefine@@@Z$2 1004dd16 f    CIL library: CIL module
 0001:0004cd1e       __ehhandler$?put@?$HashtableCore@PAVFarEditor@@@@QAE_NPBVString@@PAVFarEditor@@@Z 1004dd1e f    CIL library: CIL module
 0001:0004cd1e       __ehhandler$?put@?$HashtableCore@PBVRegion@@@@QAE_NPBVString@@PBVRegion@@@Z 1004dd1e f    CIL library: CIL module
 0001:0004cd1e       __ehhandler$?put@?$HashtableCore@PAV?$Hashtable@PAV?$Vector@PBVString@@@@@@@@QAE_NPBVString@@PAV?$Hashtable@PAV?$Vector@PBVString@@@@@@@Z 1004dd1e f    CIL library: CIL module
 0001:0004cd1e       __ehhandler$?put@?$HashtableCore@PAVSchemeImpl@@@@QAE_NPBVString@@PAVSchemeImpl@@@Z 1004dd1e f    CIL library: CIL module
 0001:0004cd1e       __ehhandler$?put@?$HashtableCore@PAVString@@@@QAE_NPBVString@@PAV2@@Z 1004dd1e f    CIL library: CIL module
 0001:0004cd1e       __ehhandler$?put@?$HashtableCore@PBVString@@@@QAE_NPBVString@@0@Z 1004dd1e f    CIL library: CIL module
 0001:0004cd1e       __ehhandler$?put@?$HashtableCore@PAVRegionDefine@@@@QAE_NPBVString@@PAVRegionDefine@@@Z 1004dd1e f    CIL library: CIL module
 0001:0004cd1e       __ehhandler$?put@?$HashtableCore@PAVSharedInputSource@@@@QAE_NPBVString@@PAVSharedInputSource@@@Z 1004dd1e f    CIL library: CIL module
 0001:0004cd1e       __ehhandler$?put@?$HashtableCore@PAV?$Vector@PBVString@@@@@@QAE_NPBVString@@PAV?$Vector@PBVString@@@@@Z 1004dd1e f    CIL library: CIL module
 0001:0004cd1e       __ehhandler$?put@?$HashtableCore@PAVFileTypeImpl@@@@QAE_NPBVString@@PAVFileTypeImpl@@@Z 1004dd1e f    CIL library: CIL module
 0001:0004cd30       __unwindfunclet$?openStream@JARInputSource@@UAEPBEXZ$0 1004dd30 f    CIL library: CIL module
 0001:0004cd3d       __unwindfunclet$?openStream@JARInputSource@@UAEPBEXZ$1 1004dd3d f    CIL library: CIL module
 0001:0004cd4a       __unwindfunclet$?openStream@JARInputSource@@UAEPBEXZ$2 1004dd4a f    CIL library: CIL module
 0001:0004cd57       __unwindfunclet$?openStream@JARInputSource@@UAEPBEXZ$3 1004dd57 f    CIL library: CIL module
 0001:0004cd64       __unwindfunclet$?openStream@JARInputSource@@UAEPBEXZ$4 1004dd64 f    CIL library: CIL module
 0001:0004cd71       __unwindfunclet$?openStream@JARInputSource@@UAEPBEXZ$5 1004dd71 f    CIL library: CIL module
 0001:0004cd7e       __unwindfunclet$?openStream@JARInputSource@@UAEPBEXZ$6 1004dd7e f    CIL library: CIL module
 0001:0004cd88       __unwindfunclet$?openStream@JARInputSource@@UAEPBEXZ$7 1004dd88 f    CIL library: CIL module
 0001:0004cd92       __ehhandler$?openStream@JARInputSource@@UAEPBEXZ 1004dd92 f    CIL library: CIL module
 0001:0004cda0       __unwindfunclet$?closeStream@HTTPInputSource@@UAEXXZ$0 1004dda0 f    CIL library: CIL module
 0001:0004cda0       __unwindfunclet$?closeStream@FileInputSource@@UAEXXZ$0 1004dda0 f    CIL library: CIL module
 0001:0004cda0       __unwindfunclet$?closeStream@JARInputSource@@UAEXXZ$0 1004dda0 f    CIL library: CIL module
 0001:0004cdaa       __ehhandler$?closeStream@HTTPInputSource@@UAEXXZ 1004ddaa f    CIL library: CIL module
 0001:0004cdaa       __ehhandler$?closeStream@FileInputSource@@UAEXXZ 1004ddaa f    CIL library: CIL module
 0001:0004cdaa       __ehhandler$?closeStream@JARInputSource@@UAEXXZ 1004ddaa f    CIL library: CIL module
 0001:0004cdc0       __unwindfunclet$?openStream@FileInputSource@@UAEPBEXZ$0 1004ddc0 f    CIL library: CIL module
 0001:0004cdca       __unwindfunclet$?openStream@FileInputSource@@UAEPBEXZ$1 1004ddca f    CIL library: CIL module
 0001:0004cdd4       __ehhandler$?openStream@FileInputSource@@UAEPBEXZ 1004ddd4 f    CIL library: CIL module
 0001:0004cde0       __unwindfunclet$??0Exception@@QAE@ABVString@@@Z$0 1004dde0 f    CIL library: CIL module
 0001:0004cdeb       __unwindfunclet$??0Exception@@QAE@ABVString@@@Z$2 1004ddeb f    CIL library: CIL module
 0001:0004cdf3       __unwindfunclet$??0Exception@@QAE@ABVString@@@Z$1 1004ddf3 f    CIL library: CIL module
 0001:0004ce0d       __unwindfunclet$??0Exception@@QAE@ABVString@@@Z$5 1004de0d f    CIL library: CIL module
 0001:0004ce15       __unwindfunclet$??0Exception@@QAE@ABVString@@@Z$9 1004de15 f    CIL library: CIL module
 0001:0004ce1d       __ehhandler$??0Exception@@QAE@ABVString@@@Z 1004de1d f    CIL library: CIL module
 0001:0004ce30       __unwindfunclet$?toBytes@Encodings@@SAHH_WPAE@Z$1 1004de30 f    CIL library: CIL module
 0001:0004ce3a       __unwindfunclet$?toBytes@Encodings@@SAHH_WPAE@Z$0 1004de3a f    CIL library: CIL module
 0001:0004ce44       __unwindfunclet$?toBytes@Encodings@@SAHH_WPAE@Z$2 1004de44 f    CIL library: CIL module
 0001:0004ce4c       __unwindfunclet$?toBytes@Encodings@@SAHH_WPAE@Z$3 1004de4c f    CIL library: CIL module
 0001:0004ce57       __ehhandler$?toBytes@Encodings@@SAHH_WPAE@Z 1004de57 f    CIL library: CIL module
 0001:0004ce70       __unwindfunclet$??0DString@@QAE@ABVString@@HH@Z$0 1004de70 f    CIL library: CIL module
 0001:0004ce70       __unwindfunclet$??0DString@@QAE@PB_WHH@Z$0 1004de70 f    CIL library: CIL module
 0001:0004ce70       __unwindfunclet$??0DString@@QAE@PBVString@@HH@Z$0 1004de70 f    CIL library: CIL module
 0001:0004ce78       __unwindfunclet$??0DString@@QAE@ABVString@@HH@Z$2 1004de78 f    CIL library: CIL module
 0001:0004ce78       __unwindfunclet$??0DString@@QAE@PB_WHH@Z$2 1004de78 f    CIL library: CIL module
 0001:0004ce78       __unwindfunclet$??0DString@@QAE@PBVString@@HH@Z$2 1004de78 f    CIL library: CIL module
 0001:0004ce80       __unwindfunclet$??0DString@@QAE@PB_WHH@Z$1 1004de80 f    CIL library: CIL module
 0001:0004ce80       __unwindfunclet$??0DString@@QAE@PBVString@@HH@Z$1 1004de80 f    CIL library: CIL module
 0001:0004ce80       __unwindfunclet$??0DString@@QAE@ABVString@@HH@Z$1 1004de80 f    CIL library: CIL module
 0001:0004ce8a       __ehhandler$??0DString@@QAE@ABVString@@HH@Z 1004de8a f    CIL library: CIL module
 0001:0004ce8a       __ehhandler$??0DString@@QAE@PB_WHH@Z 1004de8a f    CIL library: CIL module
 0001:0004ce8a       __ehhandler$??0DString@@QAE@PBVString@@HH@Z 1004de8a f    CIL library: CIL module
 0001:0004cea0       __unwindfunclet$?clearCategory@CharacterClass@@QAEXPBD@Z$1 1004dea0 f    CIL library: CIL module
 0001:0004cea0       __unwindfunclet$?equals@String@@QBE_NPBD@Z$1 1004dea0 f    CIL library: CIL module
 0001:0004cea0       __unwindfunclet$?addCategory@CharacterClass@@QAEXPBD@Z$1 1004dea0 f    CIL library: CIL module
 0001:0004cea8       __unwindfunclet$?equals@String@@QBE_NPBD@Z$0 1004dea8 f    CIL library: CIL module
 0001:0004cea8       __unwindfunclet$?clearCategory@CharacterClass@@QAEXPBD@Z$0 1004dea8 f    CIL library: CIL module
 0001:0004cea8       __unwindfunclet$?addCategory@CharacterClass@@QAEXPBD@Z$0 1004dea8 f    CIL library: CIL module
 0001:0004ceb2       __unwindfunclet$?clearCategory@CharacterClass@@QAEXPBD@Z$3 1004deb2 f    CIL library: CIL module
 0001:0004ceb2       __unwindfunclet$?equals@String@@QBE_NPBD@Z$6 1004deb2 f    CIL library: CIL module
 0001:0004ceb2       __unwindfunclet$?addCategory@CharacterClass@@QAEXPBD@Z$3 1004deb2 f    CIL library: CIL module
 0001:0004ceba       __ehhandler$?clearCategory@CharacterClass@@QAEXPBD@Z 1004deba f    CIL library: CIL module
 0001:0004ceba       __ehhandler$?addCategory@CharacterClass@@QAEXPBD@Z 1004deba f    CIL library: CIL module
 0001:0004ceba       __ehhandler$?equals@String@@QBE_NPBD@Z 1004deba f    CIL library: CIL module
 0001:0004ced0       __unwindfunclet$?substrIndex@KeywordList@@QAEXXZ$1 1004ded0 f    CIL library: CIL module
 0001:0004ced8       __unwindfunclet$?substrIndex@KeywordList@@QAEXXZ$0 1004ded8 f    CIL library: CIL module
 0001:0004cef2       __unwindfunclet$?substrIndex@KeywordList@@QAEXXZ$5 1004def2 f    CIL library: CIL module
 0001:0004cefa       __unwindfunclet$?substrIndex@KeywordList@@QAEXXZ$3 1004defa f    CIL library: CIL module
 0001:0004cf02       __unwindfunclet$?substrIndex@KeywordList@@QAEXXZ$2 1004df02 f    CIL library: CIL module
 0001:0004cf0c       __ehhandler$?substrIndex@KeywordList@@QAEXXZ 1004df0c f    CIL library: CIL module
 0001:0004cf20       __unwindfunclet$?searchKW@TextParserImpl@@AAEHPBVSchemeNode@@HHH@Z$2 1004df20 f    CIL library: CIL module
 0001:0004cf28       __unwindfunclet$?searchKW@TextParserImpl@@AAEHPBVSchemeNode@@HHH@Z$0 1004df28 f    CIL library: CIL module
 0001:0004cf32       __unwindfunclet$?searchKW@TextParserImpl@@AAEHPBVSchemeNode@@HHH@Z$6 1004df32 f    CIL library: CIL module
 0001:0004cf3a       __unwindfunclet$?searchKW@TextParserImpl@@AAEHPBVSchemeNode@@HHH@Z$7 1004df3a f    CIL library: CIL module
 0001:0004cf42       __unwindfunclet$?searchKW@TextParserImpl@@AAEHPBVSchemeNode@@HHH@Z$1 1004df42 f    CIL library: CIL module
 0001:0004cf4c       __unwindfunclet$?searchKW@TextParserImpl@@AAEHPBVSchemeNode@@HHH@Z$11 1004df4c f    CIL library: CIL module
 0001:0004cf54       __unwindfunclet$?searchKW@TextParserImpl@@AAEHPBVSchemeNode@@HHH@Z$4 1004df54 f    CIL library: CIL module
 0001:0004cf5f       __unwindfunclet$?searchKW@TextParserImpl@@AAEHPBVSchemeNode@@HHH@Z$3 1004df5f f    CIL library: CIL module
 0001:0004cf6c       __unwindfunclet$?searchKW@TextParserImpl@@AAEHPBVSchemeNode@@HHH@Z$9 1004df6c f    CIL library: CIL module
 0001:0004cf77       __unwindfunclet$?searchKW@TextParserImpl@@AAEHPBVSchemeNode@@HHH@Z$8 1004df77 f    CIL library: CIL module
 0001:0004cf84       __ehhandler$?searchKW@TextParserImpl@@AAEHPBVSchemeNode@@HHH@Z 1004df84 f    CIL library: CIL module
 0001:0004cf90       __unwindfunclet$?qualifyForeignName@HRCParserImpl@@IAEPAVString@@PBV2@W4QualifyNameType@1@_N@Z$6 1004df90 f    CIL library: CIL module
 0001:0004cf98       __unwindfunclet$?qualifyForeignName@HRCParserImpl@@IAEPAVString@@PBV2@W4QualifyNameType@1@_N@Z$0 1004df98 f    CIL library: CIL module
 0001:0004cfa2       __unwindfunclet$?qualifyForeignName@HRCParserImpl@@IAEPAVString@@PBV2@W4QualifyNameType@1@_N@Z$1 1004dfa2 f    CIL library: CIL module
 0001:0004cfac       __unwindfunclet$?qualifyForeignName@HRCParserImpl@@IAEPAVString@@PBV2@W4QualifyNameType@1@_N@Z$2 1004dfac f    CIL library: CIL module
 0001:0004cfb7       __unwindfunclet$?qualifyForeignName@HRCParserImpl@@IAEPAVString@@PBV2@W4QualifyNameType@1@_N@Z$10 1004dfb7 f    CIL library: CIL module
 0001:0004cfbf       __unwindfunclet$?qualifyForeignName@HRCParserImpl@@IAEPAVString@@PBV2@W4QualifyNameType@1@_N@Z$8 1004dfbf f    CIL library: CIL module
 0001:0004cfc7       __unwindfunclet$?qualifyForeignName@HRCParserImpl@@IAEPAVString@@PBV2@W4QualifyNameType@1@_N@Z$7 1004dfc7 f    CIL library: CIL module
 0001:0004cfd1       __unwindfunclet$?qualifyForeignName@HRCParserImpl@@IAEPAVString@@PBV2@W4QualifyNameType@1@_N@Z$3 1004dfd1 f    CIL library: CIL module
 0001:0004cfdc       __unwindfunclet$?qualifyForeignName@HRCParserImpl@@IAEPAVString@@PBV2@W4QualifyNameType@1@_N@Z$16 1004dfdc f    CIL library: CIL module
 0001:0004cfe4       __unwindfunclet$?qualifyForeignName@HRCParserImpl@@IAEPAVString@@PBV2@W4QualifyNameType@1@_N@Z$20 1004dfe4 f    CIL library: CIL module
 0001:0004cfec       __unwindfunclet$?qualifyForeignName@HRCParserImpl@@IAEPAVString@@PBV2@W4QualifyNameType@1@_N@Z$4 1004dfec f    CIL library: CIL module
 0001:0004cff6       __unwindfunclet$?qualifyForeignName@HRCParserImpl@@IAEPAVString@@PBV2@W4QualifyNameType@1@_N@Z$22 1004dff6 f    CIL library: CIL module
 0001:0004cffe       __unwindfunclet$?qualifyForeignName@HRCParserImpl@@IAEPAVString@@PBV2@W4QualifyNameType@1@_N@Z$14 1004dffe f    CIL library: CIL module
 0001:0004d008       __unwindfunclet$?qualifyForeignName@HRCParserImpl@@IAEPAVString@@PBV2@W4QualifyNameType@1@_N@Z$5 1004e008 f    CIL library: CIL module
 0001:0004d012       __unwindfunclet$?qualifyForeignName@HRCParserImpl@@IAEPAVString@@PBV2@W4QualifyNameType@1@_N@Z$27 1004e012 f    CIL library: CIL module
 0001:0004d01a       __ehhandler$?qualifyForeignName@HRCParserImpl@@IAEPAVString@@PBV2@W4QualifyNameType@1@_N@Z 1004e01a f    CIL library: CIL module
 0001:0004d030       __unwindfunclet$?qualifyOwnName@HRCParserImpl@@IAEPAVString@@PBV2@@Z$5 1004e030 f    CIL library: CIL module
 0001:0004d038       __unwindfunclet$?qualifyOwnName@HRCParserImpl@@IAEPAVString@@PBV2@@Z$0 1004e038 f    CIL library: CIL module
 0001:0004d052       __unwindfunclet$?qualifyOwnName@HRCParserImpl@@IAEPAVString@@PBV2@@Z$7 1004e052 f    CIL library: CIL module
 0001:0004d05a       __unwindfunclet$?qualifyOwnName@HRCParserImpl@@IAEPAVString@@PBV2@@Z$6 1004e05a f    CIL library: CIL module
 0001:0004d064       __unwindfunclet$?qualifyOwnName@HRCParserImpl@@IAEPAVString@@PBV2@@Z$1 1004e064 f    CIL library: CIL module
 0001:0004d06e       __unwindfunclet$?qualifyOwnName@HRCParserImpl@@IAEPAVString@@PBV2@@Z$2 1004e06e f    CIL library: CIL module
 0001:0004d079       __unwindfunclet$?qualifyOwnName@HRCParserImpl@@IAEPAVString@@PBV2@@Z$9 1004e079 f    CIL library: CIL module
 0001:0004d081       __unwindfunclet$?qualifyOwnName@HRCParserImpl@@IAEPAVString@@PBV2@@Z$3 1004e081 f    CIL library: CIL module
 0001:0004d08c       __unwindfunclet$?qualifyOwnName@HRCParserImpl@@IAEPAVString@@PBV2@@Z$14 1004e08c f    CIL library: CIL module
 0001:0004d094       __unwindfunclet$?qualifyOwnName@HRCParserImpl@@IAEPAVString@@PBV2@@Z$18 1004e094 f    CIL library: CIL module
 0001:0004d09c       __unwindfunclet$?qualifyOwnName@HRCParserImpl@@IAEPAVString@@PBV2@@Z$4 1004e09c f    CIL library: CIL module
 0001:0004d0a6       __ehhandler$?qualifyOwnName@HRCParserImpl@@IAEPAVString@@PBV2@@Z 1004e0a6 f    CIL library: CIL module
 0001:0004d0b0       __unwindfunclet$?updateLinks@HRCParserImpl@@IAEXXZ$0 1004e0b0 f    CIL library: CIL module
 0001:0004d0ba       __unwindfunclet$?updateLinks@HRCParserImpl@@IAEXXZ$5 1004e0ba f    CIL library: CIL module
 0001:0004d0c2       __unwindfunclet$?updateLinks@HRCParserImpl@@IAEXXZ$1 1004e0c2 f    CIL library: CIL module
 0001:0004d0cc       __unwindfunclet$?updateLinks@HRCParserImpl@@IAEXXZ$8 1004e0cc f    CIL library: CIL module
 0001:0004d0d4       __unwindfunclet$?updateLinks@HRCParserImpl@@IAEXXZ$2 1004e0d4 f    CIL library: CIL module
 0001:0004d0de       __unwindfunclet$?updateLinks@HRCParserImpl@@IAEXXZ$10 1004e0de f    CIL library: CIL module
 0001:0004d0e6       __unwindfunclet$?updateLinks@HRCParserImpl@@IAEXXZ$6 1004e0e6 f    CIL library: CIL module
 0001:0004d0f0       __unwindfunclet$?updateLinks@HRCParserImpl@@IAEXXZ$3 1004e0f0 f    CIL library: CIL module
 0001:0004d0fa       __ehhandler$?updateLinks@HRCParserImpl@@IAEXXZ 1004e0fa f    CIL library: CIL module
 0001:0004d110       __unwindfunclet$?insertElementAt@?$Vector@PAVLineRegion@@@@QAEXQAVLineRegion@@H@Z$0 1004e110 f    CIL library: CIL module
 0001:0004d110       __unwindfunclet$?insertElementAt@?$Vector@PAVSchemeNode@@@@QAEXQAVSchemeNode@@H@Z$0 1004e110 f    CIL library: CIL module
 0001:0004d110       __unwindfunclet$?insertElementAt@?$Vector@PAVFileTypeImpl@@@@QAEXQAVFileTypeImpl@@H@Z$0 1004e110 f    CIL library: CIL module
 0001:0004d110       __unwindfunclet$?insertElementAt@?$Vector@PAVRegionHandler@@@@QAEXQAVRegionHandler@@H@Z$0 1004e110 f    CIL library: CIL module
 0001:0004d110       __unwindfunclet$?insertElementAt@?$Vector@PAVEditorListener@@@@QAEXQAVEditorListener@@H@Z$0 1004e110 f    CIL library: CIL module
 0001:0004d110       __unwindfunclet$?insertElementAt@?$Vector@PAE@@QAEXQAEH@Z$0 1004e110 f    CIL library: CIL module
 0001:0004d110       __unwindfunclet$?insertElementAt@?$Vector@PAVOutlineItem@@@@QAEXQAVOutlineItem@@H@Z$0 1004e110 f    CIL library: CIL module
 0001:0004d110       __unwindfunclet$?unloadFileType@HRCParserImpl@@IAEXPAVFileTypeImpl@@@Z$0 1004e110 f    CIL library: CIL module
 0001:0004d110       __unwindfunclet$?insertElementAt@?$Vector@H@@QAEXHH@Z$0 1004e110 f    CIL library: CIL module
 0001:0004d110       __unwindfunclet$?insertElementAt@?$Vector@PAVVirtualEntry@@@@QAEXQAVVirtualEntry@@H@Z$0 1004e110 f    CIL library: CIL module
 0001:0004d110       __unwindfunclet$?insertElementAt@?$Vector@PBVRegion@@@@QAEXQBVRegion@@H@Z$0 1004e110 f    CIL library: CIL module
 0001:0004d110       __unwindfunclet$?insertElementAt@?$Vector@PAVFileTypeChooser@@@@QAEXQAVFileTypeChooser@@H@Z$0 1004e110 f    CIL library: CIL module
 0001:0004d11a       __ehhandler$?insertElementAt@?$Vector@PAVSchemeNode@@@@QAEXQAVSchemeNode@@H@Z 1004e11a f    CIL library: CIL module
 0001:0004d11a       __ehhandler$?insertElementAt@?$Vector@H@@QAEXHH@Z 1004e11a f    CIL library: CIL module
 0001:0004d11a       __ehhandler$?unloadFileType@HRCParserImpl@@IAEXPAVFileTypeImpl@@@Z 1004e11a f    CIL library: CIL module
 0001:0004d11a       __ehhandler$?insertElementAt@?$Vector@PAVOutlineItem@@@@QAEXQAVOutlineItem@@H@Z 1004e11a f    CIL library: CIL module
 0001:0004d11a       __ehhandler$?insertElementAt@?$Vector@PBVRegion@@@@QAEXQBVRegion@@H@Z 1004e11a f    CIL library: CIL module
 0001:0004d11a       __ehhandler$?insertElementAt@?$Vector@PAVEditorListener@@@@QAEXQAVEditorListener@@H@Z 1004e11a f    CIL library: CIL module
 0001:0004d11a       __ehhandler$?insertElementAt@?$Vector@PAVFileTypeChooser@@@@QAEXQAVFileTypeChooser@@H@Z 1004e11a f    CIL library: CIL module
 0001:0004d11a       __ehhandler$?insertElementAt@?$Vector@PAE@@QAEXQAEH@Z 1004e11a f    CIL library: CIL module
 0001:0004d11a       __ehhandler$?insertElementAt@?$Vector@PAVVirtualEntry@@@@QAEXQAVVirtualEntry@@H@Z 1004e11a f    CIL library: CIL module
 0001:0004d11a       __ehhandler$?insertElementAt@?$Vector@PAVLineRegion@@@@QAEXQAVLineRegion@@H@Z 1004e11a f    CIL library: CIL module
 0001:0004d11a       __ehhandler$?insertElementAt@?$Vector@PAVRegionHandler@@@@QAEXQAVRegionHandler@@H@Z 1004e11a f    CIL library: CIL module
 0001:0004d11a       __ehhandler$?insertElementAt@?$Vector@PAVFileTypeImpl@@@@QAEXQAVFileTypeImpl@@H@Z 1004e11a f    CIL library: CIL module
 0001:0004d130       __unwindfunclet$??0UnsupportedEncodingException@@QAE@ABV0@@Z$1 1004e130 f    CIL library: CIL module
 0001:0004d130       __unwindfunclet$??0HRCParserException@@QAE@ABV0@@Z$1 1004e130 f    CIL library: CIL module
 0001:0004d130       __unwindfunclet$??0ParserFactoryException@@QAE@ABV0@@Z$1 1004e130 f    CIL library: CIL module
 0001:0004d130       __unwindfunclet$?setParamDescription@FileTypeImpl@@QAEXABVString@@PBV2@@Z$0 1004e130 f    CIL library: CIL module
 0001:0004d130       __unwindfunclet$??0StringIndexOutOfBoundsException@@QAE@ABV0@@Z$1 1004e130 f    CIL library: CIL module
 0001:0004d130       __unwindfunclet$?setParamValue@FileTypeImpl@@UAEXABVString@@PBV2@@Z$0 1004e130 f    CIL library: CIL module
 0001:0004d130       __unwindfunclet$??0ParseException@@QAE@ABV0@@Z$1 1004e130 f    CIL library: CIL module
 0001:0004d130       __unwindfunclet$??0FarHrcSettingsException@@QAE@ABV0@@Z$1 1004e130 f    CIL library: CIL module
 0001:0004d130       __unwindfunclet$?setParamDefaultValue@FileTypeImpl@@QAEXABVString@@PBV2@@Z$0 1004e130 f    CIL library: CIL module
 0001:0004d130       __unwindfunclet$??0Exception@@QAE@ABV0@@Z$0 1004e130 f    CIL library: CIL module
 0001:0004d130       __unwindfunclet$?addParam@FileTypeImpl@@QAEXPBVString@@@Z$0 1004e130 f    CIL library: CIL module
 0001:0004d130       __unwindfunclet$??0OutOfBoundException@@QAE@ABV0@@Z$1 1004e130 f    CIL library: CIL module
 0001:0004d130       __unwindfunclet$??0InputSourceException@@QAE@ABV0@@Z$1 1004e130 f    CIL library: CIL module
 0001:0004d13b       __unwindfunclet$?addParam@FileTypeImpl@@QAEXPBVString@@@Z$1 1004e13b f    CIL library: CIL module
 0001:0004d13b       __unwindfunclet$??0InputSourceException@@QAE@ABV0@@Z$3 1004e13b f    CIL library: CIL module
 0001:0004d13b       __unwindfunclet$??0OutOfBoundException@@QAE@ABV0@@Z$3 1004e13b f    CIL library: CIL module
 0001:0004d13b       __unwindfunclet$??0ParseException@@QAE@ABV0@@Z$3 1004e13b f    CIL library: CIL module
 0001:0004d13b       __unwindfunclet$??0HRCParserException@@QAE@ABV0@@Z$3 1004e13b f    CIL library: CIL module
 0001:0004d13b       __unwindfunclet$??0UnsupportedEncodingException@@QAE@ABV0@@Z$3 1004e13b f    CIL library: CIL module
 0001:0004d13b       __unwindfunclet$??0FarHrcSettingsException@@QAE@ABV0@@Z$3 1004e13b f    CIL library: CIL module
 0001:0004d13b       __unwindfunclet$?setParamDescription@FileTypeImpl@@QAEXABVString@@PBV2@@Z$1 1004e13b f    CIL library: CIL module
 0001:0004d13b       __unwindfunclet$??0ParserFactoryException@@QAE@ABV0@@Z$3 1004e13b f    CIL library: CIL module
 0001:0004d13b       __unwindfunclet$??0Exception@@QAE@ABV0@@Z$2 1004e13b f    CIL library: CIL module
 0001:0004d13b       __unwindfunclet$?setParamDefaultValue@FileTypeImpl@@QAEXABVString@@PBV2@@Z$1 1004e13b f    CIL library: CIL module
 0001:0004d13b       __unwindfunclet$??0StringIndexOutOfBoundsException@@QAE@ABV0@@Z$3 1004e13b f    CIL library: CIL module
 0001:0004d13b       __unwindfunclet$?setParamValue@FileTypeImpl@@UAEXABVString@@PBV2@@Z$1 1004e13b f    CIL library: CIL module
 0001:0004d143       __ehhandler$??0Exception@@QAE@ABV0@@Z 1004e143 f    CIL library: CIL module
 0001:0004d143       __ehhandler$?setParamDescription@FileTypeImpl@@QAEXABVString@@PBV2@@Z 1004e143 f    CIL library: CIL module
 0001:0004d143       __ehhandler$??0StringIndexOutOfBoundsException@@QAE@ABV0@@Z 1004e143 f    CIL library: CIL module
 0001:0004d143       __ehhandler$??0UnsupportedEncodingException@@QAE@ABV0@@Z 1004e143 f    CIL library: CIL module
 0001:0004d143       __ehhandler$??0InputSourceException@@QAE@ABV0@@Z 1004e143 f    CIL library: CIL module
 0001:0004d143       __ehhandler$??0OutOfBoundException@@QAE@ABV0@@Z 1004e143 f    CIL library: CIL module
 0001:0004d143       __ehhandler$?addParam@FileTypeImpl@@QAEXPBVString@@@Z 1004e143 f    CIL library: CIL module
 0001:0004d143       __ehhandler$??0FarHrcSettingsException@@QAE@ABV0@@Z 1004e143 f    CIL library: CIL module
 0001:0004d143       __ehhandler$??0HRCParserException@@QAE@ABV0@@Z 1004e143 f    CIL library: CIL module
 0001:0004d143       __ehhandler$??0ParseException@@QAE@ABV0@@Z 1004e143 f    CIL library: CIL module
 0001:0004d143       __ehhandler$?setParamValue@FileTypeImpl@@UAEXABVString@@PBV2@@Z 1004e143 f    CIL library: CIL module
 0001:0004d143       __ehhandler$?setParamDefaultValue@FileTypeImpl@@QAEXABVString@@PBV2@@Z 1004e143 f    CIL library: CIL module
 0001:0004d143       __ehhandler$??0ParserFactoryException@@QAE@ABV0@@Z 1004e143 f    CIL library: CIL module
 0001:0004d150       __unwindfunclet$?addRegion@Outliner@@UAEXHPAVString@@HHPBVRegion@@@Z$0 1004e150 f    CIL library: CIL module
 0001:0004d15b       __unwindfunclet$?addRegion@Outliner@@UAEXHPAVString@@HHPBVRegion@@@Z$1 1004e15b f    CIL library: CIL module
 0001:0004d166       __ehhandler$?addRegion@Outliner@@UAEXHPAVString@@HHPBVRegion@@@Z 1004e166 f    CIL library: CIL module
 0001:0004d170       __unwindfunclet$??1Outliner@@UAE@XZ$0 1004e170 f    CIL library: CIL module
 0001:0004d170       __unwindfunclet$??0Outliner@@QAE@PAVBaseEditor@@PBVRegion@@@Z$0 1004e170 f    CIL library: CIL module
 0001:0004d178       __unwindfunclet$??0Outliner@@QAE@PAVBaseEditor@@PBVRegion@@@Z$1 1004e178 f    CIL library: CIL module
 0001:0004d178       __unwindfunclet$??1Outliner@@UAE@XZ$1 1004e178 f    CIL library: CIL module
 0001:0004d183       __ehhandler$??0Outliner@@QAE@PAVBaseEditor@@PBVRegion@@@Z 1004e183 f    CIL library: CIL module
 0001:0004d183       __ehhandler$??1Outliner@@UAE@XZ 1004e183 f    CIL library: CIL module
 0001:0004d190       __unwindfunclet$??1StyledHRDMapper@@UAE@XZ$0 1004e190 f    CIL library: CIL module
 0001:0004d19a       __unwindfunclet$??1StyledHRDMapper@@UAE@XZ$1 1004e19a f    CIL library: CIL module
 0001:0004d1a2       __unwindfunclet$??1StyledHRDMapper@@UAE@XZ$2 1004e1a2 f    CIL library: CIL module
 0001:0004d1ad       __ehhandler$??1StyledHRDMapper@@UAE@XZ 1004e1ad f    CIL library: CIL module
 0001:0004d1c0       __unwindfunclet$?clearLine@LineRegionsSupport@@UAEXHPAVString@@@Z$0 1004e1c0 f    CIL library: CIL module
 0001:0004d1cb       __unwindfunclet$?clearLine@LineRegionsSupport@@UAEXHPAVString@@@Z$2 1004e1cb f    CIL library: CIL module
 0001:0004d1d5       __ehhandler$?clearLine@LineRegionsSupport@@UAEXHPAVString@@@Z 1004e1d5 f    CIL library: CIL module
 0001:0004d1e0       __unwindfunclet$?clear@LineRegionsSupport@@QAEXXZ$0 1004e1e0 f    CIL library: CIL module
 0001:0004d1ea       __ehhandler$?clear@LineRegionsSupport@@QAEXXZ 1004e1ea f    CIL library: CIL module
 0001:0004d200       __unwindfunclet$??1LineRegionsSupport@@UAE@XZ$0 1004e200 f    CIL library: CIL module
 0001:0004d208       __unwindfunclet$??1LineRegionsSupport@@UAE@XZ$1 1004e208 f    CIL library: CIL module
 0001:0004d213       __unwindfunclet$??1LineRegionsSupport@@UAE@XZ$2 1004e213 f    CIL library: CIL module
 0001:0004d21e       __unwindfunclet$??1LineRegionsSupport@@UAE@XZ$3 1004e21e f    CIL library: CIL module
 0001:0004d229       __ehhandler$??1LineRegionsSupport@@UAE@XZ 1004e229 f    CIL library: CIL module
 0001:0004d240       __unwindfunclet$?fatalError@ErrorHandlerWriter@@UAEXABVString@@@Z$2 1004e240 f    CIL library: CIL module
 0001:0004d240       __unwindfunclet$?warning@ErrorHandlerWriter@@UAEXABVString@@@Z$2 1004e240 f    CIL library: CIL module
 0001:0004d240       __unwindfunclet$?error@ErrorHandlerWriter@@UAEXABVString@@@Z$2 1004e240 f    CIL library: CIL module
 0001:0004d248       __unwindfunclet$?fatalError@ErrorHandlerWriter@@UAEXABVString@@@Z$0 1004e248 f    CIL library: CIL module
 0001:0004d248       __unwindfunclet$?error@ErrorHandlerWriter@@UAEXABVString@@@Z$0 1004e248 f    CIL library: CIL module
 0001:0004d248       __unwindfunclet$?warning@ErrorHandlerWriter@@UAEXABVString@@@Z$0 1004e248 f    CIL library: CIL module
 0001:0004d252       __unwindfunclet$?fatalError@ErrorHandlerWriter@@UAEXABVString@@@Z$4 1004e252 f    CIL library: CIL module
 0001:0004d252       __unwindfunclet$?error@ErrorHandlerWriter@@UAEXABVString@@@Z$4 1004e252 f    CIL library: CIL module
 0001:0004d252       __unwindfunclet$?warning@ErrorHandlerWriter@@UAEXABVString@@@Z$4 1004e252 f    CIL library: CIL module
 0001:0004d25a       __unwindfunclet$?warning@ErrorHandlerWriter@@UAEXABVString@@@Z$5 1004e25a f    CIL library: CIL module
 0001:0004d25a       __unwindfunclet$?error@ErrorHandlerWriter@@UAEXABVString@@@Z$5 1004e25a f    CIL library: CIL module
 0001:0004d25a       __unwindfunclet$?fatalError@ErrorHandlerWriter@@UAEXABVString@@@Z$5 1004e25a f    CIL library: CIL module
 0001:0004d262       __unwindfunclet$?fatalError@ErrorHandlerWriter@@UAEXABVString@@@Z$1 1004e262 f    CIL library: CIL module
 0001:0004d262       __unwindfunclet$?warning@ErrorHandlerWriter@@UAEXABVString@@@Z$1 1004e262 f    CIL library: CIL module
 0001:0004d262       __unwindfunclet$?error@ErrorHandlerWriter@@UAEXABVString@@@Z$1 1004e262 f    CIL library: CIL module
 0001:0004d26c       __unwindfunclet$?warning@ErrorHandlerWriter@@UAEXABVString@@@Z$9 1004e26c f    CIL library: CIL module
 0001:0004d26c       __unwindfunclet$?error@ErrorHandlerWriter@@UAEXABVString@@@Z$9 1004e26c f    CIL library: CIL module
 0001:0004d26c       __unwindfunclet$?fatalError@ErrorHandlerWriter@@UAEXABVString@@@Z$9 1004e26c f    CIL library: CIL module
 0001:0004d274       __unwindfunclet$?error@ErrorHandlerWriter@@UAEXABVString@@@Z$7 1004e274 f    CIL library: CIL module
 0001:0004d274       __unwindfunclet$?fatalError@ErrorHandlerWriter@@UAEXABVString@@@Z$7 1004e274 f    CIL library: CIL module
 0001:0004d274       __unwindfunclet$?warning@ErrorHandlerWriter@@UAEXABVString@@@Z$7 1004e274 f    CIL library: CIL module
 0001:0004d27c       __unwindfunclet$?warning@ErrorHandlerWriter@@UAEXABVString@@@Z$6 1004e27c f    CIL library: CIL module
 0001:0004d27c       __unwindfunclet$?error@ErrorHandlerWriter@@UAEXABVString@@@Z$6 1004e27c f    CIL library: CIL module
 0001:0004d27c       __unwindfunclet$?fatalError@ErrorHandlerWriter@@UAEXABVString@@@Z$6 1004e27c f    CIL library: CIL module
 0001:0004d286       __ehhandler$?fatalError@ErrorHandlerWriter@@UAEXABVString@@@Z 1004e286 f    CIL library: CIL module
 0001:0004d286       __ehhandler$?error@ErrorHandlerWriter@@UAEXABVString@@@Z 1004e286 f    CIL library: CIL module
 0001:0004d286       __ehhandler$?warning@ErrorHandlerWriter@@UAEXABVString@@@Z 1004e286 f    CIL library: CIL module
 0001:0004d290       __unwindfunclet$?freeFile@TextLinesStore@@IAEXXZ$0 1004e290 f    CIL library: CIL module
 0001:0004d29a       __ehhandler$?freeFile@TextLinesStore@@IAEXXZ 1004e29a f    CIL library: CIL module
 0001:0004d2b0       __unwindfunclet$??1TextLinesStore@@UAE@XZ$0 1004e2b0 f    CIL library: CIL module
 0001:0004d2b8       __unwindfunclet$??1TextLinesStore@@UAE@XZ$1 1004e2b8 f    CIL library: CIL module
 0001:0004d2c3       __ehhandler$??1TextLinesStore@@UAE@XZ 1004e2c3 f    CIL library: CIL module
 0001:0004d2d0       __unwindfunclet$??_GTextLinesStore@@UAEPAXI@Z$0 1004e2d0 f    CIL library: CIL module
 0001:0004d2d8       __unwindfunclet$??_GTextLinesStore@@UAEPAXI@Z$1 1004e2d8 f    CIL library: CIL module
 0001:0004d2e3       __ehhandler$??_GTextLinesStore@@UAEPAXI@Z 1004e2e3 f    CIL library: CIL module
 0001:0004d2f0       __unwindfunclet$?next_int@?$HashtableCore@PAVString@@@@IBEPAPAVString@@XZ$2 1004e2f0 f    CIL library: CIL module
 0001:0004d2f0       __unwindfunclet$?next_int@?$HashtableCore@PAVRegionDefine@@@@IBEPAPAVRegionDefine@@XZ$2 1004e2f0 f    CIL library: CIL module
 0001:0004d2f0       __unwindfunclet$?next_int@?$HashtableCore@PAVSchemeImpl@@@@IBEPAPAVSchemeImpl@@XZ$2 1004e2f0 f    CIL library: CIL module
 0001:0004d2f0       __unwindfunclet$?next_int@?$HashtableCore@PAV?$Vector@PBVString@@@@@@IBEPAPAV?$Vector@PBVString@@@@XZ$2 1004e2f0 f    CIL library: CIL module
 0001:0004d2f0       __unwindfunclet$?next_int@?$HashtableCore@PAVFileTypeImpl@@@@IBEPAPAVFileTypeImpl@@XZ$2 1004e2f0 f    CIL library: CIL module
 0001:0004d2f0       __unwindfunclet$?next_int@?$HashtableCore@PAV?$Hashtable@PAV?$Vector@PBVString@@@@@@@@IBEPAPAV?$Hashtable@PAV?$Vector@PBVString@@@@@@XZ$2 1004e2f0 f    CIL library: CIL module
 0001:0004d2f0       __unwindfunclet$?next_int@?$HashtableCore@PBVString@@@@IBEPAPBVString@@XZ$2 1004e2f0 f    CIL library: CIL module
 0001:0004d2f8       __unwindfunclet$?next_int@?$HashtableCore@PAV?$Hashtable@PAV?$Vector@PBVString@@@@@@@@IBEPAPAV?$Hashtable@PAV?$Vector@PBVString@@@@@@XZ$0 1004e2f8 f    CIL library: CIL module
 0001:0004d2f8       __unwindfunclet$?next_int@?$HashtableCore@PAVString@@@@IBEPAPAVString@@XZ$0 1004e2f8 f    CIL library: CIL module
 0001:0004d2f8       __unwindfunclet$?next_int@?$HashtableCore@PBVString@@@@IBEPAPBVString@@XZ$0 1004e2f8 f    CIL library: CIL module
 0001:0004d2f8       __unwindfunclet$?next_int@?$HashtableCore@PAVFileTypeImpl@@@@IBEPAPAVFileTypeImpl@@XZ$0 1004e2f8 f    CIL library: CIL module
 0001:0004d2f8       __unwindfunclet$?next_int@?$HashtableCore@PAVRegionDefine@@@@IBEPAPAVRegionDefine@@XZ$0 1004e2f8 f    CIL library: CIL module
 0001:0004d2f8       __unwindfunclet$?next_int@?$HashtableCore@PAV?$Vector@PBVString@@@@@@IBEPAPAV?$Vector@PBVString@@@@XZ$0 1004e2f8 f    CIL library: CIL module
 0001:0004d2f8       __unwindfunclet$?next_int@?$HashtableCore@PAVSchemeImpl@@@@IBEPAPAVSchemeImpl@@XZ$0 1004e2f8 f    CIL library: CIL module
 0001:0004d302       __unwindfunclet$?next_int@?$HashtableCore@PAVRegionDefine@@@@IBEPAPAVRegionDefine@@XZ$4 1004e302 f    CIL library: CIL module
 0001:0004d302       __unwindfunclet$?next_int@?$HashtableCore@PAV?$Vector@PBVString@@@@@@IBEPAPAV?$Vector@PBVString@@@@XZ$4 1004e302 f    CIL library: CIL module
 0001:0004d302       __unwindfunclet$?next_int@?$HashtableCore@PAVSchemeImpl@@@@IBEPAPAVSchemeImpl@@XZ$4 1004e302 f    CIL library: CIL module
 0001:0004d302       __unwindfunclet$?next_int@?$HashtableCore@PBVString@@@@IBEPAPBVString@@XZ$4 1004e302 f    CIL library: CIL module
 0001:0004d302       __unwindfunclet$?next_int@?$HashtableCore@PAVFileTypeImpl@@@@IBEPAPAVFileTypeImpl@@XZ$4 1004e302 f    CIL library: CIL module
 0001:0004d302       __unwindfunclet$?next_int@?$HashtableCore@PAVString@@@@IBEPAPAVString@@XZ$4 1004e302 f    CIL library: CIL module
 0001:0004d302       __unwindfunclet$?next_int@?$HashtableCore@PAV?$Hashtable@PAV?$Vector@PBVString@@@@@@@@IBEPAPAV?$Hashtable@PAV?$Vector@PBVString@@@@@@XZ$4 1004e302 f    CIL library: CIL module
 0001:0004d30a       __unwindfunclet$?next_int@?$HashtableCore@PAVSchemeImpl@@@@IBEPAPAVSchemeImpl@@XZ$1 1004e30a f    CIL library: CIL module
 0001:0004d30a       __unwindfunclet$?next_int@?$HashtableCore@PAV?$Vector@PBVString@@@@@@IBEPAPAV?$Vector@PBVString@@@@XZ$1 1004e30a f    CIL library: CIL module
 0001:0004d30a       __unwindfunclet$?next_int@?$HashtableCore@PAVFileTypeImpl@@@@IBEPAPAVFileTypeImpl@@XZ$1 1004e30a f    CIL library: CIL module
 0001:0004d30a       __unwindfunclet$?next_int@?$HashtableCore@PBVString@@@@IBEPAPBVString@@XZ$1 1004e30a f    CIL library: CIL module
 0001:0004d30a       __unwindfunclet$?next_int@?$HashtableCore@PAV?$Hashtable@PAV?$Vector@PBVString@@@@@@@@IBEPAPAV?$Hashtable@PAV?$Vector@PBVString@@@@@@XZ$1 1004e30a f    CIL library: CIL module
 0001:0004d30a       __unwindfunclet$?next_int@?$HashtableCore@PAVRegionDefine@@@@IBEPAPAVRegionDefine@@XZ$1 1004e30a f    CIL library: CIL module
 0001:0004d30a       __unwindfunclet$?next_int@?$HashtableCore@PAVString@@@@IBEPAPAVString@@XZ$1 1004e30a f    CIL library: CIL module
 0001:0004d314       __ehhandler$?next_int@?$HashtableCore@PAV?$Vector@PBVString@@@@@@IBEPAPAV?$Vector@PBVString@@@@XZ 1004e314 f    CIL library: CIL module
 0001:0004d314       __ehhandler$?next_int@?$HashtableCore@PAVString@@@@IBEPAPAVString@@XZ 1004e314 f    CIL library: CIL module
 0001:0004d314       __ehhandler$?next_int@?$HashtableCore@PAVFileTypeImpl@@@@IBEPAPAVFileTypeImpl@@XZ 1004e314 f    CIL library: CIL module
 0001:0004d314       __ehhandler$?next_int@?$HashtableCore@PAVSchemeImpl@@@@IBEPAPAVSchemeImpl@@XZ 1004e314 f    CIL library: CIL module
 0001:0004d314       __ehhandler$?next_int@?$HashtableCore@PAV?$Hashtable@PAV?$Vector@PBVString@@@@@@@@IBEPAPAV?$Hashtable@PAV?$Vector@PBVString@@@@@@XZ 1004e314 f    CIL library: CIL module
 0001:0004d314       __ehhandler$?next_int@?$HashtableCore@PBVString@@@@IBEPAPBVString@@XZ 1004e314 f    CIL library: CIL module
 0001:0004d314       __ehhandler$?next_int@?$HashtableCore@PAVRegionDefine@@@@IBEPAPAVRegionDefine@@XZ 1004e314 f    CIL library: CIL module
 0001:0004d320       __unwindfunclet$??1ParserFactory@@UAE@XZ$0 1004e320 f    CIL library: CIL module
 0001:0004d32b       __unwindfunclet$??1ParserFactory@@UAE@XZ$1 1004e32b f    CIL library: CIL module
 0001:0004d336       __unwindfunclet$??1ParserFactory@@UAE@XZ$2 1004e336 f    CIL library: CIL module
 0001:0004d341       __ehhandler$??1ParserFactory@@UAE@XZ 1004e341 f    CIL library: CIL module
 0001:0004d350       __unwindfunclet$?next_int@?$HashtableCore@PAVFarEditor@@@@IBEPAPAVFarEditor@@XZ$2 1004e350 f    CIL library: CIL module
 0001:0004d350       __unwindfunclet$?nextkey@?$HashtableCore@PAVRegionDefine@@@@QBEPAVString@@XZ$2 1004e350 f    CIL library: CIL module
 0001:0004d358       __unwindfunclet$?next_int@?$HashtableCore@PAVFarEditor@@@@IBEPAPAVFarEditor@@XZ$0 1004e358 f    CIL library: CIL module
 0001:0004d358       __unwindfunclet$?nextkey@?$HashtableCore@PAVRegionDefine@@@@QBEPAVString@@XZ$0 1004e358 f    CIL library: CIL module
 0001:0004d362       __unwindfunclet$?next_int@?$HashtableCore@PAVFarEditor@@@@IBEPAPAVFarEditor@@XZ$4 1004e362 f    CIL library: CIL module
 0001:0004d362       __unwindfunclet$?nextkey@?$HashtableCore@PAVRegionDefine@@@@QBEPAVString@@XZ$4 1004e362 f    CIL library: CIL module
 0001:0004d36a       __unwindfunclet$?nextkey@?$HashtableCore@PAVRegionDefine@@@@QBEPAVString@@XZ$1 1004e36a f    CIL library: CIL module
 0001:0004d36a       __unwindfunclet$?next_int@?$HashtableCore@PAVFarEditor@@@@IBEPAPAVFarEditor@@XZ$1 1004e36a f    CIL library: CIL module
 0001:0004d374       __ehhandler$?next_int@?$HashtableCore@PAVFarEditor@@@@IBEPAPAVFarEditor@@XZ 1004e374 f    CIL library: CIL module
 0001:0004d374       __ehhandler$?nextkey@?$HashtableCore@PAVRegionDefine@@@@QBEPAVString@@XZ 1004e374 f    CIL library: CIL module
 0001:0004d380       __unwindfunclet$?getParamDefValue@FarEditorSet@@AAEPBVString@@PAVFileTypeImpl@@VSString@@@Z$0 1004e380 f    CIL library: CIL module
 0001:0004d38a       __unwindfunclet$?getParamDefValue@FarEditorSet@@AAEPBVString@@PAVFileTypeImpl@@VSString@@@Z$1 1004e38a f    CIL library: CIL module
 0001:0004d395       __unwindfunclet$?getParamDefValue@FarEditorSet@@AAEPBVString@@PAVFileTypeImpl@@VSString@@@Z$4 1004e395 f    CIL library: CIL module
 0001:0004d39d       __unwindfunclet$?getParamDefValue@FarEditorSet@@AAEPBVString@@PAVFileTypeImpl@@VSString@@@Z$2 1004e39d f    CIL library: CIL module
 0001:0004d3a7       __unwindfunclet$?getParamDefValue@FarEditorSet@@AAEPBVString@@PAVFileTypeImpl@@VSString@@@Z$8 1004e3a7 f    CIL library: CIL module
 0001:0004d3af       __unwindfunclet$?getParamDefValue@FarEditorSet@@AAEPBVString@@PAVFileTypeImpl@@VSString@@@Z$9 1004e3af f    CIL library: CIL module
 0001:0004d3b7       __unwindfunclet$?getParamDefValue@FarEditorSet@@AAEPBVString@@PAVFileTypeImpl@@VSString@@@Z$3 1004e3b7 f    CIL library: CIL module
 0001:0004d3c1       __unwindfunclet$?getParamDefValue@FarEditorSet@@AAEPBVString@@PAVFileTypeImpl@@VSString@@@Z$11 1004e3c1 f    CIL library: CIL module
 0001:0004d3c9       __unwindfunclet$?getParamDefValue@FarEditorSet@@AAEPBVString@@PAVFileTypeImpl@@VSString@@@Z$12 1004e3c9 f    CIL library: CIL module
 0001:0004d3d1       __unwindfunclet$?getParamDefValue@FarEditorSet@@AAEPBVString@@PAVFileTypeImpl@@VSString@@@Z$6 1004e3d1 f    CIL library: CIL module
 0001:0004d3d9       __unwindfunclet$?getParamDefValue@FarEditorSet@@AAEPBVString@@PAVFileTypeImpl@@VSString@@@Z$5 1004e3d9 f    CIL library: CIL module
 0001:0004d3e3       __ehhandler$?getParamDefValue@FarEditorSet@@AAEPBVString@@PAVFileTypeImpl@@VSString@@@Z 1004e3e3 f    CIL library: CIL module
 0001:0004d3f0       __unwindfunclet$?getCurrentFileName@FarEditorSet@@AAEPAVString@@XZ$2 1004e3f0 f    CIL library: CIL module
 0001:0004d3f8       __unwindfunclet$?getCurrentFileName@FarEditorSet@@AAEPAVString@@XZ$0 1004e3f8 f    CIL library: CIL module
 0001:0004d402       __unwindfunclet$?getCurrentFileName@FarEditorSet@@AAEPAVString@@XZ$1 1004e402 f    CIL library: CIL module
 0001:0004d40d       __unwindfunclet$?getCurrentFileName@FarEditorSet@@AAEPAVString@@XZ$6 1004e40d f    CIL library: CIL module
 0001:0004d415       __unwindfunclet$?getCurrentFileName@FarEditorSet@@AAEPAVString@@XZ$10 1004e415 f    CIL library: CIL module
 0001:0004d41d       __ehhandler$?getCurrentFileName@FarEditorSet@@AAEPAVString@@XZ 1004e41d f    CIL library: CIL module
 0001:0004d430       __unwindfunclet$??1FarEditorSet@@QAE@XZ$0 1004e430 f    CIL library: CIL module
 0001:0004d43b       __unwindfunclet$??1FarEditorSet@@QAE@XZ$1 1004e43b f    CIL library: CIL module
 0001:0004d448       __unwindfunclet$??1FarEditorSet@@QAE@XZ$2 1004e448 f    CIL library: CIL module
 0001:0004d455       __unwindfunclet$??1FarEditorSet@@QAE@XZ$3 1004e455 f    CIL library: CIL module
 0001:0004d45d       __unwindfunclet$??1FarEditorSet@@QAE@XZ$4 1004e45d f    CIL library: CIL module
 0001:0004d465       __ehhandler$??1FarEditorSet@@QAE@XZ 1004e465 f    CIL library: CIL module
 0001:0004d470       __unwindfunclet$?showOutliner@FarEditor@@AAEXPAVOutliner@@@Z$0 1004e470 f    CIL library: CIL module
 0001:0004d47b       __unwindfunclet$?showOutliner@FarEditor@@AAEXPAVOutliner@@@Z$7 1004e47b f    CIL library: CIL module
 0001:0004d483       __unwindfunclet$?showOutliner@FarEditor@@AAEXPAVOutliner@@@Z$1 1004e483 f    CIL library: CIL module
 0001:0004d48d       __unwindfunclet$?showOutliner@FarEditor@@AAEXPAVOutliner@@@Z$11 1004e48d f    CIL library: CIL module
 0001:0004d495       __unwindfunclet$?showOutliner@FarEditor@@AAEXPAVOutliner@@@Z$12 1004e495 f    CIL library: CIL module
 0001:0004d4a0       __unwindfunclet$?showOutliner@FarEditor@@AAEXPAVOutliner@@@Z$2 1004e4a0 f    CIL library: CIL module
 0001:0004d4ad       __unwindfunclet$?showOutliner@FarEditor@@AAEXPAVOutliner@@@Z$16 1004e4ad f    CIL library: CIL module
 0001:0004d4b5       __unwindfunclet$?showOutliner@FarEditor@@AAEXPAVOutliner@@@Z$3 1004e4b5 f    CIL library: CIL module
 0001:0004d4bf       __unwindfunclet$?showOutliner@FarEditor@@AAEXPAVOutliner@@@Z$20 1004e4bf f    CIL library: CIL module
 0001:0004d4c7       __unwindfunclet$?showOutliner@FarEditor@@AAEXPAVOutliner@@@Z$21 1004e4c7 f    CIL library: CIL module
 0001:0004d4d2       __unwindfunclet$?showOutliner@FarEditor@@AAEXPAVOutliner@@@Z$22 1004e4d2 f    CIL library: CIL module
 0001:0004d4da       __unwindfunclet$?showOutliner@FarEditor@@AAEXPAVOutliner@@@Z$4 1004e4da f    CIL library: CIL module
 0001:0004d4e4       __unwindfunclet$?showOutliner@FarEditor@@AAEXPAVOutliner@@@Z$26 1004e4e4 f    CIL library: CIL module
 0001:0004d4ef       __unwindfunclet$?showOutliner@FarEditor@@AAEXPAVOutliner@@@Z$5 1004e4ef f    CIL library: CIL module
 0001:0004d4fc       __unwindfunclet$?showOutliner@FarEditor@@AAEXPAVOutliner@@@Z$30 1004e4fc f    CIL library: CIL module
 0001:0004d507       __unwindfunclet$?showOutliner@FarEditor@@AAEXPAVOutliner@@@Z$31 1004e507 f    CIL library: CIL module
 0001:0004d50f       __ehhandler$?showOutliner@FarEditor@@AAEXPAVOutliner@@@Z 1004e50f f    CIL library: CIL module
 0001:0004d520       __unwindfunclet$?getLine@FarEditor@@UAEPAVString@@H@Z$0 1004e520 f    CIL library: CIL module
 0001:0004d52b       __ehhandler$?getLine@FarEditor@@UAEPAVString@@H@Z 1004e52b f    CIL library: CIL module
 0001:0004d540       __unwindfunclet$?AddItemInGroup@ChooseTypeMenu@@QAEHPAVFileType@@@Z$1 1004e540 f    CIL library: CIL module
 0001:0004d548       __unwindfunclet$?AddItemInGroup@ChooseTypeMenu@@QAEHPAVFileType@@@Z$0 1004e548 f    CIL library: CIL module
 0001:0004d562       __unwindfunclet$?AddItemInGroup@ChooseTypeMenu@@QAEHPAVFileType@@@Z$5 1004e562 f    CIL library: CIL module
 0001:0004d56a       __ehhandler$?AddItemInGroup@ChooseTypeMenu@@QAEHPAVFileType@@@Z 1004e56a f    CIL library: CIL module
 0001:0004d580       __unwindfunclet$?MoveToFavorites@ChooseTypeMenu@@QAEXI@Z$0 1004e580 f    CIL library: CIL module
 0001:0004d58b       __unwindfunclet$?MoveToFavorites@ChooseTypeMenu@@QAEXI@Z$1 1004e58b f    CIL library: CIL module
 0001:0004d593       __ehhandler$?MoveToFavorites@ChooseTypeMenu@@QAEXI@Z 1004e593 f    CIL library: CIL module
 0001:0004d5a0       __unwindfunclet$??0ChooseTypeMenu@@QAE@PB_W0@Z$3 1004e5a0 f    CIL library: CIL module
 0001:0004d5aa       __unwindfunclet$??0ChooseTypeMenu@@QAE@PB_W0@Z$0 1004e5aa f    CIL library: CIL module
 0001:0004d5b4       __unwindfunclet$??0ChooseTypeMenu@@QAE@PB_W0@Z$4 1004e5b4 f    CIL library: CIL module
 0001:0004d5bc       __unwindfunclet$??0ChooseTypeMenu@@QAE@PB_W0@Z$1 1004e5bc f    CIL library: CIL module
 0001:0004d5c6       __unwindfunclet$??0ChooseTypeMenu@@QAE@PB_W0@Z$8 1004e5c6 f    CIL library: CIL module
 0001:0004d5ce       __unwindfunclet$??0ChooseTypeMenu@@QAE@PB_W0@Z$2 1004e5ce f    CIL library: CIL module
 0001:0004d5d8       __unwindfunclet$??0ChooseTypeMenu@@QAE@PB_W0@Z$10 1004e5d8 f    CIL library: CIL module
 0001:0004d5e0       __unwindfunclet$??0ChooseTypeMenu@@QAE@PB_W0@Z$11 1004e5e0 f    CIL library: CIL module
 0001:0004d5e8       __unwindfunclet$??0ChooseTypeMenu@@QAE@PB_W0@Z$13 1004e5e8 f    CIL library: CIL module
 0001:0004d5f0       __ehhandler$??0ChooseTypeMenu@@QAE@PB_W0@Z 1004e5f0 f    CIL library: CIL module
 0001:0004d600       __unwindfunclet$?lowParse@CRegExp@@AAE_NPAVSRegInfo@@0H@Z$0 1004e600 f    CIL library: CIL module
 0001:0004d60a       __ehhandler$?lowParse@CRegExp@@AAE_NPAVSRegInfo@@0H@Z 1004e60a f    CIL library: CIL module
 0001:0004d620       __unwindfunclet$?consume@DocumentBuilder@@AAEXPADH@Z$0 1004e620 f    CIL library: CIL module
 0001:0004d62a       __unwindfunclet$?consume@DocumentBuilder@@AAEXPADH@Z$2 1004e62a f    CIL library: CIL module
 0001:0004d635       __unwindfunclet$?consume@DocumentBuilder@@AAEXPADH@Z$3 1004e635 f    CIL library: CIL module
 0001:0004d63f       __unwindfunclet$?consume@DocumentBuilder@@AAEXPADH@Z$1 1004e63f f    CIL library: CIL module
 0001:0004d647       __ehhandler$?consume@DocumentBuilder@@AAEXPADH@Z 1004e647 f    CIL library: CIL module
 0001:0004d660       __unwindfunclet$?consume@DocumentBuilder@@AAEXAAVString@@@Z$0 1004e660 f    CIL library: CIL module
 0001:0004d66a       __unwindfunclet$?consume@DocumentBuilder@@AAEXAAVString@@@Z$2 1004e66a f    CIL library: CIL module
 0001:0004d675       __unwindfunclet$?consume@DocumentBuilder@@AAEXAAVString@@@Z$3 1004e675 f    CIL library: CIL module
 0001:0004d67f       __unwindfunclet$?consume@DocumentBuilder@@AAEXAAVString@@@Z$1 1004e67f f    CIL library: CIL module
 0001:0004d687       __ehhandler$?consume@DocumentBuilder@@AAEXAAVString@@@Z 1004e687 f    CIL library: CIL module
 0001:0004d6a0       __unwindfunclet$??0KeywordList@@QAE@XZ$0 1004e6a0 f    CIL library: CIL module
 0001:0004d6a0       __unwindfunclet$?setStart@PairMatch@@QAEXPAVLineRegion@@@Z$0 1004e6a0 f    CIL library: CIL module
 0001:0004d6a0       __unwindfunclet$?consumeComment@DocumentBuilder@@AAEXPAVNode@@@Z$0 1004e6a0 f    CIL library: CIL module
 0001:0004d6a0       __unwindfunclet$?createRelative@HTTPInputSource@@MAEPAVInputSource@@PBVString@@@Z$0 1004e6a0 f    CIL library: CIL module
 0001:0004d6a0       __unwindfunclet$?setEnd@PairMatch@@QAEXPAVLineRegion@@@Z$0 1004e6a0 f    CIL library: CIL module
 0001:0004d6a0       __unwindfunclet$?createRelative@FileInputSource@@MAEPAVInputSource@@PBVString@@@Z$0 1004e6a0 f    CIL library: CIL module
 0001:0004d6a0       __unwindfunclet$?consumeContent@DocumentBuilder@@AAEXPAVNode@@@Z$0 1004e6a0 f    CIL library: CIL module
 0001:0004d6a0       __unwindfunclet$?getInputSource@SharedInputSource@@SAPAV1@PBVString@@PAVInputSource@@@Z$0 1004e6a0 f    CIL library: CIL module
 0001:0004d6a0       __unwindfunclet$?createRelative@JARInputSource@@MAEPAVInputSource@@PBVString@@@Z$0 1004e6a0 f    CIL library: CIL module
 0001:0004d6ab       __ehhandler$?createRelative@JARInputSource@@MAEPAVInputSource@@PBVString@@@Z 1004e6ab f    CIL library: CIL module
 0001:0004d6ab       __ehhandler$?getInputSource@SharedInputSource@@SAPAV1@PBVString@@PAVInputSource@@@Z 1004e6ab f    CIL library: CIL module
 0001:0004d6ab       __ehhandler$?consumeComment@DocumentBuilder@@AAEXPAVNode@@@Z 1004e6ab f    CIL library: CIL module
 0001:0004d6ab       __ehhandler$?consumeContent@DocumentBuilder@@AAEXPAVNode@@@Z 1004e6ab f    CIL library: CIL module
 0001:0004d6ab       __ehhandler$?createRelative@FileInputSource@@MAEPAVInputSource@@PBVString@@@Z 1004e6ab f    CIL library: CIL module
 0001:0004d6ab       __ehhandler$??0KeywordList@@QAE@XZ 1004e6ab f    CIL library: CIL module
 0001:0004d6ab       __ehhandler$?setStart@PairMatch@@QAEXPAVLineRegion@@@Z 1004e6ab f    CIL library: CIL module
 0001:0004d6ab       __ehhandler$?setEnd@PairMatch@@QAEXPAVLineRegion@@@Z 1004e6ab f    CIL library: CIL module
 0001:0004d6ab       __ehhandler$?createRelative@HTTPInputSource@@MAEPAVInputSource@@PBVString@@@Z 1004e6ab f    CIL library: CIL module
 0001:0004d6c0       __unwindfunclet$?consumeName@DocumentBuilder@@AAEPAVString@@XZ$0 1004e6c0 f    CIL library: CIL module
 0001:0004d6c0       __unwindfunclet$?consumeNCName@DocumentBuilder@@AAEPAVString@@XZ$0 1004e6c0 f    CIL library: CIL module
 0001:0004d6cb       __unwindfunclet$?consumeName@DocumentBuilder@@AAEPAVString@@XZ$2 1004e6cb f    CIL library: CIL module
 0001:0004d6cb       __unwindfunclet$?consumeNCName@DocumentBuilder@@AAEPAVString@@XZ$2 1004e6cb f    CIL library: CIL module
 0001:0004d6d5       __unwindfunclet$?consumeNCName@DocumentBuilder@@AAEPAVString@@XZ$3 1004e6d5 f    CIL library: CIL module
 0001:0004d6d5       __unwindfunclet$?consumeName@DocumentBuilder@@AAEPAVString@@XZ$3 1004e6d5 f    CIL library: CIL module
 0001:0004d6dd       __unwindfunclet$?consumeName@DocumentBuilder@@AAEPAVString@@XZ$1 1004e6dd f    CIL library: CIL module
 0001:0004d6dd       __unwindfunclet$?consumeNCName@DocumentBuilder@@AAEPAVString@@XZ$1 1004e6dd f    CIL library: CIL module
 0001:0004d6e7       __unwindfunclet$?consumeName@DocumentBuilder@@AAEPAVString@@XZ$5 1004e6e7 f    CIL library: CIL module
 0001:0004d6e7       __unwindfunclet$?consumeNCName@DocumentBuilder@@AAEPAVString@@XZ$5 1004e6e7 f    CIL library: CIL module
 0001:0004d6ef       __ehhandler$?consumeName@DocumentBuilder@@AAEPAVString@@XZ 1004e6ef f    CIL library: CIL module
 0001:0004d6ef       __ehhandler$?consumeNCName@DocumentBuilder@@AAEPAVString@@XZ 1004e6ef f    CIL library: CIL module
 0001:0004d700       __unwindfunclet$?consumeAttributeValue@DocumentBuilder@@AAEPAVString@@XZ$2 1004e700 f    CIL library: CIL module
 0001:0004d700       __unwindfunclet$?consumeQoutedValue@DocumentBuilder@@AAEPAVString@@XZ$2 1004e700 f    CIL library: CIL module
 0001:0004d708       __unwindfunclet$?consumeAttributeValue@DocumentBuilder@@AAEPAVString@@XZ$0 1004e708 f    CIL library: CIL module
 0001:0004d708       __unwindfunclet$?consumeQoutedValue@DocumentBuilder@@AAEPAVString@@XZ$0 1004e708 f    CIL library: CIL module
 0001:0004d712       __unwindfunclet$?consumeQoutedValue@DocumentBuilder@@AAEPAVString@@XZ$4 1004e712 f    CIL library: CIL module
 0001:0004d712       __unwindfunclet$?consumeAttributeValue@DocumentBuilder@@AAEPAVString@@XZ$4 1004e712 f    CIL library: CIL module
 0001:0004d71a       __unwindfunclet$?consumeQoutedValue@DocumentBuilder@@AAEPAVString@@XZ$1 1004e71a f    CIL library: CIL module
 0001:0004d71a       __unwindfunclet$?consumeAttributeValue@DocumentBuilder@@AAEPAVString@@XZ$1 1004e71a f    CIL library: CIL module
 0001:0004d725       __unwindfunclet$?consumeAttributeValue@DocumentBuilder@@AAEPAVString@@XZ$5 1004e725 f    CIL library: CIL module
 0001:0004d725       __unwindfunclet$?consumeQoutedValue@DocumentBuilder@@AAEPAVString@@XZ$5 1004e725 f    CIL library: CIL module
 0001:0004d72f       __ehhandler$?consumeAttributeValue@DocumentBuilder@@AAEPAVString@@XZ 1004e72f f    CIL library: CIL module
 0001:0004d72f       __ehhandler$?consumeQoutedValue@DocumentBuilder@@AAEPAVString@@XZ 1004e72f f    CIL library: CIL module
 0001:0004d740       __unwindfunclet$?consumeEntityRef@DocumentBuilder@@AAEPAVString@@_N@Z$0 1004e740 f    CIL library: CIL module
 0001:0004d74b       __unwindfunclet$?consumeEntityRef@DocumentBuilder@@AAEPAVString@@_N@Z$5 1004e74b f    CIL library: CIL module
 0001:0004d755       __unwindfunclet$?consumeEntityRef@DocumentBuilder@@AAEPAVString@@_N@Z$6 1004e755 f    CIL library: CIL module
 0001:0004d75d       __unwindfunclet$?consumeEntityRef@DocumentBuilder@@AAEPAVString@@_N@Z$1 1004e75d f    CIL library: CIL module
 0001:0004d767       __unwindfunclet$?consumeEntityRef@DocumentBuilder@@AAEPAVString@@_N@Z$8 1004e767 f    CIL library: CIL module
 0001:0004d76f       __unwindfunclet$?consumeEntityRef@DocumentBuilder@@AAEPAVString@@_N@Z$2 1004e76f f    CIL library: CIL module
 0001:0004d77a       __unwindfunclet$?consumeEntityRef@DocumentBuilder@@AAEPAVString@@_N@Z$10 1004e77a f    CIL library: CIL module
 0001:0004d782       __unwindfunclet$?consumeEntityRef@DocumentBuilder@@AAEPAVString@@_N@Z$3 1004e782 f    CIL library: CIL module
 0001:0004d78d       __unwindfunclet$?consumeEntityRef@DocumentBuilder@@AAEPAVString@@_N@Z$4 1004e78d f    CIL library: CIL module
 0001:0004d7a7       __unwindfunclet$?consumeEntityRef@DocumentBuilder@@AAEPAVString@@_N@Z$14 1004e7a7 f    CIL library: CIL module
 0001:0004d7af       __ehhandler$?consumeEntityRef@DocumentBuilder@@AAEPAVString@@_N@Z 1004e7af f    CIL library: CIL module
 0001:0004d7c0       __unwindfunclet$?consumeCharRef@DocumentBuilder@@AAE_WXZ$1 1004e7c0 f    CIL library: CIL module
 0001:0004d7cb       __unwindfunclet$?consumeCharRef@DocumentBuilder@@AAE_WXZ$6 1004e7cb f    CIL library: CIL module
 0001:0004d7d3       __unwindfunclet$?consumeCharRef@DocumentBuilder@@AAE_WXZ$2 1004e7d3 f    CIL library: CIL module
 0001:0004d7dd       __unwindfunclet$?consumeCharRef@DocumentBuilder@@AAE_WXZ$8 1004e7dd f    CIL library: CIL module
 0001:0004d7e5       __unwindfunclet$?consumeCharRef@DocumentBuilder@@AAE_WXZ$3 1004e7e5 f    CIL library: CIL module
 0001:0004d7ed       __unwindfunclet$?consumeCharRef@DocumentBuilder@@AAE_WXZ$0 1004e7ed f    CIL library: CIL module
 0001:0004d7f7       __unwindfunclet$?consumeCharRef@DocumentBuilder@@AAE_WXZ$5 1004e7f7 f    CIL library: CIL module
 0001:0004d7ff       __ehhandler$?consumeCharRef@DocumentBuilder@@AAE_WXZ 1004e7ff f    CIL library: CIL module
 0001:0004d810       __unwindfunclet$?consumeText@DocumentBuilder@@AAEXPAVNode@@@Z$0 1004e810 f    CIL library: CIL module
 0001:0004d81b       __unwindfunclet$?consumeText@DocumentBuilder@@AAEXPAVNode@@@Z$1 1004e81b f    CIL library: CIL module
 0001:0004d825       __ehhandler$?consumeText@DocumentBuilder@@AAEXPAVNode@@@Z 1004e825 f    CIL library: CIL module
 0001:0004d830       __unwindfunclet$?consumeCDataSection@DocumentBuilder@@AAEXPAVNode@@@Z$0 1004e830 f    CIL library: CIL module
 0001:0004d830       __unwindfunclet$??0Exception@@QAE@XZ$0 1004e830 f    CIL library: CIL module
 0001:0004d83b       __unwindfunclet$??0Exception@@QAE@XZ$1 1004e83b f    CIL library: CIL module
 0001:0004d83b       __unwindfunclet$?consumeCDataSection@DocumentBuilder@@AAEXPAVNode@@@Z$1 1004e83b f    CIL library: CIL module
 0001:0004d845       __ehhandler$??0Exception@@QAE@XZ 1004e845 f    CIL library: CIL module
 0001:0004d845       __ehhandler$?consumeCDataSection@DocumentBuilder@@AAEXPAVNode@@@Z 1004e845 f    CIL library: CIL module
 0001:0004d850       __unwindfunclet$??1Element@@MAE@XZ$0 1004e850 f    CIL library: CIL module
 0001:0004d858       __unwindfunclet$??1Element@@MAE@XZ$1 1004e858 f    CIL library: CIL module
 0001:0004d863       __unwindfunclet$??1Element@@MAE@XZ$2 1004e863 f    CIL library: CIL module
 0001:0004d86e       __ehhandler$??1Element@@MAE@XZ 1004e86e f    CIL library: CIL module
 0001:0004d880       __unwindfunclet$??0JARInputSource@@QAE@PBVString@@PAVInputSource@@@Z$0 1004e880 f    CIL library: CIL module
 0001:0004d888       __unwindfunclet$??0JARInputSource@@QAE@PBVString@@PAVInputSource@@@Z$1 1004e888 f    CIL library: CIL module
 0001:0004d892       __unwindfunclet$??0JARInputSource@@QAE@PBVString@@PAVInputSource@@@Z$2 1004e892 f    CIL library: CIL module
 0001:0004d89c       __unwindfunclet$??0JARInputSource@@QAE@PBVString@@PAVInputSource@@@Z$3 1004e89c f    CIL library: CIL module
 0001:0004d8a7       __unwindfunclet$??0JARInputSource@@QAE@PBVString@@PAVInputSource@@@Z$8 1004e8a7 f    CIL library: CIL module
 0001:0004d8af       __unwindfunclet$??0JARInputSource@@QAE@PBVString@@PAVInputSource@@@Z$12 1004e8af f    CIL library: CIL module
 0001:0004d8b7       __unwindfunclet$??0JARInputSource@@QAE@PBVString@@PAVInputSource@@@Z$4 1004e8b7 f    CIL library: CIL module
 0001:0004d8c1       __unwindfunclet$??0JARInputSource@@QAE@PBVString@@PAVInputSource@@@Z$5 1004e8c1 f    CIL library: CIL module
 0001:0004d8cb       __unwindfunclet$??0JARInputSource@@QAE@PBVString@@PAVInputSource@@@Z$16 1004e8cb f    CIL library: CIL module
 0001:0004d8d3       __unwindfunclet$??0JARInputSource@@QAE@PBVString@@PAVInputSource@@@Z$6 1004e8d3 f    CIL library: CIL module
 0001:0004d8dd       __unwindfunclet$??0JARInputSource@@QAE@PBVString@@PAVInputSource@@@Z$7 1004e8dd f    CIL library: CIL module
 0001:0004d8e8       __unwindfunclet$??0JARInputSource@@QAE@PBVString@@PAVInputSource@@@Z$18 1004e8e8 f    CIL library: CIL module
 0001:0004d8f0       __unwindfunclet$??0JARInputSource@@QAE@PBVString@@PAVInputSource@@@Z$14 1004e8f0 f    CIL library: CIL module
 0001:0004d8f8       __unwindfunclet$??0JARInputSource@@QAE@PBVString@@PAVInputSource@@@Z$13 1004e8f8 f    CIL library: CIL module
 0001:0004d902       __ehhandler$??0JARInputSource@@QAE@PBVString@@PAVInputSource@@@Z 1004e902 f    CIL library: CIL module
 0001:0004d910       __unwindfunclet$?getAbsolutePath@InputSource@@SAPAVString@@PBV2@0@Z$0 1004e910 f    CIL library: CIL module
 0001:0004d91b       __unwindfunclet$?getAbsolutePath@InputSource@@SAPAVString@@PBV2@0@Z$2 1004e91b f    CIL library: CIL module
 0001:0004d925       __unwindfunclet$?getAbsolutePath@InputSource@@SAPAVString@@PBV2@0@Z$3 1004e925 f    CIL library: CIL module
 0001:0004d92d       __unwindfunclet$?getAbsolutePath@InputSource@@SAPAVString@@PBV2@0@Z$1 1004e92d f    CIL library: CIL module
 0001:0004d937       __unwindfunclet$?getAbsolutePath@InputSource@@SAPAVString@@PBV2@0@Z$7 1004e937 f    CIL library: CIL module
 0001:0004d93f       __unwindfunclet$?getAbsolutePath@InputSource@@SAPAVString@@PBV2@0@Z$5 1004e93f f    CIL library: CIL module
 0001:0004d947       __unwindfunclet$?getAbsolutePath@InputSource@@SAPAVString@@PBV2@0@Z$4 1004e947 f    CIL library: CIL module
 0001:0004d951       __ehhandler$?getAbsolutePath@InputSource@@SAPAVString@@PBV2@0@Z 1004e951 f    CIL library: CIL module
 0001:0004d960       __unwindfunclet$?openStream@HTTPInputSource@@UAEPBEXZ$0 1004e960 f    CIL library: CIL module
 0001:0004d96a       __unwindfunclet$?openStream@HTTPInputSource@@UAEPBEXZ$1 1004e96a f    CIL library: CIL module
 0001:0004d972       __unwindfunclet$?openStream@HTTPInputSource@@UAEPBEXZ$2 1004e972 f    CIL library: CIL module
 0001:0004d97a       __unwindfunclet$?openStream@HTTPInputSource@@UAEPBEXZ$3 1004e97a f    CIL library: CIL module
 0001:0004d984       __unwindfunclet$?openStream@HTTPInputSource@@UAEPBEXZ$4 1004e984 f    CIL library: CIL module
 0001:0004d98e       __unwindfunclet$?openStream@HTTPInputSource@@UAEPBEXZ$5 1004e98e f    CIL library: CIL module
 0001:0004d998       __unwindfunclet$?openStream@HTTPInputSource@@UAEPBEXZ$7 1004e998 f    CIL library: CIL module
 0001:0004d9a2       __unwindfunclet$?openStream@HTTPInputSource@@UAEPBEXZ$6 1004e9a2 f    CIL library: CIL module
 0001:0004d9ac       __unwindfunclet$?openStream@HTTPInputSource@@UAEPBEXZ$8 1004e9ac f    CIL library: CIL module
 0001:0004d9b6       __ehhandler$?openStream@HTTPInputSource@@UAEPBEXZ 1004e9b6 f    CIL library: CIL module
 0001:0004d9c0       __unwindfunclet$??0HTTPInputSource@@QAE@PBVString@@PAV0@@Z$0 1004e9c0 f    CIL library: CIL module
 0001:0004d9c8       __unwindfunclet$??0HTTPInputSource@@QAE@PBVString@@PAV0@@Z$1 1004e9c8 f    CIL library: CIL module
 0001:0004d9d3       __unwindfunclet$??0HTTPInputSource@@QAE@PBVString@@PAV0@@Z$2 1004e9d3 f    CIL library: CIL module
 0001:0004d9db       __ehhandler$??0HTTPInputSource@@QAE@PBVString@@PAV0@@Z 1004e9db f    CIL library: CIL module
 0001:0004d9f0       __unwindfunclet$??0FileInputSource@@QAE@PBVString@@PAV0@@Z$0 1004e9f0 f    CIL library: CIL module
 0001:0004d9f8       __unwindfunclet$??0FileInputSource@@QAE@PBVString@@PAV0@@Z$11 1004e9f8 f    CIL library: CIL module
 0001:0004da00       __unwindfunclet$??0FileInputSource@@QAE@PBVString@@PAV0@@Z$1 1004ea00 f    CIL library: CIL module
 0001:0004da0a       __unwindfunclet$??0FileInputSource@@QAE@PBVString@@PAV0@@Z$13 1004ea0a f    CIL library: CIL module
 0001:0004da12       __unwindfunclet$??0FileInputSource@@QAE@PBVString@@PAV0@@Z$2 1004ea12 f    CIL library: CIL module
 0001:0004da1d       __unwindfunclet$??0FileInputSource@@QAE@PBVString@@PAV0@@Z$14 1004ea1d f    CIL library: CIL module
 0001:0004da25       __unwindfunclet$??0FileInputSource@@QAE@PBVString@@PAV0@@Z$18 1004ea25 f    CIL library: CIL module
 0001:0004da2d       __unwindfunclet$??0FileInputSource@@QAE@PBVString@@PAV0@@Z$3 1004ea2d f    CIL library: CIL module
 0001:0004da37       __unwindfunclet$??0FileInputSource@@QAE@PBVString@@PAV0@@Z$20 1004ea37 f    CIL library: CIL module
 0001:0004da3f       __unwindfunclet$??0FileInputSource@@QAE@PBVString@@PAV0@@Z$4 1004ea3f f    CIL library: CIL module
 0001:0004da4a       __unwindfunclet$??0FileInputSource@@QAE@PBVString@@PAV0@@Z$21 1004ea4a f    CIL library: CIL module
 0001:0004da52       __unwindfunclet$??0FileInputSource@@QAE@PBVString@@PAV0@@Z$35 1004ea52 f    CIL library: CIL module
 0001:0004da5a       __unwindfunclet$??0FileInputSource@@QAE@PBVString@@PAV0@@Z$8 1004ea5a f    CIL library: CIL module
 0001:0004da74       __unwindfunclet$??0FileInputSource@@QAE@PBVString@@PAV0@@Z$25 1004ea74 f    CIL library: CIL module
 0001:0004da7c       __unwindfunclet$??0FileInputSource@@QAE@PBVString@@PAV0@@Z$5 1004ea7c f    CIL library: CIL module
 0001:0004da86       __unwindfunclet$??0FileInputSource@@QAE@PBVString@@PAV0@@Z$6 1004ea86 f    CIL library: CIL module
 0001:0004da91       __unwindfunclet$??0FileInputSource@@QAE@PBVString@@PAV0@@Z$27 1004ea91 f    CIL library: CIL module
 0001:0004da99       __unwindfunclet$??0FileInputSource@@QAE@PBVString@@PAV0@@Z$37 1004ea99 f    CIL library: CIL module
 0001:0004daa1       __unwindfunclet$??0FileInputSource@@QAE@PBVString@@PAV0@@Z$9 1004eaa1 f    CIL library: CIL module
 0001:0004daac       __unwindfunclet$??0FileInputSource@@QAE@PBVString@@PAV0@@Z$38 1004eaac f    CIL library: CIL module
 0001:0004dab6       __unwindfunclet$??0FileInputSource@@QAE@PBVString@@PAV0@@Z$7 1004eab6 f    CIL library: CIL module
 0001:0004dac1       __unwindfunclet$??0FileInputSource@@QAE@PBVString@@PAV0@@Z$31 1004eac1 f    CIL library: CIL module
 0001:0004dac9       __unwindfunclet$??0FileInputSource@@QAE@PBVString@@PAV0@@Z$39 1004eac9 f    CIL library: CIL module
 0001:0004dad1       __unwindfunclet$??0FileInputSource@@QAE@PBVString@@PAV0@@Z$10 1004ead1 f    CIL library: CIL module
 0001:0004dadb       __unwindfunclet$??0FileInputSource@@QAE@PBVString@@PAV0@@Z$41 1004eadb f    CIL library: CIL module
 0001:0004dae3       __ehhandler$??0FileInputSource@@QAE@PBVString@@PAV0@@Z 1004eae3 f    CIL library: CIL module
 0001:0004daf0       __unwindfunclet$?replace@String@@QBEPAV1@ABV1@0@Z$0 1004eaf0 f    CIL library: CIL module
 0001:0004dafb       __unwindfunclet$?replace@String@@QBEPAV1@ABV1@0@Z$3 1004eafb f    CIL library: CIL module
 0001:0004db05       __unwindfunclet$?replace@String@@QBEPAV1@ABV1@0@Z$4 1004eb05 f    CIL library: CIL module
 0001:0004db0d       __unwindfunclet$?replace@String@@QBEPAV1@ABV1@0@Z$1 1004eb0d f    CIL library: CIL module
 0001:0004db17       __unwindfunclet$?replace@String@@QBEPAV1@ABV1@0@Z$8 1004eb17 f    CIL library: CIL module
 0001:0004db1f       __unwindfunclet$?replace@String@@QBEPAV1@ABV1@0@Z$2 1004eb1f f    CIL library: CIL module
 0001:0004db29       __unwindfunclet$?replace@String@@QBEPAV1@ABV1@0@Z$9 1004eb29 f    CIL library: CIL module
 0001:0004db31       __unwindfunclet$?replace@String@@QBEPAV1@ABV1@0@Z$6 1004eb31 f    CIL library: CIL module
 0001:0004db39       __unwindfunclet$?replace@String@@QBEPAV1@ABV1@0@Z$5 1004eb39 f    CIL library: CIL module
 0001:0004db43       __ehhandler$?replace@String@@QBEPAV1@ABV1@0@Z 1004eb43 f    CIL library: CIL module
 0001:0004db50       __unwindfunclet$??0SString@@QAE@PA_W@Z$0 1004eb50 f    CIL library: CIL module
 0001:0004db58       __unwindfunclet$??0SString@@QAE@PA_W@Z$2 1004eb58 f    CIL library: CIL module
 0001:0004db60       __unwindfunclet$??0SString@@QAE@PA_W@Z$1 1004eb60 f    CIL library: CIL module
 0001:0004db6a       __unwindfunclet$??0SString@@QAE@PA_W@Z$6 1004eb6a f    CIL library: CIL module
 0001:0004db72       __ehhandler$??0SString@@QAE@PA_W@Z 1004eb72 f    CIL library: CIL module
 0001:0004db80       __unwindfunclet$??1SchemeNode@@QAE@XZ$0 1004eb80 f    CIL library: CIL module
 0001:0004db8b       __ehhandler$??1SchemeNode@@QAE@XZ 1004eb8b f    CIL library: CIL module
 0001:0004dba0       __unwindfunclet$?useEntities@HRCParserImpl@@IAEPAVString@@PBV2@@Z$0 1004eba0 f    CIL library: CIL module
 0001:0004dbab       __unwindfunclet$?useEntities@HRCParserImpl@@IAEPAVString@@PBV2@@Z$4 1004ebab f    CIL library: CIL module
 0001:0004dbb5       __unwindfunclet$?useEntities@HRCParserImpl@@IAEPAVString@@PBV2@@Z$5 1004ebb5 f    CIL library: CIL module
 0001:0004dbbd       __unwindfunclet$?useEntities@HRCParserImpl@@IAEPAVString@@PBV2@@Z$1 1004ebbd f    CIL library: CIL module
 0001:0004dbc7       __unwindfunclet$?useEntities@HRCParserImpl@@IAEPAVString@@PBV2@@Z$10 1004ebc7 f    CIL library: CIL module
 0001:0004dbcf       __unwindfunclet$?useEntities@HRCParserImpl@@IAEPAVString@@PBV2@@Z$2 1004ebcf f    CIL library: CIL module
 0001:0004dbd9       __unwindfunclet$?useEntities@HRCParserImpl@@IAEPAVString@@PBV2@@Z$14 1004ebd9 f    CIL library: CIL module
 0001:0004dbe1       __unwindfunclet$?useEntities@HRCParserImpl@@IAEPAVString@@PBV2@@Z$15 1004ebe1 f    CIL library: CIL module
 0001:0004dbe9       __unwindfunclet$?useEntities@HRCParserImpl@@IAEPAVString@@PBV2@@Z$3 1004ebe9 f    CIL library: CIL module
 0001:0004dbf6       __unwindfunclet$?useEntities@HRCParserImpl@@IAEPAVString@@PBV2@@Z$9 1004ebf6 f    CIL library: CIL module
 0001:0004dbfe       __unwindfunclet$?useEntities@HRCParserImpl@@IAEPAVString@@PBV2@@Z$12 1004ebfe f    CIL library: CIL module
 0001:0004dc09       __unwindfunclet$?useEntities@HRCParserImpl@@IAEPAVString@@PBV2@@Z$11 1004ec09 f    CIL library: CIL module
 0001:0004dc16       __unwindfunclet$?useEntities@HRCParserImpl@@IAEPAVString@@PBV2@@Z$7 1004ec16 f    CIL library: CIL module
 0001:0004dc21       __unwindfunclet$?useEntities@HRCParserImpl@@IAEPAVString@@PBV2@@Z$6 1004ec21 f    CIL library: CIL module
 0001:0004dc2e       __ehhandler$?useEntities@HRCParserImpl@@IAEPAVString@@PBV2@@Z 1004ec2e f    CIL library: CIL module
 0001:0004dc40       __unwindfunclet$??1HRCParserImpl@@UAE@XZ$0 1004ec40 f    CIL library: CIL module
 0001:0004dc48       __unwindfunclet$??1HRCParserImpl@@UAE@XZ$1 1004ec48 f    CIL library: CIL module
 0001:0004dc53       __unwindfunclet$??1HRCParserImpl@@UAE@XZ$2 1004ec53 f    CIL library: CIL module
 0001:0004dc5e       __unwindfunclet$??1HRCParserImpl@@UAE@XZ$3 1004ec5e f    CIL library: CIL module
 0001:0004dc69       __unwindfunclet$??1HRCParserImpl@@UAE@XZ$4 1004ec69 f    CIL library: CIL module
 0001:0004dc74       __unwindfunclet$??1HRCParserImpl@@UAE@XZ$5 1004ec74 f    CIL library: CIL module
 0001:0004dc81       __unwindfunclet$??1HRCParserImpl@@UAE@XZ$6 1004ec81 f    CIL library: CIL module
 0001:0004dc8e       __unwindfunclet$??1HRCParserImpl@@UAE@XZ$7 1004ec8e f    CIL library: CIL module
 0001:0004dc9b       __unwindfunclet$??1HRCParserImpl@@UAE@XZ$8 1004ec9b f    CIL library: CIL module
 0001:0004dcaa       __ehhandler$??1HRCParserImpl@@UAE@XZ 1004ecaa f    CIL library: CIL module
 0001:0004dcc0       __unwindfunclet$??1SchemeImpl@@MAE@XZ$0 1004ecc0 f    CIL library: CIL module
 0001:0004dcc8       __unwindfunclet$??1SchemeImpl@@MAE@XZ$1 1004ecc8 f    CIL library: CIL module
 0001:0004dcd3       __ehhandler$??1SchemeImpl@@MAE@XZ 1004ecd3 f    CIL library: CIL module
 0001:0004dce0       __unwindfunclet$?getPairMatch@BaseEditor@@AAEPAVPairMatch@@HH@Z$0 1004ece0 f    CIL library: CIL module
 0001:0004dceb       __ehhandler$?getPairMatch@BaseEditor@@AAEPAVPairMatch@@HH@Z 1004eceb f    CIL library: CIL module
 0001:0004dd00       __unwindfunclet$?remapLRS@BaseEditor@@AAEX_N@Z$0 1004ed00 f    CIL library: CIL module
 0001:0004dd0b       __unwindfunclet$?remapLRS@BaseEditor@@AAEX_N@Z$1 1004ed0b f    CIL library: CIL module
 0001:0004dd16       __unwindfunclet$?remapLRS@BaseEditor@@AAEX_N@Z$6 1004ed16 f    CIL library: CIL module
 0001:0004dd1e       __unwindfunclet$?remapLRS@BaseEditor@@AAEX_N@Z$2 1004ed1e f    CIL library: CIL module
 0001:0004dd28       __unwindfunclet$?remapLRS@BaseEditor@@AAEX_N@Z$8 1004ed28 f    CIL library: CIL module
 0001:0004dd30       __unwindfunclet$?remapLRS@BaseEditor@@AAEX_N@Z$9 1004ed30 f    CIL library: CIL module
 0001:0004dd38       __unwindfunclet$?remapLRS@BaseEditor@@AAEX_N@Z$3 1004ed38 f    CIL library: CIL module
 0001:0004dd42       __unwindfunclet$?remapLRS@BaseEditor@@AAEX_N@Z$11 1004ed42 f    CIL library: CIL module
 0001:0004dd4a       __unwindfunclet$?remapLRS@BaseEditor@@AAEX_N@Z$12 1004ed4a f    CIL library: CIL module
 0001:0004dd52       __unwindfunclet$?remapLRS@BaseEditor@@AAEX_N@Z$4 1004ed52 f    CIL library: CIL module
 0001:0004dd5c       __unwindfunclet$?remapLRS@BaseEditor@@AAEX_N@Z$14 1004ed5c f    CIL library: CIL module
 0001:0004dd64       __ehhandler$?remapLRS@BaseEditor@@AAEX_N@Z 1004ed64 f    CIL library: CIL module
 0001:0004dd70       __unwindfunclet$?setRegionDefine@StyledHRDMapper@@UAEXABVString@@PBVRegionDefine@@@Z$0 1004ed70 f    CIL library: CIL module
 0001:0004dd7b       __unwindfunclet$?setRegionDefine@StyledHRDMapper@@UAEXABVString@@PBVRegionDefine@@@Z$4 1004ed7b f    CIL library: CIL module
 0001:0004dd83       __unwindfunclet$?setRegionDefine@StyledHRDMapper@@UAEXABVString@@PBVRegionDefine@@@Z$2 1004ed83 f    CIL library: CIL module
 0001:0004dd8b       __unwindfunclet$?setRegionDefine@StyledHRDMapper@@UAEXABVString@@PBVRegionDefine@@@Z$1 1004ed8b f    CIL library: CIL module
 0001:0004dd95       __unwindfunclet$?setRegionDefine@StyledHRDMapper@@UAEXABVString@@PBVRegionDefine@@@Z$6 1004ed95 f    CIL library: CIL module
 0001:0004dd9f       __unwindfunclet$?setRegionDefine@StyledHRDMapper@@UAEXABVString@@PBVRegionDefine@@@Z$5 1004ed9f f    CIL library: CIL module
 0001:0004dda9       __ehhandler$?setRegionDefine@StyledHRDMapper@@UAEXABVString@@PBVRegionDefine@@@Z 1004eda9 f    CIL library: CIL module
 0001:0004ddc0       __unwindfunclet$?saveRegionMappings@StyledHRDMapper@@UBEXPAVWriter@@@Z$7 1004edc0 f    CIL library: CIL module
 0001:0004ddcb       __unwindfunclet$?saveRegionMappings@StyledHRDMapper@@UBEXPAVWriter@@@Z$0 1004edcb f    CIL library: CIL module
 0001:0004ddd8       __unwindfunclet$?saveRegionMappings@StyledHRDMapper@@UBEXPAVWriter@@@Z$9 1004edd8 f    CIL library: CIL module
 0001:0004dde3       __unwindfunclet$?saveRegionMappings@StyledHRDMapper@@UBEXPAVWriter@@@Z$27 1004ede3 f    CIL library: CIL module
 0001:0004ddee       __unwindfunclet$?saveRegionMappings@StyledHRDMapper@@UBEXPAVWriter@@@Z$6 1004edee f    CIL library: CIL module
 0001:0004ddfb       __unwindfunclet$?saveRegionMappings@StyledHRDMapper@@UBEXPAVWriter@@@Z$29 1004edfb f    CIL library: CIL module
 0001:0004de06       __unwindfunclet$?saveRegionMappings@StyledHRDMapper@@UBEXPAVWriter@@@Z$1 1004ee06 f    CIL library: CIL module
 0001:0004de13       __unwindfunclet$?saveRegionMappings@StyledHRDMapper@@UBEXPAVWriter@@@Z$14 1004ee13 f    CIL library: CIL module
 0001:0004de1e       __unwindfunclet$?saveRegionMappings@StyledHRDMapper@@UBEXPAVWriter@@@Z$15 1004ee1e f    CIL library: CIL module
 0001:0004de29       __unwindfunclet$?saveRegionMappings@StyledHRDMapper@@UBEXPAVWriter@@@Z$2 1004ee29 f    CIL library: CIL module
 0001:0004de36       __unwindfunclet$?saveRegionMappings@StyledHRDMapper@@UBEXPAVWriter@@@Z$17 1004ee36 f    CIL library: CIL module
 0001:0004de41       __unwindfunclet$?saveRegionMappings@StyledHRDMapper@@UBEXPAVWriter@@@Z$18 1004ee41 f    CIL library: CIL module
 0001:0004de4c       __unwindfunclet$?saveRegionMappings@StyledHRDMapper@@UBEXPAVWriter@@@Z$3 1004ee4c f    CIL library: CIL module
 0001:0004de59       __unwindfunclet$?saveRegionMappings@StyledHRDMapper@@UBEXPAVWriter@@@Z$20 1004ee59 f    CIL library: CIL module
 0001:0004de64       __unwindfunclet$?saveRegionMappings@StyledHRDMapper@@UBEXPAVWriter@@@Z$21 1004ee64 f    CIL library: CIL module
 0001:0004de6f       __unwindfunclet$?saveRegionMappings@StyledHRDMapper@@UBEXPAVWriter@@@Z$4 1004ee6f f    CIL library: CIL module
 0001:0004de7c       __unwindfunclet$?saveRegionMappings@StyledHRDMapper@@UBEXPAVWriter@@@Z$23 1004ee7c f    CIL library: CIL module
 0001:0004de87       __unwindfunclet$?saveRegionMappings@StyledHRDMapper@@UBEXPAVWriter@@@Z$24 1004ee87 f    CIL library: CIL module
 0001:0004de92       __unwindfunclet$?saveRegionMappings@StyledHRDMapper@@UBEXPAVWriter@@@Z$5 1004ee92 f    CIL library: CIL module
 0001:0004de9f       __unwindfunclet$?saveRegionMappings@StyledHRDMapper@@UBEXPAVWriter@@@Z$26 1004ee9f f    CIL library: CIL module
 0001:0004deaa       __unwindfunclet$?saveRegionMappings@StyledHRDMapper@@UBEXPAVWriter@@@Z$11 1004eeaa f    CIL library: CIL module
 0001:0004deb5       __unwindfunclet$?saveRegionMappings@StyledHRDMapper@@UBEXPAVWriter@@@Z$10 1004eeb5 f    CIL library: CIL module
 0001:0004dec2       __ehhandler$?saveRegionMappings@StyledHRDMapper@@UBEXPAVWriter@@@Z 1004eec2 f    CIL library: CIL module
 0001:0004ded0       __unwindfunclet$?replaceTabs@TextLinesStore@@AAEXH@Z$2 1004eed0 f    CIL library: CIL module
 0001:0004ded8       __unwindfunclet$?replaceTabs@TextLinesStore@@AAEXH@Z$0 1004eed8 f    CIL library: CIL module
 0001:0004dee2       __unwindfunclet$?replaceTabs@TextLinesStore@@AAEXH@Z$4 1004eee2 f    CIL library: CIL module
 0001:0004deea       __unwindfunclet$?replaceTabs@TextLinesStore@@AAEXH@Z$1 1004eeea f    CIL library: CIL module
 0001:0004def4       __unwindfunclet$?replaceTabs@TextLinesStore@@AAEXH@Z$7 1004eef4 f    CIL library: CIL module
 0001:0004defc       __unwindfunclet$?replaceTabs@TextLinesStore@@AAEXH@Z$8 1004eefc f    CIL library: CIL module
 0001:0004df04       __unwindfunclet$?replaceTabs@TextLinesStore@@AAEXH@Z$10 1004ef04 f    CIL library: CIL module
 0001:0004df0e       __unwindfunclet$?replaceTabs@TextLinesStore@@AAEXH@Z$9 1004ef0e f    CIL library: CIL module
 0001:0004df18       __unwindfunclet$?replaceTabs@TextLinesStore@@AAEXH@Z$6 1004ef18 f    CIL library: CIL module
 0001:0004df22       __ehhandler$?replaceTabs@TextLinesStore@@AAEXH@Z 1004ef22 f    CIL library: CIL module
 0001:0004df30       __unwindfunclet$?SaveChangedValueParam@FarEditorSet@@AAEXPAX@Z$3 1004ef30 f    CIL library: CIL module
 0001:0004df38       __unwindfunclet$?SaveChangedValueParam@FarEditorSet@@AAEXPAX@Z$0 1004ef38 f    CIL library: CIL module
 0001:0004df42       __unwindfunclet$?SaveChangedValueParam@FarEditorSet@@AAEXPAX@Z$7 1004ef42 f    CIL library: CIL module
 0001:0004df4a       __unwindfunclet$?SaveChangedValueParam@FarEditorSet@@AAEXPAX@Z$1 1004ef4a f    CIL library: CIL module
 0001:0004df54       __unwindfunclet$?SaveChangedValueParam@FarEditorSet@@AAEXPAX@Z$11 1004ef54 f    CIL library: CIL module
 0001:0004df5c       __unwindfunclet$?SaveChangedValueParam@FarEditorSet@@AAEXPAX@Z$15 1004ef5c f    CIL library: CIL module
 0001:0004df64       __unwindfunclet$?SaveChangedValueParam@FarEditorSet@@AAEXPAX@Z$16 1004ef64 f    CIL library: CIL module
 0001:0004df6c       __ehhandler$?SaveChangedValueParam@FarEditorSet@@AAEXPAX@Z 1004ef6c f    CIL library: CIL module
 0001:0004df80       __unwindfunclet$?setYNListValueToCombobox@FarEditorSet@@AAEXPAVFileTypeImpl@@PAXVDString@@@Z$0 1004ef80 f    CIL library: CIL module
 0001:0004df80       __unwindfunclet$?setTFListValueToCombobox@FarEditorSet@@AAEXPAVFileTypeImpl@@PAXVDString@@@Z$0 1004ef80 f    CIL library: CIL module
 0001:0004df80       __unwindfunclet$?setCustomListValueToCombobox@FarEditorSet@@AAEXPAVFileTypeImpl@@PAXVDString@@@Z$0 1004ef80 f    CIL library: CIL module
 0001:0004df8a       __unwindfunclet$?setYNListValueToCombobox@FarEditorSet@@AAEXPAVFileTypeImpl@@PAXVDString@@@Z$2 1004ef8a f    CIL library: CIL module
 0001:0004df8a       __unwindfunclet$?setTFListValueToCombobox@FarEditorSet@@AAEXPAVFileTypeImpl@@PAXVDString@@@Z$2 1004ef8a f    CIL library: CIL module
 0001:0004df8a       __unwindfunclet$?setCustomListValueToCombobox@FarEditorSet@@AAEXPAVFileTypeImpl@@PAXVDString@@@Z$2 1004ef8a f    CIL library: CIL module
 0001:0004df92       __unwindfunclet$?setCustomListValueToCombobox@FarEditorSet@@AAEXPAVFileTypeImpl@@PAXVDString@@@Z$6 1004ef92 f    CIL library: CIL module
 0001:0004df92       __unwindfunclet$?setYNListValueToCombobox@FarEditorSet@@AAEXPAVFileTypeImpl@@PAXVDString@@@Z$6 1004ef92 f    CIL library: CIL module
 0001:0004df92       __unwindfunclet$?setTFListValueToCombobox@FarEditorSet@@AAEXPAVFileTypeImpl@@PAXVDString@@@Z$6 1004ef92 f    CIL library: CIL module
 0001:0004df9a       __ehhandler$?setTFListValueToCombobox@FarEditorSet@@AAEXPAVFileTypeImpl@@PAXVDString@@@Z 1004ef9a f    CIL library: CIL module
 0001:0004df9a       __ehhandler$?setCustomListValueToCombobox@FarEditorSet@@AAEXPAVFileTypeImpl@@PAXVDString@@@Z 1004ef9a f    CIL library: CIL module
 0001:0004df9a       __ehhandler$?setYNListValueToCombobox@FarEditorSet@@AAEXPAVFileTypeImpl@@PAXVDString@@@Z 1004ef9a f    CIL library: CIL module
 0001:0004dfb0       __unwindfunclet$?setCrossValueListToCombobox@FarEditorSet@@AAEXPAVFileTypeImpl@@PAX@Z$1 1004efb0 f    CIL library: CIL module
 0001:0004dfb0       __unwindfunclet$?setCrossPosValueListToCombobox@FarEditorSet@@AAEXPAVFileTypeImpl@@PAX@Z$1 1004efb0 f    CIL library: CIL module
 0001:0004dfb8       __ehhandler$?setCrossValueListToCombobox@FarEditorSet@@AAEXPAVFileTypeImpl@@PAX@Z 1004efb8 f    CIL library: CIL module
 0001:0004dfb8       __ehhandler$?setCrossPosValueListToCombobox@FarEditorSet@@AAEXPAVFileTypeImpl@@PAX@Z 1004efb8 f    CIL library: CIL module
 0001:0004dfd0       __unwindfunclet$?SetBgEditor@FarEditorSet@@QAE_NXZ$1 1004efd0 f    CIL library: CIL module
 0001:0004dfd8       __unwindfunclet$?SetBgEditor@FarEditorSet@@QAE_NXZ$0 1004efd8 f    CIL library: CIL module
 0001:0004dfe2       __unwindfunclet$?SetBgEditor@FarEditorSet@@QAE_NXZ$4 1004efe2 f    CIL library: CIL module
 0001:0004dfea       __unwindfunclet$?SetBgEditor@FarEditorSet@@QAE_NXZ$3 1004efea f    CIL library: CIL module
 0001:0004dff4       __ehhandler$?SetBgEditor@FarEditorSet@@QAE_NXZ 1004eff4 f    CIL library: CIL module
 0001:0004e000       __unwindfunclet$?ReadSettings@FarEditorSet@@QAEXXZ$0 1004f000 f    CIL library: CIL module
 0001:0004e00b       __unwindfunclet$?ReadSettings@FarEditorSet@@QAEXXZ$1 1004f00b f    CIL library: CIL module
 0001:0004e016       __unwindfunclet$?ReadSettings@FarEditorSet@@QAEXXZ$2 1004f016 f    CIL library: CIL module
 0001:0004e021       __unwindfunclet$?ReadSettings@FarEditorSet@@QAEXXZ$7 1004f021 f    CIL library: CIL module
 0001:0004e02c       __unwindfunclet$?ReadSettings@FarEditorSet@@QAEXXZ$3 1004f02c f    CIL library: CIL module
 0001:0004e037       __unwindfunclet$?ReadSettings@FarEditorSet@@QAEXXZ$9 1004f037 f    CIL library: CIL module
 0001:0004e03f       __unwindfunclet$?ReadSettings@FarEditorSet@@QAEXXZ$13 1004f03f f    CIL library: CIL module
 0001:0004e047       __unwindfunclet$?ReadSettings@FarEditorSet@@QAEXXZ$4 1004f047 f    CIL library: CIL module
 0001:0004e051       __unwindfunclet$?ReadSettings@FarEditorSet@@QAEXXZ$17 1004f051 f    CIL library: CIL module
 0001:0004e059       __unwindfunclet$?ReadSettings@FarEditorSet@@QAEXXZ$5 1004f059 f    CIL library: CIL module
 0001:0004e064       __unwindfunclet$?ReadSettings@FarEditorSet@@QAEXXZ$18 1004f064 f    CIL library: CIL module
 0001:0004e06f       __unwindfunclet$?ReadSettings@FarEditorSet@@QAEXXZ$6 1004f06f f    CIL library: CIL module
 0001:0004e07a       __unwindfunclet$?ReadSettings@FarEditorSet@@QAEXXZ$19 1004f07a f    CIL library: CIL module
 0001:0004e085       __ehhandler$?ReadSettings@FarEditorSet@@QAEXXZ 1004f085 f    CIL library: CIL module
 0001:0004e090       __unwindfunclet$?locateFunction@FarEditor@@QAEXXZ$0 1004f090 f    CIL library: CIL module
 0001:0004e09a       __unwindfunclet$?locateFunction@FarEditor@@QAEXXZ$3 1004f09a f    CIL library: CIL module
 0001:0004e0a2       __unwindfunclet$?locateFunction@FarEditor@@QAEXXZ$1 1004f0a2 f    CIL library: CIL module
 0001:0004e0ac       __unwindfunclet$?locateFunction@FarEditor@@QAEXXZ$5 1004f0ac f    CIL library: CIL module
 0001:0004e0b7       __unwindfunclet$?locateFunction@FarEditor@@QAEXXZ$4 1004f0b7 f    CIL library: CIL module
 0001:0004e0c4       __ehhandler$?locateFunction@FarEditor@@QAEXXZ 1004f0c4 f    CIL library: CIL module
 0001:0004e0d0       __unwindfunclet$?setRegionMapper@FarEditor@@QAEXPAVRegionMapper@@@Z$1 1004f0d0 f    CIL library: CIL module
 0001:0004e0d8       __unwindfunclet$?setRegionMapper@FarEditor@@QAEXPAVRegionMapper@@@Z$0 1004f0d8 f    CIL library: CIL module
 0001:0004e0e2       __unwindfunclet$?setRegionMapper@FarEditor@@QAEXPAVRegionMapper@@@Z$4 1004f0e2 f    CIL library: CIL module
 0001:0004e0ea       __unwindfunclet$?setRegionMapper@FarEditor@@QAEXPAVRegionMapper@@@Z$3 1004f0ea f    CIL library: CIL module
 0001:0004e0f4       __unwindfunclet$?setRegionMapper@FarEditor@@QAEXPAVRegionMapper@@@Z$7 1004f0f4 f    CIL library: CIL module
 0001:0004e0fc       __unwindfunclet$?setRegionMapper@FarEditor@@QAEXPAVRegionMapper@@@Z$6 1004f0fc f    CIL library: CIL module
 0001:0004e106       __ehhandler$?setRegionMapper@FarEditor@@QAEXPAVRegionMapper@@@Z 1004f106 f    CIL library: CIL module
 0001:0004e110       __unwindfunclet$?consumePI@DocumentBuilder@@AAEXPAVNode@@@Z$0 1004f110 f    CIL library: CIL module
 0001:0004e11b       __unwindfunclet$?consumePI@DocumentBuilder@@AAEXPAVNode@@@Z$1 1004f11b f    CIL library: CIL module
 0001:0004e125       __unwindfunclet$?consumePI@DocumentBuilder@@AAEXPAVNode@@@Z$2 1004f125 f    CIL library: CIL module
 0001:0004e130       __ehhandler$?consumePI@DocumentBuilder@@AAEXPAVNode@@@Z 1004f130 f    CIL library: CIL module
 0001:0004e140       __unwindfunclet$?consumeElement@DocumentBuilder@@AAEXPAVNode@@@Z$0 1004f140 f    CIL library: CIL module
 0001:0004e14b       __unwindfunclet$?consumeElement@DocumentBuilder@@AAEXPAVNode@@@Z$1 1004f14b f    CIL library: CIL module
 0001:0004e155       __unwindfunclet$?consumeElement@DocumentBuilder@@AAEXPAVNode@@@Z$3 1004f155 f    CIL library: CIL module
 0001:0004e160       __unwindfunclet$?consumeElement@DocumentBuilder@@AAEXPAVNode@@@Z$4 1004f160 f    CIL library: CIL module
 0001:0004e16a       __unwindfunclet$?consumeElement@DocumentBuilder@@AAEXPAVNode@@@Z$2 1004f16a f    CIL library: CIL module
 0001:0004e172       __unwindfunclet$?consumeElement@DocumentBuilder@@AAEXPAVNode@@@Z$7 1004f172 f    CIL library: CIL module
 0001:0004e17c       __unwindfunclet$?consumeElement@DocumentBuilder@@AAEXPAVNode@@@Z$6 1004f17c f    CIL library: CIL module
 0001:0004e186       __unwindfunclet$?consumeElement@DocumentBuilder@@AAEXPAVNode@@@Z$5 1004f186 f    CIL library: CIL module
 0001:0004e190       __ehhandler$?consumeElement@DocumentBuilder@@AAEXPAVNode@@@Z 1004f190 f    CIL library: CIL module
 0001:0004e1a0       __unwindfunclet$?replaceEntity@@YAPAVString@@PBV1@@Z$10 1004f1a0 f    CIL library: CIL module
 0001:0004e1ab       __unwindfunclet$?replaceEntity@@YAPAVString@@PBV1@@Z$0 1004f1ab f    CIL library: CIL module
 0001:0004e1b8       __unwindfunclet$?replaceEntity@@YAPAVString@@PBV1@@Z$12 1004f1b8 f    CIL library: CIL module
 0001:0004e1c0       __unwindfunclet$?replaceEntity@@YAPAVString@@PBV1@@Z$1 1004f1c0 f    CIL library: CIL module
 0001:0004e1ca       __unwindfunclet$?replaceEntity@@YAPAVString@@PBV1@@Z$14 1004f1ca f    CIL library: CIL module
 0001:0004e1d2       __unwindfunclet$?replaceEntity@@YAPAVString@@PBV1@@Z$15 1004f1d2 f    CIL library: CIL module
 0001:0004e1dd       __unwindfunclet$?replaceEntity@@YAPAVString@@PBV1@@Z$16 1004f1dd f    CIL library: CIL module
 0001:0004e1e8       __unwindfunclet$?replaceEntity@@YAPAVString@@PBV1@@Z$2 1004f1e8 f    CIL library: CIL module
 0001:0004e1f5       __unwindfunclet$?replaceEntity@@YAPAVString@@PBV1@@Z$18 1004f1f5 f    CIL library: CIL module
 0001:0004e200       __unwindfunclet$?replaceEntity@@YAPAVString@@PBV1@@Z$3 1004f200 f    CIL library: CIL module
 0001:0004e20d       __unwindfunclet$?replaceEntity@@YAPAVString@@PBV1@@Z$20 1004f20d f    CIL library: CIL module
 0001:0004e218       __unwindfunclet$?replaceEntity@@YAPAVString@@PBV1@@Z$21 1004f218 f    CIL library: CIL module
 0001:0004e223       __unwindfunclet$?replaceEntity@@YAPAVString@@PBV1@@Z$22 1004f223 f    CIL library: CIL module
 0001:0004e22b       __unwindfunclet$?replaceEntity@@YAPAVString@@PBV1@@Z$4 1004f22b f    CIL library: CIL module
 0001:0004e235       __unwindfunclet$?replaceEntity@@YAPAVString@@PBV1@@Z$24 1004f235 f    CIL library: CIL module
 0001:0004e240       __unwindfunclet$?replaceEntity@@YAPAVString@@PBV1@@Z$5 1004f240 f    CIL library: CIL module
 0001:0004e24d       __unwindfunclet$?replaceEntity@@YAPAVString@@PBV1@@Z$26 1004f24d f    CIL library: CIL module
 0001:0004e258       __unwindfunclet$?replaceEntity@@YAPAVString@@PBV1@@Z$27 1004f258 f    CIL library: CIL module
 0001:0004e260       __unwindfunclet$?replaceEntity@@YAPAVString@@PBV1@@Z$28 1004f260 f    CIL library: CIL module
 0001:0004e26b       __unwindfunclet$?replaceEntity@@YAPAVString@@PBV1@@Z$6 1004f26b f    CIL library: CIL module
 0001:0004e278       __unwindfunclet$?replaceEntity@@YAPAVString@@PBV1@@Z$30 1004f278 f    CIL library: CIL module
 0001:0004e283       __unwindfunclet$?replaceEntity@@YAPAVString@@PBV1@@Z$7 1004f283 f    CIL library: CIL module
 0001:0004e290       __unwindfunclet$?replaceEntity@@YAPAVString@@PBV1@@Z$32 1004f290 f    CIL library: CIL module
 0001:0004e29b       __unwindfunclet$?replaceEntity@@YAPAVString@@PBV1@@Z$33 1004f29b f    CIL library: CIL module
 0001:0004e2a6       __unwindfunclet$?replaceEntity@@YAPAVString@@PBV1@@Z$34 1004f2a6 f    CIL library: CIL module
 0001:0004e2ae       __unwindfunclet$?replaceEntity@@YAPAVString@@PBV1@@Z$8 1004f2ae f    CIL library: CIL module
 0001:0004e2b8       __unwindfunclet$?replaceEntity@@YAPAVString@@PBV1@@Z$36 1004f2b8 f    CIL library: CIL module
 0001:0004e2c0       __unwindfunclet$?replaceEntity@@YAPAVString@@PBV1@@Z$9 1004f2c0 f    CIL library: CIL module
 0001:0004e2ca       __unwindfunclet$?replaceEntity@@YAPAVString@@PBV1@@Z$38 1004f2ca f    CIL library: CIL module
 0001:0004e2d2       __unwindfunclet$?replaceEntity@@YAPAVString@@PBV1@@Z$39 1004f2d2 f    CIL library: CIL module
 0001:0004e2da       __ehhandler$?replaceEntity@@YAPAVString@@PBV1@@Z 1004f2da f    CIL library: CIL module
 0001:0004e2f0       __unwindfunclet$??0JARInputSource@@IAE@PBVString@@PAV0@_N@Z$0 1004f2f0 f    CIL library: CIL module
 0001:0004e2f8       __unwindfunclet$??0JARInputSource@@IAE@PBVString@@PAV0@_N@Z$1 1004f2f8 f    CIL library: CIL module
 0001:0004e302       __unwindfunclet$??0JARInputSource@@IAE@PBVString@@PAV0@_N@Z$2 1004f302 f    CIL library: CIL module
 0001:0004e30c       __unwindfunclet$??0JARInputSource@@IAE@PBVString@@PAV0@_N@Z$5 1004f30c f    CIL library: CIL module
 0001:0004e314       __unwindfunclet$??0JARInputSource@@IAE@PBVString@@PAV0@_N@Z$3 1004f314 f    CIL library: CIL module
 0001:0004e31e       __unwindfunclet$??0JARInputSource@@IAE@PBVString@@PAV0@_N@Z$7 1004f31e f    CIL library: CIL module
 0001:0004e326       __unwindfunclet$??0JARInputSource@@IAE@PBVString@@PAV0@_N@Z$4 1004f326 f    CIL library: CIL module
 0001:0004e331       __unwindfunclet$??0JARInputSource@@IAE@PBVString@@PAV0@_N@Z$8 1004f331 f    CIL library: CIL module
 0001:0004e339       __unwindfunclet$??0JARInputSource@@IAE@PBVString@@PAV0@_N@Z$13 1004f339 f    CIL library: CIL module
 0001:0004e341       __ehhandler$??0JARInputSource@@IAE@PBVString@@PAV0@_N@Z 1004f341 f    CIL library: CIL module
 0001:0004e350       __unwindfunclet$?newInstance@InputSource@@SAPAV1@PBVString@@PAV1@@Z$7 1004f350 f    CIL library: CIL module
 0001:0004e358       __unwindfunclet$?newInstance@InputSource@@SAPAV1@PBVString@@PAV1@@Z$0 1004f358 f    CIL library: CIL module
 0001:0004e362       __unwindfunclet$?newInstance@InputSource@@SAPAV1@PBVString@@PAV1@@Z$9 1004f362 f    CIL library: CIL module
 0001:0004e36a       __unwindfunclet$?newInstance@InputSource@@SAPAV1@PBVString@@PAV1@@Z$1 1004f36a f    CIL library: CIL module
 0001:0004e374       __unwindfunclet$?newInstance@InputSource@@SAPAV1@PBVString@@PAV1@@Z$11 1004f374 f    CIL library: CIL module
 0001:0004e37c       __unwindfunclet$?newInstance@InputSource@@SAPAV1@PBVString@@PAV1@@Z$2 1004f37c f    CIL library: CIL module
 0001:0004e387       __unwindfunclet$?newInstance@InputSource@@SAPAV1@PBVString@@PAV1@@Z$12 1004f387 f    CIL library: CIL module
 0001:0004e38f       __unwindfunclet$?newInstance@InputSource@@SAPAV1@PBVString@@PAV1@@Z$3 1004f38f f    CIL library: CIL module
 0001:0004e399       __unwindfunclet$?newInstance@InputSource@@SAPAV1@PBVString@@PAV1@@Z$4 1004f399 f    CIL library: CIL module
 0001:0004e3a4       __unwindfunclet$?newInstance@InputSource@@SAPAV1@PBVString@@PAV1@@Z$14 1004f3a4 f    CIL library: CIL module
 0001:0004e3ac       __unwindfunclet$?newInstance@InputSource@@SAPAV1@PBVString@@PAV1@@Z$5 1004f3ac f    CIL library: CIL module
 0001:0004e3b6       __unwindfunclet$?newInstance@InputSource@@SAPAV1@PBVString@@PAV1@@Z$6 1004f3b6 f    CIL library: CIL module
 0001:0004e3c1       __ehhandler$?newInstance@InputSource@@SAPAV1@PBVString@@PAV1@@Z 1004f3c1 f    CIL library: CIL module
 0001:0004e3d0       __unwindfunclet$?getEscapedChar@UnicodeTools@@SA_WABVString@@HAAH@Z$0 1004f3d0 f    CIL library: CIL module
 0001:0004e3da       __ehhandler$?getEscapedChar@UnicodeTools@@SA_WABVString@@HAAH@Z 1004f3da f    CIL library: CIL module
 0001:0004e3f0       __unwindfunclet$?createCharClass@CharacterClass@@SAPAV1@ABVString@@HPAH@Z$0 1004f3f0 f    CIL library: CIL module
 0001:0004e3fb       __unwindfunclet$?createCharClass@CharacterClass@@SAPAV1@ABVString@@HPAH@Z$1 1004f3fb f    CIL library: CIL module
 0001:0004e403       __unwindfunclet$?createCharClass@CharacterClass@@SAPAV1@ABVString@@HPAH@Z$2 1004f403 f    CIL library: CIL module
 0001:0004e40e       __ehhandler$?createCharClass@CharacterClass@@SAPAV1@ABVString@@HPAH@Z 1004f40e f    CIL library: CIL module
 0001:0004e420       __unwindfunclet$?loadBlockRegions@HRCParserImpl@@IAEXPAVSchemeNode@@PAVElement@@@Z$3 1004f420 f    CIL library: CIL module
 0001:0004e428       __unwindfunclet$?loadBlockRegions@HRCParserImpl@@IAEXPAVSchemeNode@@PAVElement@@@Z$0 1004f428 f    CIL library: CIL module
 0001:0004e432       __unwindfunclet$?loadBlockRegions@HRCParserImpl@@IAEXPAVSchemeNode@@PAVElement@@@Z$5 1004f432 f    CIL library: CIL module
 0001:0004e43a       __unwindfunclet$?loadBlockRegions@HRCParserImpl@@IAEXPAVSchemeNode@@PAVElement@@@Z$6 1004f43a f    CIL library: CIL module
 0001:0004e442       __unwindfunclet$?loadBlockRegions@HRCParserImpl@@IAEXPAVSchemeNode@@PAVElement@@@Z$1 1004f442 f    CIL library: CIL module
 0001:0004e44c       __unwindfunclet$?loadBlockRegions@HRCParserImpl@@IAEXPAVSchemeNode@@PAVElement@@@Z$8 1004f44c f    CIL library: CIL module
 0001:0004e454       __unwindfunclet$?loadBlockRegions@HRCParserImpl@@IAEXPAVSchemeNode@@PAVElement@@@Z$9 1004f454 f    CIL library: CIL module
 0001:0004e45c       __unwindfunclet$?loadBlockRegions@HRCParserImpl@@IAEXPAVSchemeNode@@PAVElement@@@Z$2 1004f45c f    CIL library: CIL module
 0001:0004e466       __unwindfunclet$?loadBlockRegions@HRCParserImpl@@IAEXPAVSchemeNode@@PAVElement@@@Z$11 1004f466 f    CIL library: CIL module
 0001:0004e46e       __ehhandler$?loadBlockRegions@HRCParserImpl@@IAEXPAVSchemeNode@@PAVElement@@@Z 1004f46e f    CIL library: CIL module
 0001:0004e480       __unwindfunclet$?loadRegions@HRCParserImpl@@IAEXPAVSchemeNode@@PAVElement@@_N@Z$3 1004f480 f    CIL library: CIL module
 0001:0004e488       __unwindfunclet$?loadRegions@HRCParserImpl@@IAEXPAVSchemeNode@@PAVElement@@_N@Z$0 1004f488 f    CIL library: CIL module
 0001:0004e492       __unwindfunclet$?loadRegions@HRCParserImpl@@IAEXPAVSchemeNode@@PAVElement@@_N@Z$5 1004f492 f    CIL library: CIL module
 0001:0004e49a       __unwindfunclet$?loadRegions@HRCParserImpl@@IAEXPAVSchemeNode@@PAVElement@@_N@Z$1 1004f49a f    CIL library: CIL module
 0001:0004e4a4       __unwindfunclet$?loadRegions@HRCParserImpl@@IAEXPAVSchemeNode@@PAVElement@@_N@Z$7 1004f4a4 f    CIL library: CIL module
 0001:0004e4ac       __unwindfunclet$?loadRegions@HRCParserImpl@@IAEXPAVSchemeNode@@PAVElement@@_N@Z$8 1004f4ac f    CIL library: CIL module
 0001:0004e4b4       __unwindfunclet$?loadRegions@HRCParserImpl@@IAEXPAVSchemeNode@@PAVElement@@_N@Z$2 1004f4b4 f    CIL library: CIL module
 0001:0004e4be       __unwindfunclet$?loadRegions@HRCParserImpl@@IAEXPAVSchemeNode@@PAVElement@@_N@Z$10 1004f4be f    CIL library: CIL module
 0001:0004e4c6       __ehhandler$?loadRegions@HRCParserImpl@@IAEXPAVSchemeNode@@PAVElement@@_N@Z 1004f4c6 f    CIL library: CIL module
 0001:0004e4d0       __unwindfunclet$??1FileTypeImpl@@MAE@XZ$0 1004f4d0 f    CIL library: CIL module
 0001:0004e4d8       __unwindfunclet$??1FileTypeImpl@@MAE@XZ$1 1004f4d8 f    CIL library: CIL module
 0001:0004e4e3       __unwindfunclet$??1FileTypeImpl@@MAE@XZ$2 1004f4e3 f    CIL library: CIL module
 0001:0004e4ee       __unwindfunclet$??1FileTypeImpl@@MAE@XZ$3 1004f4ee f    CIL library: CIL module
 0001:0004e4f9       __unwindfunclet$??1FileTypeImpl@@MAE@XZ$4 1004f4f9 f    CIL library: CIL module
 0001:0004e506       __unwindfunclet$??1FileTypeImpl@@MAE@XZ$5 1004f506 f    CIL library: CIL module
 0001:0004e513       __unwindfunclet$??1FileTypeImpl@@MAE@XZ$6 1004f513 f    CIL library: CIL module
 0001:0004e520       __ehhandler$??1FileTypeImpl@@MAE@XZ 1004f520 f    CIL library: CIL module
 0001:0004e530       __unwindfunclet$??0FileErrorHandler@@QAE@PBVString@@H_N@Z$0 1004f530 f    CIL library: CIL module
 0001:0004e538       __unwindfunclet$??0FileErrorHandler@@QAE@PBVString@@H_N@Z$1 1004f538 f    CIL library: CIL module
 0001:0004e542       __unwindfunclet$??0FileErrorHandler@@QAE@PBVString@@H_N@Z$2 1004f542 f    CIL library: CIL module
 0001:0004e54d       __unwindfunclet$??0FileErrorHandler@@QAE@PBVString@@H_N@Z$4 1004f54d f    CIL library: CIL module
 0001:0004e555       __unwindfunclet$??0FileErrorHandler@@QAE@PBVString@@H_N@Z$3 1004f555 f    CIL library: CIL module
 0001:0004e560       __ehhandler$??0FileErrorHandler@@QAE@PBVString@@H_N@Z 1004f560 f    CIL library: CIL module
 0001:0004e570       __unwindfunclet$?loadFile@TextLinesStore@@QAEXPBVString@@0_N@Z$2 1004f570 f    CIL library: CIL module
 0001:0004e57b       __unwindfunclet$?loadFile@TextLinesStore@@QAEXPBVString@@0_N@Z$3 1004f57b f    CIL library: CIL module
 0001:0004e586       __unwindfunclet$?loadFile@TextLinesStore@@QAEXPBVString@@0_N@Z$6 1004f586 f    CIL library: CIL module
 0001:0004e58e       __unwindfunclet$?loadFile@TextLinesStore@@QAEXPBVString@@0_N@Z$4 1004f58e f    CIL library: CIL module
 0001:0004e598       __unwindfunclet$?loadFile@TextLinesStore@@QAEXPBVString@@0_N@Z$5 1004f598 f    CIL library: CIL module
 0001:0004e5a3       __unwindfunclet$?loadFile@TextLinesStore@@QAEXPBVString@@0_N@Z$10 1004f5a3 f    CIL library: CIL module
 0001:0004e5ab       __unwindfunclet$?loadFile@TextLinesStore@@QAEXPBVString@@0_N@Z$11 1004f5ab f    CIL library: CIL module
 0001:0004e5b3       __ehhandler$?loadFile@TextLinesStore@@QAEXPBVString@@0_N@Z 1004f5b3 f    CIL library: CIL module
 0001:0004e5c0       __unwindfunclet$?view@TextConsoleViewer@@QAEXXZ$1 1004f5c0 f    CIL library: CIL module
 0001:0004e5c8       __unwindfunclet$?view@TextConsoleViewer@@QAEXXZ$0 1004f5c8 f    CIL library: CIL module
 0001:0004e5d2       __unwindfunclet$?view@TextConsoleViewer@@QAEXXZ$18 1004f5d2 f    CIL library: CIL module
 0001:0004e5da       __unwindfunclet$?view@TextConsoleViewer@@QAEXXZ$3 1004f5da f    CIL library: CIL module
 0001:0004e5e5       __unwindfunclet$?view@TextConsoleViewer@@QAEXXZ$2 1004f5e5 f    CIL library: CIL module
 0001:0004e5f2       __ehhandler$?view@TextConsoleViewer@@QAEXXZ 1004f5f2 f    CIL library: CIL module
 0001:0004e600       __unwindfunclet$?createStyledMapper@ParserFactory@@QAEPAVStyledHRDMapper@@PBVString@@0@Z$11 1004f600 f    CIL library: CIL module
 0001:0004e608       __unwindfunclet$?createStyledMapper@ParserFactory@@QAEPAVStyledHRDMapper@@PBVString@@0@Z$2 1004f608 f    CIL library: CIL module
 0001:0004e612       __unwindfunclet$?createStyledMapper@ParserFactory@@QAEPAVStyledHRDMapper@@PBVString@@0@Z$13 1004f612 f    CIL library: CIL module
 0001:0004e61a       __unwindfunclet$?createStyledMapper@ParserFactory@@QAEPAVStyledHRDMapper@@PBVString@@0@Z$3 1004f61a f    CIL library: CIL module
 0001:0004e624       __unwindfunclet$?createStyledMapper@ParserFactory@@QAEPAVStyledHRDMapper@@PBVString@@0@Z$14 1004f624 f    CIL library: CIL module
 0001:0004e62c       __unwindfunclet$?createStyledMapper@ParserFactory@@QAEPAVStyledHRDMapper@@PBVString@@0@Z$4 1004f62c f    CIL library: CIL module
 0001:0004e646       __unwindfunclet$?createStyledMapper@ParserFactory@@QAEPAVStyledHRDMapper@@PBVString@@0@Z$16 1004f646 f    CIL library: CIL module
 0001:0004e651       __unwindfunclet$?createStyledMapper@ParserFactory@@QAEPAVStyledHRDMapper@@PBVString@@0@Z$5 1004f651 f    CIL library: CIL module
 0001:0004e66e       __unwindfunclet$?createStyledMapper@ParserFactory@@QAEPAVStyledHRDMapper@@PBVString@@0@Z$18 1004f66e f    CIL library: CIL module
 0001:0004e676       __unwindfunclet$?createStyledMapper@ParserFactory@@QAEPAVStyledHRDMapper@@PBVString@@0@Z$6 1004f676 f    CIL library: CIL module
 0001:0004e680       __unwindfunclet$?createStyledMapper@ParserFactory@@QAEPAVStyledHRDMapper@@PBVString@@0@Z$7 1004f680 f    CIL library: CIL module
 0001:0004e68a       __unwindfunclet$?createStyledMapper@ParserFactory@@QAEPAVStyledHRDMapper@@PBVString@@0@Z$8 1004f68a f    CIL library: CIL module
 0001:0004e695       __unwindfunclet$?createStyledMapper@ParserFactory@@QAEPAVStyledHRDMapper@@PBVString@@0@Z$22 1004f695 f    CIL library: CIL module
 0001:0004e69d       __unwindfunclet$?createStyledMapper@ParserFactory@@QAEPAVStyledHRDMapper@@PBVString@@0@Z$9 1004f69d f    CIL library: CIL module
 0001:0004e6a7       __unwindfunclet$?createStyledMapper@ParserFactory@@QAEPAVStyledHRDMapper@@PBVString@@0@Z$24 1004f6a7 f    CIL library: CIL module
 0001:0004e6b2       __unwindfunclet$?createStyledMapper@ParserFactory@@QAEPAVStyledHRDMapper@@PBVString@@0@Z$10 1004f6b2 f    CIL library: CIL module
 0001:0004e6bf       __ehhandler$?createStyledMapper@ParserFactory@@QAEPAVStyledHRDMapper@@PBVString@@0@Z 1004f6bf f    CIL library: CIL module
 0001:0004e6d0       __unwindfunclet$?getHRCParser@ParserFactory@@QAEPAVHRCParser@@XZ$4 1004f6d0 f    CIL library: CIL module
 0001:0004e6db       __unwindfunclet$?getHRCParser@ParserFactory@@QAEPAVHRCParser@@XZ$19 1004f6db f    CIL library: CIL module
 0001:0004e6e3       __unwindfunclet$?getHRCParser@ParserFactory@@QAEPAVHRCParser@@XZ$5 1004f6e3 f    CIL library: CIL module
 0001:0004e6ed       __unwindfunclet$?getHRCParser@ParserFactory@@QAEPAVHRCParser@@XZ$21 1004f6ed f    CIL library: CIL module
 0001:0004e6f5       __unwindfunclet$?getHRCParser@ParserFactory@@QAEPAVHRCParser@@XZ$6 1004f6f5 f    CIL library: CIL module
 0001:0004e700       __unwindfunclet$?getHRCParser@ParserFactory@@QAEPAVHRCParser@@XZ$22 1004f700 f    CIL library: CIL module
 0001:0004e708       __unwindfunclet$?getHRCParser@ParserFactory@@QAEPAVHRCParser@@XZ$26 1004f708 f    CIL library: CIL module
 0001:0004e710       __unwindfunclet$?getHRCParser@ParserFactory@@QAEPAVHRCParser@@XZ$7 1004f710 f    CIL library: CIL module
 0001:0004e71a       __unwindfunclet$?getHRCParser@ParserFactory@@QAEPAVHRCParser@@XZ$28 1004f71a f    CIL library: CIL module
 0001:0004e722       __unwindfunclet$?getHRCParser@ParserFactory@@QAEPAVHRCParser@@XZ$8 1004f722 f    CIL library: CIL module
 0001:0004e72d       __unwindfunclet$?getHRCParser@ParserFactory@@QAEPAVHRCParser@@XZ$29 1004f72d f    CIL library: CIL module
 0001:0004e735       __unwindfunclet$?getHRCParser@ParserFactory@@QAEPAVHRCParser@@XZ$33 1004f735 f    CIL library: CIL module
 0001:0004e73d       __unwindfunclet$?getHRCParser@ParserFactory@@QAEPAVHRCParser@@XZ$9 1004f73d f    CIL library: CIL module
 0001:0004e747       __unwindfunclet$?getHRCParser@ParserFactory@@QAEPAVHRCParser@@XZ$35 1004f747 f    CIL library: CIL module
 0001:0004e74f       __unwindfunclet$?getHRCParser@ParserFactory@@QAEPAVHRCParser@@XZ$10 1004f74f f    CIL library: CIL module
 0001:0004e75a       __unwindfunclet$?getHRCParser@ParserFactory@@QAEPAVHRCParser@@XZ$36 1004f75a f    CIL library: CIL module
 0001:0004e762       __unwindfunclet$?getHRCParser@ParserFactory@@QAEPAVHRCParser@@XZ$11 1004f762 f    CIL library: CIL module
 0001:0004e76d       __unwindfunclet$?getHRCParser@ParserFactory@@QAEPAVHRCParser@@XZ$40 1004f76d f    CIL library: CIL module
 0001:0004e775       __unwindfunclet$?getHRCParser@ParserFactory@@QAEPAVHRCParser@@XZ$45 1004f775 f    CIL library: CIL module
 0001:0004e77d       __unwindfunclet$?getHRCParser@ParserFactory@@QAEPAVHRCParser@@XZ$12 1004f77d f    CIL library: CIL module
 0001:0004e787       __unwindfunclet$?getHRCParser@ParserFactory@@QAEPAVHRCParser@@XZ$13 1004f787 f    CIL library: CIL module
 0001:0004e794       __unwindfunclet$?getHRCParser@ParserFactory@@QAEPAVHRCParser@@XZ$50 1004f794 f    CIL library: CIL module
 0001:0004e79c       __unwindfunclet$?getHRCParser@ParserFactory@@QAEPAVHRCParser@@XZ$14 1004f79c f    CIL library: CIL module
 0001:0004e7a6       __unwindfunclet$?getHRCParser@ParserFactory@@QAEPAVHRCParser@@XZ$15 1004f7a6 f    CIL library: CIL module
 0001:0004e7b0       __unwindfunclet$?getHRCParser@ParserFactory@@QAEPAVHRCParser@@XZ$55 1004f7b0 f    CIL library: CIL module
 0001:0004e7bb       __unwindfunclet$?getHRCParser@ParserFactory@@QAEPAVHRCParser@@XZ$16 1004f7bb f    CIL library: CIL module
 0001:0004e7c8       __ehhandler$?getHRCParser@ParserFactory@@QAEPAVHRCParser@@XZ 1004f7c8 f    CIL library: CIL module
 0001:0004e7e0       __unwindfunclet$?searchPath@ParserFactory@@AAEPAVString@@XZ$6 1004f7e0 f    CIL library: CIL module
 0001:0004e7e8       __unwindfunclet$?searchPath@ParserFactory@@AAEPAVString@@XZ$23 1004f7e8 f    CIL library: CIL module
 0001:0004e7f3       __unwindfunclet$?searchPath@ParserFactory@@AAEPAVString@@XZ$7 1004f7f3 f    CIL library: CIL module
 0001:0004e800       __unwindfunclet$?searchPath@ParserFactory@@AAEPAVString@@XZ$25 1004f800 f    CIL library: CIL module
 0001:0004e80b       __unwindfunclet$?searchPath@ParserFactory@@AAEPAVString@@XZ$27 1004f80b f    CIL library: CIL module
 0001:0004e816       __unwindfunclet$?searchPath@ParserFactory@@AAEPAVString@@XZ$26 1004f816 f    CIL library: CIL module
 0001:0004e823       __unwindfunclet$?searchPath@ParserFactory@@AAEPAVString@@XZ$8 1004f823 f    CIL library: CIL module
 0001:0004e830       __unwindfunclet$?searchPath@ParserFactory@@AAEPAVString@@XZ$9 1004f830 f    CIL library: CIL module
 0001:0004e83b       __unwindfunclet$?searchPath@ParserFactory@@AAEPAVString@@XZ$29 1004f83b f    CIL library: CIL module
 0001:0004e843       __unwindfunclet$?searchPath@ParserFactory@@AAEPAVString@@XZ$10 1004f843 f    CIL library: CIL module
 0001:0004e85d       __unwindfunclet$?searchPath@ParserFactory@@AAEPAVString@@XZ$34 1004f85d f    CIL library: CIL module
 0001:0004e865       __unwindfunclet$?searchPath@ParserFactory@@AAEPAVString@@XZ$38 1004f865 f    CIL library: CIL module
 0001:0004e86d       __unwindfunclet$?searchPath@ParserFactory@@AAEPAVString@@XZ$11 1004f86d f    CIL library: CIL module
 0001:0004e877       __unwindfunclet$?searchPath@ParserFactory@@AAEPAVString@@XZ$40 1004f877 f    CIL library: CIL module
 0001:0004e87f       __unwindfunclet$?searchPath@ParserFactory@@AAEPAVString@@XZ$41 1004f87f f    CIL library: CIL module
 0001:0004e887       __unwindfunclet$?searchPath@ParserFactory@@AAEPAVString@@XZ$12 1004f887 f    CIL library: CIL module
 0001:0004e892       __unwindfunclet$?searchPath@ParserFactory@@AAEPAVString@@XZ$31 1004f892 f    CIL library: CIL module
 0001:0004e89d       __unwindfunclet$?searchPath@ParserFactory@@AAEPAVString@@XZ$30 1004f89d f    CIL library: CIL module
 0001:0004e8aa       __unwindfunclet$?searchPath@ParserFactory@@AAEPAVString@@XZ$13 1004f8aa f    CIL library: CIL module
 0001:0004e8b5       __unwindfunclet$?searchPath@ParserFactory@@AAEPAVString@@XZ$42 1004f8b5 f    CIL library: CIL module
 0001:0004e8bd       __unwindfunclet$?searchPath@ParserFactory@@AAEPAVString@@XZ$14 1004f8bd f    CIL library: CIL module
 0001:0004e8c7       __unwindfunclet$?searchPath@ParserFactory@@AAEPAVString@@XZ$15 1004f8c7 f    CIL library: CIL module
 0001:0004e8d4       __unwindfunclet$?searchPath@ParserFactory@@AAEPAVString@@XZ$45 1004f8d4 f    CIL library: CIL module
 0001:0004e8df       __unwindfunclet$?searchPath@ParserFactory@@AAEPAVString@@XZ$46 1004f8df f    CIL library: CIL module
 0001:0004e8e7       __unwindfunclet$?searchPath@ParserFactory@@AAEPAVString@@XZ$16 1004f8e7 f    CIL library: CIL module
 0001:0004e8f2       __unwindfunclet$?searchPath@ParserFactory@@AAEPAVString@@XZ$48 1004f8f2 f    CIL library: CIL module
 0001:0004e8fa       __unwindfunclet$?searchPath@ParserFactory@@AAEPAVString@@XZ$17 1004f8fa f    CIL library: CIL module
 0001:0004e905       __unwindfunclet$?searchPath@ParserFactory@@AAEPAVString@@XZ$52 1004f905 f    CIL library: CIL module
 0001:0004e90d       __unwindfunclet$?searchPath@ParserFactory@@AAEPAVString@@XZ$18 1004f90d f    CIL library: CIL module
 0001:0004e917       __unwindfunclet$?searchPath@ParserFactory@@AAEPAVString@@XZ$54 1004f917 f    CIL library: CIL module
 0001:0004e91f       __unwindfunclet$?searchPath@ParserFactory@@AAEPAVString@@XZ$19 1004f91f f    CIL library: CIL module
 0001:0004e92a       __unwindfunclet$?searchPath@ParserFactory@@AAEPAVString@@XZ$56 1004f92a f    CIL library: CIL module
 0001:0004e932       __unwindfunclet$?searchPath@ParserFactory@@AAEPAVString@@XZ$20 1004f932 f    CIL library: CIL module
 0001:0004e940       __unwindfunclet$?searchPath@ParserFactory@@AAEPAVString@@XZ$61 1004f940 f    CIL library: CIL module
 0001:0004e94b       __unwindfunclet$?searchPath@ParserFactory@@AAEPAVString@@XZ$65 1004f94b f    CIL library: CIL module
 0001:0004e953       __unwindfunclet$?searchPath@ParserFactory@@AAEPAVString@@XZ$21 1004f953 f    CIL library: CIL module
 0001:0004e95d       __unwindfunclet$?searchPath@ParserFactory@@AAEPAVString@@XZ$67 1004f95d f    CIL library: CIL module
 0001:0004e965       __unwindfunclet$?searchPath@ParserFactory@@AAEPAVString@@XZ$68 1004f965 f    CIL library: CIL module
 0001:0004e970       __unwindfunclet$?searchPath@ParserFactory@@AAEPAVString@@XZ$22 1004f970 f    CIL library: CIL module
 0001:0004e97d       __unwindfunclet$?searchPath@ParserFactory@@AAEPAVString@@XZ$70 1004f97d f    CIL library: CIL module
 0001:0004e988       __unwindfunclet$?searchPath@ParserFactory@@AAEPAVString@@XZ$71 1004f988 f    CIL library: CIL module
 0001:0004e993       __unwindfunclet$?searchPath@ParserFactory@@AAEPAVString@@XZ$72 1004f993 f    CIL library: CIL module
 0001:0004e99e       __ehhandler$?searchPath@ParserFactory@@AAEPAVString@@XZ 1004f99e f    CIL library: CIL module
 0001:0004e9b0       __unwindfunclet$?readProfileFromRegistry@FarHrcSettings@@AAEXPAUHKEY__@@@Z$5 1004f9b0 f    CIL library: CIL module
 0001:0004e9bb       __unwindfunclet$?readProfileFromRegistry@FarHrcSettings@@AAEXPAUHKEY__@@@Z$0 1004f9bb f    CIL library: CIL module
 0001:0004e9c8       __unwindfunclet$?readProfileFromRegistry@FarHrcSettings@@AAEXPAUHKEY__@@@Z$9 1004f9c8 f    CIL library: CIL module
 0001:0004e9d3       __unwindfunclet$?readProfileFromRegistry@FarHrcSettings@@AAEXPAUHKEY__@@@Z$1 1004f9d3 f    CIL library: CIL module
 0001:0004e9e0       __unwindfunclet$?readProfileFromRegistry@FarHrcSettings@@AAEXPAUHKEY__@@@Z$10 1004f9e0 f    CIL library: CIL module
 0001:0004e9eb       __unwindfunclet$?readProfileFromRegistry@FarHrcSettings@@AAEXPAUHKEY__@@@Z$2 1004f9eb f    CIL library: CIL module
 0001:0004e9f8       __unwindfunclet$?readProfileFromRegistry@FarHrcSettings@@AAEXPAUHKEY__@@@Z$11 1004f9f8 f    CIL library: CIL module
 0001:0004ea06       __unwindfunclet$?readProfileFromRegistry@FarHrcSettings@@AAEXPAUHKEY__@@@Z$12 1004fa06 f    CIL library: CIL module
 0001:0004ea11       __unwindfunclet$?readProfileFromRegistry@FarHrcSettings@@AAEXPAUHKEY__@@@Z$16 1004fa11 f    CIL library: CIL module
 0001:0004ea1c       __unwindfunclet$?readProfileFromRegistry@FarHrcSettings@@AAEXPAUHKEY__@@@Z$3 1004fa1c f    CIL library: CIL module
 0001:0004ea29       __unwindfunclet$?readProfileFromRegistry@FarHrcSettings@@AAEXPAUHKEY__@@@Z$4 1004fa29 f    CIL library: CIL module
 0001:0004ea36       __unwindfunclet$?readProfileFromRegistry@FarHrcSettings@@AAEXPAUHKEY__@@@Z$17 1004fa36 f    CIL library: CIL module
 0001:0004ea41       __unwindfunclet$?readProfileFromRegistry@FarHrcSettings@@AAEXPAUHKEY__@@@Z$18 1004fa41 f    CIL library: CIL module
 0001:0004ea4c       __ehhandler$?readProfileFromRegistry@FarHrcSettings@@AAEXPAUHKEY__@@@Z 1004fa4c f    CIL library: CIL module
 0001:0004ea60       __unwindfunclet$?UpdatePrototype@FarHrcSettings@@AAEXPAVElement@@_N@Z$8 1004fa60 f    CIL library: CIL module
 0001:0004ea68       __unwindfunclet$?UpdatePrototype@FarHrcSettings@@AAEXPAVElement@@_N@Z$0 1004fa68 f    CIL library: CIL module
 0001:0004ea72       __unwindfunclet$?UpdatePrototype@FarHrcSettings@@AAEXPAVElement@@_N@Z$10 1004fa72 f    CIL library: CIL module
 0001:0004ea7a       __unwindfunclet$?UpdatePrototype@FarHrcSettings@@AAEXPAVElement@@_N@Z$11 1004fa7a f    CIL library: CIL module
 0001:0004ea82       __unwindfunclet$?UpdatePrototype@FarHrcSettings@@AAEXPAVElement@@_N@Z$1 1004fa82 f    CIL library: CIL module
 0001:0004ea8c       __unwindfunclet$?UpdatePrototype@FarHrcSettings@@AAEXPAVElement@@_N@Z$13 1004fa8c f    CIL library: CIL module
 0001:0004ea94       __unwindfunclet$?UpdatePrototype@FarHrcSettings@@AAEXPAVElement@@_N@Z$14 1004fa94 f    CIL library: CIL module
 0001:0004ea9f       __unwindfunclet$?UpdatePrototype@FarHrcSettings@@AAEXPAVElement@@_N@Z$2 1004fa9f f    CIL library: CIL module
 0001:0004eaac       __unwindfunclet$?UpdatePrototype@FarHrcSettings@@AAEXPAVElement@@_N@Z$16 1004faac f    CIL library: CIL module
 0001:0004eab7       __unwindfunclet$?UpdatePrototype@FarHrcSettings@@AAEXPAVElement@@_N@Z$17 1004fab7 f    CIL library: CIL module
 0001:0004eabf       __unwindfunclet$?UpdatePrototype@FarHrcSettings@@AAEXPAVElement@@_N@Z$3 1004fabf f    CIL library: CIL module
 0001:0004eac9       __unwindfunclet$?UpdatePrototype@FarHrcSettings@@AAEXPAVElement@@_N@Z$19 1004fac9 f    CIL library: CIL module
 0001:0004ead1       __unwindfunclet$?UpdatePrototype@FarHrcSettings@@AAEXPAVElement@@_N@Z$20 1004fad1 f    CIL library: CIL module
 0001:0004ead9       __unwindfunclet$?UpdatePrototype@FarHrcSettings@@AAEXPAVElement@@_N@Z$4 1004fad9 f    CIL library: CIL module
 0001:0004eae3       __unwindfunclet$?UpdatePrototype@FarHrcSettings@@AAEXPAVElement@@_N@Z$24 1004fae3 f    CIL library: CIL module
 0001:0004eaeb       __unwindfunclet$?UpdatePrototype@FarHrcSettings@@AAEXPAVElement@@_N@Z$5 1004faeb f    CIL library: CIL module
 0001:0004eaf5       __unwindfunclet$?UpdatePrototype@FarHrcSettings@@AAEXPAVElement@@_N@Z$32 1004faf5 f    CIL library: CIL module
 0001:0004eb00       __unwindfunclet$?UpdatePrototype@FarHrcSettings@@AAEXPAVElement@@_N@Z$7 1004fb00 f    CIL library: CIL module
 0001:0004eb0d       __ehhandler$?UpdatePrototype@FarHrcSettings@@AAEXPAVElement@@_N@Z 1004fb0d f    CIL library: CIL module
 0001:0004eb20       __unwindfunclet$?OnChangeParam@FarEditorSet@@QAEXPAXH@Z$4 1004fb20 f    CIL library: CIL module
 0001:0004eb28       __unwindfunclet$?OnChangeParam@FarEditorSet@@QAEXPAXH@Z$0 1004fb28 f    CIL library: CIL module
 0001:0004eb32       __unwindfunclet$?OnChangeParam@FarEditorSet@@QAEXPAXH@Z$12 1004fb32 f    CIL library: CIL module
 0001:0004eb3a       __unwindfunclet$?OnChangeParam@FarEditorSet@@QAEXPAXH@Z$16 1004fb3a f    CIL library: CIL module
 0001:0004eb42       __unwindfunclet$?OnChangeParam@FarEditorSet@@QAEXPAXH@Z$8 1004fb42 f    CIL library: CIL module
 0001:0004eb4a       __unwindfunclet$?OnChangeParam@FarEditorSet@@QAEXPAXH@Z$20 1004fb4a f    CIL library: CIL module
 0001:0004eb52       __ehhandler$?OnChangeParam@FarEditorSet@@QAEXPAXH@Z 1004fb52 f    CIL library: CIL module
 0001:0004eb60       __ehhandler$?LoadUserHrc@FarEditorSet@@QAEXPBVString@@PAVParserFactory@@@Z 1004fb60 f    CIL library: CIL module
 0001:0004eb70       __unwindfunclet$?editorEvent@FarEditor@@QAEHHPAX@Z$3 1004fb70 f    CIL library: CIL module
 0001:0004eb78       __unwindfunclet$?editorEvent@FarEditor@@QAEHHPAX@Z$0 1004fb78 f    CIL library: CIL module
 0001:0004eb82       __unwindfunclet$?editorEvent@FarEditor@@QAEHHPAX@Z$2 1004fb82 f    CIL library: CIL module
 0001:0004eb8c       __unwindfunclet$?editorEvent@FarEditor@@QAEHHPAX@Z$1 1004fb8c f    CIL library: CIL module
 0001:0004eb9a       __ehhandler$?editorEvent@FarEditor@@QAEHHPAX@Z 1004fb9a f    CIL library: CIL module
 0001:0004ebb0       __unwindfunclet$?reloadTypeSettings@FarEditor@@AAEXXZ$2 1004fbb0 f    CIL library: CIL module
 0001:0004ebb8       __unwindfunclet$?reloadTypeSettings@FarEditor@@AAEXXZ$0 1004fbb8 f    CIL library: CIL module
 0001:0004ebc2       __unwindfunclet$?reloadTypeSettings@FarEditor@@AAEXXZ$4 1004fbc2 f    CIL library: CIL module
 0001:0004ebca       __unwindfunclet$?reloadTypeSettings@FarEditor@@AAEXXZ$5 1004fbca f    CIL library: CIL module
 0001:0004ebd2       __unwindfunclet$?reloadTypeSettings@FarEditor@@AAEXXZ$1 1004fbd2 f    CIL library: CIL module
 0001:0004ebdc       __ehhandler$?reloadTypeSettings@FarEditor@@AAEXXZ 1004fbdc f    CIL library: CIL module
 0001:0004ebf0       __unwindfunclet$?setStructs@CRegExp@@AAE?AW4EError@@AAPAVSRegInfo@@ABVString@@AAH@Z$1 1004fbf0 f    CIL library: CIL module
 0001:0004ebfd       __unwindfunclet$?setStructs@CRegExp@@AAE?AW4EError@@AAPAVSRegInfo@@ABVString@@AAH@Z$2 1004fbfd f    CIL library: CIL module
 0001:0004ec0a       __unwindfunclet$?setStructs@CRegExp@@AAE?AW4EError@@AAPAVSRegInfo@@ABVString@@AAH@Z$3 1004fc0a f    CIL library: CIL module
 0001:0004ec15       __unwindfunclet$?setStructs@CRegExp@@AAE?AW4EError@@AAPAVSRegInfo@@ABVString@@AAH@Z$9 1004fc15 f    CIL library: CIL module
 0001:0004ec1d       __unwindfunclet$?setStructs@CRegExp@@AAE?AW4EError@@AAPAVSRegInfo@@ABVString@@AAH@Z$5 1004fc1d f    CIL library: CIL module
 0001:0004ec2a       __unwindfunclet$?setStructs@CRegExp@@AAE?AW4EError@@AAPAVSRegInfo@@ABVString@@AAH@Z$6 1004fc2a f    CIL library: CIL module
 0001:0004ec35       __unwindfunclet$?setStructs@CRegExp@@AAE?AW4EError@@AAPAVSRegInfo@@ABVString@@AAH@Z$13 1004fc35 f    CIL library: CIL module
 0001:0004ec3d       __unwindfunclet$?setStructs@CRegExp@@AAE?AW4EError@@AAPAVSRegInfo@@ABVString@@AAH@Z$7 1004fc3d f    CIL library: CIL module
 0001:0004ec57       __unwindfunclet$?setStructs@CRegExp@@AAE?AW4EError@@AAPAVSRegInfo@@ABVString@@AAH@Z$17 1004fc57 f    CIL library: CIL module
 0001:0004ec5f       __unwindfunclet$?setStructs@CRegExp@@AAE?AW4EError@@AAPAVSRegInfo@@ABVString@@AAH@Z$21 1004fc5f f    CIL library: CIL module
 0001:0004ec67       __unwindfunclet$?setStructs@CRegExp@@AAE?AW4EError@@AAPAVSRegInfo@@ABVString@@AAH@Z$15 1004fc67 f    CIL library: CIL module
 0001:0004ec6f       __unwindfunclet$?setStructs@CRegExp@@AAE?AW4EError@@AAPAVSRegInfo@@ABVString@@AAH@Z$14 1004fc6f f    CIL library: CIL module
 0001:0004ec79       __ehhandler$?setStructs@CRegExp@@AAE?AW4EError@@AAPAVSRegInfo@@ABVString@@AAH@Z 1004fc79 f    CIL library: CIL module
 0001:0004ec90       __unwindfunclet$?setRELow@CRegExp@@AAE?AW4EError@@ABVString@@@Z$3 1004fc90 f    CIL library: CIL module
 0001:0004ec98       __unwindfunclet$?setRELow@CRegExp@@AAE?AW4EError@@ABVString@@@Z$2 1004fc98 f    CIL library: CIL module
 0001:0004eca2       __unwindfunclet$?setRELow@CRegExp@@AAE?AW4EError@@ABVString@@@Z$7 1004fca2 f    CIL library: CIL module
 0001:0004ecaa       __unwindfunclet$?setRELow@CRegExp@@AAE?AW4EError@@ABVString@@@Z$5 1004fcaa f    CIL library: CIL module
 0001:0004ecb2       __unwindfunclet$?setRELow@CRegExp@@AAE?AW4EError@@ABVString@@@Z$4 1004fcb2 f    CIL library: CIL module
 0001:0004ecbc       __ehhandler$?setRELow@CRegExp@@AAE?AW4EError@@ABVString@@@Z 1004fcbc f    CIL library: CIL module
 0001:0004ecd0       __unwindfunclet$?serialize@Element@@UAEXPAVWriter@@FF@Z$8 1004fcd0 f    CIL library: CIL module
 0001:0004ecd8       __unwindfunclet$?serialize@Element@@UAEXPAVWriter@@FF@Z$0 1004fcd8 f    CIL library: CIL module
 0001:0004ece2       __unwindfunclet$?serialize@Element@@UAEXPAVWriter@@FF@Z$10 1004fce2 f    CIL library: CIL module
 0001:0004ecea       __unwindfunclet$?serialize@Element@@UAEXPAVWriter@@FF@Z$1 1004fcea f    CIL library: CIL module
 0001:0004ecf4       __unwindfunclet$?serialize@Element@@UAEXPAVWriter@@FF@Z$12 1004fcf4 f    CIL library: CIL module
 0001:0004ecff       __unwindfunclet$?serialize@Element@@UAEXPAVWriter@@FF@Z$2 1004fcff f    CIL library: CIL module
 0001:0004ed0c       __unwindfunclet$?serialize@Element@@UAEXPAVWriter@@FF@Z$14 1004fd0c f    CIL library: CIL module
 0001:0004ed17       __unwindfunclet$?serialize@Element@@UAEXPAVWriter@@FF@Z$3 1004fd17 f    CIL library: CIL module
 0001:0004ed24       __unwindfunclet$?serialize@Element@@UAEXPAVWriter@@FF@Z$16 1004fd24 f    CIL library: CIL module
 0001:0004ed2f       __unwindfunclet$?serialize@Element@@UAEXPAVWriter@@FF@Z$22 1004fd2f f    CIL library: CIL module
 0001:0004ed3a       __unwindfunclet$?serialize@Element@@UAEXPAVWriter@@FF@Z$5 1004fd3a f    CIL library: CIL module
 0001:0004ed47       __unwindfunclet$?serialize@Element@@UAEXPAVWriter@@FF@Z$24 1004fd47 f    CIL library: CIL module
 0001:0004ed52       __unwindfunclet$?serialize@Element@@UAEXPAVWriter@@FF@Z$18 1004fd52 f    CIL library: CIL module
 0001:0004ed5d       __unwindfunclet$?serialize@Element@@UAEXPAVWriter@@FF@Z$4 1004fd5d f    CIL library: CIL module
 0001:0004ed6a       __unwindfunclet$?serialize@Element@@UAEXPAVWriter@@FF@Z$20 1004fd6a f    CIL library: CIL module
 0001:0004ed75       __unwindfunclet$?serialize@Element@@UAEXPAVWriter@@FF@Z$21 1004fd75 f    CIL library: CIL module
 0001:0004ed7f       __unwindfunclet$?serialize@Element@@UAEXPAVWriter@@FF@Z$17 1004fd7f f    CIL library: CIL module
 0001:0004ed8c       __unwindfunclet$?serialize@Element@@UAEXPAVWriter@@FF@Z$25 1004fd8c f    CIL library: CIL module
 0001:0004ed97       __unwindfunclet$?serialize@Element@@UAEXPAVWriter@@FF@Z$6 1004fd97 f    CIL library: CIL module
 0001:0004eda4       __unwindfunclet$?serialize@Element@@UAEXPAVWriter@@FF@Z$27 1004fda4 f    CIL library: CIL module
 0001:0004edaf       __unwindfunclet$?serialize@Element@@UAEXPAVWriter@@FF@Z$28 1004fdaf f    CIL library: CIL module
 0001:0004edba       __unwindfunclet$?serialize@Element@@UAEXPAVWriter@@FF@Z$7 1004fdba f    CIL library: CIL module
 0001:0004edc7       __unwindfunclet$?serialize@Element@@UAEXPAVWriter@@FF@Z$30 1004fdc7 f    CIL library: CIL module
 0001:0004edd2       __unwindfunclet$?serialize@Element@@UAEXPAVWriter@@FF@Z$31 1004fdd2 f    CIL library: CIL module
 0001:0004eddd       __unwindfunclet$?serialize@Element@@UAEXPAVWriter@@FF@Z$32 1004fddd f    CIL library: CIL module
 0001:0004ede5       __unwindfunclet$?serialize@Element@@UAEXPAVWriter@@FF@Z$33 1004fde5 f    CIL library: CIL module
 0001:0004eded       __ehhandler$?serialize@Element@@UAEXPAVWriter@@FF@Z 1004fded f    CIL library: CIL module
 0001:0004ee00       __unwindfunclet$?consumeDocument@DocumentBuilder@@AAEXXZ$1 1004fe00 f    CIL library: CIL module
 0001:0004ee08       __unwindfunclet$?consumeDocument@DocumentBuilder@@AAEXXZ$0 1004fe08 f    CIL library: CIL module
 0001:0004ee12       __unwindfunclet$?consumeDocument@DocumentBuilder@@AAEXXZ$3 1004fe12 f    CIL library: CIL module
 0001:0004ee1a       __ehhandler$?consumeDocument@DocumentBuilder@@AAEXXZ 1004fe1a f    CIL library: CIL module
 0001:0004ee30       __unwindfunclet$?parse@DocumentBuilder@@QAEPAVDocument@@PBEHPBD@Z$2 1004fe30 f    CIL library: CIL module
 0001:0004ee3b       __unwindfunclet$?parse@DocumentBuilder@@QAEPAVDocument@@PBEHPBD@Z$14 1004fe3b f    CIL library: CIL module
 0001:0004ee43       __unwindfunclet$?parse@DocumentBuilder@@QAEPAVDocument@@PBEHPBD@Z$3 1004fe43 f    CIL library: CIL module
 0001:0004ee4d       __unwindfunclet$?parse@DocumentBuilder@@QAEPAVDocument@@PBEHPBD@Z$16 1004fe4d f    CIL library: CIL module
 0001:0004ee55       __unwindfunclet$?parse@DocumentBuilder@@QAEPAVDocument@@PBEHPBD@Z$4 1004fe55 f    CIL library: CIL module
 0001:0004ee60       __unwindfunclet$?parse@DocumentBuilder@@QAEPAVDocument@@PBEHPBD@Z$17 1004fe60 f    CIL library: CIL module
 0001:0004ee68       __unwindfunclet$?parse@DocumentBuilder@@QAEPAVDocument@@PBEHPBD@Z$5 1004fe68 f    CIL library: CIL module
 0001:0004ee72       __unwindfunclet$?parse@DocumentBuilder@@QAEPAVDocument@@PBEHPBD@Z$19 1004fe72 f    CIL library: CIL module
 0001:0004ee7a       __unwindfunclet$?parse@DocumentBuilder@@QAEPAVDocument@@PBEHPBD@Z$6 1004fe7a f    CIL library: CIL module
 0001:0004ee85       __unwindfunclet$?parse@DocumentBuilder@@QAEPAVDocument@@PBEHPBD@Z$20 1004fe85 f    CIL library: CIL module
 0001:0004ee8d       __unwindfunclet$?parse@DocumentBuilder@@QAEPAVDocument@@PBEHPBD@Z$7 1004fe8d f    CIL library: CIL module
 0001:0004ee97       __unwindfunclet$?parse@DocumentBuilder@@QAEPAVDocument@@PBEHPBD@Z$22 1004fe97 f    CIL library: CIL module
 0001:0004ee9f       __unwindfunclet$?parse@DocumentBuilder@@QAEPAVDocument@@PBEHPBD@Z$8 1004fe9f f    CIL library: CIL module
 0001:0004eeaa       __unwindfunclet$?parse@DocumentBuilder@@QAEPAVDocument@@PBEHPBD@Z$23 1004feaa f    CIL library: CIL module
 0001:0004eeb2       __unwindfunclet$?parse@DocumentBuilder@@QAEPAVDocument@@PBEHPBD@Z$9 1004feb2 f    CIL library: CIL module
 0001:0004eebc       __unwindfunclet$?parse@DocumentBuilder@@QAEPAVDocument@@PBEHPBD@Z$25 1004febc f    CIL library: CIL module
 0001:0004eec4       __unwindfunclet$?parse@DocumentBuilder@@QAEPAVDocument@@PBEHPBD@Z$10 1004fec4 f    CIL library: CIL module
 0001:0004eecf       __unwindfunclet$?parse@DocumentBuilder@@QAEPAVDocument@@PBEHPBD@Z$26 1004fecf f    CIL library: CIL module
 0001:0004eed7       __unwindfunclet$?parse@DocumentBuilder@@QAEPAVDocument@@PBEHPBD@Z$11 1004fed7 f    CIL library: CIL module
 0001:0004eee1       __unwindfunclet$?parse@DocumentBuilder@@QAEPAVDocument@@PBEHPBD@Z$28 1004fee1 f    CIL library: CIL module
 0001:0004eee9       __unwindfunclet$?parse@DocumentBuilder@@QAEPAVDocument@@PBEHPBD@Z$29 1004fee9 f    CIL library: CIL module
 0001:0004eef1       __unwindfunclet$?parse@DocumentBuilder@@QAEPAVDocument@@PBEHPBD@Z$12 1004fef1 f    CIL library: CIL module
 0001:0004eefb       __unwindfunclet$?parse@DocumentBuilder@@QAEPAVDocument@@PBEHPBD@Z$13 1004fefb f    CIL library: CIL module
 0001:0004ef05       __unwindfunclet$?parse@DocumentBuilder@@QAEPAVDocument@@PBEHPBD@Z$31 1004ff05 f    CIL library: CIL module
 0001:0004ef0d       __ehhandler$?parse@DocumentBuilder@@QAEPAVDocument@@PBEHPBD@Z 1004ff0d f    CIL library: CIL module
 0001:0004ef20       __ehhandler$?parse@DocumentBuilder@@QAEPAVDocument@@PAVInputSource@@PBD@Z 1004ff20 f    CIL library: CIL module
 0001:0004ef30       __unwindfunclet$?searchRE@TextParserImpl@@AAEHPAVSchemeImpl@@HHH@Z$0 1004ff30 f    CIL library: CIL module
 0001:0004ef3e       __unwindfunclet$?searchRE@TextParserImpl@@AAEHPAVSchemeImpl@@HHH@Z$6 1004ff3e f    CIL library: CIL module
 0001:0004ef49       __unwindfunclet$?searchRE@TextParserImpl@@AAEHPAVSchemeImpl@@HHH@Z$3 1004ff49 f    CIL library: CIL module
 0001:0004ef56       __ehhandler$?searchRE@TextParserImpl@@AAEHPAVSchemeImpl@@HHH@Z 1004ff56 f    CIL library: CIL module
 0001:0004ef60       __unwindfunclet$?getPriority@FileTypeImpl@@QBENPBVString@@0@Z$0 1004ff60 f    CIL library: CIL module
 0001:0004ef6d       __ehhandler$?getPriority@FileTypeImpl@@QBENPBVString@@0@Z 1004ff6d f    CIL library: CIL module
 0001:0004ef80       __unwindfunclet$??0BaseEditor@@QAE@PAVParserFactory@@PAVLineSource@@@Z$0 1004ff80 f    CIL library: CIL module
 0001:0004ef88       __unwindfunclet$??0BaseEditor@@QAE@PAVParserFactory@@PAVLineSource@@@Z$1 1004ff88 f    CIL library: CIL module
 0001:0004ef93       __unwindfunclet$??0BaseEditor@@QAE@PAVParserFactory@@PAVLineSource@@@Z$2 1004ff93 f    CIL library: CIL module
 0001:0004ef9e       __unwindfunclet$??0BaseEditor@@QAE@PAVParserFactory@@PAVLineSource@@@Z$11 1004ff9e f    CIL library: CIL module
 0001:0004efa9       __unwindfunclet$??0BaseEditor@@QAE@PAVParserFactory@@PAVLineSource@@@Z$12 1004ffa9 f    CIL library: CIL module
 0001:0004efb1       __unwindfunclet$??0BaseEditor@@QAE@PAVParserFactory@@PAVLineSource@@@Z$4 1004ffb1 f    CIL library: CIL module
 0001:0004efbb       __unwindfunclet$??0BaseEditor@@QAE@PAVParserFactory@@PAVLineSource@@@Z$14 1004ffbb f    CIL library: CIL module
 0001:0004efc3       __unwindfunclet$??0BaseEditor@@QAE@PAVParserFactory@@PAVLineSource@@@Z$5 1004ffc3 f    CIL library: CIL module
 0001:0004efcd       __unwindfunclet$??0BaseEditor@@QAE@PAVParserFactory@@PAVLineSource@@@Z$16 1004ffcd f    CIL library: CIL module
 0001:0004efd5       __unwindfunclet$??0BaseEditor@@QAE@PAVParserFactory@@PAVLineSource@@@Z$6 1004ffd5 f    CIL library: CIL module
 0001:0004efdf       __unwindfunclet$??0BaseEditor@@QAE@PAVParserFactory@@PAVLineSource@@@Z$18 1004ffdf f    CIL library: CIL module
 0001:0004efe7       __unwindfunclet$??0BaseEditor@@QAE@PAVParserFactory@@PAVLineSource@@@Z$7 1004ffe7 f    CIL library: CIL module
 0001:0004eff1       __unwindfunclet$??0BaseEditor@@QAE@PAVParserFactory@@PAVLineSource@@@Z$20 1004fff1 f    CIL library: CIL module
 0001:0004eff9       __unwindfunclet$??0BaseEditor@@QAE@PAVParserFactory@@PAVLineSource@@@Z$8 1004fff9 f    CIL library: CIL module
 0001:0004f003       __unwindfunclet$??0BaseEditor@@QAE@PAVParserFactory@@PAVLineSource@@@Z$9 10050003 f    CIL library: CIL module
 0001:0004f00b       __unwindfunclet$??0BaseEditor@@QAE@PAVParserFactory@@PAVLineSource@@@Z$3 1005000b f    CIL library: CIL module
 0001:0004f015       __ehhandler$??0BaseEditor@@QAE@PAVParserFactory@@PAVLineSource@@@Z 10050015 f    CIL library: CIL module
 0001:0004f020       __unwindfunclet$?loadRegionMappings@StyledHRDMapper@@UAEXPAVInputSource@@@Z$7 10050020 f    CIL library: CIL module
 0001:0004f02b       __unwindfunclet$?loadRegionMappings@StyledHRDMapper@@UAEXPAVInputSource@@@Z$0 1005002b f    CIL library: CIL module
 0001:0004f038       __unwindfunclet$?loadRegionMappings@StyledHRDMapper@@UAEXPAVInputSource@@@Z$12 10050038 f    CIL library: CIL module
 0001:0004f043       __unwindfunclet$?loadRegionMappings@StyledHRDMapper@@UAEXPAVInputSource@@@Z$1 10050043 f    CIL library: CIL module
 0001:0004f050       __unwindfunclet$?loadRegionMappings@StyledHRDMapper@@UAEXPAVInputSource@@@Z$14 10050050 f    CIL library: CIL module
 0001:0004f05b       __unwindfunclet$?loadRegionMappings@StyledHRDMapper@@UAEXPAVInputSource@@@Z$2 1005005b f    CIL library: CIL module
 0001:0004f068       __unwindfunclet$?loadRegionMappings@StyledHRDMapper@@UAEXPAVInputSource@@@Z$16 10050068 f    CIL library: CIL module
 0001:0004f073       __unwindfunclet$?loadRegionMappings@StyledHRDMapper@@UAEXPAVInputSource@@@Z$17 10050073 f    CIL library: CIL module
 0001:0004f07e       __unwindfunclet$?loadRegionMappings@StyledHRDMapper@@UAEXPAVInputSource@@@Z$3 1005007e f    CIL library: CIL module
 0001:0004f08b       __unwindfunclet$?loadRegionMappings@StyledHRDMapper@@UAEXPAVInputSource@@@Z$19 1005008b f    CIL library: CIL module
 0001:0004f096       __unwindfunclet$?loadRegionMappings@StyledHRDMapper@@UAEXPAVInputSource@@@Z$4 10050096 f    CIL library: CIL module
 0001:0004f0a3       __unwindfunclet$?loadRegionMappings@StyledHRDMapper@@UAEXPAVInputSource@@@Z$21 100500a3 f    CIL library: CIL module
 0001:0004f0ae       __unwindfunclet$?loadRegionMappings@StyledHRDMapper@@UAEXPAVInputSource@@@Z$5 100500ae f    CIL library: CIL module
 0001:0004f0bb       __ehhandler$?loadRegionMappings@StyledHRDMapper@@UAEXPAVInputSource@@@Z 100500bb f    CIL library: CIL module
 0001:0004f0d0       __unwindfunclet$?init@ParserFactory@@AAEXXZ$11 100500d0 f    CIL library: CIL module
 0001:0004f0db       __unwindfunclet$?init@ParserFactory@@AAEXXZ$4 100500db f    CIL library: CIL module
 0001:0004f0e8       __unwindfunclet$?init@ParserFactory@@AAEXXZ$18 100500e8 f    CIL library: CIL module
 0001:0004f0f0       __unwindfunclet$?init@ParserFactory@@AAEXXZ$6 100500f0 f    CIL library: CIL module
 0001:0004f0fa       __unwindfunclet$?init@ParserFactory@@AAEXXZ$7 100500fa f    CIL library: CIL module
 0001:0004f105       __unwindfunclet$?init@ParserFactory@@AAEXXZ$9 10050105 f    CIL library: CIL module
 0001:0004f110       __unwindfunclet$?init@ParserFactory@@AAEXXZ$20 10050110 f    CIL library: CIL module
 0001:0004f118       __unwindfunclet$?init@ParserFactory@@AAEXXZ$10 10050118 f    CIL library: CIL module
 0001:0004f132       __unwindfunclet$?init@ParserFactory@@AAEXXZ$22 10050132 f    CIL library: CIL module
 0001:0004f13a       __unwindfunclet$?init@ParserFactory@@AAEXXZ$16 1005013a f    CIL library: CIL module
 0001:0004f142       __unwindfunclet$?init@ParserFactory@@AAEXXZ$5 10050142 f    CIL library: CIL module
 0001:0004f14c       __ehhandler$?init@ParserFactory@@AAEXXZ 1005014c f    CIL library: CIL module
 0001:0004f160       __unwindfunclet$?readXML@FarHrcSettings@@QAEXPAVString@@_N@Z$2 10050160 f    CIL library: CIL module
 0001:0004f16b       __unwindfunclet$?readXML@FarHrcSettings@@QAEXPAVString@@_N@Z$0 1005016b f    CIL library: CIL module
 0001:0004f178       __unwindfunclet$?readXML@FarHrcSettings@@QAEXPAVString@@_N@Z$7 10050178 f    CIL library: CIL module
 0001:0004f180       __unwindfunclet$?readXML@FarHrcSettings@@QAEXPAVString@@_N@Z$1 10050180 f    CIL library: CIL module
 0001:0004f18a       __ehhandler$?readXML@FarHrcSettings@@QAEXPAVString@@_N@Z 1005018a f    CIL library: CIL module
 0001:0004f1a0       __unwindfunclet$?readProfile@FarHrcSettings@@QAEXXZ$0 100501a0 f    CIL library: CIL module
 0001:0004f1ab       __unwindfunclet$?readProfile@FarHrcSettings@@QAEXXZ$3 100501ab f    CIL library: CIL module
 0001:0004f1b3       __unwindfunclet$?readProfile@FarHrcSettings@@QAEXXZ$7 100501b3 f    CIL library: CIL module
 0001:0004f1bb       __unwindfunclet$?readProfile@FarHrcSettings@@QAEXXZ$1 100501bb f    CIL library: CIL module
 0001:0004f1c5       __unwindfunclet$?readProfile@FarHrcSettings@@QAEXXZ$11 100501c5 f    CIL library: CIL module
 0001:0004f1cd       __ehhandler$?readProfile@FarHrcSettings@@QAEXXZ 100501cd f    CIL library: CIL module
 0001:0004f1e0       __unwindfunclet$?LoadUserHrd@FarEditorSet@@QAEXPBVString@@PAVParserFactory@@@Z$2 100501e0 f    CIL library: CIL module
 0001:0004f1eb       __unwindfunclet$?LoadUserHrd@FarEditorSet@@QAEXPBVString@@PAVParserFactory@@@Z$0 100501eb f    CIL library: CIL module
 0001:0004f1f8       __unwindfunclet$?LoadUserHrd@FarEditorSet@@QAEXPBVString@@PAVParserFactory@@@Z$7 100501f8 f    CIL library: CIL module
 0001:0004f203       __unwindfunclet$?LoadUserHrd@FarEditorSet@@QAEXPBVString@@PAVParserFactory@@@Z$1 10050203 f    CIL library: CIL module
 0001:0004f210       __ehhandler$?LoadUserHrd@FarEditorSet@@QAEXPBVString@@PAVParserFactory@@@Z 10050210 f    CIL library: CIL module
 0001:0004f220       __unwindfunclet$?chooseType@FarEditorSet@@AAEXXZ$0 10050220 f    CIL library: CIL module
 0001:0004f228       __unwindfunclet$?chooseType@FarEditorSet@@AAEXXZ$2 10050228 f    CIL library: CIL module
 0001:0004f230       __unwindfunclet$?chooseType@FarEditorSet@@AAEXXZ$1 10050230 f    CIL library: CIL module
 0001:0004f23a       __unwindfunclet$?chooseType@FarEditorSet@@AAEXXZ$6 1005023a f    CIL library: CIL module
 0001:0004f242       __ehhandler$?chooseType@FarEditorSet@@AAEXXZ 10050242 f    CIL library: CIL module
 0001:0004f250       __unwindfunclet$?viewFile@FarEditorSet@@QAEXABVString@@@Z$8 10050250 f    CIL library: CIL module
 0001:0004f258       __unwindfunclet$?viewFile@FarEditorSet@@QAEXABVString@@@Z$4 10050258 f    CIL library: CIL module
 0001:0004f262       __unwindfunclet$?viewFile@FarEditorSet@@QAEXABVString@@@Z$10 10050262 f    CIL library: CIL module
 0001:0004f26a       __unwindfunclet$?viewFile@FarEditorSet@@QAEXABVString@@@Z$5 1005026a f    CIL library: CIL module
 0001:0004f274       __unwindfunclet$?viewFile@FarEditorSet@@QAEXABVString@@@Z$6 10050274 f    CIL library: CIL module
 0001:0004f281       __unwindfunclet$?viewFile@FarEditorSet@@QAEXABVString@@@Z$12 10050281 f    CIL library: CIL module
 0001:0004f289       __unwindfunclet$?viewFile@FarEditorSet@@QAEXABVString@@@Z$7 10050289 f    CIL library: CIL module
 0001:0004f293       __unwindfunclet$?viewFile@FarEditorSet@@QAEXABVString@@@Z$17 10050293 f    CIL library: CIL module
 0001:0004f29b       __unwindfunclet$?viewFile@FarEditorSet@@QAEXABVString@@@Z$18 1005029b f    CIL library: CIL module
 0001:0004f2a3       __unwindfunclet$?viewFile@FarEditorSet@@QAEXABVString@@@Z$19 100502a3 f    CIL library: CIL module
 0001:0004f2ab       __ehhandler$?viewFile@FarEditorSet@@QAEXABVString@@@Z 100502ab f    CIL library: CIL module
 0001:0004f2c0       __unwindfunclet$??0FarEditor@@QAE@PAUPluginStartupInfo@@PAVParserFactory@@@Z$0 100502c0 f    CIL library: CIL module
 0001:0004f2c8       __unwindfunclet$??0FarEditor@@QAE@PAUPluginStartupInfo@@PAVParserFactory@@@Z$1 100502c8 f    CIL library: CIL module
 0001:0004f2d3       __unwindfunclet$??0FarEditor@@QAE@PAUPluginStartupInfo@@PAVParserFactory@@@Z$6 100502d3 f    CIL library: CIL module
 0001:0004f2db       __unwindfunclet$??0FarEditor@@QAE@PAUPluginStartupInfo@@PAVParserFactory@@@Z$2 100502db f    CIL library: CIL module
 0001:0004f2e5       __unwindfunclet$??0FarEditor@@QAE@PAUPluginStartupInfo@@PAVParserFactory@@@Z$8 100502e5 f    CIL library: CIL module
 0001:0004f2ed       __unwindfunclet$??0FarEditor@@QAE@PAUPluginStartupInfo@@PAVParserFactory@@@Z$9 100502ed f    CIL library: CIL module
 0001:0004f2f5       __unwindfunclet$??0FarEditor@@QAE@PAUPluginStartupInfo@@PAVParserFactory@@@Z$3 100502f5 f    CIL library: CIL module
 0001:0004f2ff       __unwindfunclet$??0FarEditor@@QAE@PAUPluginStartupInfo@@PAVParserFactory@@@Z$11 100502ff f    CIL library: CIL module
 0001:0004f307       __unwindfunclet$??0FarEditor@@QAE@PAUPluginStartupInfo@@PAVParserFactory@@@Z$4 10050307 f    CIL library: CIL module
 0001:0004f312       __unwindfunclet$??0FarEditor@@QAE@PAUPluginStartupInfo@@PAVParserFactory@@@Z$5 10050312 f    CIL library: CIL module
 0001:0004f31d       __ehhandler$??0FarEditor@@QAE@PAUPluginStartupInfo@@PAVParserFactory@@@Z 1005031d f    CIL library: CIL module
 0001:0004f330       __unwindfunclet$?colorize@TextParserImpl@@AAE_NPAVCRegExp@@_N@Z$0 10050330 f    CIL library: CIL module
 0001:0004f33a       __unwindfunclet$?colorize@TextParserImpl@@AAE_NPAVCRegExp@@_N@Z$1 1005033a f    CIL library: CIL module
 0001:0004f344       __ehhandler$?colorize@TextParserImpl@@AAE_NPAVCRegExp@@_N@Z 10050344 f    CIL library: CIL module
 0001:0004f350       __unwindfunclet$?addSchemeNodes@HRCParserImpl@@IAEXPAVSchemeImpl@@PAVNode@@@Z$0 10050350 f    CIL library: CIL module
 0001:0004f35b       __unwindfunclet$?addSchemeNodes@HRCParserImpl@@IAEXPAVSchemeImpl@@PAVNode@@@Z$44 1005035b f    CIL library: CIL module
 0001:0004f363       __unwindfunclet$?addSchemeNodes@HRCParserImpl@@IAEXPAVSchemeImpl@@PAVNode@@@Z$1 10050363 f    CIL library: CIL module
 0001:0004f36d       __unwindfunclet$?addSchemeNodes@HRCParserImpl@@IAEXPAVSchemeImpl@@PAVNode@@@Z$46 1005036d f    CIL library: CIL module
 0001:0004f375       __unwindfunclet$?addSchemeNodes@HRCParserImpl@@IAEXPAVSchemeImpl@@PAVNode@@@Z$3 10050375 f    CIL library: CIL module
 0001:0004f380       __unwindfunclet$?addSchemeNodes@HRCParserImpl@@IAEXPAVSchemeImpl@@PAVNode@@@Z$49 10050380 f    CIL library: CIL module
 0001:0004f388       __unwindfunclet$?addSchemeNodes@HRCParserImpl@@IAEXPAVSchemeImpl@@PAVNode@@@Z$53 10050388 f    CIL library: CIL module
 0001:0004f390       __unwindfunclet$?addSchemeNodes@HRCParserImpl@@IAEXPAVSchemeImpl@@PAVNode@@@Z$4 10050390 f    CIL library: CIL module
 0001:0004f39a       __unwindfunclet$?addSchemeNodes@HRCParserImpl@@IAEXPAVSchemeImpl@@PAVNode@@@Z$55 1005039a f    CIL library: CIL module
 0001:0004f3a2       __unwindfunclet$?addSchemeNodes@HRCParserImpl@@IAEXPAVSchemeImpl@@PAVNode@@@Z$5 100503a2 f    CIL library: CIL module
 0001:0004f3ac       __unwindfunclet$?addSchemeNodes@HRCParserImpl@@IAEXPAVSchemeImpl@@PAVNode@@@Z$7 100503ac f    CIL library: CIL module
 0001:0004f3b7       __unwindfunclet$?addSchemeNodes@HRCParserImpl@@IAEXPAVSchemeImpl@@PAVNode@@@Z$6 100503b7 f    CIL library: CIL module
 0001:0004f3c1       __unwindfunclet$?addSchemeNodes@HRCParserImpl@@IAEXPAVSchemeImpl@@PAVNode@@@Z$2 100503c1 f    CIL library: CIL module
 0001:0004f3cb       __unwindfunclet$?addSchemeNodes@HRCParserImpl@@IAEXPAVSchemeImpl@@PAVNode@@@Z$48 100503cb f    CIL library: CIL module
 0001:0004f3d3       __unwindfunclet$?addSchemeNodes@HRCParserImpl@@IAEXPAVSchemeImpl@@PAVNode@@@Z$57 100503d3 f    CIL library: CIL module
 0001:0004f3db       __unwindfunclet$?addSchemeNodes@HRCParserImpl@@IAEXPAVSchemeImpl@@PAVNode@@@Z$8 100503db f    CIL library: CIL module
 0001:0004f3e5       __unwindfunclet$?addSchemeNodes@HRCParserImpl@@IAEXPAVSchemeImpl@@PAVNode@@@Z$59 100503e5 f    CIL library: CIL module
 0001:0004f3ed       __unwindfunclet$?addSchemeNodes@HRCParserImpl@@IAEXPAVSchemeImpl@@PAVNode@@@Z$9 100503ed f    CIL library: CIL module
 0001:0004f3f7       __unwindfunclet$?addSchemeNodes@HRCParserImpl@@IAEXPAVSchemeImpl@@PAVNode@@@Z$60 100503f7 f    CIL library: CIL module
 0001:0004f3ff       __unwindfunclet$?addSchemeNodes@HRCParserImpl@@IAEXPAVSchemeImpl@@PAVNode@@@Z$10 100503ff f    CIL library: CIL module
 0001:0004f409       __unwindfunclet$?addSchemeNodes@HRCParserImpl@@IAEXPAVSchemeImpl@@PAVNode@@@Z$62 10050409 f    CIL library: CIL module
 0001:0004f411       __unwindfunclet$?addSchemeNodes@HRCParserImpl@@IAEXPAVSchemeImpl@@PAVNode@@@Z$11 10050411 f    CIL library: CIL module
 0001:0004f41b       __unwindfunclet$?addSchemeNodes@HRCParserImpl@@IAEXPAVSchemeImpl@@PAVNode@@@Z$12 1005041b f    CIL library: CIL module
 0001:0004f426       __unwindfunclet$?addSchemeNodes@HRCParserImpl@@IAEXPAVSchemeImpl@@PAVNode@@@Z$13 10050426 f    CIL library: CIL module
 0001:0004f430       __unwindfunclet$?addSchemeNodes@HRCParserImpl@@IAEXPAVSchemeImpl@@PAVNode@@@Z$64 10050430 f    CIL library: CIL module
 0001:0004f438       __unwindfunclet$?addSchemeNodes@HRCParserImpl@@IAEXPAVSchemeImpl@@PAVNode@@@Z$14 10050438 f    CIL library: CIL module
 0001:0004f442       __unwindfunclet$?addSchemeNodes@HRCParserImpl@@IAEXPAVSchemeImpl@@PAVNode@@@Z$66 10050442 f    CIL library: CIL module
 0001:0004f44a       __unwindfunclet$?addSchemeNodes@HRCParserImpl@@IAEXPAVSchemeImpl@@PAVNode@@@Z$15 1005044a f    CIL library: CIL module
 0001:0004f454       __unwindfunclet$?addSchemeNodes@HRCParserImpl@@IAEXPAVSchemeImpl@@PAVNode@@@Z$68 10050454 f    CIL library: CIL module
 0001:0004f45f       __unwindfunclet$?addSchemeNodes@HRCParserImpl@@IAEXPAVSchemeImpl@@PAVNode@@@Z$16 1005045f f    CIL library: CIL module
 0001:0004f47c       __unwindfunclet$?addSchemeNodes@HRCParserImpl@@IAEXPAVSchemeImpl@@PAVNode@@@Z$17 1005047c f    CIL library: CIL module
 0001:0004f486       __unwindfunclet$?addSchemeNodes@HRCParserImpl@@IAEXPAVSchemeImpl@@PAVNode@@@Z$71 10050486 f    CIL library: CIL module
 0001:0004f48e       __unwindfunclet$?addSchemeNodes@HRCParserImpl@@IAEXPAVSchemeImpl@@PAVNode@@@Z$18 1005048e f    CIL library: CIL module
 0001:0004f498       __unwindfunclet$?addSchemeNodes@HRCParserImpl@@IAEXPAVSchemeImpl@@PAVNode@@@Z$72 10050498 f    CIL library: CIL module
 0001:0004f4a0       __unwindfunclet$?addSchemeNodes@HRCParserImpl@@IAEXPAVSchemeImpl@@PAVNode@@@Z$19 100504a0 f    CIL library: CIL module
 0001:0004f4aa       __unwindfunclet$?addSchemeNodes@HRCParserImpl@@IAEXPAVSchemeImpl@@PAVNode@@@Z$21 100504aa f    CIL library: CIL module
 0001:0004f4b5       __unwindfunclet$?addSchemeNodes@HRCParserImpl@@IAEXPAVSchemeImpl@@PAVNode@@@Z$74 100504b5 f    CIL library: CIL module
 0001:0004f4bd       __unwindfunclet$?addSchemeNodes@HRCParserImpl@@IAEXPAVSchemeImpl@@PAVNode@@@Z$78 100504bd f    CIL library: CIL module
 0001:0004f4c5       __unwindfunclet$?addSchemeNodes@HRCParserImpl@@IAEXPAVSchemeImpl@@PAVNode@@@Z$22 100504c5 f    CIL library: CIL module
 0001:0004f4cf       __unwindfunclet$?addSchemeNodes@HRCParserImpl@@IAEXPAVSchemeImpl@@PAVNode@@@Z$80 100504cf f    CIL library: CIL module
 0001:0004f4d7       __unwindfunclet$?addSchemeNodes@HRCParserImpl@@IAEXPAVSchemeImpl@@PAVNode@@@Z$23 100504d7 f    CIL library: CIL module
 0001:0004f4e1       __unwindfunclet$?addSchemeNodes@HRCParserImpl@@IAEXPAVSchemeImpl@@PAVNode@@@Z$82 100504e1 f    CIL library: CIL module
 0001:0004f4e9       __unwindfunclet$?addSchemeNodes@HRCParserImpl@@IAEXPAVSchemeImpl@@PAVNode@@@Z$24 100504e9 f    CIL library: CIL module
 0001:0004f4f3       __unwindfunclet$?addSchemeNodes@HRCParserImpl@@IAEXPAVSchemeImpl@@PAVNode@@@Z$84 100504f3 f    CIL library: CIL module
 0001:0004f4fb       __unwindfunclet$?addSchemeNodes@HRCParserImpl@@IAEXPAVSchemeImpl@@PAVNode@@@Z$25 100504fb f    CIL library: CIL module
 0001:0004f505       __unwindfunclet$?addSchemeNodes@HRCParserImpl@@IAEXPAVSchemeImpl@@PAVNode@@@Z$86 10050505 f    CIL library: CIL module
 0001:0004f50d       __unwindfunclet$?addSchemeNodes@HRCParserImpl@@IAEXPAVSchemeImpl@@PAVNode@@@Z$26 1005050d f    CIL library: CIL module
 0001:0004f517       __unwindfunclet$?addSchemeNodes@HRCParserImpl@@IAEXPAVSchemeImpl@@PAVNode@@@Z$88 10050517 f    CIL library: CIL module
 0001:0004f51f       __unwindfunclet$?addSchemeNodes@HRCParserImpl@@IAEXPAVSchemeImpl@@PAVNode@@@Z$27 1005051f f    CIL library: CIL module
 0001:0004f529       __unwindfunclet$?addSchemeNodes@HRCParserImpl@@IAEXPAVSchemeImpl@@PAVNode@@@Z$28 10050529 f    CIL library: CIL module
 0001:0004f534       __unwindfunclet$?addSchemeNodes@HRCParserImpl@@IAEXPAVSchemeImpl@@PAVNode@@@Z$29 10050534 f    CIL library: CIL module
 0001:0004f53e       __unwindfunclet$?addSchemeNodes@HRCParserImpl@@IAEXPAVSchemeImpl@@PAVNode@@@Z$31 1005053e f    CIL library: CIL module
 0001:0004f548       __unwindfunclet$?addSchemeNodes@HRCParserImpl@@IAEXPAVSchemeImpl@@PAVNode@@@Z$20 10050548 f    CIL library: CIL module
 0001:0004f552       __unwindfunclet$?addSchemeNodes@HRCParserImpl@@IAEXPAVSchemeImpl@@PAVNode@@@Z$90 10050552 f    CIL library: CIL module
 0001:0004f55a       __unwindfunclet$?addSchemeNodes@HRCParserImpl@@IAEXPAVSchemeImpl@@PAVNode@@@Z$32 1005055a f    CIL library: CIL module
 0001:0004f564       __unwindfunclet$?addSchemeNodes@HRCParserImpl@@IAEXPAVSchemeImpl@@PAVNode@@@Z$92 10050564 f    CIL library: CIL module
 0001:0004f56c       __unwindfunclet$?addSchemeNodes@HRCParserImpl@@IAEXPAVSchemeImpl@@PAVNode@@@Z$33 1005056c f    CIL library: CIL module
 0001:0004f576       __unwindfunclet$?addSchemeNodes@HRCParserImpl@@IAEXPAVSchemeImpl@@PAVNode@@@Z$94 10050576 f    CIL library: CIL module
 0001:0004f57e       __unwindfunclet$?addSchemeNodes@HRCParserImpl@@IAEXPAVSchemeImpl@@PAVNode@@@Z$34 1005057e f    CIL library: CIL module
 0001:0004f588       __unwindfunclet$?addSchemeNodes@HRCParserImpl@@IAEXPAVSchemeImpl@@PAVNode@@@Z$96 10050588 f    CIL library: CIL module
 0001:0004f590       __unwindfunclet$?addSchemeNodes@HRCParserImpl@@IAEXPAVSchemeImpl@@PAVNode@@@Z$35 10050590 f    CIL library: CIL module
 0001:0004f59a       __unwindfunclet$?addSchemeNodes@HRCParserImpl@@IAEXPAVSchemeImpl@@PAVNode@@@Z$98 1005059a f    CIL library: CIL module
 0001:0004f5a2       __unwindfunclet$?addSchemeNodes@HRCParserImpl@@IAEXPAVSchemeImpl@@PAVNode@@@Z$36 100505a2 f    CIL library: CIL module
 0001:0004f5ac       __unwindfunclet$?addSchemeNodes@HRCParserImpl@@IAEXPAVSchemeImpl@@PAVNode@@@Z$100 100505ac f    CIL library: CIL module
 0001:0004f5b4       __unwindfunclet$?addSchemeNodes@HRCParserImpl@@IAEXPAVSchemeImpl@@PAVNode@@@Z$37 100505b4 f    CIL library: CIL module
 0001:0004f5be       __unwindfunclet$?addSchemeNodes@HRCParserImpl@@IAEXPAVSchemeImpl@@PAVNode@@@Z$38 100505be f    CIL library: CIL module
 0001:0004f5c8       __unwindfunclet$?addSchemeNodes@HRCParserImpl@@IAEXPAVSchemeImpl@@PAVNode@@@Z$39 100505c8 f    CIL library: CIL module
 0001:0004f5d3       __unwindfunclet$?addSchemeNodes@HRCParserImpl@@IAEXPAVSchemeImpl@@PAVNode@@@Z$102 100505d3 f    CIL library: CIL module
 0001:0004f5db       __unwindfunclet$?addSchemeNodes@HRCParserImpl@@IAEXPAVSchemeImpl@@PAVNode@@@Z$40 100505db f    CIL library: CIL module
 0001:0004f5f5       __unwindfunclet$?addSchemeNodes@HRCParserImpl@@IAEXPAVSchemeImpl@@PAVNode@@@Z$104 100505f5 f    CIL library: CIL module
 0001:0004f5fd       __unwindfunclet$?addSchemeNodes@HRCParserImpl@@IAEXPAVSchemeImpl@@PAVNode@@@Z$41 100505fd f    CIL library: CIL module
 0001:0004f607       __unwindfunclet$?addSchemeNodes@HRCParserImpl@@IAEXPAVSchemeImpl@@PAVNode@@@Z$106 10050607 f    CIL library: CIL module
 0001:0004f612       __unwindfunclet$?addSchemeNodes@HRCParserImpl@@IAEXPAVSchemeImpl@@PAVNode@@@Z$42 10050612 f    CIL library: CIL module
 0001:0004f61f       __unwindfunclet$?addSchemeNodes@HRCParserImpl@@IAEXPAVSchemeImpl@@PAVNode@@@Z$43 1005061f f    CIL library: CIL module
 0001:0004f62d       __unwindfunclet$?addSchemeNodes@HRCParserImpl@@IAEXPAVSchemeImpl@@PAVNode@@@Z$108 1005062d f    CIL library: CIL module
 0001:0004f638       __ehhandler$?addSchemeNodes@HRCParserImpl@@IAEXPAVSchemeImpl@@PAVNode@@@Z 10050638 f    CIL library: CIL module
 0001:0004f650       __unwindfunclet$?addScheme@HRCParserImpl@@IAEXPAVElement@@@Z$8 10050650 f    CIL library: CIL module
 0001:0004f658       __unwindfunclet$?addScheme@HRCParserImpl@@IAEXPAVElement@@@Z$0 10050658 f    CIL library: CIL module
 0001:0004f662       __unwindfunclet$?addScheme@HRCParserImpl@@IAEXPAVElement@@@Z$10 10050662 f    CIL library: CIL module
 0001:0004f66a       __unwindfunclet$?addScheme@HRCParserImpl@@IAEXPAVElement@@@Z$1 1005066a f    CIL library: CIL module
 0001:0004f674       __unwindfunclet$?addScheme@HRCParserImpl@@IAEXPAVElement@@@Z$3 10050674 f    CIL library: CIL module
 0001:0004f67f       __unwindfunclet$?addScheme@HRCParserImpl@@IAEXPAVElement@@@Z$11 1005067f f    CIL library: CIL module
 0001:0004f687       __unwindfunclet$?addScheme@HRCParserImpl@@IAEXPAVElement@@@Z$4 10050687 f    CIL library: CIL module
 0001:0004f691       __unwindfunclet$?addScheme@HRCParserImpl@@IAEXPAVElement@@@Z$13 10050691 f    CIL library: CIL module
 0001:0004f699       __unwindfunclet$?addScheme@HRCParserImpl@@IAEXPAVElement@@@Z$5 10050699 f    CIL library: CIL module
 0001:0004f6a3       __unwindfunclet$?addScheme@HRCParserImpl@@IAEXPAVElement@@@Z$15 100506a3 f    CIL library: CIL module
 0001:0004f6ae       __unwindfunclet$?addScheme@HRCParserImpl@@IAEXPAVElement@@@Z$6 100506ae f    CIL library: CIL module
 0001:0004f6cb       __unwindfunclet$?addScheme@HRCParserImpl@@IAEXPAVElement@@@Z$17 100506cb f    CIL library: CIL module
 0001:0004f6d3       __unwindfunclet$?addScheme@HRCParserImpl@@IAEXPAVElement@@@Z$7 100506d3 f    CIL library: CIL module
 0001:0004f6ed       __unwindfunclet$?addScheme@HRCParserImpl@@IAEXPAVElement@@@Z$2 100506ed f    CIL library: CIL module
 0001:0004f6f7       __ehhandler$?addScheme@HRCParserImpl@@IAEXPAVElement@@@Z 100506f7 f    CIL library: CIL module
 0001:0004f710       __unwindfunclet$?addType@HRCParserImpl@@IAEXPAVElement@@@Z$17 10050710 f    CIL library: CIL module
 0001:0004f718       __unwindfunclet$?addType@HRCParserImpl@@IAEXPAVElement@@@Z$0 10050718 f    CIL library: CIL module
 0001:0004f722       __unwindfunclet$?addType@HRCParserImpl@@IAEXPAVElement@@@Z$19 10050722 f    CIL library: CIL module
 0001:0004f72a       __unwindfunclet$?addType@HRCParserImpl@@IAEXPAVElement@@@Z$20 1005072a f    CIL library: CIL module
 0001:0004f732       __unwindfunclet$?addType@HRCParserImpl@@IAEXPAVElement@@@Z$1 10050732 f    CIL library: CIL module
 0001:0004f73c       __unwindfunclet$?addType@HRCParserImpl@@IAEXPAVElement@@@Z$2 1005073c f    CIL library: CIL module
 0001:0004f749       __unwindfunclet$?addType@HRCParserImpl@@IAEXPAVElement@@@Z$3 10050749 f    CIL library: CIL module
 0001:0004f756       __unwindfunclet$?addType@HRCParserImpl@@IAEXPAVElement@@@Z$22 10050756 f    CIL library: CIL module
 0001:0004f761       __unwindfunclet$?addType@HRCParserImpl@@IAEXPAVElement@@@Z$4 10050761 f    CIL library: CIL module
 0001:0004f76e       __unwindfunclet$?addType@HRCParserImpl@@IAEXPAVElement@@@Z$24 1005076e f    CIL library: CIL module
 0001:0004f779       __unwindfunclet$?addType@HRCParserImpl@@IAEXPAVElement@@@Z$5 10050779 f    CIL library: CIL module
 0001:0004f786       __unwindfunclet$?addType@HRCParserImpl@@IAEXPAVElement@@@Z$26 10050786 f    CIL library: CIL module
 0001:0004f78e       __unwindfunclet$?addType@HRCParserImpl@@IAEXPAVElement@@@Z$6 1005078e f    CIL library: CIL module
 0001:0004f798       __unwindfunclet$?addType@HRCParserImpl@@IAEXPAVElement@@@Z$28 10050798 f    CIL library: CIL module
 0001:0004f7a0       __unwindfunclet$?addType@HRCParserImpl@@IAEXPAVElement@@@Z$7 100507a0 f    CIL library: CIL module
 0001:0004f7aa       __unwindfunclet$?addType@HRCParserImpl@@IAEXPAVElement@@@Z$8 100507aa f    CIL library: CIL module
 0001:0004f7b7       __unwindfunclet$?addType@HRCParserImpl@@IAEXPAVElement@@@Z$16 100507b7 f    CIL library: CIL module
 0001:0004f7c4       __unwindfunclet$?addType@HRCParserImpl@@IAEXPAVElement@@@Z$9 100507c4 f    CIL library: CIL module
 0001:0004f7cf       __unwindfunclet$?addType@HRCParserImpl@@IAEXPAVElement@@@Z$30 100507cf f    CIL library: CIL module
 0001:0004f7d7       __unwindfunclet$?addType@HRCParserImpl@@IAEXPAVElement@@@Z$10 100507d7 f    CIL library: CIL module
 0001:0004f7e1       __unwindfunclet$?addType@HRCParserImpl@@IAEXPAVElement@@@Z$32 100507e1 f    CIL library: CIL module
 0001:0004f7ec       __unwindfunclet$?addType@HRCParserImpl@@IAEXPAVElement@@@Z$11 100507ec f    CIL library: CIL module
 0001:0004f7f9       __unwindfunclet$?addType@HRCParserImpl@@IAEXPAVElement@@@Z$36 100507f9 f    CIL library: CIL module
 0001:0004f801       __unwindfunclet$?addType@HRCParserImpl@@IAEXPAVElement@@@Z$13 10050801 f    CIL library: CIL module
 0001:0004f80b       __unwindfunclet$?addType@HRCParserImpl@@IAEXPAVElement@@@Z$15 1005080b f    CIL library: CIL module
 0001:0004f816       __unwindfunclet$?addType@HRCParserImpl@@IAEXPAVElement@@@Z$38 10050816 f    CIL library: CIL module
 0001:0004f81e       __unwindfunclet$?addType@HRCParserImpl@@IAEXPAVElement@@@Z$34 1005081e f    CIL library: CIL module
 0001:0004f826       __unwindfunclet$?addType@HRCParserImpl@@IAEXPAVElement@@@Z$12 10050826 f    CIL library: CIL module
 0001:0004f830       __unwindfunclet$?addType@HRCParserImpl@@IAEXPAVElement@@@Z$14 10050830 f    CIL library: CIL module
 0001:0004f83d       __ehhandler$?addType@HRCParserImpl@@IAEXPAVElement@@@Z 1005083d f    CIL library: CIL module
 0001:0004f850       __unwindfunclet$?addPrototype@HRCParserImpl@@IAEXPAVElement@@@Z$23 10050850 f    CIL library: CIL module
 0001:0004f85b       __unwindfunclet$?addPrototype@HRCParserImpl@@IAEXPAVElement@@@Z$0 1005085b f    CIL library: CIL module
 0001:0004f868       __unwindfunclet$?addPrototype@HRCParserImpl@@IAEXPAVElement@@@Z$25 10050868 f    CIL library: CIL module
 0001:0004f873       __unwindfunclet$?addPrototype@HRCParserImpl@@IAEXPAVElement@@@Z$26 10050873 f    CIL library: CIL module
 0001:0004f87e       __unwindfunclet$?addPrototype@HRCParserImpl@@IAEXPAVElement@@@Z$1 1005087e f    CIL library: CIL module
 0001:0004f88b       __unwindfunclet$?addPrototype@HRCParserImpl@@IAEXPAVElement@@@Z$28 1005088b f    CIL library: CIL module
 0001:0004f896       __unwindfunclet$?addPrototype@HRCParserImpl@@IAEXPAVElement@@@Z$29 10050896 f    CIL library: CIL module
 0001:0004f89e       __unwindfunclet$?addPrototype@HRCParserImpl@@IAEXPAVElement@@@Z$2 1005089e f    CIL library: CIL module
 0001:0004f8a8       __unwindfunclet$?addPrototype@HRCParserImpl@@IAEXPAVElement@@@Z$31 100508a8 f    CIL library: CIL module
 0001:0004f8b0       __unwindfunclet$?addPrototype@HRCParserImpl@@IAEXPAVElement@@@Z$32 100508b0 f    CIL library: CIL module
 0001:0004f8b8       __unwindfunclet$?addPrototype@HRCParserImpl@@IAEXPAVElement@@@Z$3 100508b8 f    CIL library: CIL module
 0001:0004f8c2       __unwindfunclet$?addPrototype@HRCParserImpl@@IAEXPAVElement@@@Z$4 100508c2 f    CIL library: CIL module
 0001:0004f8cc       __unwindfunclet$?addPrototype@HRCParserImpl@@IAEXPAVElement@@@Z$5 100508cc f    CIL library: CIL module
 0001:0004f8d7       __unwindfunclet$?addPrototype@HRCParserImpl@@IAEXPAVElement@@@Z$6 100508d7 f    CIL library: CIL module
 0001:0004f8e2       __unwindfunclet$?addPrototype@HRCParserImpl@@IAEXPAVElement@@@Z$34 100508e2 f    CIL library: CIL module
 0001:0004f8ea       __unwindfunclet$?addPrototype@HRCParserImpl@@IAEXPAVElement@@@Z$7 100508ea f    CIL library: CIL module
 0001:0004f8f5       __unwindfunclet$?addPrototype@HRCParserImpl@@IAEXPAVElement@@@Z$38 100508f5 f    CIL library: CIL module
 0001:0004f8fd       __unwindfunclet$?addPrototype@HRCParserImpl@@IAEXPAVElement@@@Z$8 100508fd f    CIL library: CIL module
 0001:0004f908       __unwindfunclet$?addPrototype@HRCParserImpl@@IAEXPAVElement@@@Z$42 10050908 f    CIL library: CIL module
 0001:0004f910       __unwindfunclet$?addPrototype@HRCParserImpl@@IAEXPAVElement@@@Z$46 10050910 f    CIL library: CIL module
 0001:0004f918       __unwindfunclet$?addPrototype@HRCParserImpl@@IAEXPAVElement@@@Z$9 10050918 f    CIL library: CIL module
 0001:0004f922       __unwindfunclet$?addPrototype@HRCParserImpl@@IAEXPAVElement@@@Z$48 10050922 f    CIL library: CIL module
 0001:0004f92a       __unwindfunclet$?addPrototype@HRCParserImpl@@IAEXPAVElement@@@Z$10 1005092a f    CIL library: CIL module
 0001:0004f934       __unwindfunclet$?addPrototype@HRCParserImpl@@IAEXPAVElement@@@Z$12 10050934 f    CIL library: CIL module
 0001:0004f93f       __unwindfunclet$?addPrototype@HRCParserImpl@@IAEXPAVElement@@@Z$13 1005093f f    CIL library: CIL module
 0001:0004f949       __unwindfunclet$?addPrototype@HRCParserImpl@@IAEXPAVElement@@@Z$51 10050949 f    CIL library: CIL module
 0001:0004f951       __unwindfunclet$?addPrototype@HRCParserImpl@@IAEXPAVElement@@@Z$14 10050951 f    CIL library: CIL module
 0001:0004f95b       __unwindfunclet$?addPrototype@HRCParserImpl@@IAEXPAVElement@@@Z$53 1005095b f    CIL library: CIL module
 0001:0004f963       __unwindfunclet$?addPrototype@HRCParserImpl@@IAEXPAVElement@@@Z$16 10050963 f    CIL library: CIL module
 0001:0004f96d       __unwindfunclet$?addPrototype@HRCParserImpl@@IAEXPAVElement@@@Z$55 1005096d f    CIL library: CIL module
 0001:0004f975       __unwindfunclet$?addPrototype@HRCParserImpl@@IAEXPAVElement@@@Z$56 10050975 f    CIL library: CIL module
 0001:0004f980       __unwindfunclet$?addPrototype@HRCParserImpl@@IAEXPAVElement@@@Z$17 10050980 f    CIL library: CIL module
 0001:0004f98d       __unwindfunclet$?addPrototype@HRCParserImpl@@IAEXPAVElement@@@Z$58 1005098d f    CIL library: CIL module
 0001:0004f998       __unwindfunclet$?addPrototype@HRCParserImpl@@IAEXPAVElement@@@Z$59 10050998 f    CIL library: CIL module
 0001:0004f9a0       __unwindfunclet$?addPrototype@HRCParserImpl@@IAEXPAVElement@@@Z$18 100509a0 f    CIL library: CIL module
 0001:0004f9aa       __unwindfunclet$?addPrototype@HRCParserImpl@@IAEXPAVElement@@@Z$61 100509aa f    CIL library: CIL module
 0001:0004f9b2       __unwindfunclet$?addPrototype@HRCParserImpl@@IAEXPAVElement@@@Z$20 100509b2 f    CIL library: CIL module
 0001:0004f9c0       __unwindfunclet$?addPrototype@HRCParserImpl@@IAEXPAVElement@@@Z$62 100509c0 f    CIL library: CIL module
 0001:0004f9cb       __unwindfunclet$?addPrototype@HRCParserImpl@@IAEXPAVElement@@@Z$21 100509cb f    CIL library: CIL module
 0001:0004f9d9       __unwindfunclet$?addPrototype@HRCParserImpl@@IAEXPAVElement@@@Z$66 100509d9 f    CIL library: CIL module
 0001:0004f9e4       __unwindfunclet$?addPrototype@HRCParserImpl@@IAEXPAVElement@@@Z$22 100509e4 f    CIL library: CIL module
 0001:0004f9f2       __unwindfunclet$?addPrototype@HRCParserImpl@@IAEXPAVElement@@@Z$70 100509f2 f    CIL library: CIL module
 0001:0004f9fd       __unwindfunclet$?addPrototype@HRCParserImpl@@IAEXPAVElement@@@Z$19 100509fd f    CIL library: CIL module
 0001:0004fa0a       __unwindfunclet$?addPrototype@HRCParserImpl@@IAEXPAVElement@@@Z$11 10050a0a f    CIL library: CIL module
 0001:0004fa14       __unwindfunclet$?addPrototype@HRCParserImpl@@IAEXPAVElement@@@Z$50 10050a14 f    CIL library: CIL module
 0001:0004fa1c       __ehhandler$?addPrototype@HRCParserImpl@@IAEXPAVElement@@@Z 10050a1c f    CIL library: CIL module
 0001:0004fa30       __unwindfunclet$?parseHRC@HRCParserImpl@@IAEXPAVInputSource@@@Z$3 10050a30 f    CIL library: CIL module
 0001:0004fa38       __unwindfunclet$?parseHRC@HRCParserImpl@@IAEXPAVInputSource@@@Z$0 10050a38 f    CIL library: CIL module
 0001:0004fa42       __unwindfunclet$?parseHRC@HRCParserImpl@@IAEXPAVInputSource@@@Z$1 10050a42 f    CIL library: CIL module
 0001:0004fa4d       __unwindfunclet$?parseHRC@HRCParserImpl@@IAEXPAVInputSource@@@Z$5 10050a4d f    CIL library: CIL module
 0001:0004fa55       __unwindfunclet$?parseHRC@HRCParserImpl@@IAEXPAVInputSource@@@Z$2 10050a55 f    CIL library: CIL module
 0001:0004fa6f       __unwindfunclet$?parseHRC@HRCParserImpl@@IAEXPAVInputSource@@@Z$7 10050a6f f    CIL library: CIL module
 0001:0004fa77       __ehhandler$?parseHRC@HRCParserImpl@@IAEXPAVInputSource@@@Z 10050a77 f    CIL library: CIL module
 0001:0004fa90       __unwindfunclet$?loadSource@HRCParserImpl@@UAEXPAVInputSource@@@Z$2 10050a90 f    CIL library: CIL module
 0001:0004fa9a       __ehhandler$?loadSource@HRCParserImpl@@UAEXPAVInputSource@@@Z 10050a9a f    CIL library: CIL module
 0001:0004fab0       __unwindfunclet$??0ParserFactory@@QAE@PBVString@@@Z$0 10050ab0 f    CIL library: CIL module
 0001:0004fabb       __unwindfunclet$??0ParserFactory@@QAE@PBVString@@@Z$1 10050abb f    CIL library: CIL module
 0001:0004fac6       __unwindfunclet$??0ParserFactory@@QAE@PBVString@@@Z$2 10050ac6 f    CIL library: CIL module
 0001:0004fad1       __unwindfunclet$??0ParserFactory@@QAE@PBVString@@@Z$3 10050ad1 f    CIL library: CIL module
 0001:0004fadc       __unwindfunclet$??0ParserFactory@@QAE@PBVString@@@Z$6 10050adc f    CIL library: CIL module
 0001:0004fae4       __ehhandler$??0ParserFactory@@QAE@PBVString@@@Z 10050ae4 f    CIL library: CIL module
 0001:0004faf0       __unwindfunclet$?ReloadBase@FarEditorSet@@AAEXXZ$8 10050af0 f    CIL library: CIL module
 0001:0004faf8       __unwindfunclet$?ReloadBase@FarEditorSet@@AAEXXZ$4 10050af8 f    CIL library: CIL module
 0001:0004fb02       __unwindfunclet$?ReloadBase@FarEditorSet@@AAEXXZ$10 10050b02 f    CIL library: CIL module
 0001:0004fb0a       __unwindfunclet$?ReloadBase@FarEditorSet@@AAEXXZ$9 10050b0a f    CIL library: CIL module
 0001:0004fb14       __unwindfunclet$?ReloadBase@FarEditorSet@@AAEXXZ$12 10050b14 f    CIL library: CIL module
 0001:0004fb1c       __unwindfunclet$?ReloadBase@FarEditorSet@@AAEXXZ$5 10050b1c f    CIL library: CIL module
 0001:0004fb26       __unwindfunclet$?ReloadBase@FarEditorSet@@AAEXXZ$6 10050b26 f    CIL library: CIL module
 0001:0004fb31       __unwindfunclet$?ReloadBase@FarEditorSet@@AAEXXZ$16 10050b31 f    CIL library: CIL module
 0001:0004fb39       __unwindfunclet$?ReloadBase@FarEditorSet@@AAEXXZ$7 10050b39 f    CIL library: CIL module
 0001:0004fb43       __unwindfunclet$?ReloadBase@FarEditorSet@@AAEXXZ$18 10050b43 f    CIL library: CIL module
 0001:0004fb4b       __unwindfunclet$?ReloadBase@FarEditorSet@@AAEXXZ$14 10050b4b f    CIL library: CIL module
 0001:0004fb53       __unwindfunclet$?ReloadBase@FarEditorSet@@AAEXXZ$13 10050b53 f    CIL library: CIL module
 0001:0004fb5d       __ehhandler$?ReloadBase@FarEditorSet@@AAEXXZ 10050b5d f    CIL library: CIL module
 0001:0004fb70       __unwindfunclet$?TestLoadBase@FarEditorSet@@QAE_NPB_W00H@Z$11 10050b70 f    CIL library: CIL module
 0001:0004fb7b       __unwindfunclet$?TestLoadBase@FarEditorSet@@QAE_NPB_W00H@Z$12 10050b7b f    CIL library: CIL module
 0001:0004fb86       __unwindfunclet$?TestLoadBase@FarEditorSet@@QAE_NPB_W00H@Z$13 10050b86 f    CIL library: CIL module
 0001:0004fb91       __unwindfunclet$?TestLoadBase@FarEditorSet@@QAE_NPB_W00H@Z$6 10050b91 f    CIL library: CIL module
 0001:0004fb9c       __unwindfunclet$?TestLoadBase@FarEditorSet@@QAE_NPB_W00H@Z$15 10050b9c f    CIL library: CIL module
 0001:0004fba4       __unwindfunclet$?TestLoadBase@FarEditorSet@@QAE_NPB_W00H@Z$19 10050ba4 f    CIL library: CIL module
 0001:0004fbac       __unwindfunclet$?TestLoadBase@FarEditorSet@@QAE_NPB_W00H@Z$7 10050bac f    CIL library: CIL module
 0001:0004fbb6       __unwindfunclet$?TestLoadBase@FarEditorSet@@QAE_NPB_W00H@Z$23 10050bb6 f    CIL library: CIL module
 0001:0004fbbe       __unwindfunclet$?TestLoadBase@FarEditorSet@@QAE_NPB_W00H@Z$8 10050bbe f    CIL library: CIL module
 0001:0004fbc9       __unwindfunclet$?TestLoadBase@FarEditorSet@@QAE_NPB_W00H@Z$24 10050bc9 f    CIL library: CIL module
 0001:0004fbd3       __unwindfunclet$?TestLoadBase@FarEditorSet@@QAE_NPB_W00H@Z$9 10050bd3 f    CIL library: CIL module
 0001:0004fbdd       __unwindfunclet$?TestLoadBase@FarEditorSet@@QAE_NPB_W00H@Z$25 10050bdd f    CIL library: CIL module
 0001:0004fbe5       __unwindfunclet$?TestLoadBase@FarEditorSet@@QAE_NPB_W00H@Z$10 10050be5 f    CIL library: CIL module
 0001:0004fbef       __unwindfunclet$?TestLoadBase@FarEditorSet@@QAE_NPB_W00H@Z$27 10050bef f    CIL library: CIL module
 0001:0004fbf7       __unwindfunclet$?TestLoadBase@FarEditorSet@@QAE_NPB_W00H@Z$29 10050bf7 f    CIL library: CIL module
 0001:0004fbff       __ehhandler$?TestLoadBase@FarEditorSet@@QAE_NPB_W00H@Z 10050bff f    CIL library: CIL module
 0001:0004fc10       __unwindfunclet$?SettingDialogProc@@YGJPAXHHJ@Z$0 10050c10 f    CIL library: CIL module
 0001:0004fc1b       __unwindfunclet$?SettingDialogProc@@YGJPAXHHJ@Z$3 10050c1b f    CIL library: CIL module
 0001:0004fc26       __unwindfunclet$?SettingDialogProc@@YGJPAXHHJ@Z$8 10050c26 f    CIL library: CIL module
 0001:0004fc2e       __unwindfunclet$?SettingDialogProc@@YGJPAXHHJ@Z$6 10050c2e f    CIL library: CIL module
 0001:0004fc48       __unwindfunclet$?SettingDialogProc@@YGJPAXHHJ@Z$12 10050c48 f    CIL library: CIL module
 0001:0004fc50       __unwindfunclet$?SettingDialogProc@@YGJPAXHHJ@Z$7 10050c50 f    CIL library: CIL module
 0001:0004fc6a       __ehhandler$?SettingDialogProc@@YGJPAXHHJ@Z 10050c6a f    CIL library: CIL module
 0001:0004fc80       __unwindfunclet$??0FarEditorSet@@QAE@XZ$0 10050c80 f    CIL library: CIL module
 0001:0004fc8b       __unwindfunclet$??0FarEditorSet@@QAE@XZ$1 10050c8b f    CIL library: CIL module
 0001:0004fc98       __unwindfunclet$??0FarEditorSet@@QAE@XZ$2 10050c98 f    CIL library: CIL module
 0001:0004fca5       __ehhandler$??0FarEditorSet@@QAE@XZ 10050ca5 f    CIL library: CIL module
 0001:0004fcb0       __unwindfunclet$?addCurrentEditor@FarEditorSet@@AAEPAVFarEditor@@XZ$0 10050cb0 f    CIL library: CIL module
 0001:0004fcbb       __unwindfunclet$?addCurrentEditor@FarEditorSet@@AAEPAVFarEditor@@XZ$1 10050cbb f    CIL library: CIL module
 0001:0004fcc5       __unwindfunclet$?addCurrentEditor@FarEditorSet@@AAEPAVFarEditor@@XZ$2 10050cc5 f    CIL library: CIL module
 0001:0004fccd       __ehhandler$?addCurrentEditor@FarEditorSet@@AAEPAVFarEditor@@XZ 10050ccd f    CIL library: CIL module
 0001:0004fce0       __unwindfunclet$?editorEvent@FarEditorSet@@QAEHHPAX@Z$2 10050ce0 f    CIL library: CIL module
 0001:0004fcea       __unwindfunclet$?editorEvent@FarEditorSet@@QAEHHPAX@Z$3 10050cea f    CIL library: CIL module
 0001:0004fcf4       __unwindfunclet$?editorEvent@FarEditorSet@@QAEHHPAX@Z$4 10050cf4 f    CIL library: CIL module
 0001:0004fcfe       __ehhandler$?editorEvent@FarEditorSet@@QAEHHPAX@Z 10050cfe f    CIL library: CIL module
 0001:0004fd10       __unwindfunclet$?configure@FarEditorSet@@QAEX_N@Z$2 10050d10 f    CIL library: CIL module
 0001:0004fd1b       __unwindfunclet$?configure@FarEditorSet@@QAEX_N@Z$16 10050d1b f    CIL library: CIL module
 0001:0004fd23       __unwindfunclet$?configure@FarEditorSet@@QAEX_N@Z$4 10050d23 f    CIL library: CIL module
 0001:0004fd2e       __unwindfunclet$?configure@FarEditorSet@@QAEX_N@Z$20 10050d2e f    CIL library: CIL module
 0001:0004fd36       __unwindfunclet$?configure@FarEditorSet@@QAEX_N@Z$24 10050d36 f    CIL library: CIL module
 0001:0004fd3e       __unwindfunclet$?configure@FarEditorSet@@QAEX_N@Z$6 10050d3e f    CIL library: CIL module
 0001:0004fd58       __unwindfunclet$?configure@FarEditorSet@@QAEX_N@Z$28 10050d58 f    CIL library: CIL module
 0001:0004fd60       __unwindfunclet$?configure@FarEditorSet@@QAEX_N@Z$7 10050d60 f    CIL library: CIL module
 0001:0004fd7a       __unwindfunclet$?configure@FarEditorSet@@QAEX_N@Z$32 10050d7a f    CIL library: CIL module
 0001:0004fd85       __unwindfunclet$?configure@FarEditorSet@@QAEX_N@Z$8 10050d85 f    CIL library: CIL module
 0001:0004fda2       __unwindfunclet$?configure@FarEditorSet@@QAEX_N@Z$9 10050da2 f    CIL library: CIL module
 0001:0004fdad       __unwindfunclet$?configure@FarEditorSet@@QAEX_N@Z$36 10050dad f    CIL library: CIL module
 0001:0004fdb5       __unwindfunclet$?configure@FarEditorSet@@QAEX_N@Z$10 10050db5 f    CIL library: CIL module
 0001:0004fdcf       __unwindfunclet$?configure@FarEditorSet@@QAEX_N@Z$40 10050dcf f    CIL library: CIL module
 0001:0004fdd7       __unwindfunclet$?configure@FarEditorSet@@QAEX_N@Z$11 10050dd7 f    CIL library: CIL module
 0001:0004fde2       __unwindfunclet$?configure@FarEditorSet@@QAEX_N@Z$44 10050de2 f    CIL library: CIL module
 0001:0004fdea       __unwindfunclet$?configure@FarEditorSet@@QAEX_N@Z$12 10050dea f    CIL library: CIL module
 0001:0004fe04       __unwindfunclet$?configure@FarEditorSet@@QAEX_N@Z$48 10050e04 f    CIL library: CIL module
 0001:0004fe0c       __unwindfunclet$?configure@FarEditorSet@@QAEX_N@Z$13 10050e0c f    CIL library: CIL module
 0001:0004fe17       __unwindfunclet$?configure@FarEditorSet@@QAEX_N@Z$52 10050e17 f    CIL library: CIL module
 0001:0004fe1f       __unwindfunclet$?configure@FarEditorSet@@QAEX_N@Z$14 10050e1f f    CIL library: CIL module
 0001:0004fe39       __unwindfunclet$?configure@FarEditorSet@@QAEX_N@Z$56 10050e39 f    CIL library: CIL module
 0001:0004fe41       __unwindfunclet$?configure@FarEditorSet@@QAEX_N@Z$15 10050e41 f    CIL library: CIL module
 0001:0004fe4e       __ehhandler$?configure@FarEditorSet@@QAEX_N@Z 10050e4e f    CIL library: CIL module
 0001:0004fe60       __unwindfunclet$?openMenu@FarEditorSet@@QAEXXZ$4 10050e60 f    CIL library: CIL module
 0001:0004fe68       __unwindfunclet$?openMenu@FarEditorSet@@QAEXXZ$2 10050e68 f    CIL library: CIL module
 0001:0004fe72       __unwindfunclet$?openMenu@FarEditorSet@@QAEXXZ$3 10050e72 f    CIL library: CIL module
 0001:0004fe7c       __ehhandler$?openMenu@FarEditorSet@@QAEXXZ 10050e7c f    CIL library: CIL module
 0001:0004fe90       __unwindfunclet$??__EDShowCross@@YAXXZ$0 10050e90 f    CIL library: CIL module
 0001:0004fe9a       __ehhandler$??__EDShowCross@@YAXXZ 10050e9a f    CIL library: CIL module
 0001:0004feb0       __unwindfunclet$??__EDNone@@YAXXZ$0 10050eb0 f    CIL library: CIL module
 0001:0004feba       __ehhandler$??__EDNone@@YAXXZ 10050eba f    CIL library: CIL module
 0001:0004fed0       __unwindfunclet$??__EDVertical@@YAXXZ$0 10050ed0 f    CIL library: CIL module
 0001:0004feda       __ehhandler$??__EDVertical@@YAXXZ 10050eda f    CIL library: CIL module
 0001:0004fef0       __unwindfunclet$??__EDHorizontal@@YAXXZ$0 10050ef0 f    CIL library: CIL module
 0001:0004fefa       __ehhandler$??__EDHorizontal@@YAXXZ 10050efa f    CIL library: CIL module
 0001:0004ff10       __unwindfunclet$??__EDBoth@@YAXXZ$0 10050f10 f    CIL library: CIL module
 0001:0004ff1a       __ehhandler$??__EDBoth@@YAXXZ 10050f1a f    CIL library: CIL module
 0001:0004ff30       __unwindfunclet$??__EDCrossZorder@@YAXXZ$0 10050f30 f    CIL library: CIL module
 0001:0004ff3a       __ehhandler$??__EDCrossZorder@@YAXXZ 10050f3a f    CIL library: CIL module
 0001:0004ff50       __unwindfunclet$??__EDBottom@@YAXXZ$0 10050f50 f    CIL library: CIL module
 0001:0004ff5a       __ehhandler$??__EDBottom@@YAXXZ 10050f5a f    CIL library: CIL module
 0001:0004ff70       __unwindfunclet$??__EDTop@@YAXXZ$0 10050f70 f    CIL library: CIL module
 0001:0004ff7a       __ehhandler$??__EDTop@@YAXXZ 10050f7a f    CIL library: CIL module
 0001:0004ff90       __unwindfunclet$??__EDYes@@YAXXZ$0 10050f90 f    CIL library: CIL module
 0001:0004ff9a       __ehhandler$??__EDYes@@YAXXZ 10050f9a f    CIL library: CIL module
 0001:0004ffb0       __unwindfunclet$??__EDNo@@YAXXZ$0 10050fb0 f    CIL library: CIL module
 0001:0004ffba       __ehhandler$??__EDNo@@YAXXZ 10050fba f    CIL library: CIL module
 0001:0004ffd0       __unwindfunclet$??__EDTrue@@YAXXZ$0 10050fd0 f    CIL library: CIL module
 0001:0004ffda       __ehhandler$??__EDTrue@@YAXXZ 10050fda f    CIL library: CIL module
 0001:0004fff0       __unwindfunclet$??__EDFalse@@YAXXZ$0 10050ff0 f    CIL library: CIL module
 0001:0004fffa       __ehhandler$??__EDFalse@@YAXXZ 10050ffa f    CIL library: CIL module
 0001:00050010       __unwindfunclet$??__EDBackparse@@YAXXZ$0 10051010 f    CIL library: CIL module
 0001:0005001a       __ehhandler$??__EDBackparse@@YAXXZ 1005101a f    CIL library: CIL module
 0001:00050030       __unwindfunclet$??__EDMaxLen@@YAXXZ$0 10051030 f    CIL library: CIL module
 0001:0005003a       __ehhandler$??__EDMaxLen@@YAXXZ 1005103a f    CIL library: CIL module
 0001:00050050       __unwindfunclet$??__EDDefFore@@YAXXZ$0 10051050 f    CIL library: CIL module
 0001:0005005a       __ehhandler$??__EDDefFore@@YAXXZ 1005105a f    CIL library: CIL module
 0001:00050070       __unwindfunclet$??__EDDefBack@@YAXXZ$0 10051070 f    CIL library: CIL module
 0001:0005007a       __ehhandler$??__EDDefBack@@YAXXZ 1005107a f    CIL library: CIL module
 0001:00050090       __unwindfunclet$??__EDFullback@@YAXXZ$0 10051090 f    CIL library: CIL module
 0001:0005009a       __ehhandler$??__EDFullback@@YAXXZ 1005109a f    CIL library: CIL module
 0001:000500b0       __unwindfunclet$??__EDHotkey@@YAXXZ$0 100510b0 f    CIL library: CIL module
 0001:000500ba       __ehhandler$??__EDHotkey@@YAXXZ 100510ba f    CIL library: CIL module
 0001:000500d0       __unwindfunclet$??__EDFavorite@@YAXXZ$0 100510d0 f    CIL library: CIL module
 0001:000500da       __ehhandler$??__EDFavorite@@YAXXZ 100510da f    CIL library: CIL module
 0001:000500f0       __unwindfunclet$??__EDShowCross@@YAXXZ$0 100510f0 f    CIL library: CIL module
 0001:000500fa       __ehhandler$??__EDShowCross@@YAXXZ 100510fa f    CIL library: CIL module
 0001:00050110       __unwindfunclet$??__EDNone@@YAXXZ$0 10051110 f    CIL library: CIL module
 0001:0005011a       __ehhandler$??__EDNone@@YAXXZ 1005111a f    CIL library: CIL module
 0001:00050130       __unwindfunclet$??__EDVertical@@YAXXZ$0 10051130 f    CIL library: CIL module
 0001:0005013a       __ehhandler$??__EDVertical@@YAXXZ 1005113a f    CIL library: CIL module
 0001:00050150       __unwindfunclet$??__EDHorizontal@@YAXXZ$0 10051150 f    CIL library: CIL module
 0001:0005015a       __ehhandler$??__EDHorizontal@@YAXXZ 1005115a f    CIL library: CIL module
 0001:00050170       __unwindfunclet$??__EDBoth@@YAXXZ$0 10051170 f    CIL library: CIL module
 0001:0005017a       __ehhandler$??__EDBoth@@YAXXZ 1005117a f    CIL library: CIL module
 0001:00050190       __unwindfunclet$??__EDCrossZorder@@YAXXZ$0 10051190 f    CIL library: CIL module
 0001:0005019a       __ehhandler$??__EDCrossZorder@@YAXXZ 1005119a f    CIL library: CIL module
 0001:000501b0       __unwindfunclet$??__EDBottom@@YAXXZ$0 100511b0 f    CIL library: CIL module
 0001:000501ba       __ehhandler$??__EDBottom@@YAXXZ 100511ba f    CIL library: CIL module
 0001:000501d0       __unwindfunclet$??__EDTop@@YAXXZ$0 100511d0 f    CIL library: CIL module
 0001:000501da       __ehhandler$??__EDTop@@YAXXZ 100511da f    CIL library: CIL module
 0001:000501f0       __unwindfunclet$??__EDYes@@YAXXZ$0 100511f0 f    CIL library: CIL module
 0001:000501fa       __ehhandler$??__EDYes@@YAXXZ 100511fa f    CIL library: CIL module
 0001:00050210       __unwindfunclet$??__EDNo@@YAXXZ$0 10051210 f    CIL library: CIL module
 0001:0005021a       __ehhandler$??__EDNo@@YAXXZ 1005121a f    CIL library: CIL module
 0001:00050230       __unwindfunclet$??__EDTrue@@YAXXZ$0 10051230 f    CIL library: CIL module
 0001:0005023a       __ehhandler$??__EDTrue@@YAXXZ 1005123a f    CIL library: CIL module
 0001:00050250       __unwindfunclet$??__EDFalse@@YAXXZ$0 10051250 f    CIL library: CIL module
 0001:0005025a       __ehhandler$??__EDFalse@@YAXXZ 1005125a f    CIL library: CIL module
 0001:00050270       __unwindfunclet$??__EDBackparse@@YAXXZ$0 10051270 f    CIL library: CIL module
 0001:0005027a       __ehhandler$??__EDBackparse@@YAXXZ 1005127a f    CIL library: CIL module
 0001:00050290       __unwindfunclet$??__EDMaxLen@@YAXXZ$0 10051290 f    CIL library: CIL module
 0001:0005029a       __ehhandler$??__EDMaxLen@@YAXXZ 1005129a f    CIL library: CIL module
 0001:000502b0       __unwindfunclet$??__EDDefFore@@YAXXZ$0 100512b0 f    CIL library: CIL module
 0001:000502ba       __ehhandler$??__EDDefFore@@YAXXZ 100512ba f    CIL library: CIL module
 0001:000502d0       __unwindfunclet$??__EDDefBack@@YAXXZ$0 100512d0 f    CIL library: CIL module
 0001:000502da       __ehhandler$??__EDDefBack@@YAXXZ 100512da f    CIL library: CIL module
 0001:000502f0       __unwindfunclet$??__EDFullback@@YAXXZ$0 100512f0 f    CIL library: CIL module
 0001:000502fa       __ehhandler$??__EDFullback@@YAXXZ 100512fa f    CIL library: CIL module
 0001:00050310       __unwindfunclet$??__EDHotkey@@YAXXZ$0 10051310 f    CIL library: CIL module
 0001:0005031a       __ehhandler$??__EDHotkey@@YAXXZ 1005131a f    CIL library: CIL module
 0001:00050330       __unwindfunclet$??__EDFavorite@@YAXXZ$0 10051330 f    CIL library: CIL module
 0001:0005033a       __ehhandler$??__EDFavorite@@YAXXZ 1005133a f    CIL library: CIL module
 0001:00050350       __unwindfunclet$??__EDShowCross@@YAXXZ$0 10051350 f    CIL library: CIL module
 0001:0005035a       __ehhandler$??__EDShowCross@@YAXXZ 1005135a f    CIL library: CIL module
 0001:00050370       __unwindfunclet$??__EDNone@@YAXXZ$0 10051370 f    CIL library: CIL module
 0001:0005037a       __ehhandler$??__EDNone@@YAXXZ 1005137a f    CIL library: CIL module
 0001:00050390       __unwindfunclet$??__EDVertical@@YAXXZ$0 10051390 f    CIL library: CIL module
 0001:0005039a       __ehhandler$??__EDVertical@@YAXXZ 1005139a f    CIL library: CIL module
 0001:000503b0       __unwindfunclet$??__EDHorizontal@@YAXXZ$0 100513b0 f    CIL library: CIL module
 0001:000503ba       __ehhandler$??__EDHorizontal@@YAXXZ 100513ba f    CIL library: CIL module
 0001:000503d0       __unwindfunclet$??__EDBoth@@YAXXZ$0 100513d0 f    CIL library: CIL module
 0001:000503da       __ehhandler$??__EDBoth@@YAXXZ 100513da f    CIL library: CIL module
 0001:000503f0       __unwindfunclet$??__EDCrossZorder@@YAXXZ$0 100513f0 f    CIL library: CIL module
 0001:000503fa       __ehhandler$??__EDCrossZorder@@YAXXZ 100513fa f    CIL library: CIL module
 0001:00050410       __unwindfunclet$??__EDBottom@@YAXXZ$0 10051410 f    CIL library: CIL module
 0001:0005041a       __ehhandler$??__EDBottom@@YAXXZ 1005141a f    CIL library: CIL module
 0001:00050430       __unwindfunclet$??__EDTop@@YAXXZ$0 10051430 f    CIL library: CIL module
 0001:0005043a       __ehhandler$??__EDTop@@YAXXZ 1005143a f    CIL library: CIL module
 0001:00050450       __unwindfunclet$??__EDYes@@YAXXZ$0 10051450 f    CIL library: CIL module
 0001:0005045a       __ehhandler$??__EDYes@@YAXXZ 1005145a f    CIL library: CIL module
 0001:00050470       __unwindfunclet$??__EDNo@@YAXXZ$0 10051470 f    CIL library: CIL module
 0001:0005047a       __ehhandler$??__EDNo@@YAXXZ 1005147a f    CIL library: CIL module
 0001:00050490       __unwindfunclet$??__EDTrue@@YAXXZ$0 10051490 f    CIL library: CIL module
 0001:0005049a       __ehhandler$??__EDTrue@@YAXXZ 1005149a f    CIL library: CIL module
 0001:000504b0       __unwindfunclet$??__EDFalse@@YAXXZ$0 100514b0 f    CIL library: CIL module
 0001:000504ba       __ehhandler$??__EDFalse@@YAXXZ 100514ba f    CIL library: CIL module
 0001:000504d0       __unwindfunclet$??__EDBackparse@@YAXXZ$0 100514d0 f    CIL library: CIL module
 0001:000504da       __ehhandler$??__EDBackparse@@YAXXZ 100514da f    CIL library: CIL module
 0001:000504f0       __unwindfunclet$??__EDMaxLen@@YAXXZ$0 100514f0 f    CIL library: CIL module
 0001:000504fa       __ehhandler$??__EDMaxLen@@YAXXZ 100514fa f    CIL library: CIL module
 0001:00050510       __unwindfunclet$??__EDDefFore@@YAXXZ$0 10051510 f    CIL library: CIL module
 0001:0005051a       __ehhandler$??__EDDefFore@@YAXXZ 1005151a f    CIL library: CIL module
 0001:00050530       __unwindfunclet$??__EDDefBack@@YAXXZ$0 10051530 f    CIL library: CIL module
 0001:0005053a       __ehhandler$??__EDDefBack@@YAXXZ 1005153a f    CIL library: CIL module
 0001:00050550       __unwindfunclet$??__EDFullback@@YAXXZ$0 10051550 f    CIL library: CIL module
 0001:0005055a       __ehhandler$??__EDFullback@@YAXXZ 1005155a f    CIL library: CIL module
 0001:00050570       __unwindfunclet$??__EDHotkey@@YAXXZ$0 10051570 f    CIL library: CIL module
 0001:0005057a       __ehhandler$??__EDHotkey@@YAXXZ 1005157a f    CIL library: CIL module
 0001:00050590       __unwindfunclet$??__EDFavorite@@YAXXZ$0 10051590 f    CIL library: CIL module
 0001:0005059a       __ehhandler$??__EDFavorite@@YAXXZ 1005159a f    CIL library: CIL module
 0001:000505b0       __unwindfunclet$??__EDConsole@@YAXXZ$0 100515b0 f    CIL library: CIL module
 0001:000505ba       __ehhandler$??__EDConsole@@YAXXZ 100515ba f    CIL library: CIL module
 0001:000505d0       __unwindfunclet$??__EDRgb@@YAXXZ$0 100515d0 f    CIL library: CIL module
 0001:000505da       __ehhandler$??__EDRgb@@YAXXZ 100515da f    CIL library: CIL module
 0001:000505f0       __unwindfunclet$??__EDdefault@@YAXXZ$0 100515f0 f    CIL library: CIL module
 0001:000505fa       __ehhandler$??__EDdefault@@YAXXZ 100515fa f    CIL library: CIL module
 0001:00050610       __unwindfunclet$??__EDAutodetect@@YAXXZ$0 10051610 f    CIL library: CIL module
 0001:0005061a       __ehhandler$??__EDAutodetect@@YAXXZ 1005161a f    CIL library: CIL module
 0001:00050630       __unwindfunclet$??__EDShowCross@@YAXXZ$0 10051630 f    CIL library: CIL module
 0001:0005063a       __ehhandler$??__EDShowCross@@YAXXZ 1005163a f    CIL library: CIL module
 0001:00050650       __unwindfunclet$??__EDNone@@YAXXZ$0 10051650 f    CIL library: CIL module
 0001:0005065a       __ehhandler$??__EDNone@@YAXXZ 1005165a f    CIL library: CIL module
 0001:00050670       __unwindfunclet$??__EDVertical@@YAXXZ$0 10051670 f    CIL library: CIL module
 0001:0005067a       __ehhandler$??__EDVertical@@YAXXZ 1005167a f    CIL library: CIL module
 0001:00050690       __unwindfunclet$??__EDHorizontal@@YAXXZ$0 10051690 f    CIL library: CIL module
 0001:0005069a       __ehhandler$??__EDHorizontal@@YAXXZ 1005169a f    CIL library: CIL module
 0001:000506b0       __unwindfunclet$??__EDBoth@@YAXXZ$0 100516b0 f    CIL library: CIL module
 0001:000506ba       __ehhandler$??__EDBoth@@YAXXZ 100516ba f    CIL library: CIL module
 0001:000506d0       __unwindfunclet$??__EDCrossZorder@@YAXXZ$0 100516d0 f    CIL library: CIL module
 0001:000506da       __ehhandler$??__EDCrossZorder@@YAXXZ 100516da f    CIL library: CIL module
 0001:000506f0       __unwindfunclet$??__EDBottom@@YAXXZ$0 100516f0 f    CIL library: CIL module
 0001:000506fa       __ehhandler$??__EDBottom@@YAXXZ 100516fa f    CIL library: CIL module
 0001:00050710       __unwindfunclet$??__EDTop@@YAXXZ$0 10051710 f    CIL library: CIL module
 0001:0005071a       __ehhandler$??__EDTop@@YAXXZ 1005171a f    CIL library: CIL module
 0001:00050730       __unwindfunclet$??__EDYes@@YAXXZ$0 10051730 f    CIL library: CIL module
 0001:0005073a       __ehhandler$??__EDYes@@YAXXZ 1005173a f    CIL library: CIL module
 0001:00050750       __unwindfunclet$??__EDNo@@YAXXZ$0 10051750 f    CIL library: CIL module
 0001:0005075a       __ehhandler$??__EDNo@@YAXXZ 1005175a f    CIL library: CIL module
 0001:00050770       __unwindfunclet$??__EDTrue@@YAXXZ$0 10051770 f    CIL library: CIL module
 0001:0005077a       __ehhandler$??__EDTrue@@YAXXZ 1005177a f    CIL library: CIL module
 0001:00050790       __unwindfunclet$??__EDFalse@@YAXXZ$0 10051790 f    CIL library: CIL module
 0001:0005079a       __ehhandler$??__EDFalse@@YAXXZ 1005179a f    CIL library: CIL module
 0001:000507b0       __unwindfunclet$??__EDBackparse@@YAXXZ$0 100517b0 f    CIL library: CIL module
 0001:000507ba       __ehhandler$??__EDBackparse@@YAXXZ 100517ba f    CIL library: CIL module
 0001:000507d0       __unwindfunclet$??__EDMaxLen@@YAXXZ$0 100517d0 f    CIL library: CIL module
 0001:000507da       __ehhandler$??__EDMaxLen@@YAXXZ 100517da f    CIL library: CIL module
 0001:000507f0       __unwindfunclet$??__EDDefFore@@YAXXZ$0 100517f0 f    CIL library: CIL module
 0001:000507fa       __ehhandler$??__EDDefFore@@YAXXZ 100517fa f    CIL library: CIL module
 0001:00050810       __unwindfunclet$??__EDDefBack@@YAXXZ$0 10051810 f    CIL library: CIL module
 0001:0005081a       __ehhandler$??__EDDefBack@@YAXXZ 1005181a f    CIL library: CIL module
 0001:00050830       __unwindfunclet$??__EDFullback@@YAXXZ$0 10051830 f    CIL library: CIL module
 0001:0005083a       __ehhandler$??__EDFullback@@YAXXZ 1005183a f    CIL library: CIL module
 0001:00050850       __unwindfunclet$??__EDHotkey@@YAXXZ$0 10051850 f    CIL library: CIL module
 0001:0005085a       __ehhandler$??__EDHotkey@@YAXXZ 1005185a f    CIL library: CIL module
 0001:00050870       __unwindfunclet$??__EDFavorite@@YAXXZ$0 10051870 f    CIL library: CIL module
 0001:0005087a       __ehhandler$??__EDFavorite@@YAXXZ 1005187a f    CIL library: CIL module
 0001:00050890       __unwindfunclet$??__EDConsole@@YAXXZ$0 10051890 f    CIL library: CIL module
 0001:0005089a       __ehhandler$??__EDConsole@@YAXXZ 1005189a f    CIL library: CIL module
 0001:000508b0       __unwindfunclet$??__EDRgb@@YAXXZ$0 100518b0 f    CIL library: CIL module
 0001:000508ba       __ehhandler$??__EDRgb@@YAXXZ 100518ba f    CIL library: CIL module
 0001:000508d0       __unwindfunclet$??__EDdefault@@YAXXZ$0 100518d0 f    CIL library: CIL module
 0001:000508da       __ehhandler$??__EDdefault@@YAXXZ 100518da f    CIL library: CIL module
 0001:000508f0       __unwindfunclet$??__EDAutodetect@@YAXXZ$0 100518f0 f    CIL library: CIL module
 0001:000508fa       __ehhandler$??__EDAutodetect@@YAXXZ 100518fa f    CIL library: CIL module
 0001:00050910       __unwindfunclet$??__FDAutodetect@@YAXXZ$0 10051910 f    CIL library: CIL module
 0001:0005091a       __ehhandler$??__FDAutodetect@@YAXXZ 1005191a f    CIL library: CIL module
 0001:00050930       __unwindfunclet$??__FDdefault@@YAXXZ$0 10051930 f    CIL library: CIL module
 0001:0005093a       __ehhandler$??__FDdefault@@YAXXZ 1005193a f    CIL library: CIL module
 0001:00050950       __unwindfunclet$??__FDRgb@@YAXXZ$0 10051950 f    CIL library: CIL module
 0001:0005095a       __ehhandler$??__FDRgb@@YAXXZ 1005195a f    CIL library: CIL module
 0001:00050970       __unwindfunclet$??__FDConsole@@YAXXZ$0 10051970 f    CIL library: CIL module
 0001:0005097a       __ehhandler$??__FDConsole@@YAXXZ 1005197a f    CIL library: CIL module
 0001:00050990       __unwindfunclet$??__FDFavorite@@YAXXZ$0 10051990 f    CIL library: CIL module
 0001:0005099a       __ehhandler$??__FDFavorite@@YAXXZ 1005199a f    CIL library: CIL module
 0001:000509b0       __unwindfunclet$??__FDHotkey@@YAXXZ$0 100519b0 f    CIL library: CIL module
 0001:000509ba       __ehhandler$??__FDHotkey@@YAXXZ 100519ba f    CIL library: CIL module
 0001:000509d0       __unwindfunclet$??__FDFullback@@YAXXZ$0 100519d0 f    CIL library: CIL module
 0001:000509da       __ehhandler$??__FDFullback@@YAXXZ 100519da f    CIL library: CIL module
 0001:000509f0       __unwindfunclet$??__FDDefBack@@YAXXZ$0 100519f0 f    CIL library: CIL module
 0001:000509fa       __ehhandler$??__FDDefBack@@YAXXZ 100519fa f    CIL library: CIL module
 0001:00050a10       __unwindfunclet$??__FDDefFore@@YAXXZ$0 10051a10 f    CIL library: CIL module
 0001:00050a1a       __ehhandler$??__FDDefFore@@YAXXZ 10051a1a f    CIL library: CIL module
 0001:00050a30       __unwindfunclet$??__FDMaxLen@@YAXXZ$0 10051a30 f    CIL library: CIL module
 0001:00050a3a       __ehhandler$??__FDMaxLen@@YAXXZ 10051a3a f    CIL library: CIL module
 0001:00050a50       __unwindfunclet$??__FDBackparse@@YAXXZ$0 10051a50 f    CIL library: CIL module
 0001:00050a5a       __ehhandler$??__FDBackparse@@YAXXZ 10051a5a f    CIL library: CIL module
 0001:00050a70       __unwindfunclet$??__FDFalse@@YAXXZ$0 10051a70 f    CIL library: CIL module
 0001:00050a7a       __ehhandler$??__FDFalse@@YAXXZ 10051a7a f    CIL library: CIL module
 0001:00050a90       __unwindfunclet$??__FDTrue@@YAXXZ$0 10051a90 f    CIL library: CIL module
 0001:00050a9a       __ehhandler$??__FDTrue@@YAXXZ 10051a9a f    CIL library: CIL module
 0001:00050ab0       __unwindfunclet$??__FDNo@@YAXXZ$0 10051ab0 f    CIL library: CIL module
 0001:00050aba       __ehhandler$??__FDNo@@YAXXZ 10051aba f    CIL library: CIL module
 0001:00050ad0       __unwindfunclet$??__FDYes@@YAXXZ$0 10051ad0 f    CIL library: CIL module
 0001:00050ada       __ehhandler$??__FDYes@@YAXXZ 10051ada f    CIL library: CIL module
 0001:00050af0       __unwindfunclet$??__FDTop@@YAXXZ$0 10051af0 f    CIL library: CIL module
 0001:00050afa       __ehhandler$??__FDTop@@YAXXZ 10051afa f    CIL library: CIL module
 0001:00050b10       __unwindfunclet$??__FDBottom@@YAXXZ$0 10051b10 f    CIL library: CIL module
 0001:00050b1a       __ehhandler$??__FDBottom@@YAXXZ 10051b1a f    CIL library: CIL module
 0001:00050b30       __unwindfunclet$??__FDCrossZorder@@YAXXZ$0 10051b30 f    CIL library: CIL module
 0001:00050b3a       __ehhandler$??__FDCrossZorder@@YAXXZ 10051b3a f    CIL library: CIL module
 0001:00050b50       __unwindfunclet$??__FDBoth@@YAXXZ$0 10051b50 f    CIL library: CIL module
 0001:00050b5a       __ehhandler$??__FDBoth@@YAXXZ 10051b5a f    CIL library: CIL module
 0001:00050b70       __unwindfunclet$??__FDHorizontal@@YAXXZ$0 10051b70 f    CIL library: CIL module
 0001:00050b7a       __ehhandler$??__FDHorizontal@@YAXXZ 10051b7a f    CIL library: CIL module
 0001:00050b90       __unwindfunclet$??__FDVertical@@YAXXZ$0 10051b90 f    CIL library: CIL module
 0001:00050b9a       __ehhandler$??__FDVertical@@YAXXZ 10051b9a f    CIL library: CIL module
 0001:00050bb0       __unwindfunclet$??__FDNone@@YAXXZ$0 10051bb0 f    CIL library: CIL module
 0001:00050bba       __ehhandler$??__FDNone@@YAXXZ 10051bba f    CIL library: CIL module
 0001:00050bd0       __unwindfunclet$??__FDShowCross@@YAXXZ$0 10051bd0 f    CIL library: CIL module
 0001:00050bda       __ehhandler$??__FDShowCross@@YAXXZ 10051bda f    CIL library: CIL module
 0001:00050bf0       __unwindfunclet$??__FDAutodetect@@YAXXZ$0 10051bf0 f    CIL library: CIL module
 0001:00050bfa       __ehhandler$??__FDAutodetect@@YAXXZ 10051bfa f    CIL library: CIL module
 0001:00050c10       __unwindfunclet$??__FDdefault@@YAXXZ$0 10051c10 f    CIL library: CIL module
 0001:00050c1a       __ehhandler$??__FDdefault@@YAXXZ 10051c1a f    CIL library: CIL module
 0001:00050c30       __unwindfunclet$??__FDRgb@@YAXXZ$0 10051c30 f    CIL library: CIL module
 0001:00050c3a       __ehhandler$??__FDRgb@@YAXXZ 10051c3a f    CIL library: CIL module
 0001:00050c50       __unwindfunclet$??__FDConsole@@YAXXZ$0 10051c50 f    CIL library: CIL module
 0001:00050c5a       __ehhandler$??__FDConsole@@YAXXZ 10051c5a f    CIL library: CIL module
 0001:00050c70       __unwindfunclet$??__FDFavorite@@YAXXZ$0 10051c70 f    CIL library: CIL module
 0001:00050c7a       __ehhandler$??__FDFavorite@@YAXXZ 10051c7a f    CIL library: CIL module
 0001:00050c90       __unwindfunclet$??__FDHotkey@@YAXXZ$0 10051c90 f    CIL library: CIL module
 0001:00050c9a       __ehhandler$??__FDHotkey@@YAXXZ 10051c9a f    CIL library: CIL module
 0001:00050cb0       __unwindfunclet$??__FDFullback@@YAXXZ$0 10051cb0 f    CIL library: CIL module
 0001:00050cba       __ehhandler$??__FDFullback@@YAXXZ 10051cba f    CIL library: CIL module
 0001:00050cd0       __unwindfunclet$??__FDDefBack@@YAXXZ$0 10051cd0 f    CIL library: CIL module
 0001:00050cda       __ehhandler$??__FDDefBack@@YAXXZ 10051cda f    CIL library: CIL module
 0001:00050cf0       __unwindfunclet$??__FDDefFore@@YAXXZ$0 10051cf0 f    CIL library: CIL module
 0001:00050cfa       __ehhandler$??__FDDefFore@@YAXXZ 10051cfa f    CIL library: CIL module
 0001:00050d10       __unwindfunclet$??__FDMaxLen@@YAXXZ$0 10051d10 f    CIL library: CIL module
 0001:00050d1a       __ehhandler$??__FDMaxLen@@YAXXZ 10051d1a f    CIL library: CIL module
 0001:00050d30       __unwindfunclet$??__FDBackparse@@YAXXZ$0 10051d30 f    CIL library: CIL module
 0001:00050d3a       __ehhandler$??__FDBackparse@@YAXXZ 10051d3a f    CIL library: CIL module
 0001:00050d50       __unwindfunclet$??__FDFalse@@YAXXZ$0 10051d50 f    CIL library: CIL module
 0001:00050d5a       __ehhandler$??__FDFalse@@YAXXZ 10051d5a f    CIL library: CIL module
 0001:00050d70       __unwindfunclet$??__FDTrue@@YAXXZ$0 10051d70 f    CIL library: CIL module
 0001:00050d7a       __ehhandler$??__FDTrue@@YAXXZ 10051d7a f    CIL library: CIL module
 0001:00050d90       __unwindfunclet$??__FDNo@@YAXXZ$0 10051d90 f    CIL library: CIL module
 0001:00050d9a       __ehhandler$??__FDNo@@YAXXZ 10051d9a f    CIL library: CIL module
 0001:00050db0       __unwindfunclet$??__FDYes@@YAXXZ$0 10051db0 f    CIL library: CIL module
 0001:00050dba       __ehhandler$??__FDYes@@YAXXZ 10051dba f    CIL library: CIL module
 0001:00050dd0       __unwindfunclet$??__FDTop@@YAXXZ$0 10051dd0 f    CIL library: CIL module
 0001:00050dda       __ehhandler$??__FDTop@@YAXXZ 10051dda f    CIL library: CIL module
 0001:00050df0       __unwindfunclet$??__FDBottom@@YAXXZ$0 10051df0 f    CIL library: CIL module
 0001:00050dfa       __ehhandler$??__FDBottom@@YAXXZ 10051dfa f    CIL library: CIL module
 0001:00050e10       __unwindfunclet$??__FDCrossZorder@@YAXXZ$0 10051e10 f    CIL library: CIL module
 0001:00050e1a       __ehhandler$??__FDCrossZorder@@YAXXZ 10051e1a f    CIL library: CIL module
 0001:00050e30       __unwindfunclet$??__FDBoth@@YAXXZ$0 10051e30 f    CIL library: CIL module
 0001:00050e3a       __ehhandler$??__FDBoth@@YAXXZ 10051e3a f    CIL library: CIL module
 0001:00050e50       __unwindfunclet$??__FDHorizontal@@YAXXZ$0 10051e50 f    CIL library: CIL module
 0001:00050e5a       __ehhandler$??__FDHorizontal@@YAXXZ 10051e5a f    CIL library: CIL module
 0001:00050e70       __unwindfunclet$??__FDVertical@@YAXXZ$0 10051e70 f    CIL library: CIL module
 0001:00050e7a       __ehhandler$??__FDVertical@@YAXXZ 10051e7a f    CIL library: CIL module
 0001:00050e90       __unwindfunclet$??__FDNone@@YAXXZ$0 10051e90 f    CIL library: CIL module
 0001:00050e9a       __ehhandler$??__FDNone@@YAXXZ 10051e9a f    CIL library: CIL module
 0001:00050eb0       __unwindfunclet$??__FDShowCross@@YAXXZ$0 10051eb0 f    CIL library: CIL module
 0001:00050eba       __ehhandler$??__FDShowCross@@YAXXZ 10051eba f    CIL library: CIL module
 0001:00050ed0       __unwindfunclet$??__FDFavorite@@YAXXZ$0 10051ed0 f    CIL library: CIL module
 0001:00050eda       __ehhandler$??__FDFavorite@@YAXXZ 10051eda f    CIL library: CIL module
 0001:00050ef0       __unwindfunclet$??__FDHotkey@@YAXXZ$0 10051ef0 f    CIL library: CIL module
 0001:00050efa       __ehhandler$??__FDHotkey@@YAXXZ 10051efa f    CIL library: CIL module
 0001:00050f10       __unwindfunclet$??__FDFullback@@YAXXZ$0 10051f10 f    CIL library: CIL module
 0001:00050f1a       __ehhandler$??__FDFullback@@YAXXZ 10051f1a f    CIL library: CIL module
 0001:00050f30       __unwindfunclet$??__FDDefBack@@YAXXZ$0 10051f30 f    CIL library: CIL module
 0001:00050f3a       __ehhandler$??__FDDefBack@@YAXXZ 10051f3a f    CIL library: CIL module
 0001:00050f50       __unwindfunclet$??__FDDefFore@@YAXXZ$0 10051f50 f    CIL library: CIL module
 0001:00050f5a       __ehhandler$??__FDDefFore@@YAXXZ 10051f5a f    CIL library: CIL module
 0001:00050f70       __unwindfunclet$??__FDMaxLen@@YAXXZ$0 10051f70 f    CIL library: CIL module
 0001:00050f7a       __ehhandler$??__FDMaxLen@@YAXXZ 10051f7a f    CIL library: CIL module
 0001:00050f90       __unwindfunclet$??__FDBackparse@@YAXXZ$0 10051f90 f    CIL library: CIL module
 0001:00050f9a       __ehhandler$??__FDBackparse@@YAXXZ 10051f9a f    CIL library: CIL module
 0001:00050fb0       __unwindfunclet$??__FDFalse@@YAXXZ$0 10051fb0 f    CIL library: CIL module
 0001:00050fba       __ehhandler$??__FDFalse@@YAXXZ 10051fba f    CIL library: CIL module
 0001:00050fd0       __unwindfunclet$??__FDTrue@@YAXXZ$0 10051fd0 f    CIL library: CIL module
 0001:00050fda       __ehhandler$??__FDTrue@@YAXXZ 10051fda f    CIL library: CIL module
 0001:00050ff0       __unwindfunclet$??__FDNo@@YAXXZ$0 10051ff0 f    CIL library: CIL module
 0001:00050ffa       __ehhandler$??__FDNo@@YAXXZ 10051ffa f    CIL library: CIL module
 0001:00051010       __unwindfunclet$??__FDYes@@YAXXZ$0 10052010 f    CIL library: CIL module
 0001:0005101a       __ehhandler$??__FDYes@@YAXXZ 1005201a f    CIL library: CIL module
 0001:00051030       __unwindfunclet$??__FDTop@@YAXXZ$0 10052030 f    CIL library: CIL module
 0001:0005103a       __ehhandler$??__FDTop@@YAXXZ 1005203a f    CIL library: CIL module
 0001:00051050       __unwindfunclet$??__FDBottom@@YAXXZ$0 10052050 f    CIL library: CIL module
 0001:0005105a       __ehhandler$??__FDBottom@@YAXXZ 1005205a f    CIL library: CIL module
 0001:00051070       __unwindfunclet$??__FDCrossZorder@@YAXXZ$0 10052070 f    CIL library: CIL module
 0001:0005107a       __ehhandler$??__FDCrossZorder@@YAXXZ 1005207a f    CIL library: CIL module
 0001:00051090       __unwindfunclet$??__FDBoth@@YAXXZ$0 10052090 f    CIL library: CIL module
 0001:0005109a       __ehhandler$??__FDBoth@@YAXXZ 1005209a f    CIL library: CIL module
 0001:000510b0       __unwindfunclet$??__FDHorizontal@@YAXXZ$0 100520b0 f    CIL library: CIL module
 0001:000510ba       __ehhandler$??__FDHorizontal@@YAXXZ 100520ba f    CIL library: CIL module
 0001:000510d0       __unwindfunclet$??__FDVertical@@YAXXZ$0 100520d0 f    CIL library: CIL module
 0001:000510da       __ehhandler$??__FDVertical@@YAXXZ 100520da f    CIL library: CIL module
 0001:000510f0       __unwindfunclet$??__FDNone@@YAXXZ$0 100520f0 f    CIL library: CIL module
 0001:000510fa       __ehhandler$??__FDNone@@YAXXZ 100520fa f    CIL library: CIL module
 0001:00051110       __unwindfunclet$??__FDShowCross@@YAXXZ$0 10052110 f    CIL library: CIL module
 0001:0005111a       __ehhandler$??__FDShowCross@@YAXXZ 1005211a f    CIL library: CIL module
 0001:00051130       __unwindfunclet$??__FDFavorite@@YAXXZ$0 10052130 f    CIL library: CIL module
 0001:0005113a       __ehhandler$??__FDFavorite@@YAXXZ 1005213a f    CIL library: CIL module
 0001:00051150       __unwindfunclet$??__FDHotkey@@YAXXZ$0 10052150 f    CIL library: CIL module
 0001:0005115a       __ehhandler$??__FDHotkey@@YAXXZ 1005215a f    CIL library: CIL module
 0001:00051170       __unwindfunclet$??__FDFullback@@YAXXZ$0 10052170 f    CIL library: CIL module
 0001:0005117a       __ehhandler$??__FDFullback@@YAXXZ 1005217a f    CIL library: CIL module
 0001:00051190       __unwindfunclet$??__FDDefBack@@YAXXZ$0 10052190 f    CIL library: CIL module
 0001:0005119a       __ehhandler$??__FDDefBack@@YAXXZ 1005219a f    CIL library: CIL module
 0001:000511b0       __unwindfunclet$??__FDDefFore@@YAXXZ$0 100521b0 f    CIL library: CIL module
 0001:000511ba       __ehhandler$??__FDDefFore@@YAXXZ 100521ba f    CIL library: CIL module
 0001:000511d0       __unwindfunclet$??__FDMaxLen@@YAXXZ$0 100521d0 f    CIL library: CIL module
 0001:000511da       __ehhandler$??__FDMaxLen@@YAXXZ 100521da f    CIL library: CIL module
 0001:000511f0       __unwindfunclet$??__FDBackparse@@YAXXZ$0 100521f0 f    CIL library: CIL module
 0001:000511fa       __ehhandler$??__FDBackparse@@YAXXZ 100521fa f    CIL library: CIL module
 0001:00051210       __unwindfunclet$??__FDFalse@@YAXXZ$0 10052210 f    CIL library: CIL module
 0001:0005121a       __ehhandler$??__FDFalse@@YAXXZ 1005221a f    CIL library: CIL module
 0001:00051230       __unwindfunclet$??__FDTrue@@YAXXZ$0 10052230 f    CIL library: CIL module
 0001:0005123a       __ehhandler$??__FDTrue@@YAXXZ 1005223a f    CIL library: CIL module
 0001:00051250       __unwindfunclet$??__FDNo@@YAXXZ$0 10052250 f    CIL library: CIL module
 0001:0005125a       __ehhandler$??__FDNo@@YAXXZ 1005225a f    CIL library: CIL module
 0001:00051270       __unwindfunclet$??__FDYes@@YAXXZ$0 10052270 f    CIL library: CIL module
 0001:0005127a       __ehhandler$??__FDYes@@YAXXZ 1005227a f    CIL library: CIL module
 0001:00051290       __unwindfunclet$??__FDTop@@YAXXZ$0 10052290 f    CIL library: CIL module
 0001:0005129a       __ehhandler$??__FDTop@@YAXXZ 1005229a f    CIL library: CIL module
 0001:000512b0       __unwindfunclet$??__FDBottom@@YAXXZ$0 100522b0 f    CIL library: CIL module
 0001:000512ba       __ehhandler$??__FDBottom@@YAXXZ 100522ba f    CIL library: CIL module
 0001:000512d0       __unwindfunclet$??__FDCrossZorder@@YAXXZ$0 100522d0 f    CIL library: CIL module
 0001:000512da       __ehhandler$??__FDCrossZorder@@YAXXZ 100522da f    CIL library: CIL module
 0001:000512f0       __unwindfunclet$??__FDBoth@@YAXXZ$0 100522f0 f    CIL library: CIL module
 0001:000512fa       __ehhandler$??__FDBoth@@YAXXZ 100522fa f    CIL library: CIL module
 0001:00051310       __unwindfunclet$??__FDHorizontal@@YAXXZ$0 10052310 f    CIL library: CIL module
 0001:0005131a       __ehhandler$??__FDHorizontal@@YAXXZ 1005231a f    CIL library: CIL module
 0001:00051330       __unwindfunclet$??__FDVertical@@YAXXZ$0 10052330 f    CIL library: CIL module
 0001:0005133a       __ehhandler$??__FDVertical@@YAXXZ 1005233a f    CIL library: CIL module
 0001:00051350       __unwindfunclet$??__FDNone@@YAXXZ$0 10052350 f    CIL library: CIL module
 0001:0005135a       __ehhandler$??__FDNone@@YAXXZ 1005235a f    CIL library: CIL module
 0001:00051370       __unwindfunclet$??__FDShowCross@@YAXXZ$0 10052370 f    CIL library: CIL module
 0001:0005137a       __ehhandler$??__FDShowCross@@YAXXZ 1005237a f    CIL library: CIL module
 0001:00051384       __ehhandler$?CallUnexpected@@YAXPBU_s_ESTypeList@@@Z 10052384 f   LIBCMT:frame.obj
 0001:000513a0       ??__EDShowCross@@YAXXZ     100523a0 f    CIL library: CIL module
 0001:00051400       ??__EDNone@@YAXXZ          10052400 f    CIL library: CIL module
 0001:00051460       ??__EDVertical@@YAXXZ      10052460 f    CIL library: CIL module
 0001:000514c0       ??__EDHorizontal@@YAXXZ    100524c0 f    CIL library: CIL module
 0001:00051520       ??__EDBoth@@YAXXZ          10052520 f    CIL library: CIL module
 0001:00051580       ??__EDCrossZorder@@YAXXZ   10052580 f    CIL library: CIL module
 0001:000515e0       ??__EDBottom@@YAXXZ        100525e0 f    CIL library: CIL module
 0001:00051640       ??__EDTop@@YAXXZ           10052640 f    CIL library: CIL module
 0001:000516a0       ??__EDYes@@YAXXZ           100526a0 f    CIL library: CIL module
 0001:00051700       ??__EDNo@@YAXXZ            10052700 f    CIL library: CIL module
 0001:00051760       ??__EDTrue@@YAXXZ          10052760 f    CIL library: CIL module
 0001:000517c0       ??__EDFalse@@YAXXZ         100527c0 f    CIL library: CIL module
 0001:00051820       ??__EDBackparse@@YAXXZ     10052820 f    CIL library: CIL module
 0001:00051880       ??__EDMaxLen@@YAXXZ        10052880 f    CIL library: CIL module
 0001:000518e0       ??__EDDefFore@@YAXXZ       100528e0 f    CIL library: CIL module
 0001:00051940       ??__EDDefBack@@YAXXZ       10052940 f    CIL library: CIL module
 0001:000519a0       ??__EDFullback@@YAXXZ      100529a0 f    CIL library: CIL module
 0001:00051a00       ??__EDHotkey@@YAXXZ        10052a00 f    CIL library: CIL module
 0001:00051a60       ??__EDFavorite@@YAXXZ      10052a60 f    CIL library: CIL module
 0001:00051ac0       ??__EDShowCross@@YAXXZ     10052ac0 f    CIL library: CIL module
 0001:00051b20       ??__EDNone@@YAXXZ          10052b20 f    CIL library: CIL module
 0001:00051b80       ??__EDVertical@@YAXXZ      10052b80 f    CIL library: CIL module
 0001:00051be0       ??__EDHorizontal@@YAXXZ    10052be0 f    CIL library: CIL module
 0001:00051c40       ??__EDBoth@@YAXXZ          10052c40 f    CIL library: CIL module
 0001:00051ca0       ??__EDCrossZorder@@YAXXZ   10052ca0 f    CIL library: CIL module
 0001:00051d00       ??__EDBottom@@YAXXZ        10052d00 f    CIL library: CIL module
 0001:00051d60       ??__EDTop@@YAXXZ           10052d60 f    CIL library: CIL module
 0001:00051dc0       ??__EDYes@@YAXXZ           10052dc0 f    CIL library: CIL module
 0001:00051e20       ??__EDNo@@YAXXZ            10052e20 f    CIL library: CIL module
 0001:00051e80       ??__EDTrue@@YAXXZ          10052e80 f    CIL library: CIL module
 0001:00051ee0       ??__EDFalse@@YAXXZ         10052ee0 f    CIL library: CIL module
 0001:00051f40       ??__EDBackparse@@YAXXZ     10052f40 f    CIL library: CIL module
 0001:00051fa0       ??__EDMaxLen@@YAXXZ        10052fa0 f    CIL library: CIL module
 0001:00052000       ??__EDDefFore@@YAXXZ       10053000 f    CIL library: CIL module
 0001:00052060       ??__EDDefBack@@YAXXZ       10053060 f    CIL library: CIL module
 0001:000520c0       ??__EDFullback@@YAXXZ      100530c0 f    CIL library: CIL module
 0001:00052120       ??__EDHotkey@@YAXXZ        10053120 f    CIL library: CIL module
 0001:00052180       ??__EDFavorite@@YAXXZ      10053180 f    CIL library: CIL module
 0001:000521e0       ??__EDShowCross@@YAXXZ     100531e0 f    CIL library: CIL module
 0001:00052240       ??__EDNone@@YAXXZ          10053240 f    CIL library: CIL module
 0001:000522a0       ??__EDVertical@@YAXXZ      100532a0 f    CIL library: CIL module
 0001:00052300       ??__EDHorizontal@@YAXXZ    10053300 f    CIL library: CIL module
 0001:00052360       ??__EDBoth@@YAXXZ          10053360 f    CIL library: CIL module
 0001:000523c0       ??__EDCrossZorder@@YAXXZ   100533c0 f    CIL library: CIL module
 0001:00052420       ??__EDBottom@@YAXXZ        10053420 f    CIL library: CIL module
 0001:00052480       ??__EDTop@@YAXXZ           10053480 f    CIL library: CIL module
 0001:000524e0       ??__EDYes@@YAXXZ           100534e0 f    CIL library: CIL module
 0001:00052540       ??__EDNo@@YAXXZ            10053540 f    CIL library: CIL module
 0001:000525a0       ??__EDTrue@@YAXXZ          100535a0 f    CIL library: CIL module
 0001:00052600       ??__EDFalse@@YAXXZ         10053600 f    CIL library: CIL module
 0001:00052660       ??__EDBackparse@@YAXXZ     10053660 f    CIL library: CIL module
 0001:000526c0       ??__EDMaxLen@@YAXXZ        100536c0 f    CIL library: CIL module
 0001:00052720       ??__EDDefFore@@YAXXZ       10053720 f    CIL library: CIL module
 0001:00052780       ??__EDDefBack@@YAXXZ       10053780 f    CIL library: CIL module
 0001:000527e0       ??__EDFullback@@YAXXZ      100537e0 f    CIL library: CIL module
 0001:00052840       ??__EDHotkey@@YAXXZ        10053840 f    CIL library: CIL module
 0001:000528a0       ??__EDFavorite@@YAXXZ      100538a0 f    CIL library: CIL module
 0001:00052900       ??__EDConsole@@YAXXZ       10053900 f    CIL library: CIL module
 0001:00052960       ??__EDRgb@@YAXXZ           10053960 f    CIL library: CIL module
 0001:000529c0       ??__EDdefault@@YAXXZ       100539c0 f    CIL library: CIL module
 0001:00052a20       ??__EDAutodetect@@YAXXZ    10053a20 f    CIL library: CIL module
 0001:00052a80       ??__EDShowCross@@YAXXZ     10053a80 f    CIL library: CIL module
 0001:00052ae0       ??__EDNone@@YAXXZ          10053ae0 f    CIL library: CIL module
 0001:00052b40       ??__EDVertical@@YAXXZ      10053b40 f    CIL library: CIL module
 0001:00052ba0       ??__EDHorizontal@@YAXXZ    10053ba0 f    CIL library: CIL module
 0001:00052c00       ??__EDBoth@@YAXXZ          10053c00 f    CIL library: CIL module
 0001:00052c60       ??__EDCrossZorder@@YAXXZ   10053c60 f    CIL library: CIL module
 0001:00052cc0       ??__EDBottom@@YAXXZ        10053cc0 f    CIL library: CIL module
 0001:00052d20       ??__EDTop@@YAXXZ           10053d20 f    CIL library: CIL module
 0001:00052d80       ??__EDYes@@YAXXZ           10053d80 f    CIL library: CIL module
 0001:00052de0       ??__EDNo@@YAXXZ            10053de0 f    CIL library: CIL module
 0001:00052e40       ??__EDTrue@@YAXXZ          10053e40 f    CIL library: CIL module
 0001:00052ea0       ??__EDFalse@@YAXXZ         10053ea0 f    CIL library: CIL module
 0001:00052f00       ??__EDBackparse@@YAXXZ     10053f00 f    CIL library: CIL module
 0001:00052f60       ??__EDMaxLen@@YAXXZ        10053f60 f    CIL library: CIL module
 0001:00052fc0       ??__EDDefFore@@YAXXZ       10053fc0 f    CIL library: CIL module
 0001:00053020       ??__EDDefBack@@YAXXZ       10054020 f    CIL library: CIL module
 0001:00053080       ??__EDFullback@@YAXXZ      10054080 f    CIL library: CIL module
 0001:000530e0       ??__EDHotkey@@YAXXZ        100540e0 f    CIL library: CIL module
 0001:00053140       ??__EDFavorite@@YAXXZ      10054140 f    CIL library: CIL module
 0001:000531a0       ??__EDConsole@@YAXXZ       100541a0 f    CIL library: CIL module
 0001:00053200       ??__EDRgb@@YAXXZ           10054200 f    CIL library: CIL module
 0001:00053260       ??__EDdefault@@YAXXZ       10054260 f    CIL library: CIL module
 0001:000532c0       ??__EDAutodetect@@YAXXZ    100542c0 f    CIL library: CIL module
 0001:00053320       ??__FDShowCross@@YAXXZ     10054320 f    CIL library: CIL module
 0001:000533b0       ??__FDNone@@YAXXZ          100543b0 f    CIL library: CIL module
 0001:00053440       ??__FDVertical@@YAXXZ      10054440 f    CIL library: CIL module
 0001:000534d0       ??__FDHorizontal@@YAXXZ    100544d0 f    CIL library: CIL module
 0001:00053560       ??__FDBoth@@YAXXZ          10054560 f    CIL library: CIL module
 0001:000535f0       ??__FDCrossZorder@@YAXXZ   100545f0 f    CIL library: CIL module
 0001:00053680       ??__FDBottom@@YAXXZ        10054680 f    CIL library: CIL module
 0001:00053710       ??__FDTop@@YAXXZ           10054710 f    CIL library: CIL module
 0001:000537a0       ??__FDYes@@YAXXZ           100547a0 f    CIL library: CIL module
 0001:00053830       ??__FDNo@@YAXXZ            10054830 f    CIL library: CIL module
 0001:000538c0       ??__FDTrue@@YAXXZ          100548c0 f    CIL library: CIL module
 0001:00053950       ??__FDFalse@@YAXXZ         10054950 f    CIL library: CIL module
 0001:000539e0       ??__FDBackparse@@YAXXZ     100549e0 f    CIL library: CIL module
 0001:00053a70       ??__FDMaxLen@@YAXXZ        10054a70 f    CIL library: CIL module
 0001:00053b00       ??__FDDefFore@@YAXXZ       10054b00 f    CIL library: CIL module
 0001:00053b90       ??__FDDefBack@@YAXXZ       10054b90 f    CIL library: CIL module
 0001:00053c20       ??__FDFullback@@YAXXZ      10054c20 f    CIL library: CIL module
 0001:00053cb0       ??__FDHotkey@@YAXXZ        10054cb0 f    CIL library: CIL module
 0001:00053d40       ??__FDFavorite@@YAXXZ      10054d40 f    CIL library: CIL module
 0001:00053dd0       ??__FDShowCross@@YAXXZ     10054dd0 f    CIL library: CIL module
 0001:00053e60       ??__FDNone@@YAXXZ          10054e60 f    CIL library: CIL module
 0001:00053ef0       ??__FDVertical@@YAXXZ      10054ef0 f    CIL library: CIL module
 0001:00053f80       ??__FDHorizontal@@YAXXZ    10054f80 f    CIL library: CIL module
 0001:00054010       ??__FDBoth@@YAXXZ          10055010 f    CIL library: CIL module
