 colorer_x64

 Timestamp is 4e1183eb (Mon Jul 04 15:12:11 2011)

 Preferred load address is 0000000180000000

 Start         Length     Name                   Class
 0001:00000000 000551d4H .text                   CODE
 0001:000551e0 000081ceH .text$x                 CODE
 0001:0005d3b0 00001a3bH .text$yc                CODE
 0001:0005edf0 000024bdH .text$yd                CODE
 0002:00000000 000003c0H .idata$5                DATA
 0002:000003c0 00000008H .CRT$XCA                DATA
 0002:000003c8 000002a0H .CRT$XCU                DATA
 0002:00000668 00000008H .CRT$XCZ                DATA
 0002:00000670 00000008H .CRT$XIA                DATA
 0002:00000678 00000020H .CRT$XIC                DATA
 0002:00000698 00000008H .CRT$XIZ                DATA
 0002:000006a0 00000008H .CRT$XPA                DATA
 0002:000006a8 00000008H .CRT$XPX                DATA
 0002:000006b0 00000008H .CRT$XPXA               DATA
 0002:000006b8 00000008H .CRT$XPZ                DATA
 0002:000006c0 00000008H .CRT$XTA                DATA
 0002:000006c8 00000008H .CRT$XTZ                DATA
 0002:000006d0 0000ca40H .rdata                  DATA
 0002:0000d110 0000016cH .rdata$r                DATA
 0002:0000d280 00000008H .rtc$IAA                DATA
 0002:0000d288 00000008H .rtc$IZZ                DATA
 0002:0000d290 00000008H .rtc$TAA                DATA
 0002:0000d298 00000008H .rtc$TZZ                DATA
 0002:0000d2a0 00012728H .xdata                  DATA
 0002:0001f9c8 000003dcH .xdata$x                DATA
 0002:0001fda4 00000050H .idata$2                DATA
 0002:0001fdf4 00000014H .idata$3                DATA
 0002:0001fe08 000003c0H .idata$4                DATA
 0002:000201c8 000008b4H .idata$6                DATA
 0002:00020a80 000000e5H .edata                  DATA
 0003:00000000 00016cc0H .data                   DATA
 0003:00016cc0 00002b24H .bss                    DATA
 0004:00000000 00003a8cH .pdata                  DATA
 0005:00000000 00000bb1H text                    DATA
 0006:00000000 000027d0H data                    DATA
 0007:00000000 00000058H .rsrc$01                DATA
 0007:00000060 000002d8H .rsrc$02                DATA

  Address         Publics by Value              Rva+Base               Lib:Object

 0000:00000000       ___safe_se_handler_count   0000000000000000     <absolute>
 0000:00000000       ___safe_se_handler_table   0000000000000000     <absolute>
 0000:00000000       __ImageBase                0000000180000000     <linker-defined>
 0001:00000000       ?addParam@FileTypeImpl@@QEAAXPEBVString@@@Z 0000000180001000 f i ChooseTypeMenu.obj
 0001:00000170       ??0ChooseTypeMenu@@QEAA@PEB_W0@Z 0000000180001170 f   ChooseTypeMenu.obj
 0001:000003d0       ??1ChooseTypeMenu@@QEAA@XZ 00000001800013d0 f   ChooseTypeMenu.obj
 0001:00000430       ?AddItem@ChooseTypeMenu@@AEAAHPEB_WW4MENUITEMFLAGS@@PEBVFileType@@_K@Z 0000000180001430 f   ChooseTypeMenu.obj
 0001:00000510       ?MoveToFavorites@ChooseTypeMenu@@QEAAX_K@Z 0000000180001510 f   ChooseTypeMenu.obj
 0001:00000650       ?AddFavorite@ChooseTypeMenu@@QEAAHPEBVFileType@@@Z 0000000180001650 f   ChooseTypeMenu.obj
 0001:00000710       ?DelFromFavorites@ChooseTypeMenu@@QEAAX_K@Z 0000000180001710 f   ChooseTypeMenu.obj
 0001:00000870       ?AddItemInGroup@ChooseTypeMenu@@QEAAHPEAVFileType@@@Z 0000000180001870 f   ChooseTypeMenu.obj
 0001:00000a50       ?GenerateName@ChooseTypeMenu@@QEAAPEAVStringBuffer@@PEBVFileType@@@Z 0000000180001a50 f   ChooseTypeMenu.obj
 0001:00000c90       ??0StringIndexOutOfBoundsException@@QEAA@AEBV0@@Z 0000000180001c90 f i DString.obj
 0001:00000c90       ??0InputSourceException@@QEAA@AEBV0@@Z 0000000180001c90 f i TextLinesStore.obj
 0001:00000c90       ??0FarHrcSettingsException@@QEAA@AEBV0@@Z 0000000180001c90 f i FarHrcSettings.obj
 0001:00000c90       ??0ParseException@@QEAA@AEBV0@@Z 0000000180001c90 f i xmldom.obj
 0001:00000c90       ??0UnsupportedEncodingException@@QEAA@AEBV0@@Z 0000000180001c90 f i DString.obj
 0001:00000c90       ??0ParserFactoryException@@QEAA@AEBV0@@Z 0000000180001c90 f i ParserFactory.obj
 0001:00000c90       ??0HRCParserException@@QEAA@AEBV0@@Z 0000000180001c90 f i HRCParserImpl.obj
 0001:00000c90       ??0OutOfBoundException@@QEAA@AEBV0@@Z 0000000180001c90 f i ChooseTypeMenu.obj
 0001:00000cc0       ??_EUnsupportedEncodingException@@UEAAPEAXI@Z 0000000180001cc0 f i  CIL library: CIL module
 0001:00000cc0       ??_EOutOfBoundException@@UEAAPEAXI@Z 0000000180001cc0 f i  CIL library: CIL module
 0001:00000cc0       ??_GOutOfBoundException@@UEAAPEAXI@Z 0000000180001cc0 f i ChooseTypeMenu.obj
 0001:00000cc0       ??_EFarHrcSettingsException@@UEAAPEAXI@Z 0000000180001cc0 f i  CIL library: CIL module
 0001:00000cc0       ??_GUnsupportedEncodingException@@UEAAPEAXI@Z 0000000180001cc0 f i DString.obj
 0001:00000cc0       ??_GException@@UEAAPEAXI@Z 0000000180001cc0 f i Exception.obj
 0001:00000cc0       ??_GParseException@@UEAAPEAXI@Z 0000000180001cc0 f i xmldom.obj
 0001:00000cc0       ??_EParserFactoryException@@UEAAPEAXI@Z 0000000180001cc0 f i  CIL library: CIL module
 0001:00000cc0       ??_GInputSourceException@@UEAAPEAXI@Z 0000000180001cc0 f i TextLinesStore.obj
 0001:00000cc0       ??_EStringIndexOutOfBoundsException@@UEAAPEAXI@Z 0000000180001cc0 f i  CIL library: CIL module
 0001:00000cc0       ??_EParseException@@UEAAPEAXI@Z 0000000180001cc0 f i  CIL library: CIL module
 0001:00000cc0       ??_GFarHrcSettingsException@@UEAAPEAXI@Z 0000000180001cc0 f i FarHrcSettings.obj
 0001:00000cc0       ??_EException@@UEAAPEAXI@Z 0000000180001cc0 f i  CIL library: CIL module
 0001:00000cc0       ??_GHRCParserException@@UEAAPEAXI@Z 0000000180001cc0 f i HRCParserImpl.obj
 0001:00000cc0       ??_EHRCParserException@@UEAAPEAXI@Z 0000000180001cc0 f i  CIL library: CIL module
 0001:00000cc0       ??_EInputSourceException@@UEAAPEAXI@Z 0000000180001cc0 f i  CIL library: CIL module
 0001:00000cc0       ??_GStringIndexOutOfBoundsException@@UEAAPEAXI@Z 0000000180001cc0 f i DString.obj
 0001:00000cc0       ??_GParserFactoryException@@UEAAPEAXI@Z 0000000180001cc0 f i ParserFactory.obj
 0001:00000d10       ??1LineSource@@MEAA@XZ     0000000180001d10 f i FarEditor.obj
 0001:00000d20       ??_ELineSource@@MEAAPEAXI@Z 0000000180001d20 f i  CIL library: CIL module
 0001:00000d20       ??_GLineSource@@MEAAPEAXI@Z 0000000180001d20 f i FarEditor.obj
 0001:00000d50       ?cast@StyledRegion@@SAPEBV1@PEBVRegionDefine@@@Z 0000000180001d50 f i FarEditor.obj
 0001:00000de0       ??0LineRegion@@QEAA@AEBV0@@Z 0000000180001de0 f i FarEditor.obj
 0001:00000e30       ??1LineRegion@@QEAA@XZ     0000000180001e30 f i FarEditor.obj
 0001:00000e50       ??_GLineRegion@@QEAAPEAXI@Z 0000000180001e50 f i FarEditor.obj
 0001:00000e90       ??0FarEditor@@QEAA@PEAUPluginStartupInfo@@PEAVParserFactory@@@Z 0000000180001e90 f   FarEditor.obj
 0001:000011c0       ??_GFarEditor@@UEAAPEAXI@Z 00000001800021c0 f i FarEditor.obj
 0001:000011c0       ??_EFarEditor@@UEAAPEAXI@Z 00000001800021c0 f i  CIL library: CIL module
 0001:00001200       ??1FarEditor@@UEAA@XZ      0000000180002200 f   FarEditor.obj
 0001:000012d0       ?endJob@FarEditor@@UEAAXH@Z 00000001800022d0 f   FarEditor.obj
 0001:00001300       ?getLine@FarEditor@@UEAAPEAVString@@H@Z 0000000180002300 f   FarEditor.obj
 0001:000013d0       ?chooseFileType@FarEditor@@QEAAXPEAVString@@@Z 00000001800023d0 f   FarEditor.obj
 0001:00001420       ?reloadTypeSettings@FarEditor@@AEAAXXZ 0000000180002420 f   FarEditor.obj
 0001:00001820       ?setRegionMapper@FarEditor@@QEAAXPEAVRegionMapper@@@Z 0000000180002820 f   FarEditor.obj
 0001:00001930       ?matchPair@FarEditor@@QEAAXXZ 0000000180002930 f   FarEditor.obj
 0001:00001a20       ?selectPair@FarEditor@@QEAAXXZ 0000000180002a20 f   FarEditor.obj
 0001:00001b10       ?selectBlock@FarEditor@@QEAAXXZ 0000000180002b10 f   FarEditor.obj
 0001:00001c00       ?selectRegion@FarEditor@@QEAAXXZ 0000000180002c00 f   FarEditor.obj
 0001:00001cb0       ?locateFunction@FarEditor@@QEAAXXZ 0000000180002cb0 f   FarEditor.obj
 0001:000021d0       ?editorInput@FarEditor@@QEAAHPEBU_INPUT_RECORD@@@Z 00000001800031d0 f   FarEditor.obj
 0001:00002280       ?editorEvent@FarEditor@@QEAAHHPEAX@Z 0000000180003280 f   FarEditor.obj
 0001:00002f00       ?showOutliner@FarEditor@@AEAAXPEAVOutliner@@@Z 0000000180003f00 f   FarEditor.obj
 0001:00003e60       ?convert@FarEditor@@AEAA?AUcolor@@PEBVStyledRegion@@@Z 0000000180004e60 f   FarEditor.obj
 0001:00003f60       ?addFARColor@FarEditor@@AEAAXHHHUcolor@@@Z 0000000180004f60 f   FarEditor.obj
 0001:000040a0       ?cleanEditor@FarEditor@@QEAAXXZ 00000001800050a0 f   FarEditor.obj
 0001:000041a0       ??0DocumentBuilder@@QEAA@XZ 00000001800051a0 f i FarEditorSet.obj
 0001:00004230       ??0FarEditorSet@@QEAA@XZ   0000000180005230 f   FarEditorSet.obj
 0001:000043e0       ??1FarEditorSet@@QEAA@XZ   00000001800053e0 f   FarEditorSet.obj
 0001:00004640       ?openMenu@FarEditorSet@@QEAAXXZ 0000000180005640 f   FarEditorSet.obj
 0001:00004a10       ?viewFile@FarEditorSet@@QEAAXAEBVString@@@Z 0000000180005a10 f   FarEditorSet.obj
 0001:00004d40       ?getCountFileTypeAndGroup@FarEditorSet@@AEAAHXZ 0000000180005d40 f   FarEditorSet.obj
 0001:00004de0       ?getFileTypeByIndex@FarEditorSet@@AEAAPEAVFileTypeImpl@@H@Z 0000000180005de0 f   FarEditorSet.obj
 0001:00004e80       ?FillTypeMenu@FarEditorSet@@AEAAXPEAVChooseTypeMenu@@PEAVFileType@@@Z 0000000180005e80 f   FarEditorSet.obj
 0001:00005010       ?KeyDialogProc@@YA_JPEAXHH_J@Z 0000000180006010 f   FarEditorSet.obj
 0001:00005130       ?chooseType@FarEditorSet@@AEAAXXZ 0000000180006130 f   FarEditorSet.obj
 0001:00005800       ?getHRDescription@FarEditorSet@@QEAAPEBVString@@AEBV2@VDString@@@Z 0000000180006800 f   FarEditorSet.obj
 0001:000058a0       ?SettingDialogProc@@YA_JPEAXHH_J@Z 00000001800068a0 f   FarEditorSet.obj
 0001:00006050       ??_GDString@@UEAAPEAXI@Z   0000000180007050 f i FarEditorSet.obj
 0001:00006050       ??_EDString@@UEAAPEAXI@Z   0000000180007050 f i  CIL library: CIL module
 0001:000060e0       ??_EString@@UEAAPEAXI@Z    00000001800070e0 f i  CIL library: CIL module
 0001:000060e0       ??_GString@@UEAAPEAXI@Z    00000001800070e0 f i FarEditorSet.obj
 0001:00006140       ?configure@FarEditorSet@@QEAAX_N@Z 0000000180007140 f   FarEditorSet.obj
 0001:00007a50       ?chooseHRDName@FarEditorSet@@QEAAPEBVString@@PEBV2@VDString@@@Z 0000000180008a50 f   FarEditorSet.obj
 0001:00007d10       ?editorEvent@FarEditorSet@@QEAAHHPEAX@Z 0000000180008d10 f   FarEditorSet.obj
 0001:00007ef0       ?TestLoadBase@FarEditorSet@@QEAA_NPEB_W00H@Z 0000000180008ef0 f   FarEditorSet.obj
 0001:00008640       ?ReloadBase@FarEditorSet@@AEAAXXZ 0000000180009640 f   FarEditorSet.obj
 0001:00008b30       ?addCurrentEditor@FarEditorSet@@AEAAPEAVFarEditor@@XZ 0000000180009b30 f   FarEditorSet.obj
 0001:00008d10       ?getCurrentFileName@FarEditorSet@@AEAAPEAVString@@XZ 0000000180009d10 f   FarEditorSet.obj
 0001:00009000       ?getCurrentEditor@FarEditorSet@@AEAAPEAVFarEditor@@XZ 000000018000a000 f   FarEditorSet.obj
 0001:000090a0       ?disableColorer@FarEditorSet@@AEAAXXZ 000000018000a0a0 f   FarEditorSet.obj
 0001:00009130       ?ApplySettingsToEditors@FarEditorSet@@AEAAXXZ 000000018000a130 f   FarEditorSet.obj
 0001:00009240       ?dropCurrentEditor@FarEditorSet@@AEAAX_N@Z 000000018000a240 f   FarEditorSet.obj
 0001:000093a0       ?dropAllEditors@FarEditorSet@@AEAAX_N@Z 000000018000a3a0 f   FarEditorSet.obj
 0001:00009440       ?ReadSettings@FarEditorSet@@QEAAXXZ 000000018000a440 f   FarEditorSet.obj
 0001:00009b50       ?SetDefaultSettings@FarEditorSet@@AEAAXXZ 000000018000ab50 f   FarEditorSet.obj
 0001:00009dc0       ?SaveSettings@FarEditorSet@@AEAAXXZ 000000018000adc0 f   FarEditorSet.obj
 0001:0000a0b0       ?checkConEmu@FarEditorSet@@AEAA_NXZ 000000018000b0b0 f   FarEditorSet.obj
 0001:0000a110       ?checkConsoleAnnotationAvailable@FarEditorSet@@AEAA_NXZ 000000018000b110 f   FarEditorSet.obj
 0001:0000a1a0       ?SetBgEditor@FarEditorSet@@QEAA_NXZ 000000018000b1a0 f   FarEditorSet.obj
 0001:0000a300       ?LoadUserHrd@FarEditorSet@@QEAAXPEBVString@@PEAVParserFactory@@@Z 000000018000b300 f   FarEditorSet.obj
 0001:0000a4a0       ??1DocumentBuilder@@QEAA@XZ 000000018000b4a0 f i FarEditorSet.obj
 0001:0000a570       ?LoadUserHrc@FarEditorSet@@QEAAXPEBVString@@PEAVParserFactory@@@Z 000000018000b570 f   FarEditorSet.obj
 0001:0000a5f0       ?getParamDefValue@FarEditorSet@@AEAAPEBVString@@PEAVFileTypeImpl@@VSString@@@Z 000000018000b5f0 f   FarEditorSet.obj
 0001:0000a870       ?buildHrcList@FarEditorSet@@AEAAPEAUFarList@@XZ 000000018000b870 f   FarEditorSet.obj
 0001:0000aa00       ?buildParamsList@FarEditorSet@@AEAAPEAUFarList@@PEAVFileTypeImpl@@@Z 000000018000ba00 f   FarEditorSet.obj
 0001:0000ab60       ?setCrossValueListToCombobox@FarEditorSet@@AEAAXPEAVFileTypeImpl@@PEAX@Z 000000018000bb60 f   FarEditorSet.obj
 0001:0000af70       ?setCrossPosValueListToCombobox@FarEditorSet@@AEAAXPEAVFileTypeImpl@@PEAX@Z 000000018000bf70 f   FarEditorSet.obj
 0001:0000b2f0       ?setYNListValueToCombobox@FarEditorSet@@AEAAXPEAVFileTypeImpl@@PEAXVDString@@@Z 000000018000c2f0 f   FarEditorSet.obj
 0001:0000b670       ?setTFListValueToCombobox@FarEditorSet@@AEAAXPEAVFileTypeImpl@@PEAXVDString@@@Z 000000018000c670 f   FarEditorSet.obj
 0001:0000b9f0       ?setCustomListValueToCombobox@FarEditorSet@@AEAAXPEAVFileTypeImpl@@PEAXVDString@@@Z 000000018000c9f0 f   FarEditorSet.obj
 0001:0000bcd0       ?OnChangeHrc@FarEditorSet@@QEAAXPEAX@Z 000000018000ccd0 f   FarEditorSet.obj
 0001:0000bd70       ?SaveChangedValueParam@FarEditorSet@@AEAAXPEAX@Z 000000018000cd70 f   FarEditorSet.obj
 0001:0000c230       ?OnChangeParam@FarEditorSet@@QEAAXPEAXH@Z 000000018000d230 f   FarEditorSet.obj
 0001:0000c960       ?OnSaveHrcParams@FarEditorSet@@QEAAXPEAX@Z 000000018000d960 f   FarEditorSet.obj
 0001:0000ca10       ?SettingHrcDialogProc@@YA_JPEAXHH_J@Z 000000018000da10 f   FarEditorSet.obj
 0001:0000cb00       ?configureHrc@FarEditorSet@@QEAAXXZ 000000018000db00 f   FarEditorSet.obj
 0001:0000ce90       ?remove@?$HashtableCore@PEAVFileTypeImpl@@@@QEAA_NPEBVString@@@Z 000000018000de90 f i HRCParserImpl.obj
 0001:0000ce90       ?remove@?$HashtableCore@PEAVString@@@@QEAA_NPEBVString@@@Z 000000018000de90 f i FarEditorSet.obj
 0001:0000ce90       ?remove@?$HashtableCore@PEAVFarEditor@@@@QEAA_NPEBVString@@@Z 000000018000de90 f i FarEditorSet.obj
 0001:0000ce90       ?remove@?$HashtableCore@PEAVSchemeImpl@@@@QEAA_NPEBVString@@@Z 000000018000de90 f i HRCParserImpl.obj
 0001:0000cf90       ?setParamDefaultValue@FileTypeImpl@@QEAAXAEBVString@@PEBV2@@Z 000000018000df90 f i FarHrcSettings.obj
 0001:0000d110       ?setParamDescription@FileTypeImpl@@QEAAXAEBVString@@PEBV2@@Z 000000018000e110 f i FarHrcSettings.obj
 0001:0000d290       ??0FarHrcSettingsException@@QEAA@AEBVString@@@Z 000000018000e290 f i FarHrcSettings.obj
 0001:0000d3c0       ?readProfile@FarHrcSettings@@QEAAXXZ 000000018000e3c0 f   FarHrcSettings.obj
 0001:0000d5e0       ?readXML@FarHrcSettings@@QEAAXPEAVString@@_N@Z 000000018000e5e0 f   FarHrcSettings.obj
 0001:0000d800       ?UpdatePrototype@FarHrcSettings@@AEAAXPEAVElement@@_N@Z 000000018000e800 f   FarHrcSettings.obj
 0001:0000df60       ?readProfileFromRegistry@FarHrcSettings@@AEAAXPEAUHKEY__@@@Z 000000018000ef60 f   FarHrcSettings.obj
 0001:0000e7f0       ?writeProfileToRegistry@FarHrcSettings@@AEAAXXZ 000000018000f7f0 f   FarHrcSettings.obj
 0001:0000e9e0       DllMain                    000000018000f9e0 f   pcolorer.obj
 0001:0000ed30       SetStartupInfoW            000000018000fd30 f   pcolorer.obj
 0001:0000ed80       GetPluginInfoW             000000018000fd80 f   pcolorer.obj
 0001:0000edf0       ExitFARW                   000000018000fdf0 f   pcolorer.obj
 0001:0000ee20       OpenPluginW                000000018000fe20 f   pcolorer.obj
 0001:0000ef70       ConfigureW                 000000018000ff70 f   pcolorer.obj
 0001:0000f000       ProcessEditorEventW        0000000180010000 f   pcolorer.obj
 0001:0000f060       ProcessEditorInputW        0000000180010060 f   pcolorer.obj
 0001:0000f0a0       ?rGetValueSz@@YAPEA_WPEAUHKEY__@@PEB_W1@Z 00000001800100a0 f   registry_wide.obj
 0001:0000f1c0       ?trim@@YAPEA_WPEA_W@Z      00000001800101c0 f   tools.obj
 0001:0000f240       ?PathToFull@@YAPEA_WPEB_W_N@Z 0000000180010240 f   tools.obj
 0001:0000f590       ?PathToFullS@@YAPEAVSString@@PEB_W_N@Z 0000000180010590 f   tools.obj
 0001:0000f600       adler32                    0000000180010600 f   adler32.obj
 0001:0000f910       crc32                      0000000180010910 f   crc32.obj
 0001:0000fc40       inflate_fast               0000000180010c40 f   inffast.obj
 0001:00010130       inflateReset               0000000180011130 f   inflate.obj
 0001:000101b0       inflateInit2_              00000001800111b0 f   inflate.obj
 0001:000103a0       inflate                    00000001800113a0 f   inflate.obj
 0001:00011a90       inflateEnd                 0000000180012a90 f   inflate.obj
 0001:00011af0       inflate_table              0000000180012af0 f   inftrees.obj
 0001:00011f70       zcalloc                    0000000180012f70 f   zutil.obj
 0001:00011f80       zcfree                     0000000180012f80 f   zutil.obj
 0001:000130d0       unzClose                   00000001800140d0 f   unzip.obj
 0001:000136c0       unzGoToFirstFile           00000001800146c0 f   unzip.obj
 0001:00013730       unzGoToNextFile            0000000180014730 f   unzip.obj
 0001:000137e0       unzLocateFile              00000001800147e0 f   unzip.obj
 0001:00013c30       unzOpenCurrentFile3        0000000180014c30 f   unzip.obj
 0001:00013e10       unzReadCurrentFile         0000000180014e10 f   unzip.obj
 0001:00014120       unzCloseCurrentFile        0000000180015120 f   unzip.obj
 0001:000141e0       ??1ErrorHandler@@UEAA@XZ   00000001800151e0 f i ParserFactory.obj
 0001:000141f0       ?fatalError@DefaultErrorHandler@@UEAAXAEBVString@@@Z 00000001800151f0 f i ParserFactory.obj
 0001:000141f0       ?startParsing@RegionHandler@@UEAAXH@Z 00000001800151f0 f i LineRegionsSupport.obj
 0001:000141f0       ?clearLine@RegionHandler@@UEAAXHPEAVString@@@Z 00000001800151f0 f i LineRegionsSupport.obj
 0001:000141f0       ?serialize@Node@@UEAAXPEAVWriter@@FF@Z 00000001800151f0 f i xmldom.obj
 0001:000141f0       ?endParsing@RegionHandler@@UEAAXH@Z 00000001800151f0 f i LineRegionsCompactSupport.obj
 0001:000141f0       ?warning@DefaultErrorHandler@@UEAAXAEBVString@@@Z 00000001800151f0 f i ParserFactory.obj
 0001:000141f0       ?error@DefaultErrorHandler@@UEAAXAEBVString@@@Z 00000001800151f0 f i ParserFactory.obj
 0001:000141f0       ?startJob@LineSource@@UEAAXH@Z 00000001800151f0 f i FarEditor.obj
 0001:000141f0       ?endJob@LineSource@@UEAAXH@Z 00000001800151f0 f i FarEditor.obj
 0001:00014200       ??_EDefaultErrorHandler@@UEAAPEAXI@Z 0000000180015200 f i  CIL library: CIL module
 0001:00014200       ??_GErrorHandler@@UEAAPEAXI@Z 0000000180015200 f i ParserFactory.obj
 0001:00014200       ??_GDefaultErrorHandler@@UEAAPEAXI@Z 0000000180015200 f i ParserFactory.obj
 0001:00014200       ??_EErrorHandler@@UEAAPEAXI@Z 0000000180015200 f i  CIL library: CIL module
 0001:00014230       ??0ParserFactoryException@@QEAA@AEBVString@@@Z 0000000180015230 f i ParserFactory.obj
 0001:00014360       ?init@ParserFactory@@AEAAXXZ 0000000180015360 f   ParserFactory.obj
 0001:000149f0       ?parseHRDSetsChild@ParserFactory@@QEAAXPEAVNode@@@Z 00000001800159f0 f   ParserFactory.obj
 0001:000153e0       ?searchPath@ParserFactory@@AEAAPEAVString@@XZ 00000001800163e0 f   ParserFactory.obj
 0001:00016570       ??_GParserFactory@@UEAAPEAXI@Z 0000000180017570 f i ParserFactory.obj
 0001:00016570       ??_EParserFactory@@UEAAPEAXI@Z 0000000180017570 f i  CIL library: CIL module
 0001:000165b0       ??0ParserFactory@@QEAA@PEBVString@@@Z 00000001800175b0 f   ParserFactory.obj
 0001:000167a0       ??1ParserFactory@@UEAA@XZ  00000001800177a0 f   ParserFactory.obj
 0001:00016b60       ?enumerateHRDInstances@ParserFactory@@QEAAPEBVString@@AEBV2@H@Z 0000000180017b60 f   ParserFactory.obj
 0001:00016bf0       ?getHRDescription@ParserFactory@@QEAAPEBVString@@AEBV2@0@Z 0000000180017bf0 f   ParserFactory.obj
 0001:00016dc0       ?getHRCParser@ParserFactory@@QEAAPEAVHRCParser@@XZ 0000000180017dc0 f   ParserFactory.obj
 0001:00017d80       ?createStyledMapper@ParserFactory@@QEAAPEAVStyledHRDMapper@@PEBVString@@0@Z 0000000180018d80 f   ParserFactory.obj
 0001:00018350       ??0?$Vector@PEBVString@@@@QEAA@XZ 0000000180019350 f i ParserFactory.obj
 0001:000183a0       ?clear@?$HashtableCore@PEAVFarEditor@@@@QEAAXXZ 00000001800193a0 f i FarEditorSet.obj
 0001:000183a0       ?clear@?$HashtableCore@PEAV?$Vector@PEBVString@@@@@@QEAAXXZ 00000001800193a0 f i ParserFactory.obj
 0001:000183a0       ?clear@?$HashtableCore@PEAVString@@@@QEAAXXZ 00000001800193a0 f i FarHrcSettings.obj
 0001:000183a0       ?clear@?$HashtableCore@PEAV?$Hashtable@PEAV?$Vector@PEBVString@@@@@@@@QEAAXXZ 00000001800193a0 f i ParserFactory.obj
 0001:000183a0       ?clear@?$HashtableCore@PEAVSharedInputSource@@@@QEAAXXZ 00000001800193a0 f i SharedInputSource.obj
 0001:000183a0       ?clear@?$HashtableCore@PEAVRegionDefine@@@@QEAAXXZ 00000001800193a0 f i StyledHRDMapper.obj
 0001:000183a0       ?clear@?$HashtableCore@H@@QEAAXXZ 00000001800193a0 f i HRCParserImpl.obj
 0001:000183a0       ?clear@?$HashtableCore@PEBVString@@@@QEAAXXZ 00000001800193a0 f i FarEditorSet.obj
 0001:000183a0       ?clear@?$HashtableCore@PEBVRegion@@@@QEAAXXZ 00000001800193a0 f i HRCParserImpl.obj
 0001:000183a0       ?clear@?$HashtableCore@PEAVFileTypeImpl@@@@QEAAXXZ 00000001800193a0 f i HRCParserImpl.obj
 0001:000183a0       ?clear@?$HashtableCore@PEAVSchemeImpl@@@@QEAAXXZ 00000001800193a0 f i HRCParserImpl.obj
 0001:00018460       ??1Writer@@UEAA@XZ         0000000180019460 f i ConsoleTools.obj
 0001:00018470       ??_GStreamWriter@@UEAAPEAXI@Z 0000000180019470 f i StreamWriter.obj
 0001:00018470       ??_EWriter@@UEAAPEAXI@Z    0000000180019470 f i  CIL library: CIL module
 0001:00018470       ??_GWriter@@UEAAPEAXI@Z    0000000180019470 f i ConsoleTools.obj
 0001:00018470       ??_EStreamWriter@@UEAAPEAXI@Z 0000000180019470 f i  CIL library: CIL module
 0001:000184a0       ??0?$HashtableCore@PEAV?$Vector@PEBVString@@@@@@QEAA@XZ 00000001800194a0 f i ParserFactory.obj
 0001:000184a0       ??0?$HashtableCore@H@@QEAA@XZ 00000001800194a0 f i HRCParserImpl.obj
 0001:000184a0       ??0?$HashtableCore@PEAVString@@@@QEAA@XZ 00000001800194a0 f i ConsoleTools.obj
 0001:000184a0       ??0?$HashtableCore@PEBVString@@@@QEAA@XZ 00000001800194a0 f i FarEditorSet.obj
 0001:000184a0       ??0?$HashtableCore@PEAVRegionDefine@@@@QEAA@XZ 00000001800194a0 f i StyledHRDMapper.obj
 0001:000184a0       ??0?$HashtableCore@PEAV?$Hashtable@PEAV?$Vector@PEBVString@@@@@@@@QEAA@XZ 00000001800194a0 f i ParserFactory.obj
 0001:000184a0       ??0?$HashtableCore@PEAVFarEditor@@@@QEAA@XZ 00000001800194a0 f i FarEditorSet.obj
 0001:000184a0       ??0?$HashtableCore@PEAVSharedInputSource@@@@QEAA@XZ 00000001800194a0 f i SharedInputSource.obj
 0001:00018520       ?view@TextConsoleViewer@@QEAAXXZ 0000000180019520 f   TextConsoleViewer.obj
 0001:00018f40       ?replaceTabs@TextLinesStore@@AEAAXH@Z 0000000180019f40 f   TextLinesStore.obj
 0001:00019170       ??_GTextLinesStore@@UEAAPEAXI@Z 000000018001a170 f i TextLinesStore.obj
 0001:00019170       ??_ETextLinesStore@@UEAAPEAXI@Z 000000018001a170 f i  CIL library: CIL module
 0001:000191e0       ??1TextLinesStore@@UEAA@XZ 000000018001a1e0 f   TextLinesStore.obj
 0001:00019230       ?freeFile@TextLinesStore@@IEAAXXZ 000000018001a230 f   TextLinesStore.obj
 0001:00019330       ?loadFile@TextLinesStore@@QEAAXPEBVString@@0_N@Z 000000018001a330 f   TextLinesStore.obj
 0001:00019780       ?getLine@TextLinesStore@@UEAAPEAVString@@H@Z 000000018001a780 f   TextLinesStore.obj
 0001:000197e0       ??0ErrorHandlerWriter@@QEAA@PEAVWriter@@@Z 000000018001a7e0 f   ErrorHandlerWriter.obj
 0001:00019980       ??_GErrorHandlerWriter@@UEAAPEAXI@Z 000000018001a980 f i ErrorHandlerWriter.obj
 0001:00019980       ??_EErrorHandlerWriter@@UEAAPEAXI@Z 000000018001a980 f i  CIL library: CIL module
 0001:000199c0       ??1ErrorHandlerWriter@@UEAA@XZ 000000018001a9c0 f   ErrorHandlerWriter.obj
 0001:00019b50       ?error@ErrorHandlerWriter@@UEAAXAEBVString@@@Z 000000018001ab50 f   ErrorHandlerWriter.obj
 0001:00019d50       ?fatalError@ErrorHandlerWriter@@UEAAXAEBVString@@@Z 000000018001ad50 f   ErrorHandlerWriter.obj
 0001:00019f50       ?warning@ErrorHandlerWriter@@UEAAXAEBVString@@@Z 000000018001af50 f   ErrorHandlerWriter.obj
 0001:0001a150       ??0FileErrorHandler@@QEAA@PEBVString@@H_N@Z 000000018001b150 f   FileErrorHandler.obj
 0001:0001a290       ??_GFileErrorHandler@@UEAAPEAXI@Z 000000018001b290 f i FileErrorHandler.obj
 0001:0001a290       ??_EFileErrorHandler@@UEAAPEAXI@Z 000000018001b290 f i  CIL library: CIL module
 0001:0001a320       ?error@FileErrorHandler@@UEAAXAEBVString@@@Z 000000018001b320 f   FileErrorHandler.obj
 0001:0001a340       ?fatalError@FileErrorHandler@@UEAAXAEBVString@@@Z 000000018001b340 f   FileErrorHandler.obj
 0001:0001a370       ?warning@FileErrorHandler@@UEAAXAEBVString@@@Z 000000018001b370 f   FileErrorHandler.obj
 0001:0001a3a0       ??_ELineRegionsCompactSupport@@UEAAPEAXI@Z 000000018001b3a0 f i  CIL library: CIL module
 0001:0001a3a0       ??_GLineRegionsCompactSupport@@UEAAPEAXI@Z 000000018001b3a0 f i LineRegionsCompactSupport.obj
 0001:0001a3e0       ?addLineRegion@LineRegionsCompactSupport@@MEAAXHPEAVLineRegion@@@Z 000000018001b3e0 f   LineRegionsCompactSupport.obj
 0001:0001a790       ??1RegionHandler@@MEAA@XZ  000000018001b790 f i LineRegionsSupport.obj
 0001:0001a7a0       ??_GRegionHandler@@MEAAPEAXI@Z 000000018001b7a0 f i LineRegionsSupport.obj
 0001:0001a7a0       ??_ERegionHandler@@MEAAPEAXI@Z 000000018001b7a0 f i  CIL library: CIL module
 0001:0001a7d0       ??0LineRegionsSupport@@QEAA@XZ 000000018001b7d0 f   LineRegionsSupport.obj
 0001:0001a8b0       ??_ELineRegionsSupport@@UEAAPEAXI@Z 000000018001b8b0 f i  CIL library: CIL module
 0001:0001a8b0       ??_GLineRegionsSupport@@UEAAPEAXI@Z 000000018001b8b0 f i LineRegionsSupport.obj
 0001:0001a8f0       ??1LineRegionsSupport@@UEAA@XZ 000000018001b8f0 f   LineRegionsSupport.obj
 0001:0001aa30       ?clear@LineRegionsSupport@@QEAAXXZ 000000018001ba30 f   LineRegionsSupport.obj
 0001:0001ab10       ?getLineRegions@LineRegionsSupport@@QEBAPEAVLineRegion@@H@Z 000000018001bb10 f   LineRegionsSupport.obj
 0001:0001aba0       ?startParsing@LineRegionsSupport@@UEAAXH@Z 000000018001bba0 f   LineRegionsSupport.obj
 0001:0001aca0       ?clearLine@LineRegionsSupport@@UEAAXHPEAVString@@@Z 000000018001bca0 f   LineRegionsSupport.obj
 0001:0001ae20       ?addRegion@LineRegionsSupport@@UEAAXHPEAVString@@HHPEBVRegion@@@Z 000000018001be20 f   LineRegionsSupport.obj
 0001:0001af60       ?enterScheme@LineRegionsSupport@@UEAAXHPEAVString@@HHPEBVRegion@@PEBVScheme@@@Z 000000018001bf60 f   LineRegionsSupport.obj
 0001:0001b0d0       ?leaveScheme@LineRegionsSupport@@UEAAXHPEAVString@@HHPEBVRegion@@PEBVScheme@@@Z 000000018001c0d0 f   LineRegionsSupport.obj
 0001:0001b1e0       ?addLineRegion@LineRegionsSupport@@MEAAXHPEAVLineRegion@@@Z 000000018001c1e0 f   LineRegionsSupport.obj
 0001:0001b2a0       ?lastElement@?$Vector@PEAVOutlineItem@@@@QEBAPEAVOutlineItem@@XZ 000000018001c2a0 f i Outliner.obj
 0001:0001b2a0       ?lastElement@?$Vector@PEAVLineRegion@@@@QEBAPEAVLineRegion@@XZ 000000018001c2a0 f i LineRegionsSupport.obj
 0001:0001b340       ?getRegionDefine@RegionMapperImpl@@UEBAPEBVRegionDefine@@PEBVRegion@@@Z 000000018001c340 f   RegionMapperImpl.obj
 0001:0001b4a0       ?getRegionDefine@RegionMapperImpl@@UEBAPEBVRegionDefine@@AEBVString@@@Z 000000018001c4a0 f   RegionMapperImpl.obj
 0001:0001b4b0       ?get@?$Hashtable@PEAVSchemeImpl@@@@QEBAPEAVSchemeImpl@@PEBVString@@@Z 000000018001c4b0 f i HRCParserImpl.obj
 0001:0001b4b0       ?get@?$Hashtable@PEAVRegionDefine@@@@QEBAPEAVRegionDefine@@PEBVString@@@Z 000000018001c4b0 f i RegionMapperImpl.obj
 0001:0001b4b0       ?get@?$Hashtable@PEBVString@@@@QEBAPEBVString@@PEBV2@@Z 000000018001c4b0 f i FarHrcSettings.obj
 0001:0001b4b0       ?get@?$Hashtable@PEBVRegion@@@@QEBAPEBVRegion@@PEBVString@@@Z 000000018001c4b0 f i HRCParserImpl.obj
 0001:0001b4b0       ?get@?$Hashtable@PEAV?$Vector@PEBVString@@@@@@QEBAPEAV?$Vector@PEBVString@@@@PEBVString@@@Z 000000018001c4b0 f i ParserFactory.obj
 0001:0001b4b0       ?get@?$Hashtable@PEAVFileTypeImpl@@@@QEBAPEAVFileTypeImpl@@PEBVString@@@Z 000000018001c4b0 f i HRCParserImpl.obj
 0001:0001b4b0       ?get@?$Hashtable@PEAV?$Hashtable@PEAV?$Vector@PEBVString@@@@@@@@QEBAPEAV?$Hashtable@PEAV?$Vector@PEBVString@@@@@@PEBVString@@@Z 000000018001c4b0 f i ParserFactory.obj
 0001:0001b4b0       ?get@?$Hashtable@PEAVString@@@@QEBAPEAVString@@PEBV2@@Z 000000018001c4b0 f i FarEditorSet.obj
 0001:0001b4b0       ?get@?$Hashtable@PEAVFarEditor@@@@QEBAPEAVFarEditor@@PEBVString@@@Z 000000018001c4b0 f i FarEditorSet.obj
 0001:0001b560       ?setElementAt@?$Vector@PEBVRegionDefine@@@@QEAAXQEBVRegionDefine@@H@Z 000000018001c560 f i RegionMapperImpl.obj
 0001:0001b5c0       ?ensureCapacity@?$Vector@PEAVString@@@@QEAAXH@Z 000000018001c5c0 f i TextLinesStore.obj
 0001:0001b5c0       ?ensureCapacity@?$Vector@PEBVRegionDefine@@@@QEAAXH@Z 000000018001c5c0 f i RegionMapperImpl.obj
 0001:0001b5c0       ?ensureCapacity@?$Vector@PEAVLineRegion@@@@QEAAXH@Z 000000018001c5c0 f i LineRegionsSupport.obj
 0001:0001b5c0       ?ensureCapacity@?$Vector@PEAVOutlineItem@@@@QEAAXH@Z 000000018001c5c0 f i Outliner.obj
 0001:0001b660       ??4RegionDefine@@UEAAAEAV0@AEBV0@@Z 000000018001c660 f i StyledHRDMapper.obj
 0001:0001b680       ??1RegionDefine@@UEAA@XZ   000000018001c680 f i StyledHRDMapper.obj
 0001:0001b690       ??1Scheme@@MEAA@XZ         000000018001c690 f i HRCParserImpl.obj
 0001:0001b690       ??1RegionMapper@@UEAA@XZ   000000018001c690 f i StyledHRDMapper.obj
 0001:0001b6a0       ??_EScheme@@MEAAPEAXI@Z    000000018001c6a0 f i  CIL library: CIL module
 0001:0001b6a0       ??_GRegionMapper@@UEAAPEAXI@Z 000000018001c6a0 f i StyledHRDMapper.obj
 0001:0001b6a0       ??_ERegionMapper@@UEAAPEAXI@Z 000000018001c6a0 f i  CIL library: CIL module
 0001:0001b6a0       ??_GScheme@@MEAAPEAXI@Z    000000018001c6a0 f i HRCParserImpl.obj
 0001:0001b6d0       ??0RegionMapperImpl@@QEAA@XZ 000000018001c6d0 f i StyledHRDMapper.obj
 0001:0001b760       ??1RegionMapperImpl@@UEAA@XZ 000000018001c760 f i StyledHRDMapper.obj
 0001:0001b7d0       ??_GRegionMapperImpl@@UEAAPEAXI@Z 000000018001c7d0 f i StyledHRDMapper.obj
 0001:0001b7d0       ??_ERegionMapperImpl@@UEAAPEAXI@Z 000000018001c7d0 f i  CIL library: CIL module
 0001:0001b810       ?assignParent@StyledRegion@@UEAAXPEBVRegionDefine@@@Z 000000018001c810 f i StyledHRDMapper.obj
 0001:0001b860       ?setValues@StyledRegion@@UEAAXPEBVRegionDefine@@@Z 000000018001c860 f i StyledHRDMapper.obj
 0001:0001b8a0       ?clone@StyledRegion@@UEBAPEAVRegionDefine@@XZ 000000018001c8a0 f i StyledHRDMapper.obj
 0001:0001b930       ??_ERegionDefine@@UEAAPEAXI@Z 000000018001c930 f i  CIL library: CIL module
 0001:0001b930       ??_EStyledRegion@@UEAAPEAXI@Z 000000018001c930 f i  CIL library: CIL module
 0001:0001b930       ??_GStyledRegion@@UEAAPEAXI@Z 000000018001c930 f i StyledHRDMapper.obj
 0001:0001b930       ??_GRegionDefine@@UEAAPEAXI@Z 000000018001c930 f i StyledHRDMapper.obj
 0001:0001b960       ??_EStyledHRDMapper@@UEAAPEAXI@Z 000000018001c960 f i  CIL library: CIL module
 0001:0001b960       ??_GStyledHRDMapper@@UEAAPEAXI@Z 000000018001c960 f i StyledHRDMapper.obj
 0001:0001b9a0       ??1StyledHRDMapper@@UEAA@XZ 000000018001c9a0 f   StyledHRDMapper.obj
 0001:0001baa0       ?loadRegionMappings@StyledHRDMapper@@UEAAXPEAVInputSource@@@Z 000000018001caa0 f   StyledHRDMapper.obj
 0001:0001c070       ?saveRegionMappings@StyledHRDMapper@@UEBAXPEAVWriter@@@Z 000000018001d070 f   StyledHRDMapper.obj
 0001:0001c5e0       ?setRegionDefine@StyledHRDMapper@@UEAAXAEBVString@@PEBVRegionDefine@@@Z 000000018001d5e0 f   StyledHRDMapper.obj
 0001:0001c770       ?nextkey@?$HashtableCore@PEAVRegionDefine@@@@QEBAPEAVString@@XZ 000000018001d770 f i StyledHRDMapper.obj
 0001:0001c8c0       ??1PairMatch@@UEAA@XZ      000000018001d8c0 f i BaseEditor.obj
 0001:0001c940       ?setStart@PairMatch@@QEAAXPEAVLineRegion@@@Z 000000018001d940 f i BaseEditor.obj
 0001:0001ca10       ?setEnd@PairMatch@@QEAAXPEAVLineRegion@@@Z 000000018001da10 f i BaseEditor.obj
 0001:0001cae0       ??_GPairMatch@@UEAAPEAXI@Z 000000018001dae0 f i BaseEditor.obj
 0001:0001cae0       ??_EPairMatch@@UEAAPEAXI@Z 000000018001dae0 f i  CIL library: CIL module
 0001:0001cb20       ??0BaseEditor@@QEAA@PEAVParserFactory@@PEAVLineSource@@@Z 000000018001db20 f   BaseEditor.obj
 0001:0001cfe0       ??_GBaseEditor@@UEAAPEAXI@Z 000000018001dfe0 f i BaseEditor.obj
 0001:0001cfe0       ??_EBaseEditor@@UEAAPEAXI@Z 000000018001dfe0 f i  CIL library: CIL module
 0001:0001d020       ??1BaseEditor@@UEAA@XZ     000000018001e020 f   BaseEditor.obj
 0001:0001d0e0       ?remapLRS@BaseEditor@@AEAAX_N@Z 000000018001e0e0 f   BaseEditor.obj
 0001:0001d3c0       ?chooseFileTypeCh@BaseEditor@@AEAAPEAVFileType@@PEBVString@@HH@Z 000000018001e3c0 f   BaseEditor.obj
 0001:0001d710       ?chooseFileType@BaseEditor@@QEAAPEAVFileType@@PEBVString@@@Z 000000018001e710 f   BaseEditor.obj
 0001:0001d990       ?getPairMatch@BaseEditor@@AEAAPEAVPairMatch@@HH@Z 000000018001e990 f   BaseEditor.obj
 0001:0001db30       ?searchLocalPair@BaseEditor@@QEAAPEAVPairMatch@@HH@Z 000000018001eb30 f   BaseEditor.obj
 0001:0001ddc0       ?searchGlobalPair@BaseEditor@@QEAAPEAVPairMatch@@HH@Z 000000018001edc0 f   BaseEditor.obj
 0001:0001e020       ?modifyEvent@BaseEditor@@QEAAXH@Z 000000018001f020 f   BaseEditor.obj
 0001:0001e0d0       ?validate@BaseEditor@@QEAAXH_N@Z 000000018001f0d0 f   BaseEditor.obj
 0001:0001e270       ?startParsing@BaseEditor@@UEAAXH@Z 000000018001f270 f   BaseEditor.obj
 0001:0001e320       ?endParsing@BaseEditor@@UEAAXH@Z 000000018001f320 f   BaseEditor.obj
 0001:0001e3e0       ?clearLine@BaseEditor@@UEAAXHPEAVString@@@Z 000000018001f3e0 f   BaseEditor.obj
 0001:0001e4a0       ?addRegion@BaseEditor@@UEAAXHPEAVString@@HHPEBVRegion@@@Z 000000018001f4a0 f   BaseEditor.obj
 0001:0001e590       ?enterScheme@BaseEditor@@UEAAXHPEAVString@@HHPEBVRegion@@PEBVScheme@@@Z 000000018001f590 f   BaseEditor.obj
 0001:0001e6a0       ?leaveScheme@BaseEditor@@UEAAXHPEAVString@@HHPEBVRegion@@PEBVScheme@@@Z 000000018001f6a0 f   BaseEditor.obj
 0001:0001e7b0       ?removeElement@?$Vector@PEAVRegionHandler@@@@QEAA_NQEAVRegionHandler@@@Z 000000018001f7b0 f i BaseEditor.obj
 0001:0001e7b0       ?removeElement@?$Vector@PEAVFileTypeImpl@@@@QEAA_NQEAVFileTypeImpl@@@Z 000000018001f7b0 f i HRCParserImpl.obj
 0001:0001e7b0       ?removeElement@?$Vector@PEAVEditorListener@@@@QEAA_NQEAVEditorListener@@@Z 000000018001f7b0 f i BaseEditor.obj
 0001:0001e860       ??0OutlineItem@@QEAA@HHHPEAVString@@PEBVRegion@@@Z 000000018001f860 f i Outliner.obj
 0001:0001ea00       ??0Outliner@@QEAA@PEAVBaseEditor@@PEBVRegion@@@Z 000000018001fa00 f   Outliner.obj
 0001:0001ead0       ??_GOutliner@@UEAAPEAXI@Z  000000018001fad0 f i Outliner.obj
 0001:0001ead0       ??_EOutliner@@UEAAPEAXI@Z  000000018001fad0 f i  CIL library: CIL module
 0001:0001eb10       ??1Outliner@@UEAA@XZ       000000018001fb10 f   Outliner.obj
 0001:0001ec20       ?getItem@Outliner@@QEAAPEAVOutlineItem@@H@Z 000000018001fc20 f   Outliner.obj
 0001:0001ec80       ?manageTree@Outliner@@SAHAEAV?$Vector@H@@H@Z 000000018001fc80 f   Outliner.obj
 0001:0001ede0       ?modifyEvent@Outliner@@UEAAXH@Z 000000018001fde0 f   Outliner.obj
 0001:0001eec0       ?startParsing@Outliner@@UEAAXH@Z 000000018001fec0 f   Outliner.obj
 0001:0001eed0       ?endParsing@Outliner@@UEAAXH@Z 000000018001fed0 f   Outliner.obj
 0001:0001eef0       ?addRegion@Outliner@@UEAAXHPEAVString@@HHPEBVRegion@@@Z 000000018001fef0 f   Outliner.obj
 0001:0001f050       ?enterScheme@Outliner@@UEAAXHPEAVString@@HHPEBVRegion@@PEBVScheme@@@Z 0000000180020050 f   Outliner.obj
 0001:0001f060       ?leaveScheme@Outliner@@UEAAXHPEAVString@@HHPEBVRegion@@PEBVScheme@@@Z 0000000180020060 f   Outliner.obj
 0001:0001f070       ?setSize@?$Vector@PEBVRegionDefine@@@@QEAAXH@Z 0000000180020070 f i RegionMapperImpl.obj
 0001:0001f070       ?setSize@?$Vector@PEAVLineRegion@@@@QEAAXH@Z 0000000180020070 f i LineRegionsSupport.obj
 0001:0001f070       ?setSize@?$Vector@PEAVOutlineItem@@@@QEAAXH@Z 0000000180020070 f i Outliner.obj
 0001:0001f140       ?lastElement@?$Vector@H@@QEBAHXZ 0000000180020140 f i Outliner.obj
 0001:0001f1e0       ?insertElementAt@?$Vector@H@@QEAAXHH@Z 00000001800201e0 f i Outliner.obj
 0001:0001f340       ?getName@Region@@UEBAPEBVString@@XZ 0000000180020340 f i HRCParserImpl.obj
 0001:0001f340       ?getName@SchemeImpl@@UEBAPEBVString@@XZ 0000000180020340 f i HRCParserImpl.obj
 0001:0001f340       ?getLocation@JARInputSource@@UEBAPEBVString@@XZ 0000000180020340 f i JARInputSource.obj
 0001:0001f340       ?getLocation@FileInputSource@@UEBAPEBVString@@XZ 0000000180020340 f i FileInputSource.obj
 0001:0001f340       ?getMessage@Exception@@UEBAPEBVString@@XZ 0000000180020340 f i Exception.obj
 0001:0001f340       ?getLocation@HTTPInputSource@@UEBAPEBVString@@XZ 0000000180020340 f i HTTPInputSource.obj
 0001:0001f350       ?getParent@Region@@UEBAPEBV1@XZ 0000000180020350 f i HRCParserImpl.obj
 0001:0001f350       ?getGroup@FileTypeImpl@@UEAAPEBVString@@XZ 0000000180020350 f i HRCParserImpl.obj
 0001:0001f360       ?getID@Region@@UEBAHXZ     0000000180020360 f i HRCParserImpl.obj
 0001:0001f360       ?length@SString@@UEBAHXZ   0000000180020360 f i SString.obj
 0001:0001f370       ??0Region@@QEAA@PEBVString@@0PEBV0@H@Z 0000000180020370 f i HRCParserImpl.obj
 0001:0001f620       ??_ERegion@@UEAAPEAXI@Z    0000000180020620 f i  CIL library: CIL module
 0001:0001f620       ??_GRegion@@UEAAPEAXI@Z    0000000180020620 f i HRCParserImpl.obj
 0001:0001f690       ??1HRCParser@@UEAA@XZ      0000000180020690 f i HRCParserImpl.obj
 0001:0001f690       ??1FileType@@MEAA@XZ       0000000180020690 f i HRCParserImpl.obj
 0001:0001f6a0       ??_EFileType@@MEAAPEAXI@Z  00000001800206a0 f i  CIL library: CIL module
 0001:0001f6a0       ??_EHRCParser@@UEAAPEAXI@Z 00000001800206a0 f i  CIL library: CIL module
 0001:0001f6a0       ??_GHRCParser@@UEAAPEAXI@Z 00000001800206a0 f i HRCParserImpl.obj
 0001:0001f6a0       ??_GFileType@@MEAAPEAXI@Z  00000001800206a0 f i HRCParserImpl.obj
 0001:0001f6d0       ??0VirtualEntry@@QEAA@PEBVString@@0@Z 00000001800206d0 f i HRCParserImpl.obj
 0001:0001f950       ?getFileType@SchemeImpl@@UEBAPEAVFileType@@XZ 0000000180020950 f i HRCParserImpl.obj
 0001:0001f960       ??0SchemeImpl@@IEAA@PEBVString@@@Z 0000000180020960 f i HRCParserImpl.obj
 0001:0001fb10       ??1SchemeImpl@@MEAA@XZ     0000000180020b10 f i HRCParserImpl.obj
 0001:0001fc00       ??_GSchemeImpl@@MEAAPEAXI@Z 0000000180020c00 f i HRCParserImpl.obj
 0001:0001fc00       ??_ESchemeImpl@@MEAAPEAXI@Z 0000000180020c00 f i  CIL library: CIL module
 0001:0001fc40       ??0HRCParserException@@QEAA@AEBVString@@@Z 0000000180020c40 f i HRCParserImpl.obj
 0001:0001fd70       ?getName@FileTypeImpl@@UEAAPEBVString@@XZ 0000000180020d70 f i HRCParserImpl.obj
 0001:0001fd70       ?getDescription@Region@@UEBAPEBVString@@XZ 0000000180020d70 f i HRCParserImpl.obj
 0001:0001fd80       ?getDescription@FileTypeImpl@@UEAAPEBVString@@XZ 0000000180020d80 f i HRCParserImpl.obj
 0001:0001fd90       ?getBaseScheme@FileTypeImpl@@UEAAPEAVScheme@@XZ 0000000180020d90 f i HRCParserImpl.obj
 0001:0001fdc0       ?enumerateParameters@FileTypeImpl@@UEAAPEBVString@@H@Z 0000000180020dc0 f i HRCParserImpl.obj
 0001:0001fe20       ?getParameterDescription@FileTypeImpl@@UEAAPEBVString@@AEBV2@@Z 0000000180020e20 f i HRCParserImpl.obj
 0001:0001fe30       ?getParamValue@FileTypeImpl@@UEAAPEBVString@@AEBV2@@Z 0000000180020e30 f i HRCParserImpl.obj
 0001:0001fe70       ?getParamValueInt@FileTypeImpl@@UEAAHAEBVString@@H@Z 0000000180020e70 f i HRCParserImpl.obj
 0001:0001feb0       ?getParamDefaultValue@FileTypeImpl@@UEAAPEBVString@@AEBV2@@Z 0000000180020eb0 f i HRCParserImpl.obj
 0001:0001fec0       ?setParamValue@FileTypeImpl@@UEAAXAEBVString@@PEBV2@@Z 0000000180020ec0 f i HRCParserImpl.obj
 0001:00020040       ?getPriority@FileTypeImpl@@QEBANPEBVString@@0@Z 0000000180021040 f i HRCParserImpl.obj
 0001:000201a0       ??0FileTypeImpl@@IEAA@PEAVHRCParserImpl@@@Z 00000001800211a0 f i HRCParserImpl.obj
 0001:00020300       ??1FileTypeImpl@@MEAA@XZ   0000000180021300 f i HRCParserImpl.obj
 0001:00020770       ??_EFileTypeImpl@@MEAAPEAXI@Z 0000000180021770 f i  CIL library: CIL module
 0001:00020770       ??_GFileTypeImpl@@MEAAPEAXI@Z 0000000180021770 f i HRCParserImpl.obj
 0001:000207b0       ??0HRCParserImpl@@QEAA@XZ  00000001800217b0 f   HRCParserImpl.obj
 0001:00020940       ??_EHRCParserImpl@@UEAAPEAXI@Z 0000000180021940 f i  CIL library: CIL module
 0001:00020940       ??_GHRCParserImpl@@UEAAPEAXI@Z 0000000180021940 f i HRCParserImpl.obj
 0001:00020980       ??1HRCParserImpl@@UEAA@XZ  0000000180021980 f   HRCParserImpl.obj
 0001:00020d30       ?setErrorHandler@HRCParserImpl@@UEAAXPEAVErrorHandler@@@Z 0000000180021d30 f   HRCParserImpl.obj
 0001:00020d40       ?loadSource@HRCParserImpl@@UEAAXPEAVInputSource@@@Z 0000000180021d40 f   HRCParserImpl.obj
 0001:00020e20       ?unloadFileType@HRCParserImpl@@IEAAXPEAVFileTypeImpl@@@Z 0000000180021e20 f   HRCParserImpl.obj
 0001:00020f30       ?loadFileType@HRCParserImpl@@IEAAXPEAVFileType@@@Z 0000000180021f30 f   HRCParserImpl.obj
 0001:00020f80       ?chooseFileType@HRCParserImpl@@UEAAPEAVFileType@@PEBVString@@0H@Z 0000000180021f80 f   HRCParserImpl.obj
 0001:000210b0       ?getFileType@HRCParserImpl@@UEAAPEAVFileType@@PEBVString@@@Z 00000001800220b0 f   HRCParserImpl.obj
 0001:000210d0       ?enumerateFileTypes@HRCParserImpl@@UEAAPEAVFileType@@H@Z 00000001800220d0 f   HRCParserImpl.obj
 0001:00021130       ?getFileTypesCount@HRCParserImpl@@UEAAHXZ 0000000180022130 f   HRCParserImpl.obj
 0001:00021140       ?getRegionCount@HRCParserImpl@@UEAAHXZ 0000000180022140 f   HRCParserImpl.obj
 0001:00021150       ?getRegion@HRCParserImpl@@UEAAPEBVRegion@@H@Z 0000000180022150 f   HRCParserImpl.obj
 0001:00021190       ?getRegion@HRCParserImpl@@UEAAPEBVRegion@@PEBVString@@@Z 0000000180022190 f   HRCParserImpl.obj
 0001:000211a0       ?getVersion@HRCParserImpl@@UEAAPEBVString@@XZ 00000001800221a0 f   HRCParserImpl.obj
 0001:000211b0       ?parseHRC@HRCParserImpl@@IEAAXPEAVInputSource@@@Z 00000001800221b0 f   HRCParserImpl.obj
 0001:00021510       ?addPrototype@HRCParserImpl@@IEAAXPEAVElement@@@Z 0000000180022510 f   HRCParserImpl.obj
 0001:00022860       ?addType@HRCParserImpl@@IEAAXPEAVElement@@@Z 0000000180023860 f   HRCParserImpl.obj
 0001:00023680       ?addScheme@HRCParserImpl@@IEAAXPEAVElement@@@Z 0000000180024680 f   HRCParserImpl.obj
 0001:00023c50       ?addSchemeNodes@HRCParserImpl@@IEAAXPEAVSchemeImpl@@PEAVNode@@@Z 0000000180024c50 f   HRCParserImpl.obj
 0001:00025e60       ?loadRegions@HRCParserImpl@@IEAAXPEAVSchemeNode@@PEAVElement@@_N@Z 0000000180026e60 f   HRCParserImpl.obj
 0001:00026170       ?loadBlockRegions@HRCParserImpl@@IEAAXPEAVSchemeNode@@PEAVElement@@@Z 0000000180027170 f   HRCParserImpl.obj
 0001:00026410       ?updateLinks@HRCParserImpl@@IEAAXXZ 0000000180027410 f   HRCParserImpl.obj
 0001:000269e0       ?qualifyOwnName@HRCParserImpl@@IEAAPEAVString@@PEBV2@@Z 00000001800279e0 f   HRCParserImpl.obj
 0001:00026e50       ?checkNameExist@HRCParserImpl@@IEAA_NPEBVString@@PEAVFileTypeImpl@@W4QualifyNameType@1@_N@Z 0000000180027e50 f   HRCParserImpl.obj
 0001:000270f0       ?qualifyForeignName@HRCParserImpl@@IEAAPEAVString@@PEBV2@W4QualifyNameType@1@_N@Z 00000001800280f0 f   HRCParserImpl.obj
 0001:000278c0       ?useEntities@HRCParserImpl@@IEAAPEAVString@@PEBV2@@Z 00000001800288c0 f   HRCParserImpl.obj
 0001:00027bd0       ?getNCRegion@HRCParserImpl@@IEAAPEBVRegion@@PEBVString@@_N@Z 0000000180028bd0 f   HRCParserImpl.obj
 0001:00027d30       ?get@?$Hashtable@H@@QEBAHPEBVString@@@Z 0000000180028d30 f i HRCParserImpl.obj
 0001:00027de0       ??1?$Hashtable@PEAVString@@@@UEAA@XZ 0000000180028de0 f i ConsoleTools.obj
 0001:00027de0       ??1?$Hashtable@PEBVString@@@@UEAA@XZ 0000000180028de0 f i FarEditorSet.obj
 0001:00027de0       ??1?$Hashtable@PEAVRegionDefine@@@@UEAA@XZ 0000000180028de0 f i StyledHRDMapper.obj
 0001:00027de0       ??1?$Hashtable@PEAV?$Hashtable@PEAV?$Vector@PEBVString@@@@@@@@UEAA@XZ 0000000180028de0 f i ParserFactory.obj
 0001:00027de0       ??1?$Hashtable@PEAVFarEditor@@@@UEAA@XZ 0000000180028de0 f i FarEditorSet.obj
 0001:00027de0       ??1?$Hashtable@PEAVSchemeImpl@@@@UEAA@XZ 0000000180028de0 f i HRCParserImpl.obj
 0001:00027de0       ??1?$Hashtable@PEAVFileTypeImpl@@@@UEAA@XZ 0000000180028de0 f i HRCParserImpl.obj
 0001:00027de0       ??1?$Hashtable@H@@UEAA@XZ  0000000180028de0 f i HRCParserImpl.obj
 0001:00027de0       ??1?$Hashtable@PEBVRegion@@@@UEAA@XZ 0000000180028de0 f i HRCParserImpl.obj
 0001:00027e10       ??_G?$Hashtable@PEAV?$Vector@PEBVString@@@@@@UEAAPEAXI@Z 0000000180028e10 f i ParserFactory.obj
 0001:00027e10       ??_E?$Hashtable@PEAVString@@@@UEAAPEAXI@Z 0000000180028e10 f i  CIL library: CIL module
 0001:00027e10       ??_G?$Hashtable@PEAV?$Hashtable@PEAV?$Vector@PEBVString@@@@@@@@UEAAPEAXI@Z 0000000180028e10 f i ParserFactory.obj
 0001:00027e10       ??_G?$HashtableCore@PEAVSharedInputSource@@@@UEAAPEAXI@Z 0000000180028e10 f i SharedInputSource.obj
 0001:00027e10       ??_E?$HashtableCore@PEAVFarEditor@@@@UEAAPEAXI@Z 0000000180028e10 f i  CIL library: CIL module
 0001:00027e10       ??_G?$HashtableCore@PEBVRegion@@@@UEAAPEAXI@Z 0000000180028e10 f i HRCParserImpl.obj
 0001:00027e10       ??_G?$Hashtable@PEAVFileTypeImpl@@@@UEAAPEAXI@Z 0000000180028e10 f i HRCParserImpl.obj
 0001:00027e10       ??_E?$HashtableCore@PEAVFileTypeImpl@@@@UEAAPEAXI@Z 0000000180028e10 f i  CIL library: CIL module
 0001:00027e10       ??_E?$Hashtable@PEBVRegion@@@@UEAAPEAXI@Z 0000000180028e10 f i  CIL library: CIL module
 0001:00027e10       ??_E?$Hashtable@PEAVRegionDefine@@@@UEAAPEAXI@Z 0000000180028e10 f i  CIL library: CIL module
 0001:00027e10       ??_E?$HashtableCore@PEAVRegionDefine@@@@UEAAPEAXI@Z 0000000180028e10 f i  CIL library: CIL module
 0001:00027e10       ??_E?$HashtableCore@H@@UEAAPEAXI@Z 0000000180028e10 f i  CIL library: CIL module
 0001:00027e10       ??_E?$HashtableCore@PEAVSchemeImpl@@@@UEAAPEAXI@Z 0000000180028e10 f i  CIL library: CIL module
 0001:00027e10       ??_E?$Hashtable@PEAVSharedInputSource@@@@UEAAPEAXI@Z 0000000180028e10 f i  CIL library: CIL module
 0001:00027e10       ??_G?$Hashtable@PEBVRegion@@@@UEAAPEAXI@Z 0000000180028e10 f i HRCParserImpl.obj
 0001:00027e10       ??_E?$Hashtable@PEAV?$Hashtable@PEAV?$Vector@PEBVString@@@@@@@@UEAAPEAXI@Z 0000000180028e10 f i  CIL library: CIL module
 0001:00027e10       ??_E?$Hashtable@PEAVSchemeImpl@@@@UEAAPEAXI@Z 0000000180028e10 f i  CIL library: CIL module
 0001:00027e10       ??_G?$HashtableCore@PEAVSchemeImpl@@@@UEAAPEAXI@Z 0000000180028e10 f i HRCParserImpl.obj
 0001:00027e10       ??_E?$Hashtable@PEBVString@@@@UEAAPEAXI@Z 0000000180028e10 f i  CIL library: CIL module
 0001:00027e10       ??_E?$HashtableCore@PEAVString@@@@UEAAPEAXI@Z 0000000180028e10 f i  CIL library: CIL module
 0001:00027e10       ??_E?$Hashtable@PEAVFileTypeImpl@@@@UEAAPEAXI@Z 0000000180028e10 f i  CIL library: CIL module
 0001:00027e10       ??_G?$Hashtable@H@@UEAAPEAXI@Z 0000000180028e10 f i HRCParserImpl.obj
 0001:00027e10       ??_E?$Hashtable@PEAVFarEditor@@@@UEAAPEAXI@Z 0000000180028e10 f i  CIL library: CIL module
 0001:00027e10       ??_G?$Hashtable@PEAVRegionDefine@@@@UEAAPEAXI@Z 0000000180028e10 f i StyledHRDMapper.obj
 0001:00027e10       ??_G?$HashtableCore@PEAVRegionDefine@@@@UEAAPEAXI@Z 0000000180028e10 f i StyledHRDMapper.obj
 0001:00027e10       ??_G?$HashtableCore@H@@UEAAPEAXI@Z 0000000180028e10 f i HRCParserImpl.obj
 0001:00027e10       ??_E?$HashtableCore@PEAVSharedInputSource@@@@UEAAPEAXI@Z 0000000180028e10 f i  CIL library: CIL module
 0001:00027e10       ??_G?$HashtableCore@PEAVFarEditor@@@@UEAAPEAXI@Z 0000000180028e10 f i FarEditorSet.obj
 0001:00027e10       ??_E?$HashtableCore@PEAV?$Hashtable@PEAV?$Vector@PEBVString@@@@@@@@UEAAPEAXI@Z 0000000180028e10 f i  CIL library: CIL module
 0001:00027e10       ??_G?$Hashtable@PEAVSchemeImpl@@@@UEAAPEAXI@Z 0000000180028e10 f i HRCParserImpl.obj
 0001:00027e10       ??_G?$HashtableCore@PEBVString@@@@UEAAPEAXI@Z 0000000180028e10 f i FarEditorSet.obj
 0001:00027e10       ??_E?$Hashtable@H@@UEAAPEAXI@Z 0000000180028e10 f i  CIL library: CIL module
 0001:00027e10       ??_G?$HashtableCore@PEAV?$Hashtable@PEAV?$Vector@PEBVString@@@@@@@@UEAAPEAXI@Z 0000000180028e10 f i ParserFactory.obj
 0001:00027e10       ??_G?$Hashtable@PEAVString@@@@UEAAPEAXI@Z 0000000180028e10 f i ConsoleTools.obj
 0001:00027e10       ??_G?$Hashtable@PEAVSharedInputSource@@@@UEAAPEAXI@Z 0000000180028e10 f i SharedInputSource.obj
 0001:00027e10       ??_E?$HashtableCore@PEBVRegion@@@@UEAAPEAXI@Z 0000000180028e10 f i  CIL library: CIL module
 0001:00027e10       ??_E?$HashtableCore@PEBVString@@@@UEAAPEAXI@Z 0000000180028e10 f i  CIL library: CIL module
 0001:00027e10       ??_G?$HashtableCore@PEAVFileTypeImpl@@@@UEAAPEAXI@Z 0000000180028e10 f i HRCParserImpl.obj
 0001:00027e10       ??_E?$HashtableCore@PEAV?$Vector@PEBVString@@@@@@UEAAPEAXI@Z 0000000180028e10 f i  CIL library: CIL module
 0001:00027e10       ??_G?$Hashtable@PEBVString@@@@UEAAPEAXI@Z 0000000180028e10 f i FarEditorSet.obj
 0001:00027e10       ??_E?$Hashtable@PEAV?$Vector@PEBVString@@@@@@UEAAPEAXI@Z 0000000180028e10 f i  CIL library: CIL module
 0001:00027e10       ??_G?$HashtableCore@PEAVString@@@@UEAAPEAXI@Z 0000000180028e10 f i ConsoleTools.obj
 0001:00027e10       ??_G?$Hashtable@PEAVFarEditor@@@@UEAAPEAXI@Z 0000000180028e10 f i FarEditorSet.obj
 0001:00027e10       ??_G?$HashtableCore@PEAV?$Vector@PEBVString@@@@@@UEAAPEAXI@Z 0000000180028e10 f i ParserFactory.obj
 0001:00027e60       ??0?$HashtableCore@PEAVFileTypeImpl@@@@QEAA@HN@Z 0000000180028e60 f i HRCParserImpl.obj
 0001:00027ef0       ??0?$HashtableCore@PEAVSchemeImpl@@@@QEAA@HN@Z 0000000180028ef0 f i HRCParserImpl.obj
 0001:00027f80       ?put@?$HashtableCore@PEBVString@@@@QEAA_NPEBVString@@0@Z 0000000180028f80 f i ParserFactory.obj
 0001:00027f80       ?put@?$HashtableCore@PEAV?$Hashtable@PEAV?$Vector@PEBVString@@@@@@@@QEAA_NPEBVString@@PEAV?$Hashtable@PEAV?$Vector@PEBVString@@@@@@@Z 0000000180028f80 f i ParserFactory.obj
 0001:00027f80       ?put@?$HashtableCore@PEAVFarEditor@@@@QEAA_NPEBVString@@PEAVFarEditor@@@Z 0000000180028f80 f i FarEditorSet.obj
 0001:00027f80       ?put@?$HashtableCore@PEAVFileTypeImpl@@@@QEAA_NPEBVString@@PEAVFileTypeImpl@@@Z 0000000180028f80 f i HRCParserImpl.obj
 0001:00027f80       ?put@?$HashtableCore@PEAVString@@@@QEAA_NPEBVString@@PEAV2@@Z 0000000180028f80 f i FarHrcSettings.obj
 0001:00027f80       ?put@?$HashtableCore@PEBVRegion@@@@QEAA_NPEBVString@@PEBVRegion@@@Z 0000000180028f80 f i HRCParserImpl.obj
 0001:00027f80       ?put@?$HashtableCore@PEAVSchemeImpl@@@@QEAA_NPEBVString@@PEAVSchemeImpl@@@Z 0000000180028f80 f i HRCParserImpl.obj
 0001:00027f80       ?put@?$HashtableCore@PEAV?$Vector@PEBVString@@@@@@QEAA_NPEBVString@@PEAV?$Vector@PEBVString@@@@@Z 0000000180028f80 f i ParserFactory.obj
 0001:00027f80       ?put@?$HashtableCore@PEAVRegionDefine@@@@QEAA_NPEBVString@@PEAVRegionDefine@@@Z 0000000180028f80 f i StyledHRDMapper.obj
 0001:000280c0       ?next_int@?$HashtableCore@PEAVSchemeImpl@@@@IEBAPEAPEAVSchemeImpl@@XZ 00000001800290c0 f i HRCParserImpl.obj
 0001:000280c0       ?next_int@?$HashtableCore@PEAVFileTypeImpl@@@@IEBAPEAPEAVFileTypeImpl@@XZ 00000001800290c0 f i HRCParserImpl.obj
 0001:000280c0       ?next_int@?$HashtableCore@PEAV?$Vector@PEBVString@@@@@@IEBAPEAPEAV?$Vector@PEBVString@@@@XZ 00000001800290c0 f i ParserFactory.obj
 0001:000280c0       ?next_int@?$HashtableCore@PEBVString@@@@IEBAPEAPEBVString@@XZ 00000001800290c0 f i ParserFactory.obj
 0001:000280c0       ?next_int@?$HashtableCore@PEAVString@@@@IEBAPEAPEAVString@@XZ 00000001800290c0 f i ConsoleTools.obj
 0001:000280c0       ?next_int@?$HashtableCore@PEAV?$Hashtable@PEAV?$Vector@PEBVString@@@@@@@@IEBAPEAPEAV?$Hashtable@PEAV?$Vector@PEBVString@@@@@@XZ 00000001800290c0 f i ParserFactory.obj
 0001:000280c0       ?next_int@?$HashtableCore@PEAVRegionDefine@@@@IEBAPEAPEAVRegionDefine@@XZ 00000001800290c0 f i StyledHRDMapper.obj
 0001:000280c0       ?next_int@?$HashtableCore@PEAVFarEditor@@@@IEBAPEAPEAVFarEditor@@XZ 00000001800290c0 f i FarEditorSet.obj
 0001:00028210       ??0?$HashtableCore@PEBVRegion@@@@QEAA@HN@Z 0000000180029210 f i HRCParserImpl.obj
 0001:000282a0       ??1?$Vector@PEAVRegionHandler@@@@QEAA@XZ 00000001800292a0 f i BaseEditor.obj
 0001:000282a0       ??1?$Vector@PEBVRegion@@@@QEAA@XZ 00000001800292a0 f i HRCParserImpl.obj
 0001:000282a0       ??1?$Vector@PEAVVirtualEntry@@@@QEAA@XZ 00000001800292a0 f i HRCParserHelpers.obj
 0001:000282a0       ??1?$Vector@PEAVLineRegion@@@@QEAA@XZ 00000001800292a0 f i LineRegionsSupport.obj
 0001:000282a0       ??1?$Vector@PEAVFileTypeImpl@@@@QEAA@XZ 00000001800292a0 f i HRCParserImpl.obj
 0001:000282a0       ??1?$Vector@PEAE@@QEAA@XZ  00000001800292a0 f i HTTPInputSource.obj
 0001:000282a0       ??1?$Vector@H@@QEAA@XZ     00000001800292a0 f i FarEditor.obj
 0001:000282a0       ??1?$Vector@PEAVFileTypeChooser@@@@QEAA@XZ 00000001800292a0 f i HRCParserImpl.obj
 0001:000282a0       ??1?$Vector@PEAVString@@@@QEAA@XZ 00000001800292a0 f i ParserFactory.obj
 0001:000282a0       ??1?$Vector@PEAVOutlineItem@@@@QEAA@XZ 00000001800292a0 f i Outliner.obj
 0001:000282a0       ??1?$Vector@PEAVEditorListener@@@@QEAA@XZ 00000001800292a0 f i BaseEditor.obj
 0001:000282a0       ??1?$Vector@PEBVString@@@@QEAA@XZ 00000001800292a0 f i ParserFactory.obj
 0001:000282a0       ??1?$Vector@PEAVSchemeNode@@@@QEAA@XZ 00000001800292a0 f i HRCParserImpl.obj
 0001:000282b0       ?insertElementAt@?$Vector@PEAVSchemeNode@@@@QEAAXQEAVSchemeNode@@H@Z 00000001800292b0 f i HRCParserImpl.obj
 0001:000282b0       ?insertElementAt@?$Vector@PEAE@@QEAAXQEAEH@Z 00000001800292b0 f i MemoryChunks.obj
 0001:000282b0       ?insertElementAt@?$Vector@PEAVOutlineItem@@@@QEAAXQEAVOutlineItem@@H@Z 00000001800292b0 f i Outliner.obj
 0001:000282b0       ?insertElementAt@?$Vector@PEAVFileTypeChooser@@@@QEAAXQEAVFileTypeChooser@@H@Z 00000001800292b0 f i HRCParserImpl.obj
 0001:000282b0       ?insertElementAt@?$Vector@PEAVRegionHandler@@@@QEAAXQEAVRegionHandler@@H@Z 00000001800292b0 f i BaseEditor.obj
 0001:000282b0       ?insertElementAt@?$Vector@PEAVVirtualEntry@@@@QEAAXQEAVVirtualEntry@@H@Z 00000001800292b0 f i HRCParserImpl.obj
 0001:000282b0       ?insertElementAt@?$Vector@PEBVRegion@@@@QEAAXQEBVRegion@@H@Z 00000001800292b0 f i HRCParserImpl.obj
 0001:000282b0       ?insertElementAt@?$Vector@PEAVString@@@@QEAAXQEAVString@@H@Z 00000001800292b0 f i ChooseTypeMenu.obj
 0001:000282b0       ?insertElementAt@?$Vector@PEAVEditorListener@@@@QEAAXQEAVEditorListener@@H@Z 00000001800292b0 f i BaseEditor.obj
 0001:000282b0       ?insertElementAt@?$Vector@PEAVFileTypeImpl@@@@QEAAXQEAVFileTypeImpl@@H@Z 00000001800292b0 f i HRCParserImpl.obj
 0001:000282b0       ?insertElementAt@?$Vector@PEBVString@@@@QEAAXQEBVString@@H@Z 00000001800292b0 f i ParserFactory.obj
 0001:000282b0       ?insertElementAt@?$Vector@PEAVLineRegion@@@@QEAAXQEAVLineRegion@@H@Z 00000001800292b0 f i LineRegionsSupport.obj
 0001:00028420       ??1ParseCache@@QEAA@XZ     0000000180029420 f   TextParserHelpers.obj
 0001:00028560       ?searchLine@ParseCache@@QEAAPEAV1@HPEAPEAV1@@Z 0000000180029560 f   TextParserHelpers.obj
 0001:000285f0       ?deltree@VTList@@QEAAXXZ   00000001800295f0 f   TextParserHelpers.obj
 0001:00028630       ??_GVTList@@QEAAPEAXI@Z    0000000180029630 f i TextParserHelpers.obj
 0001:00028690       ?push@VTList@@QEAA_NPEAVSchemeNode@@@Z 0000000180029690 f   TextParserHelpers.obj
 0001:00028750       ?pop@VTList@@QEAA_NXZ      0000000180029750 f   TextParserHelpers.obj
 0001:000287e0       ?pushvirt@VTList@@QEAAPEAVSchemeImpl@@PEAV2@@Z 00000001800297e0 f   TextParserHelpers.obj
 0001:000288c0       ?clear@VTList@@QEAAXXZ     00000001800298c0 f   TextParserHelpers.obj
 0001:00028950       ?store@VTList@@QEAAPEAPEAV?$Vector@PEAVVirtualEntry@@@@XZ 0000000180029950 f   TextParserHelpers.obj
 0001:00028a00       ?restore@VTList@@QEAA_NPEAPEAV?$Vector@PEAVVirtualEntry@@@@@Z 0000000180029a00 f   TextParserHelpers.obj
 0001:00028af0       ??1TextParser@@UEAA@XZ     0000000180029af0 f i TextParserImpl.obj
 0001:00028b00       ??_GTextParser@@UEAAPEAXI@Z 0000000180029b00 f i TextParserImpl.obj
 0001:00028b00       ??_ETextParser@@UEAAPEAXI@Z 0000000180029b00 f i  CIL library: CIL module
 0001:00028b30       ??0TextParserImpl@@QEAA@XZ 0000000180029b30 f   TextParserImpl.obj
 0001:00028bf0       ??_ETextParserImpl@@UEAAPEAXI@Z 0000000180029bf0 f i  CIL library: CIL module
 0001:00028bf0       ??_GTextParserImpl@@UEAAPEAXI@Z 0000000180029bf0 f i TextParserImpl.obj
 0001:00028c80       ?setFileType@TextParserImpl@@UEAAXPEAVFileType@@@Z 0000000180029c80 f   TextParserImpl.obj
 0001:00028cc0       ?setLineSource@TextParserImpl@@UEAAXPEAVLineSource@@@Z 0000000180029cc0 f   TextParserImpl.obj
 0001:00028cd0       ?setRegionHandler@TextParserImpl@@UEAAXPEAVRegionHandler@@@Z 0000000180029cd0 f   TextParserImpl.obj
 0001:00028ce0       ?parse@TextParserImpl@@UEAAHHHW4TextParseMode@@@Z 0000000180029ce0 f   TextParserImpl.obj
 0001:00028fb0       ?clearCache@TextParserImpl@@UEAAXXZ 0000000180029fb0 f   TextParserImpl.obj
 0001:000290a0       ?clearLine@Outliner@@UEAAXHPEAVString@@@Z 000000018002a0a0 f   Outliner.obj
 0001:000290a0       ?breakParse@TextParserImpl@@UEAAXXZ 000000018002a0a0 f   TextParserImpl.obj
 0001:000290b0       ?enterScheme@TextParserImpl@@AEAAXHPEAUSMatches@@PEBVSchemeNode@@@Z 000000018002a0b0 f   TextParserImpl.obj
 0001:00029230       ?leaveScheme@TextParserImpl@@AEAAXHPEAUSMatches@@PEBVSchemeNode@@@Z 000000018002a230 f   TextParserImpl.obj
 0001:000293c0       ?fillInvisibleSchemes@TextParserImpl@@AEAAXPEAVParseCache@@@Z 000000018002a3c0 f   TextParserImpl.obj
 0001:00029430       ?searchKW@TextParserImpl@@AEAAHPEBVSchemeNode@@HHH@Z 000000018002a430 f   TextParserImpl.obj
 0001:00029810       ?searchRE@TextParserImpl@@AEAAHPEAVSchemeImpl@@HHH@Z 000000018002a810 f   TextParserImpl.obj
 0001:0002a080       ?colorize@TextParserImpl@@AEAA_NPEAVCRegExp@@_N@Z 000000018002b080 f   TextParserImpl.obj
 0001:0002a3b0       ??0KeywordList@@QEAA@XZ    000000018002b3b0 f   HRCParserHelpers.obj
 0001:0002a450       ??1KeywordList@@QEAA@XZ    000000018002b450 f   HRCParserHelpers.obj
 0001:0002a4e0       ??_GCharacterClass@@QEAAPEAXI@Z 000000018002b4e0 f i HRCParserHelpers.obj
 0001:0002a520       ?kwCompare@@YAHPEBX0@Z     000000018002b520 f   HRCParserHelpers.obj
 0001:0002a530       ?kwCompareI@@YAHPEBX0@Z    000000018002b530 f   HRCParserHelpers.obj
 0001:0002a540       ?substrIndex@KeywordList@@QEAAXXZ 000000018002b540 f   HRCParserHelpers.obj
 0001:0002a7c0       ??0SchemeNode@@QEAA@XZ     000000018002b7c0 f   HRCParserHelpers.obj
 0001:0002a890       ??1SchemeNode@@QEAA@XZ     000000018002b890 f   HRCParserHelpers.obj
 0001:0002aa30       ?setBit@BitArray@@QEAAXH@Z 000000018002ba30 f   BitArray.obj
 0001:0002aac0       ?clearBit@BitArray@@QEAAXH@Z 000000018002bac0 f   BitArray.obj
 0001:0002ab50       ?addRange@BitArray@@QEAAXHH@Z 000000018002bb50 f   BitArray.obj
 0001:0002ac90       ?addBitArray@BitArray@@QEAAXPEADH@Z 000000018002bc90 f   BitArray.obj
 0001:0002ad30       ?clearBitArray@BitArray@@QEAAXPEADH@Z 000000018002bd30 f   BitArray.obj
 0001:0002add0       ?toLowerCase@Character@@SA_W_W@Z 000000018002bdd0 f   Character.obj
 0001:0002ae30       ?toUpperCase@Character@@SA_W_W@Z 000000018002be30 f   Character.obj
 0001:0002ae90       ?toTitleCase@Character@@SA_W_W@Z 000000018002be90 f   Character.obj
 0001:0002af00       ?isWhitespace@Character@@SA_N_W@Z 000000018002bf00 f   Character.obj
 0001:0002af70       ??1CharacterClass@@QEAA@XZ 000000018002bf70 f   CharacterClass.obj
 0001:0002afa0       ?createCharClass@CharacterClass@@SAPEAV1@AEBVString@@HPEAH@Z 000000018002bfa0 f   CharacterClass.obj
 0001:0002bc00       ?addChar@CharacterClass@@QEAAX_W@Z 000000018002cc00 f   CharacterClass.obj
 0001:0002bc80       ?addRange@CharacterClass@@QEAAX_W0@Z 000000018002cc80 f   CharacterClass.obj
 0001:0002bd60       ?addCategory@CharacterClass@@QEAAXW4ECharCategory@@@Z 000000018002cd60 f   CharacterClass.obj
 0001:0002be40       ?addCategory@CharacterClass@@QEAAXAEBVString@@@Z 000000018002ce40 f   CharacterClass.obj
 0001:0002c040       ?addCategory@CharacterClass@@QEAAXPEBD@Z 000000018002d040 f   CharacterClass.obj
 0001:0002c100       ?clearCategory@CharacterClass@@QEAAXAEBVString@@@Z 000000018002d100 f   CharacterClass.obj
 0001:0002c270       ?clearCategory@CharacterClass@@QEAAXPEBD@Z 000000018002d270 f   CharacterClass.obj
 0001:0002c330       ?addClass@CharacterClass@@QEAAXAEBV1@@Z 000000018002d330 f   CharacterClass.obj
 0001:0002c470       ?intersectClass@CharacterClass@@QEAAXAEBV1@@Z 000000018002d470 f   CharacterClass.obj
 0001:0002c590       ?clearClass@CharacterClass@@QEAAXAEBV1@@Z 000000018002d590 f   CharacterClass.obj
 0001:0002c6c0       ?clear@CharacterClass@@QEAAXXZ 000000018002d6c0 f   CharacterClass.obj
 0001:0002c750       ?fill@CharacterClass@@QEAAXXZ 000000018002d750 f   CharacterClass.obj
 0001:0002c870       ?inClass@CharacterClass@@QEBA_N_W@Z 000000018002d870 f   CharacterClass.obj
 0001:0002c8c0       ??4DString@@QEAAAEAV0@AEBV0@@Z 000000018002d8c0 f   DString.obj
 0001:0002c980       ??0DString@@QEAA@PEBEHH@Z  000000018002d980 f   DString.obj
 0001:0002cea0       ??1OutOfBoundException@@UEAA@XZ 000000018002dea0 f i ChooseTypeMenu.obj
 0001:0002cea0       ??1InputSourceException@@UEAA@XZ 000000018002dea0 f i TextLinesStore.obj
 0001:0002cea0       ??1Exception@@UEAA@XZ      000000018002dea0 f i Exception.obj
 0001:0002cea0       ??1ParseException@@UEAA@XZ 000000018002dea0 f i xmldom.obj
 0001:0002cea0       ??1HRCParserException@@UEAA@XZ 000000018002dea0 f i HRCParserImpl.obj
 0001:0002cea0       ??1FarHrcSettingsException@@UEAA@XZ 000000018002dea0 f i FarHrcSettings.obj
 0001:0002cea0       ??1ParserFactoryException@@UEAA@XZ 000000018002dea0 f i ParserFactory.obj
 0001:0002cea0       ??1UnsupportedEncodingException@@UEAA@XZ 000000018002dea0 f i DString.obj
 0001:0002cea0       ??1StringIndexOutOfBoundsException@@UEAA@XZ 000000018002dea0 f i DString.obj
 0001:0002ced0       ??0DString@@QEAA@PEBDHHH@Z 000000018002ded0 f   DString.obj
 0001:0002cfb0       ??0DString@@QEAA@PEB_WHH@Z 000000018002dfb0 f   DString.obj
 0001:0002d080       ??0DString@@QEAA@AEBVString@@HH@Z 000000018002e080 f   DString.obj
 0001:0002d080       ??0DString@@QEAA@PEBVString@@HH@Z 000000018002e080 f   DString.obj
 0001:0002d190       ??1DString@@UEAA@XZ        000000018002e190 f   DString.obj
 0001:0002d200       ??ADString@@UEBA_WH@Z      000000018002e200 f   DString.obj
 0001:0002d370       ?length@DString@@UEBAHXZ   000000018002e370 f   DString.obj
 0001:0002d380       ??0UnsupportedEncodingException@@QEAA@AEBVString@@@Z 000000018002e380 f   Encodings.obj
 0001:0002d450       ?getEncodingIndex@Encodings@@SAHPEBD@Z 000000018002e450 f   Encodings.obj
 0001:0002d4d0       ?toBytes@Encodings@@SAHH_WPEAE@Z 000000018002e4d0 f   Encodings.obj
 0001:0002d6c0       ?construct@SString@@IEAAXPEBVString@@HH@Z 000000018002e6c0 f   SString.obj
 0001:0002d810       ??_GStringBuffer@@UEAAPEAXI@Z 000000018002e810 f i StringBuffer.obj
 0001:0002d810       ??_EStringBuffer@@UEAAPEAXI@Z 000000018002e810 f i  CIL library: CIL module
 0001:0002d810       ??_ESString@@UEAAPEAXI@Z   000000018002e810 f i  CIL library: CIL module
 0001:0002d810       ??_GSString@@UEAAPEAXI@Z   000000018002e810 f i SString.obj
 0001:0002d8a0       ??0SString@@QEAA@PEADH@Z   000000018002e8a0 f   SString.obj
 0001:0002d9a0       ??0SString@@QEAA@PEA_W@Z   000000018002e9a0 f   SString.obj
 0001:0002da80       ??0SString@@QEAA@H@Z       000000018002ea80 f   SString.obj
 0001:0002dc50       ??1StringBuffer@@UEAA@XZ   000000018002ec50 f   StringBuffer.obj
 0001:0002dc50       ??1SString@@UEAA@XZ        000000018002ec50 f   SString.obj
 0001:0002dcc0       ??ASString@@UEBA_WH@Z      000000018002ecc0 f   SString.obj
 0001:0002dd10       ??0StringIndexOutOfBoundsException@@QEAA@AEBVString@@@Z 000000018002ed10 f   String.obj
 0001:0002dde0       ??1String@@UEAA@XZ         000000018002ede0 f   String.obj
 0001:0002de20       ??8String@@QEBA_NAEBV0@@Z  000000018002ee20 f   String.obj
 0001:0002dec0       ??9String@@QEBA_NAEBV0@@Z  000000018002eec0 f   String.obj
 0001:0002df60       ??9String@@QEBA_NPEBD@Z    000000018002ef60 f   String.obj
 0001:0002e030       ?equals@String@@QEBA_NPEBD@Z 000000018002f030 f   String.obj
 0001:0002e030       ??8String@@QEBA_NPEBD@Z    000000018002f030 f   String.obj
 0001:0002e100       ?equalsIgnoreCase@String@@QEBA_NPEBV1@@Z 000000018002f100 f   String.obj
 0001:0002e2e0       ?compareTo@String@@QEBAHAEBV1@@Z 000000018002f2e0 f   String.obj
 0001:0002e3a0       ?compareToIgnoreCase@String@@QEBAHAEBV1@@Z 000000018002f3a0 f   String.obj
 0001:0002e4e0       ?getWChars@String@@UEBAHPEAPEA_W@Z 000000018002f4e0 f   String.obj
 0001:0002e5b0       ?getBytes@String@@UEBAHPEAPEAEH@Z 000000018002f5b0 f   String.obj
 0001:0002e740       ?getChars@String@@UEBAPEBDH@Z 000000018002f740 f   String.obj
 0001:0002e790       ?getWChars@String@@UEBAPEB_WXZ 000000018002f790 f   String.obj
 0001:0002e7d0       ?indexOf@String@@UEBAH_WH@Z 000000018002f7d0 f   String.obj
 0001:0002e840       ?indexOf@String@@UEBAHAEBV1@H@Z 000000018002f840 f   String.obj
 0001:0002e8f0       ?indexOfIgnoreCase@String@@UEBAHAEBV1@H@Z 000000018002f8f0 f   String.obj
 0001:0002ea30       ?lastIndexOf@String@@UEBAH_WH@Z 000000018002fa30 f   String.obj
 0001:0002eac0       ?lastIndexOf@String@@UEBAHAEBV1@H@Z 000000018002fac0 f   String.obj
 0001:0002ebb0       ?startsWith@String@@UEBA_NAEBV1@H@Z 000000018002fbb0 f   String.obj
 0001:0002ec50       ?replace@String@@QEBAPEAV1@AEBV1@0@Z 000000018002fc50 f   String.obj
 0001:0002ee10       ??0StringBuffer@@QEAA@XZ   000000018002fe10 f   StringBuffer.obj
 0001:0002ee80       ??0StringBuffer@@QEAA@H@Z  000000018002fe80 f   StringBuffer.obj
 0001:0002eef0       ??0StringBuffer@@QEAA@PEBDHH@Z 000000018002fef0 f   StringBuffer.obj
 0001:0002f0a0       ??0StringBuffer@@QEAA@PEBVString@@HH@Z 00000001800300a0 f   StringBuffer.obj
 0001:0002f0a0       ??0StringBuffer@@QEAA@AEBVString@@HH@Z 00000001800300a0 f   StringBuffer.obj
 0001:0002f0f0       ?setLength@StringBuffer@@QEAAXH@Z 00000001800300f0 f   StringBuffer.obj
 0001:0002f1c0       ?append@StringBuffer@@QEAAAEAV1@PEBVString@@@Z 00000001800301c0 f   StringBuffer.obj
 0001:0002f2a0       ?append@StringBuffer@@QEAAAEAV1@AEBVString@@@Z 00000001800302a0 f   StringBuffer.obj
 0001:0002f3c0       ??HStringBuffer@@QEAAAEAV0@PEBD@Z 00000001800303c0 f   StringBuffer.obj
 0001:0002f490       ?getNumber@UnicodeTools@@SA_NPEBVString@@PEAN@Z 0000000180030490 f   UnicodeTools.obj
 0001:0002f8d0       ?getNumber@UnicodeTools@@SAHPEBVString@@@Z 00000001800308d0 f   UnicodeTools.obj
 0001:0002f980       ?getHex@UnicodeTools@@SAH_W@Z 0000000180030980 f   UnicodeTools.obj
 0001:0002f9f0       ?getHexNumber@UnicodeTools@@SAHPEBVString@@@Z 00000001800309f0 f   UnicodeTools.obj
 0001:0002faf0       ?getCurlyContent@UnicodeTools@@SAPEAVDString@@AEBVString@@H@Z 0000000180030af0 f   UnicodeTools.obj
 0001:0002fca0       ?getEscapedChar@UnicodeTools@@SA_WAEBVString@@HAEAH@Z 0000000180030ca0 f   UnicodeTools.obj
 0001:0002fe00       ??0Exception@@QEAA@AEBV0@@Z 0000000180030e00 f   Exception.obj
 0001:0002ff80       ??0Exception@@QEAA@AEBVString@@@Z 0000000180030f80 f   Exception.obj
 0001:00030190       ??0InputSourceException@@QEAA@AEBVString@@@Z 0000000180031190 f   Exception.obj
 0001:000302c0       ??0OutOfBoundException@@QEAA@AEBVString@@@Z 00000001800312c0 f   Exception.obj
 0001:000303f0       ??3@YAXPEAX@Z              00000001800313f0 f   MemoryChunks.obj
 0001:00030400       ??1InputSource@@UEAA@XZ    0000000180031400 f i FileInputSource.obj
 0001:00030410       ??_GInputSource@@UEAAPEAXI@Z 0000000180031410 f i FileInputSource.obj
 0001:00030410       ??_EInputSource@@UEAAPEAXI@Z 0000000180031410 f i  CIL library: CIL module
 0001:00030440       ??0FileInputSource@@QEAA@PEBVString@@PEAV0@@Z 0000000180031440 f   FileInputSource.obj
 0001:00030cd0       ??_GFileInputSource@@UEAAPEAXI@Z 0000000180031cd0 f i FileInputSource.obj
 0001:00030cd0       ??_EFileInputSource@@UEAAPEAXI@Z 0000000180031cd0 f i  CIL library: CIL module
 0001:00030d50       ?createRelative@FileInputSource@@MEAAPEAVInputSource@@PEBVString@@@Z 0000000180031d50 f   FileInputSource.obj
 0001:00030db0       ?openStream@FileInputSource@@UEAAPEBEXZ 0000000180031db0 f   FileInputSource.obj
 0001:00030ef0       ?closeStream@FileInputSource@@UEAAXXZ 0000000180031ef0 f   FileInputSource.obj
 0001:00030ef0       ?closeStream@HTTPInputSource@@UEAAXXZ 0000000180031ef0 f   HTTPInputSource.obj
 0001:00030f60       ?length@FileInputSource@@UEBAHXZ 0000000180031f60 f   FileInputSource.obj
 0001:00030f60       ?length@HTTPInputSource@@UEBAHXZ 0000000180031f60 f   HTTPInputSource.obj
 0001:00030ff0       ??0HTTPInputSource@@QEAA@PEBVString@@PEAV0@@Z 0000000180031ff0 f   HTTPInputSource.obj
 0001:00031190       ??_GHTTPInputSource@@UEAAPEAXI@Z 0000000180032190 f i HTTPInputSource.obj
 0001:00031190       ??_EHTTPInputSource@@UEAAPEAXI@Z 0000000180032190 f i  CIL library: CIL module
 0001:00031210       ?createRelative@HTTPInputSource@@MEAAPEAVInputSource@@PEBVString@@@Z 0000000180032210 f   HTTPInputSource.obj
 0001:00031270       ?openStream@HTTPInputSource@@UEAAPEBEXZ 0000000180032270 f   HTTPInputSource.obj
 0001:00031690       ?getAbsolutePath@InputSource@@SAPEAVString@@PEBV2@0@Z 0000000180032690 f   InputSource.obj
 0001:00031860       ?newInstance@InputSource@@SAPEAV1@PEBVString@@PEAV1@@Z 0000000180032860 f   InputSource.obj
 0001:00031b50       ?isRelative@InputSource@@SA_NPEBVString@@@Z 0000000180032b50 f   InputSource.obj
 0001:00031bc0       ?mem_open_file_func@@YAPEAXPEAXPEBDH@Z 0000000180032bc0 f   JARInputSource.obj
 0001:00031bd0       ?mem_read_file_func@@YAKPEAX00K@Z 0000000180032bd0 f   JARInputSource.obj
 0001:00031c20       ?mem_tell_file_func@@YAJPEAX0@Z 0000000180032c20 f   JARInputSource.obj
 0001:00031c30       ?mem_seek_file_func@@YAJPEAX0KH@Z 0000000180032c30 f   JARInputSource.obj
 0001:00031c80       ?createRelative@InputSource@@UEAAPEAV1@PEBVString@@@Z 0000000180032c80 f   FileInputSource.obj
 0001:00031c80       ?mem_close_file_func@@YAHPEAX0@Z 0000000180032c80 f   JARInputSource.obj
 0001:00031c80       ?getAttributes@Node@@UEAAPEBV?$Vector@PEBVString@@@@XZ 0000000180032c80 f   xmldom.obj
 0001:00031c80       ?mem_write_file_func@@YAKPEAX0PEBXK@Z 0000000180032c80 f   JARInputSource.obj
 0001:00031c90       ?mem_error_file_func@@YAHPEAX0@Z 0000000180032c90 f   JARInputSource.obj
 0001:00031ca0       ??0JARInputSource@@QEAA@PEBVString@@PEAVInputSource@@@Z 0000000180032ca0 f   JARInputSource.obj
 0001:00032210       ??_EJARInputSource@@UEAAPEAXI@Z 0000000180033210 f i  CIL library: CIL module
 0001:00032210       ??_GJARInputSource@@UEAAPEAXI@Z 0000000180033210 f i JARInputSource.obj
 0001:00032250       ??1JARInputSource@@UEAA@XZ 0000000180033250 f   JARInputSource.obj
 0001:000322d0       ??0JARInputSource@@IEAA@PEBVString@@PEAV0@_N@Z 00000001800332d0 f   JARInputSource.obj
 0001:00032590       ?createRelative@JARInputSource@@MEAAPEAVInputSource@@PEBVString@@@Z 0000000180033590 f   JARInputSource.obj
 0001:000325f0       ?openStream@JARInputSource@@UEAAPEBEXZ 00000001800335f0 f   JARInputSource.obj
 0001:00032a30       ?closeStream@JARInputSource@@UEAAXXZ 0000000180033a30 f   JARInputSource.obj
 0001:00032aa0       ?length@JARInputSource@@UEBAHXZ 0000000180033aa0 f   JARInputSource.obj
 0001:00032b30       ?getLocation@SharedInputSource@@UEBAPEBVString@@XZ 0000000180033b30 f i SharedInputSource.obj
 0001:00032b40       ?openStream@SharedInputSource@@UEAAPEBEXZ 0000000180033b40 f i SharedInputSource.obj
 0001:00032b50       ?closeStream@SharedInputSource@@UEAAXXZ 0000000180033b50 f i SharedInputSource.obj
 0001:00032b60       ?length@SharedInputSource@@UEBAHXZ 0000000180033b60 f i SharedInputSource.obj
 0001:00032b70       ??_ESharedInputSource@@EEAAPEAXI@Z 0000000180033b70 f i  CIL library: CIL module
 0001:00032b70       ??_GSharedInputSource@@EEAAPEAXI@Z 0000000180033b70 f i SharedInputSource.obj
 0001:00032bb0       ??1SharedInputSource@@EEAA@XZ 0000000180033bb0 f   SharedInputSource.obj
 0001:00032c30       ?getInputSource@SharedInputSource@@SAPEAV1@PEBVString@@PEAVInputSource@@@Z 0000000180033c30 f   SharedInputSource.obj
 0001:00032d30       ?get@?$Hashtable@PEAVSharedInputSource@@@@QEBAPEAVSharedInputSource@@PEBVString@@@Z 0000000180033d30 f i SharedInputSource.obj
 0001:00032de0       ?put@?$HashtableCore@PEAVSharedInputSource@@@@QEAA_NPEBVString@@PEAVSharedInputSource@@@Z 0000000180033de0 f i SharedInputSource.obj
 0001:00032f20       ?remove@?$HashtableCore@PEAVSharedInputSource@@@@QEAA_NPEBVString@@@Z 0000000180033f20 f i SharedInputSource.obj
 0001:00033020       ??0?$HashEntry@PEAVFarEditor@@@@QEAA@HPEBVString@@PEAVFarEditor@@PEAV0@@Z 0000000180034020 f i FarEditorSet.obj
 0001:00033020       ??0?$HashEntry@PEAVSharedInputSource@@@@QEAA@HPEBVString@@PEAVSharedInputSource@@PEAV0@@Z 0000000180034020 f i SharedInputSource.obj
 0001:00033020       ??0?$HashEntry@PEAVFileTypeImpl@@@@QEAA@HPEBVString@@PEAVFileTypeImpl@@PEAV0@@Z 0000000180034020 f i HRCParserImpl.obj
 0001:00033020       ??0?$HashEntry@PEAVRegionDefine@@@@QEAA@HPEBVString@@PEAVRegionDefine@@PEAV0@@Z 0000000180034020 f i StyledHRDMapper.obj
 0001:00033020       ??0?$HashEntry@PEAVString@@@@QEAA@HPEBVString@@PEAV1@PEAV0@@Z 0000000180034020 f i FarHrcSettings.obj
 0001:00033020       ??0?$HashEntry@PEAV?$Hashtable@PEAV?$Vector@PEBVString@@@@@@@@QEAA@HPEBVString@@PEAV?$Hashtable@PEAV?$Vector@PEBVString@@@@@@PEAV0@@Z 0000000180034020 f i ParserFactory.obj
 0001:00033020       ??0?$HashEntry@PEAVSchemeImpl@@@@QEAA@HPEBVString@@PEAVSchemeImpl@@PEAV0@@Z 0000000180034020 f i HRCParserImpl.obj
 0001:00033020       ??0?$HashEntry@PEAV?$Vector@PEBVString@@@@@@QEAA@HPEBVString@@PEAV?$Vector@PEBVString@@@@PEAV0@@Z 0000000180034020 f i ParserFactory.obj
 0001:00033020       ??0?$HashEntry@PEBVRegion@@@@QEAA@HPEBVString@@PEBVRegion@@PEAV0@@Z 0000000180034020 f i HRCParserImpl.obj
 0001:00033020       ??0?$HashEntry@PEBVString@@@@QEAA@HPEBVString@@0PEAV0@@Z 0000000180034020 f i ParserFactory.obj
 0001:000331a0       ?rehash@?$HashtableCore@PEBVRegion@@@@IEAAXXZ 00000001800341a0 f i HRCParserImpl.obj
 0001:000331a0       ?rehash@?$HashtableCore@PEBVString@@@@IEAAXXZ 00000001800341a0 f i ParserFactory.obj
 0001:000331a0       ?rehash@?$HashtableCore@PEAVFileTypeImpl@@@@IEAAXXZ 00000001800341a0 f i HRCParserImpl.obj
 0001:000331a0       ?rehash@?$HashtableCore@PEAVRegionDefine@@@@IEAAXXZ 00000001800341a0 f i StyledHRDMapper.obj
 0001:000331a0       ?rehash@?$HashtableCore@PEAVSharedInputSource@@@@IEAAXXZ 00000001800341a0 f i SharedInputSource.obj
 0001:000331a0       ?rehash@?$HashtableCore@PEAV?$Vector@PEBVString@@@@@@IEAAXXZ 00000001800341a0 f i ParserFactory.obj
 0001:000331a0       ?rehash@?$HashtableCore@PEAV?$Hashtable@PEAV?$Vector@PEBVString@@@@@@@@IEAAXXZ 00000001800341a0 f i ParserFactory.obj
 0001:000331a0       ?rehash@?$HashtableCore@PEAVString@@@@IEAAXXZ 00000001800341a0 f i FarHrcSettings.obj
 0001:000331a0       ?rehash@?$HashtableCore@PEAVFarEditor@@@@IEAAXXZ 00000001800341a0 f i FarEditorSet.obj
 0001:000331a0       ?rehash@?$HashtableCore@PEAVSchemeImpl@@@@IEAAXXZ 00000001800341a0 f i HRCParserImpl.obj
 0001:000332f0       ?init@StreamWriter@@IEAAXPEAU_iobuf@@H_N@Z 00000001800342f0 f   StreamWriter.obj
 0001:00033390       ?write@StreamWriter@@UEAAX_W@Z 0000000180034390 f   StreamWriter.obj
 0001:000333f0       ?write@Writer@@UEAAXAEBVString@@@Z 00000001800343f0 f   Writer.obj
 0001:00033440       ?write@Writer@@UEAAXPEBVString@@@Z 0000000180034440 f   Writer.obj
 0001:00033450       ?write@Writer@@UEAAXAEBVString@@HH@Z 0000000180034450 f   Writer.obj
 0001:000334c0       ?write@Writer@@UEAAXPEBVString@@HH@Z 00000001800344c0 f   Writer.obj
 0001:000334d0       ??0ParseException@@QEAA@AEBVString@@HH@Z 00000001800344d0 f i xmldom.obj
 0001:000337e0       ?resolveEntity@DefaultEntityResolver@@UEAAPEAVInputSource@@PEBVString@@0@Z 00000001800347e0 f i xmldom.obj
 0001:000337f0       ?peek@DocumentBuilder@@AEAAHH@Z 00000001800347f0 f i xmldom.obj
 0001:00033880       ?get@DocumentBuilder@@AEAA_WXZ 0000000180034880 f i xmldom.obj
 0001:000339e0       ??1Node@@UEAA@XZ           00000001800349e0 f i xmldom.obj
 0001:00033a10       ??_EDocument@@UEAAPEAXI@Z  0000000180034a10 f i  CIL library: CIL module
 0001:00033a10       ??_GNode@@UEAAPEAXI@Z      0000000180034a10 f i xmldom.obj
 0001:00033a10       ??_ENode@@UEAAPEAXI@Z      0000000180034a10 f i  CIL library: CIL module
 0001:00033a10       ??_GDocument@@UEAAPEAXI@Z  0000000180034a10 f i xmldom.obj
 0001:00033a60       ?appendChild@Document@@UEAAPEAVNode@@PEAV2@@Z 0000000180034a60 f i xmldom.obj
 0001:00033b40       ??0Document@@IEAA@XZ       0000000180034b40 f i xmldom.obj
 0001:00033c10       ?getAttributes@Element@@UEAAPEBV?$Vector@PEBVString@@@@XZ 0000000180034c10 f i xmldom.obj
 0001:00033c20       ??0Element@@IEAA@PEBVString@@@Z 0000000180034c20 f i xmldom.obj
 0001:00033cd0       ??1Element@@MEAA@XZ        0000000180034cd0 f i xmldom.obj
 0001:00033e60       ??_EElement@@MEAAPEAXI@Z   0000000180034e60 f i  CIL library: CIL module
 0001:00033e60       ??_GElement@@MEAAPEAXI@Z   0000000180034e60 f i xmldom.obj
 0001:00033ea0       ??0ProcessingInstruction@@IEAA@PEBVString@@0@Z 0000000180034ea0 f i xmldom.obj
 0001:00033f80       ??_GProcessingInstruction@@MEAAPEAXI@Z 0000000180034f80 f i xmldom.obj
 0001:00033f80       ??_EProcessingInstruction@@MEAAPEAXI@Z 0000000180034f80 f i  CIL library: CIL module
 0001:00034010       ??0CharacterData@@IEAA@W4NodeType@Node@@PEBVString@@@Z 0000000180035010 f i xmldom.obj
 0001:000340f0       ??_GComment@@UEAAPEAXI@Z   00000001800350f0 f i xmldom.obj
 0001:000340f0       ??_ECharacterData@@MEAAPEAXI@Z 00000001800350f0 f i  CIL library: CIL module
 0001:000340f0       ??_GText@@UEAAPEAXI@Z      00000001800350f0 f i xmldom.obj
 0001:000340f0       ??_GCharacterData@@MEAAPEAXI@Z 00000001800350f0 f i xmldom.obj
 0001:000340f0       ??_EComment@@UEAAPEAXI@Z   00000001800350f0 f i  CIL library: CIL module
 0001:000340f0       ??_EText@@UEAAPEAXI@Z      00000001800350f0 f i  CIL library: CIL module
 0001:00034170       ?replaceEntity@@YAPEAVString@@PEBV1@@Z 0000000180035170 f   xmldom.obj
 0001:00034750       ?parse@DocumentBuilder@@QEAAPEAVDocument@@PEAVInputSource@@PEBD@Z 0000000180035750 f   xmldom.obj
 0001:000347f0       ?clearEntitiesHash@DocumentBuilder@@AEAAXXZ 00000001800357f0 f   xmldom.obj
 0001:00034910       ?parse@DocumentBuilder@@QEAAPEAVDocument@@PEBEHPEBD@Z 0000000180035910 f   xmldom.obj
 0001:00034f00       ?consumeDocument@DocumentBuilder@@AEAAXXZ 0000000180035f00 f   xmldom.obj
 0001:00035030       ?consumeXmlDecl@DocumentBuilder@@AEAAXPEAVNode@@@Z 0000000180036030 f   xmldom.obj
 0001:000351e0       ?consumeDTD@DocumentBuilder@@AEAAXXZ 00000001800361e0 f   xmldom.obj
 0001:00035500       ?consumeElement@DocumentBuilder@@AEAAXPEAVNode@@@Z 0000000180036500 f   xmldom.obj
 0001:000357e0       ?consumeContent@DocumentBuilder@@AEAAXPEAVNode@@@Z 00000001800367e0 f   xmldom.obj
 0001:00035c70       ?appendToLastTextNode@DocumentBuilder@@AEAAXPEAVNode@@PEAVString@@@Z 0000000180036c70 f   xmldom.obj
 0001:00035cf0       ?consumeCDataSection@DocumentBuilder@@AEAAXPEAVNode@@@Z 0000000180036cf0 f   xmldom.obj
 0001:00035f40       ?consumeText@DocumentBuilder@@AEAAXPEAVNode@@@Z 0000000180036f40 f   xmldom.obj
 0001:00036150       ?consumeCharRef@DocumentBuilder@@AEAA_WXZ 0000000180037150 f   xmldom.obj
 0001:00036420       ?consumeEntityRef@DocumentBuilder@@AEAAPEAVString@@_N@Z 0000000180037420 f   xmldom.obj
 0001:00036980       ?consumeSpaces@DocumentBuilder@@AEAAXH@Z 0000000180037980 f   xmldom.obj
 0001:00036b40       ?consumeAttributeValue@DocumentBuilder@@AEAAPEAVString@@XZ 0000000180037b40 f   xmldom.obj
 0001:00036f00       ?consumeQoutedValue@DocumentBuilder@@AEAAPEAVString@@XZ 0000000180037f00 f   xmldom.obj
 0001:000370f0       ?consumeName@DocumentBuilder@@AEAAPEAVString@@XZ 00000001800380f0 f   xmldom.obj
 0001:000373a0       ?consumeNCName@DocumentBuilder@@AEAAPEAVString@@XZ 00000001800383a0 f   xmldom.obj
 0001:00037630       ?consumePI@DocumentBuilder@@AEAAXPEAVNode@@@Z 0000000180038630 f   xmldom.obj
 0001:000378d0       ?consumeComment@DocumentBuilder@@AEAAXPEAVNode@@@Z 00000001800388d0 f   xmldom.obj
 0001:00037b70       ?consumeMisc@DocumentBuilder@@AEAAXPEAVNode@@@Z 0000000180038b70 f   xmldom.obj
 0001:00037db0       ?consume@DocumentBuilder@@AEAAXAEAVString@@@Z 0000000180038db0 f   xmldom.obj
 0001:00037f80       ?consume@DocumentBuilder@@AEAAXPEADH@Z 0000000180038f80 f   xmldom.obj
 0001:00038150       ?free@DocumentBuilder@@QEAAXPEAVDocument@@@Z 0000000180039150 f   xmldom.obj
 0001:00038210       ?getXMLNumber@DocumentBuilder@@CA_NAEBVString@@PEAH@Z 0000000180039210 f   xmldom.obj
 0001:00038370       ?appendChild@Node@@UEAAPEAV1@PEAV1@@Z 0000000180039370 f   xmldom.obj
 0001:000383b0       ?insertBefore@Node@@UEAAPEAV1@PEAV1@0@Z 00000001800393b0 f   xmldom.obj
 0001:000383f0       ?removeChild@Node@@UEAAPEAV1@PEAV1@@Z 00000001800393f0 f   xmldom.obj
 0001:00038430       ?setAttribute@Element@@QEAAXPEBVString@@0@Z 0000000180039430 f   xmldom.obj
 0001:000385b0       ?createComment@Document@@QEAAPEAVComment@@PEBVString@@@Z 00000001800395b0 f   xmldom.obj
 0001:00038630       ?createTextNode@Document@@QEAAPEAVText@@PEBVString@@@Z 0000000180039630 f   xmldom.obj
 0001:000386b0       ?serialize@Document@@UEAAXPEAVWriter@@FF@Z 00000001800396b0 f   xmldom.obj
 0001:000388f0       ?serialize@Element@@UEAAXPEAVWriter@@FF@Z 00000001800398f0 f   xmldom.obj
 0001:00038fe0       ?serialize@ProcessingInstruction@@UEAAXPEAVWriter@@FF@Z 0000000180039fe0 f   xmldom.obj
 0001:000391e0       ?serialize@Comment@@UEAAXPEAVWriter@@FF@Z 000000018003a1e0 f   xmldom.obj
 0001:000393f0       ?serialize@Text@@UEAAXPEAVWriter@@FF@Z 000000018003a3f0 f   xmldom.obj
 0001:00039420       ?removeElementAt@?$Vector@PEBVString@@@@QEAAXH@Z 000000018003a420 f i xmldom.obj
 0001:0003adf0       dlmalloc                   000000018003bdf0 f   malloc.obj
 0001:0003b190       dlfree                     000000018003c190 f   malloc.obj
 0001:0003b8d0       ??1SRegInfo@@QEAA@XZ       000000018003c8d0 f   cregexp.obj
 0001:0003b980       ??0CRegExp@@QEAA@PEBVString@@@Z 000000018003c980 f   cregexp.obj
 0001:0003b9e0       ??1CRegExp@@QEAA@XZ        000000018003c9e0 f   cregexp.obj
 0001:0003ba50       ?setRELow@CRegExp@@AEAA?AW4EError@@AEBVString@@@Z 000000018003ca50 f   cregexp.obj
 0001:0003be40       ?setStructs@CRegExp@@AEAA?AW4EError@@AEAPEAVSRegInfo@@AEBVString@@AEAH@Z 000000018003ce40 f   cregexp.obj
 0001:0003d310       ?isWordBoundary@CRegExp@@AEAA_NAEAH@Z 000000018003e310 f   cregexp.obj
 0001:0003d430       ?checkMetaSymbol@CRegExp@@AEAA_NW4EMetaSymbols@@AEAH@Z 000000018003e430 f   cregexp.obj
 0001:0003da40       ?insert_stack@CRegExp@@AEAAXPEAPEAVSRegInfo@@0PEAHPEA_NHH00H@Z 000000018003ea40 f   cregexp.obj
 0001:0003dbc0       ?lowParse@CRegExp@@AEAA_NPEAVSRegInfo@@0H@Z 000000018003ebc0 f   cregexp.obj
 0001:0003ec10       ?quickCheck@CRegExp@@AEAA_NH@Z 000000018003fc10 f i cregexp.obj
 0001:0003eca0       ?parseRE@CRegExp@@AEAA_NH@Z 000000018003fca0 f i cregexp.obj
 0001:0003edb0       ?getBracketNo@CRegExp@@QEAAHPEBVString@@@Z 000000018003fdb0 f   cregexp.obj
 0001:0003efe0       memmove                    000000018003ffe0     LIBCMT:memcpy.obj
 0001:0003efe0       memcpy                     000000018003ffe0 f   LIBCMT:memcpy.obj
 0001:0003f314       free                       0000000180040314 f   LIBCMT:free.obj
 0001:0003f354       __onexitinit               0000000180040354 f   LIBCMT:onexit.obj
 0001:0003f398       _onexit                    0000000180040398 f   LIBCMT:onexit.obj
 0001:0003f4a4       atexit                     00000001800404a4 f   LIBCMT:onexit.obj
 0001:0003f4bc       realloc                    00000001800404bc f   LIBCMT:realloc.obj
 0001:0003f590       ??_Etype_info@@UEAAPEAXI@Z 0000000180040590 f i LIBCMT:typinfo.obj
 0001:0003f590       ??_Gtype_info@@UEAAPEAXI@Z 0000000180040590 f i LIBCMT:typinfo.obj
 0001:0003f5cc       ??8type_info@@QEBA_NAEBV0@@Z 00000001800405cc f   LIBCMT:typinfo.obj
 0001:0003f5ec       _wcsdup                    00000001800405ec f   LIBCMT:wcsdup.obj
 0001:0003f664       _snwprintf                 0000000180040664 f   LIBCMT:snwprint.obj
 0001:0003f748       wcsncpy                    0000000180040748 f   LIBCMT:wcsncpy.obj
 0001:0003f790       wcsncat                    0000000180040790 f   LIBCMT:wcsncat.obj
 0001:0003f7cc       _purecall                  00000001800407cc f   LIBCMT:purevirt.obj
 0001:0003f804       malloc                     0000000180040804 f   LIBCMT:malloc.obj
 0001:0003f8bc       wcsstr                     00000001800408bc f   LIBCMT:wcsstr.obj
 0001:0003f920       ??0_LocaleUpdate@@QEAA@PEAUlocaleinfo_struct@@@Z 0000000180040920 f i LIBCMT:_wctype.obj
 0001:0003f9c4       _isleadbyte_l              00000001800409c4 f i LIBCMT:_wctype.obj
 0001:0003fa0c       isleadbyte                 0000000180040a0c f i LIBCMT:_wctype.obj
 0001:0003fa54       iswspace                   0000000180040a54 f i LIBCMT:_wctype.obj
 0001:0003fa60       _ftelli64_nolock           0000000180040a60 f   LIBCMT:ftelli64.obj
 0001:0003fd50       _ftelli64                  0000000180040d50 f   LIBCMT:ftelli64.obj
 0001:0003fdac       _fseeki64_nolock           0000000180040dac f   LIBCMT:fseeki64.obj
 0001:0003fe78       _fseeki64                  0000000180040e78 f   LIBCMT:fseeki64.obj
 0001:0003fef4       _fsopen                    0000000180040ef4 f   LIBCMT:fopen.obj
 0001:0003ffcc       fopen                      0000000180040fcc f   LIBCMT:fopen.obj
 0001:0003ffd8       _fread_nolock_s            0000000180040fd8 f   LIBCMT:fread.obj
 0001:00040210       fread_s                    0000000180041210 f   LIBCMT:fread.obj
 0001:000402b8       fread                      00000001800412b8 f   LIBCMT:fread.obj
 0001:000402d8       ferror                     00000001800412d8 f   LIBCMT:feoferr.obj
 0001:00040300       _fwrite_nolock             0000000180041300 f   LIBCMT:fwrite.obj
 0001:0004048c       fwrite                     000000018004148c f   LIBCMT:fwrite.obj
 0001:0004051c       _fclose_nolock             000000018004151c f   LIBCMT:fclose.obj
 0001:00040598       fclose                     0000000180041598 f   LIBCMT:fclose.obj
 0001:00040600       _access_s                  0000000180041600 f   LIBCMT:access.obj
 0001:00040680       _access                    0000000180041680 f   LIBCMT:access.obj
 0001:00040694       _getenv_helper_nolock      0000000180041694 f   LIBCMT:getenv.obj
 0001:00040738       getenv                     0000000180041738 f   LIBCMT:getenv.obj
 0001:000407a4       _stat64i32                 00000001800417a4 f   LIBCMT:stati32.obj
 0001:00040ca4       sprintf                    0000000180041ca4 f   LIBCMT:sprintf.obj
 0001:00040d44       _gets_helper               0000000180041d44 f   LIBCMT:gets.obj
 0001:00040fa0       gets                       0000000180041fa0 f   LIBCMT:gets.obj
 0001:00040fb0       __iob_func                 0000000180041fb0 f   LIBCMT:_file.obj
 0001:00040fb8       __initstdio                0000000180041fb8 f   LIBCMT:_file.obj
 0001:00041098       __endstdio                 0000000180042098 f   LIBCMT:_file.obj
 0001:000410c0       _lock_file                 00000001800420c0 f   LIBCMT:_file.obj
 0001:00041124       _lock_file2                0000000180042124 f   LIBCMT:_file.obj
 0001:00041158       _unlock_file               0000000180042158 f   LIBCMT:_file.obj
 0001:000411a4       _unlock_file2              00000001800421a4 f   LIBCMT:_file.obj
 0001:000411c4       _get_printf_count_output   00000001800421c4 f   LIBCMT:printf.obj
 0001:000411dc       __inittime                 00000001800421dc f   LIBCMT:clock.obj
 0001:0004120c       _ctime64                   000000018004220c f   LIBCMT:ctime64.obj
 0001:00041278       _time64                    0000000180042278 f   LIBCMT:time64.obj
 0001:000412d8       _flush                     00000001800422d8 f   LIBCMT:fflush.obj
 0001:00041354       _fflush_nolock             0000000180042354 f   LIBCMT:fflush.obj
 0001:0004148c       fflush                     000000018004248c f   LIBCMT:fflush.obj
 0001:000414d0       _flushall                  00000001800424d0 f   LIBCMT:fflush.obj
 0001:000415a0       qsort                      00000001800425a0 f   LIBCMT:qsort.obj
 0001:000418b0       strncmp                    00000001800428b0 f   LIBCMT:strncmp.obj
 0001:00042110       _wopen                     0000000180043110 f   LIBCMT:wopen.obj
 0001:000421e8       _fstat64i32                00000001800431e8 f   LIBCMT:fstati32.obj
 0001:0004259c       putc                       000000018004359c f   LIBCMT:fputc.obj
 0001:000426b4       abort                      00000001800436b4 f   LIBCMT:abort.obj
 0001:000426f4       _set_abort_behavior        00000001800436f4 f   LIBCMT:abort.obj
 0001:00042710       _CRT_INIT                  0000000180043710 f   LIBCMT:dllcrt0.obj
 0001:00042980       _DllMainCRTStartup         0000000180043980 f   LIBCMT:dllcrt0.obj
 0001:000429c0       _get_errno_from_oserr      00000001800439c0 f   LIBCMT:dosmap.obj
 0001:00042a08       _errno                     0000000180043a08 f   LIBCMT:dosmap.obj
 0001:00042a28       __doserrno                 0000000180043a28 f   LIBCMT:dosmap.obj
 0001:00042a48       _dosmaperr                 0000000180043a48 f   LIBCMT:dosmap.obj
 0001:00042a90       _heap_init                 0000000180043a90 f   LIBCMT:heapinit.obj
 0001:00042ae8       _heap_term                 0000000180043ae8 f   LIBCMT:heapinit.obj
 0001:00042b08       _malloc_crt                0000000180043b08 f   LIBCMT:crtheap.obj
 0001:00042b88       _calloc_crt                0000000180043b88 f   LIBCMT:crtheap.obj
 0001:00042c0c       _realloc_crt               0000000180043c0c f   LIBCMT:crtheap.obj
 0001:00042c94       _recalloc_crt              0000000180043c94 f   LIBCMT:crtheap.obj
 0001:00042d1c       _msize                     0000000180043d1c f   LIBCMT:msize.obj
 0001:00042d58       __crtCorExitProcess        0000000180043d58 f   LIBCMT:crt0dat.obj
 0001:00042d94       __crtExitProcess           0000000180043d94 f   LIBCMT:crt0dat.obj
 0001:00042dac       _lockexit                  0000000180043dac f   LIBCMT:crt0dat.obj
 0001:00042db8       _unlockexit                0000000180043db8 f   LIBCMT:crt0dat.obj
 0001:00042dc4       _init_pointers             0000000180043dc4 f   LIBCMT:crt0dat.obj
 0001:00042e3c       _initterm_e                0000000180043e3c f   LIBCMT:crt0dat.obj
 0001:00042e78       _cinit                     0000000180043e78 f   LIBCMT:crt0dat.obj
 0001:000430b8       _exit                      00000001800440b8 f   LIBCMT:crt0dat.obj
 0001:000430c4       _cexit                     00000001800440c4 f   LIBCMT:crt0dat.obj
 0001:000430d4       _amsg_exit                 00000001800440d4 f   LIBCMT:crt0dat.obj
 0001:000430fc       __C_specific_handler       00000001800440fc f   LIBCMT:chandler.obj
 0001:000432fc       _initp_heap_handler        00000001800442fc f   LIBCMT:handler.obj
 0001:00043304       _callnewh                  0000000180044304 f   LIBCMT:handler.obj
 0001:00043338       ?_Type_info_dtor@type_info@@CAXPEAV1@@Z 0000000180044338 f   LIBCMT:typname.obj
 0001:000433c0       strcmp                     00000001800443c0 f   LIBCMT:strcmp.obj
 0001:00043470       _initp_misc_invarg         0000000180044470 f   LIBCMT:invarg.obj
 0001:00043478       _call_reportfault          0000000180044478 f   LIBCMT:invarg.obj
 0001:000435c4       _invoke_watson             00000001800445c4 f   LIBCMT:invarg.obj
 0001:000435f8       _invalid_parameter         00000001800445f8 f   LIBCMT:invarg.obj
 0001:00043668       _invalid_parameter_noinfo  0000000180044668 f   LIBCMT:invarg.obj
 0001:00043688       wcscpy_s                   0000000180044688 f   LIBCMT:wcscpy_s.obj
 0001:000436f4       calloc                     00000001800446f4 f   LIBCMT:calloc.obj
 0001:00043738       wcslen                     0000000180044738 f   LIBCMT:wcslen.obj
 0001:00043754       _flsbuf                    0000000180044754 f   LIBCMT:_flsbuf.obj
 0001:00043a0c       _woutput_l                 0000000180044a0c f   LIBCMT:woutput.obj
 0001:00044510       memset                     0000000180045510 f   LIBCMT:memset.obj
 0001:000445fc       _GET_RTERRMSG              00000001800455fc f   LIBCMT:crt0msg.obj
 0001:00044628       _NMSG_WRITE                0000000180045628 f   LIBCMT:crt0msg.obj
 0001:00044888       _FF_MSGBANNER              0000000180045888 f   LIBCMT:crt0msg.obj
 0001:000448cc       _initp_misc_purevirt       00000001800458cc f   LIBCMT:inithelp.obj
 0001:00044b50       __updatetmbcinfo           0000000180045b50 f   LIBCMT:mbctype.obj
 0001:00044c9c       _setmbcp_nolock            0000000180045c9c f   LIBCMT:mbctype.obj
 0001:00044f14       _setmbcp                   0000000180045f14 f   LIBCMT:mbctype.obj
 0001:000450f4       __initmbctable             00000001800460f4 f   LIBCMT:mbctype.obj
 0001:0004511c       __addlocaleref             000000018004611c f   LIBCMT:localref.obj
 0001:000451a8       __removelocaleref          00000001800461a8 f   LIBCMT:localref.obj
 0001:0004524c       __freetlocinfo             000000018004624c f   LIBCMT:localref.obj
 0001:000453c8       _updatetlocinfoEx_nolock   00000001800463c8 f   LIBCMT:localref.obj
 0001:00045420       __updatetlocinfo           0000000180046420 f   LIBCMT:localref.obj
 0001:00045498       _encoded_null              0000000180046498 f   LIBCMT:tidtable.obj
 0001:000454a4       _mtterm                    00000001800464a4 f   LIBCMT:tidtable.obj
 0001:000454cc       _initptd                   00000001800464cc f   LIBCMT:tidtable.obj
 0001:00045584       _getptd_noexit             0000000180046584 f   LIBCMT:tidtable.obj
 0001:00045608       _getptd                    0000000180046608 f   LIBCMT:tidtable.obj
 0001:0004562c       _freefls                   000000018004662c f   LIBCMT:tidtable.obj
 0001:00045760       _freeptd                   0000000180046760 f   LIBCMT:tidtable.obj
 0001:000457a0       _mtinit                    00000001800467a0 f   LIBCMT:tidtable.obj
 0001:00045824       iswctype                   0000000180046824 f   LIBCMT:iswctype.obj
 0001:0004588c       __GSHandlerCheckCommon     000000018004688c f   LIBCMT:gshandler.obj
 0001:000458f0       __GSHandlerCheck           00000001800468f0 f   LIBCMT:gshandler.obj
 0001:00045910       _read_nolock               0000000180046910 f   LIBCMT:read.obj
 0001:00046034       read                       0000000180047034 f   LIBCMT:read.obj
 0001:00046034       _read                      0000000180047034 f   LIBCMT:read.obj
 0001:00046150       _ioinit                    0000000180047150 f   LIBCMT:ioinit.obj
 0001:00046424       _ioterm                    0000000180047424 f   LIBCMT:ioinit.obj
 0001:00046498       _lseeki64_nolock           0000000180047498 f   LIBCMT:lseeki64.obj
 0001:00046530       _lseeki64                  0000000180047530 f   LIBCMT:lseeki64.obj
 0001:00046614       _fileno                    0000000180047614 f   LIBCMT:fileno.obj
 0001:00046650       __security_check_cookie    0000000180047650 f   LIBCMT:amdsecgs.obj
 0001:00046680       _alloca_probe              0000000180047680     LIBCMT:chkstk.obj
 0001:00046680       __chkstk                   0000000180047680 f   LIBCMT:chkstk.obj
 0001:000466d0       _openfile                  00000001800476d0 f   LIBCMT:_open.obj
 0001:00046988       _getstream                 0000000180047988 f   LIBCMT:stream.obj
 0001:00046af0       _local_unwind              0000000180047af0 f   LIBCMT:jmpuwind.obj
 0001:00046b20       _NLG_Notify                0000000180047b20 f   LIBCMT:jmpuwind.obj
 0001:00046b40       __NLG_Dispatch2            0000000180047b40 f   LIBCMT:jmpuwind.obj
 0001:00046b50       __NLG_Return2              0000000180047b50 f   LIBCMT:jmpuwind.obj
 0001:00046b54       _filbuf                    0000000180047b54 f   LIBCMT:_filbuf.obj
 0001:00046ca8       memcpy_s                   0000000180047ca8 f   LIBCMT:memcpy_s.obj
 0001:00046d30       _write_nolock              0000000180047d30 f   LIBCMT:write.obj
 0001:00047490       _write                     0000000180048490 f   LIBCMT:write.obj
 0001:00047570       _lseek_nolock              0000000180048570 f   LIBCMT:lseek.obj
 0001:00047608       _close_nolock              0000000180048608 f   LIBCMT:close.obj
 0001:000476c4       close                      00000001800486c4 f   LIBCMT:close.obj
 0001:000476c4       _close                     00000001800486c4 f   LIBCMT:close.obj
 0001:00047788       _freebuf                   0000000180048788 f   LIBCMT:_freebuf.obj
 0001:000477c0       _mbsnbicoll_l              00000001800487c0 f   LIBCMT:mbsnbico.obj
 0001:000478c4       _mbsnbicoll                00000001800488c4 f   LIBCMT:mbsnbico.obj
 0001:000478e0       strlen                     00000001800488e0 f   LIBCMT:strlen.obj
 0001:00047988       __wtomb_environ            0000000180048988 f   LIBCMT:wtombenv.obj
 0001:00047a7c       strcpy_s                   0000000180048a7c f   LIBCMT:strcpy_s.obj
 0001:00047ae0       _mtinitlocks               0000000180048ae0 f   LIBCMT:mlock.obj
 0001:00047b64       _mtdeletelocks             0000000180048b64 f   LIBCMT:mlock.obj
 0001:00047bec       _unlock                    0000000180048bec f   LIBCMT:mlock.obj
 0001:00047c04       _mtinitlocknum             0000000180048c04 f   LIBCMT:mlock.obj
 0001:00047cec       _lock                      0000000180048cec f   LIBCMT:mlock.obj
 0001:00047d30       strnlen                    0000000180048d30 f   LIBCMT:strlen_s.obj
 0001:00047d4c       _fullpath                  0000000180048d4c f   LIBCMT:fullpath.obj
 0001:00047e78       __dtoxmode                 0000000180048e78 f   LIBCMT:stat.obj
 0001:00048708       _sopen_helper              0000000180049708 f   LIBCMT:open.obj
 0001:000487dc       _sopen_s                   00000001800497dc f   LIBCMT:open.obj
 0001:00048810       __loctotime64_t            0000000180049810 f   LIBCMT:dtoxtm64.obj
 0001:00048adc       _getdrive                  0000000180049adc f   LIBCMT:drive.obj
 0001:00048bcc       _mbctolower_l              0000000180049bcc f   LIBCMT:mbtolwr.obj
 0001:00048cb0       _mbctolower                0000000180049cb0 f   LIBCMT:mbtolwr.obj
 0001:00048cb8       _mbspbrk_l                 0000000180049cb8 f   LIBCMT:mbspbrk.obj
 0001:00048dac       _mbspbrk                   0000000180049dac f   LIBCMT:mbspbrk.obj
 0001:00048ee8       _output_l                  0000000180049ee8 f   LIBCMT:output.obj
 0001:00049994       _fcloseall                 000000018004a994 f   LIBCMT:closeall.obj
 0001:00049a40       asctime                    000000018004aa40 f   LIBCMT:asctime.obj
 0001:00049d6c       _localtime64_s             000000018004ad6c f   LIBCMT:loctim64.obj
 0001:0004a088       _commit                    000000018004b088 f   LIBCMT:commit.obj
 0001:0004a160       _set_osfhnd                000000018004b160 f   LIBCMT:osfinfo.obj
 0001:0004a210       _free_osfhnd               000000018004b210 f   LIBCMT:osfinfo.obj
 0001:0004a2bc       _get_osfhandle             000000018004b2bc f   LIBCMT:osfinfo.obj
 0001:0004a330       __lock_fhandle             000000018004b330 f   LIBCMT:osfinfo.obj
 0001:0004a3d8       _unlock_fhandle            000000018004b3d8 f   LIBCMT:osfinfo.obj
 0001:0004a400       _alloc_osfhnd              000000018004b400 f   LIBCMT:osfinfo.obj
 0001:0004a608       _chsize_nolock             000000018004b608 f   LIBCMT:chsize.obj
 0001:0004a7a0       _setmode_nolock            000000018004b7a0 f   LIBCMT:setmode.obj
 0001:0004a870       _get_fmode                 000000018004b870 f   LIBCMT:setmode.obj
 0001:0004a8a0       __GSHandlerCheck_SEH       000000018004b8a0 f   LIBCMT:gshandlerseh.obj
 0001:0004a934       _initp_misc_winsig         000000018004b934 f   LIBCMT:winsig.obj
 0001:0004a954       __get_sigabrt              000000018004b954 f   LIBCMT:winsig.obj
 0001:0004a964       raise                      000000018004b964 f   LIBCMT:winsig.obj
 0001:0004ab98       _setenvp                   000000018004bb98 f   LIBCMT:stdenvp.obj
 0001:0004ae98       _setargv                   000000018004be98 f   LIBCMT:stdargv.obj
 0001:0004af90       __crtGetEnvironmentStringsA 000000018004bf90 f   LIBCMT:a_env.obj
 0001:0004b084       _RTC_Initialize            000000018004c084 f   LIBCMT:_initsect_.obj
 0001:0004b0bc       _RTC_Terminate             000000018004c0bc f   LIBCMT:_initsect_.obj
 0001:0004b0f4       _XcptFilter                000000018004c0f4 f   LIBCMT:winxfltr.obj
 0001:0004b2c4       __CppXcptFilter            000000018004c2c4 f   LIBCMT:winxfltr.obj
 0001:0004b2d8       __security_init_cookie     000000018004c2d8 f   LIBCMT:gs_support.obj
 0001:0004b38c       _calloc_impl               000000018004c38c f   LIBCMT:calloc_impl.obj
 0001:0004b428       _recalloc                  000000018004c428 f   LIBCMT:recalloc.obj
 0001:0004b4b0       ?terminate@@YAXXZ          000000018004c4b0 f   LIBCMT:hooks.obj
 0001:0004b4d4       ?_inconsistency@@YAXXZ     000000018004c4d4 f   LIBCMT:hooks.obj
 0001:0004b4fc       _initp_eh_hooks            000000018004c4fc f   LIBCMT:hooks.obj
 0001:0004b51c       _initp_misc_rand_s         000000018004c51c f   LIBCMT:rand_s.obj
 0001:0004b524       _initp_misc_cfltcvt_tab    000000018004c524 f   LIBCMT:cmiscdat.obj
 0001:0004b560       _ValidateImageBase         000000018004c560 f   LIBCMT:pesect.obj
 0001:0004b590       _FindPESection             000000018004c590 f   LIBCMT:pesect.obj
 0001:0004b5e0       _IsNonwritableInCurrentImage 000000018004c5e0 f   LIBCMT:pesect.obj
 0001:0004b624       __crt_debugger_hook        000000018004c624 f   LIBCMT:dbghook.obj
 0001:0004b62c       _getbuf                    000000018004c62c f   LIBCMT:_getbuf.obj
 0001:0004b680       _isatty                    000000018004c680 f   LIBCMT:isatty.obj
 0001:0004b6e0       _fputwc_nolock             000000018004c6e0 f   LIBCMT:fputwc.obj
 0001:0004b8e0       _mbtowc_l                  000000018004c8e0 f   LIBCMT:mbtowc.obj
 0001:0004ba58       mbtowc                     000000018004ca58 f   LIBCMT:mbtowc.obj
 0001:0004ba60       __crtMessageBoxW           000000018004ca60 f   LIBCMT:crtmboxw.obj
 0001:0004bc68       wcscat_s                   000000018004cc68 f   LIBCMT:wcscat_s.obj
 0001:0004bcf0       wcsncpy_s                  000000018004ccf0 f   LIBCMT:wcsncpy_s.obj
 0001:0004bdc0       _set_error_mode            000000018004cdc0 f   LIBCMT:errmode.obj
 0001:0004be00       strncpy_s                  000000018004ce00 f   LIBCMT:strncpy_s.obj
 0001:0004c18c       __crtLCMapStringA          000000018004d18c f   LIBCMT:a_map.obj
 0001:0004c384       __crtGetStringTypeA        000000018004d384 f   LIBCMT:a_str.obj
 0001:0004c404       __free_lc_time             000000018004d404 f   LIBCMT:inittime.obj
 0001:0004c7f4       __free_lconv_num           000000018004d7f4 f   LIBCMT:initnum.obj
 0001:0004c860       __free_lconv_mon           000000018004d860 f   LIBCMT:initmon.obj
 0001:0004c96c       __report_gsfailure         000000018004d96c f   LIBCMT:gs_report.obj
 0001:0004cab8       _mbsnbicmp_l               000000018004dab8 f   LIBCMT:mbsnbicm.obj
 0001:0004cca0       _mbsnbicmp                 000000018004dca0 f   LIBCMT:mbsnbicm.obj
 0001:0004cca8       _mbsnbcmp_l                000000018004dca8 f   LIBCMT:mbsnbcmp.obj
 0001:0004ce08       _mbsnbcmp                  000000018004de08 f   LIBCMT:mbsnbcmp.obj
 0001:0004ce10       _putwch_nolock             000000018004de10 f   LIBCMT:putwch.obj
 0001:0004d1b0       __crtCompareStringA        000000018004e1b0 f   LIBCMT:a_cmp.obj
 0001:0004d23c       _strnicoll_l               000000018004e23c f   LIBCMT:strnicol.obj
 0001:0004d340       __crtsetenv                000000018004e340 f   LIBCMT:setenv.obj
 0001:0004d6dc       _validdrive                000000018004e6dc f   LIBCMT:getcwd.obj
 0001:0004d740       _getdcwd_nolock            000000018004e740 f   LIBCMT:getcwd.obj
 0001:0004d86c       _getcwd                    000000018004e86c f   LIBCMT:getcwd.obj
 0001:0004d8b0       _mbsicmp_l                 000000018004e8b0 f   LIBCMT:mbsicmp.obj
 0001:0004dabc       _mbsicmp                   000000018004eabc f   LIBCMT:mbsicmp.obj
 0001:0004dac4       _mbsrchr_l                 000000018004eac4 f   LIBCMT:mbsrchr.obj
 0001:0004dba4       _mbsrchr                   000000018004eba4 f   LIBCMT:mbsrchr.obj
 0001:0004e5ac       __tzset                    000000018004f5ac f   LIBCMT:tzset.obj
 0001:0004e5e8       _isindst                   000000018004f5e8 f   LIBCMT:tzset.obj
 0001:0004e618       _get_daylight              000000018004f618 f   LIBCMT:timeset.obj
 0001:0004e648       _get_dstbias               000000018004f648 f   LIBCMT:timeset.obj
 0001:0004e678       _get_timezone              000000018004f678 f   LIBCMT:timeset.obj
 0001:0004e6a8       __daylight                 000000018004f6a8 f   LIBCMT:timeset.obj
 0001:0004e6b0       __dstbias                  000000018004f6b0 f   LIBCMT:timeset.obj
 0001:0004e6b8       __timezone                 000000018004f6b8 f   LIBCMT:timeset.obj
 0001:0004e6c0       __tzname                   000000018004f6c0 f   LIBCMT:timeset.obj
 0001:0004e6c8       strpbrk                    000000018004f6c8 f   LIBCMT:strpbrk.obj
 0001:0004e764       _wctomb_s_l                000000018004f764 f   LIBCMT:wctomb.obj
 0001:0004e928       wctomb_s                   000000018004f928 f   LIBCMT:wctomb.obj
 0001:0004e93c       _gmtime64_s                000000018004f93c f   LIBCMT:gmtime64.obj
 0001:0004ee78       strtol                     000000018004fe78 f   LIBCMT:strtol.obj
 0001:0004ef24       _ismbblead                 000000018004ff24 f   LIBCMT:ismbbyte.obj
 0001:0004ef38       _fptrap                    000000018004ff38 f   LIBCMT:crt0fp.obj
 0001:0004ef44       atol                       000000018004ff44 f   LIBCMT:atox.obj
 0001:0004ef50       _flswbuf                   000000018004ff50 f   LIBCMT:_flswbuf.obj
 0001:0004f0e0       __ascii_strnicmp           00000001800500e0 f   LIBCMT:strnicmp.obj
 0001:0004f128       _strnicmp_l                0000000180050128 f   LIBCMT:strnicmp.obj
 0001:0004f22c       _strnicmp                  000000018005022c f   LIBCMT:strnicmp.obj
 0001:0004f27c       __initconout               000000018005027c f   LIBCMT:initcon.obj
 0001:0004f2b8       __termconout               00000001800502b8 f   LIBCMT:initcon.obj
 0001:0004f2dc       _strdup                    00000001800502dc f   LIBCMT:strdup.obj
 0001:0004f34c       _mbschr_l                  000000018005034c f   LIBCMT:mbschr.obj
 0001:0004f438       _mbschr                    0000000180050438 f   LIBCMT:mbschr.obj
 0001:0004f440       __ascii_stricmp            0000000180050440 f   LIBCMT:stricmp.obj
 0001:0004f47c       _stricmp_l                 000000018005047c f   LIBCMT:stricmp.obj
 0001:0004f554       stricmp                    0000000180050554 f   LIBCMT:stricmp.obj
 0001:0004f554       _stricmp                   0000000180050554 f   LIBCMT:stricmp.obj
 0001:0004f59c       strrchr                    000000018005059c f   LIBCMT:strrchr.obj
 0001:0004f5c4       ___lc_codepage_func        00000001800505c4 f   LIBCMT:initctyp.obj
 0001:0004f5fc       _isctype_l                 00000001800505fc f   LIBCMT:isctype.obj
 0001:0004f6e4       _tolower_l                 00000001800506e4 f   LIBCMT:tolower.obj
 0001:0004f834       tolower                    0000000180050834 f   LIBCMT:tolower.obj
 0001:0004f870       memcmp                     0000000180050870 f   LIBCMT:memcmp.obj
 0001:0004f938       strchr                     0000000180050938 f   LIBCMT:strchr.obj
 0001:0004f952       RtlUnwindEx                0000000180050952 f   kernel32:KERNEL32.dll
 0001:0004f958       RtlVirtualUnwind           0000000180050958 f   kernel32:KERNEL32.dll
 0001:0004f95e       RtlLookupFunctionEntry     000000018005095e f   kernel32:KERNEL32.dll
 0001:0004f964       _cfltcvt_init              0000000180050964 f   LIBCMT:_fpinit_.obj
 0001:0004f9ec       _fpmath                    00000001800509ec f   LIBCMT:_fpinit_.obj
 0001:0004fa00       ?_GetEstablisherFrame@@YAPEA_KPEA_KPEAU_xDISPATCHER_CONTEXT@@PEBU_s_FuncInfo@@0@Z 0000000180050a00 f   LIBCMT:trnsctrl.obj
 0001:0004faec       _GetImageBase              0000000180050aec f   LIBCMT:trnsctrl.obj
 0001:0004fb04       _GetThrowImageBase         0000000180050b04 f   LIBCMT:trnsctrl.obj
 0001:0004fb1c       _SetImageBase              0000000180050b1c f   LIBCMT:trnsctrl.obj
 0001:0004fb38       _SetThrowImageBase         0000000180050b38 f   LIBCMT:trnsctrl.obj
 0001:0004fb54       ?__FrameUnwindToEmptyState@@YAXPEA_KPEAU_xDISPATCHER_CONTEXT@@PEBU_s_FuncInfo@@@Z 0000000180050b54 f   LIBCMT:trnsctrl.obj
 0001:0004fc00       __CxxFrameHandler3         0000000180050c00 f   LIBCMT:trnsctrl.obj
 0001:0004fc88       ?__SehTransFilter@@YAHPEAU_EXCEPTION_POINTERS@@PEAUEHExceptionRecord@@PEA_KPEAU_CONTEXT@@PEAU_xDISPATCHER_CONTEXT@@PEBU_s_FuncInfo@@PEAH@Z 0000000180050c88 f   LIBCMT:trnsctrl.obj
 0001:0004fd2c       _CallSETranslator          0000000180050d2c f   LIBCMT:trnsctrl.obj
 0001:0004fd80       ?_GetRangeOfTrysToCheck@@YAPEBU_s_TryBlockMapEntry@@PEA_KPEBU_s_FuncInfo@@HHPEAI2PEAU_xDISPATCHER_CONTEXT@@@Z 0000000180050d80 f   LIBCMT:trnsctrl.obj
 0001:0004feac       _CreateFrameInfo           0000000180050eac f   LIBCMT:trnsctrl.obj
 0001:0004fef0       _IsExceptionObjectToBeDestroyed 0000000180050ef0 f   LIBCMT:trnsctrl.obj
 0001:0004ff24       _FindAndUnlinkFrame        0000000180050f24 f   LIBCMT:trnsctrl.obj
 0001:0004ff84       _UnwindNestedFrames        0000000180050f84 f   LIBCMT:trnsctrl.obj
 0001:00050074       _CxxThrowException         0000000180051074 f   LIBCMT:throw.obj
 0001:00050108       _forcdecpt_l               0000000180051108 f   LIBCMT:cvt.obj
 0001:00050188       _cropzeros_l               0000000180051188 f   LIBCMT:cvt.obj
 0001:00050228       _positive                  0000000180051228 f   LIBCMT:cvt.obj
 0001:00050240       _fassign_l                 0000000180051240 f   LIBCMT:cvt.obj
 0001:00050284       _fassign                   0000000180051284 f   LIBCMT:cvt.obj
 0001:0005028c       _forcdecpt                 000000018005128c f   LIBCMT:cvt.obj
 0001:00050294       _cropzeros                 0000000180051294 f   LIBCMT:cvt.obj
 0001:000504d0       _cftoe_l                   00000001800514d0 f   LIBCMT:cvt.obj
 0001:000505c8       _cftoa_l                   00000001800515c8 f   LIBCMT:cvt.obj
 0001:00050b44       _cftof_l                   0000000180051b44 f   LIBCMT:cvt.obj
 0001:00050c18       _cftog_l                   0000000180051c18 f   LIBCMT:cvt.obj
 0001:00050d4c       _cfltcvt_l                 0000000180051d4c f   LIBCMT:cvt.obj
 0001:00050de4       _cfltcvt                   0000000180051de4 f   LIBCMT:cvt.obj
 0001:00050e08       _pow_special               0000000180051e08 f   LIBCMT:_pow_special_.obj
 0001:00050f08       ?__StateFromIp@@YAHPEBU_s_FuncInfo@@PEAU_xDISPATCHER_CONTEXT@@_J@Z 0000000180051f08 f   LIBCMT:ehstate.obj
 0001:00050f94       ?__StateFromControlPc@@YAHPEBU_s_FuncInfo@@PEAU_xDISPATCHER_CONTEXT@@@Z 0000000180051f94 f   LIBCMT:ehstate.obj
 0001:00050f9c       ?__GetCurrentState@@YAHPEA_KPEAU_xDISPATCHER_CONTEXT@@PEBU_s_FuncInfo@@@Z 0000000180051f9c f   LIBCMT:ehstate.obj
 0001:00050fc4       ?__SetState@@YAXPEA_KPEAU_xDISPATCHER_CONTEXT@@PEBU_s_FuncInfo@@H@Z 0000000180051fc4 f   LIBCMT:ehstate.obj
 0001:00050fd0       ?__SetUnwindTryBlock@@YAXPEA_KPEAU_xDISPATCHER_CONTEXT@@PEBU_s_FuncInfo@@H@Z 0000000180051fd0 f   LIBCMT:ehstate.obj
 0001:0005100c       ?__GetUnwindTryBlock@@YAHPEA_KPEAU_xDISPATCHER_CONTEXT@@PEBU_s_FuncInfo@@@Z 000000018005200c f   LIBCMT:ehstate.obj
 0001:00051038       ??1bad_exception@std@@UEAA@XZ 0000000180052038 f i LIBCMT:frame.obj
 0001:00051048       ??_Ebad_exception@std@@UEAAPEAXI@Z 0000000180052048 f i LIBCMT:frame.obj
 0001:00051048       ??_Gbad_exception@std@@UEAAPEAXI@Z 0000000180052048 f i LIBCMT:frame.obj
 0001:00051084       __TypeMatch                0000000180052084 f   LIBCMT:frame.obj
 0001:000511a8       __FrameUnwindFilter        00000001800521a8 f   LIBCMT:frame.obj
 0001:000511fc       __FrameUnwindToState       00000001800521fc f   LIBCMT:frame.obj
 0001:00051388       __DestructExceptionObject  0000000180052388 f   LIBCMT:frame.obj
 0001:000513cc       __AdjustPointer            00000001800523cc f   LIBCMT:frame.obj
 0001:000514c4       __CxxCallCatchBlock        00000001800524c4 f   LIBCMT:frame.obj
 0001:000516d8       __BuildCatchObjectHelper   00000001800526d8 f   LIBCMT:frame.obj
 0001:000518dc       __BuildCatchObject         00000001800528dc f   LIBCMT:frame.obj
 0001:00052158       ??0bad_exception@std@@QEAA@AEBV01@@Z 0000000180053158 f i LIBCMT:frame.obj
 0001:0005217c       __InternalCxxFrameHandler  000000018005317c f   LIBCMT:frame.obj
 0001:000523a4       isdigit                    00000001800533a4 f i LIBCMT:_ctype.obj
 0001:00052424       _atodbl_l                  0000000180053424 f   LIBCMT:atodbl.obj
 0001:00052524       _atoflt_l                  0000000180053524 f   LIBCMT:atodbl.obj
 0001:00052624       _fptostr                   0000000180053624 f   LIBCMT:_fptostr.obj
 0001:000526f0       __dtold                    00000001800536f0 f   LIBCMT:_cfout_.obj
 0001:000527b8       _fltout2                   00000001800537b8 f   LIBCMT:_cfout_.obj
 0001:0005292c       _handle_error              000000018005392c f   LIBCMT:_libm_error_.obj
 0001:00052a7c       ?what@exception@std@@UEBAPEBDXZ 0000000180053a7c f   LIBCMT:stdexcpt.obj
 0001:00052a90       ?_Copy_str@exception@std@@AEAAXPEBD@Z 0000000180053a90 f   LIBCMT:stdexcpt.obj
 0001:00052aec       ?_Tidy@exception@std@@AEAAXXZ 0000000180053aec f   LIBCMT:stdexcpt.obj
 0001:00052b14       ??0exception@std@@QEAA@AEBQEBD@Z 0000000180053b14 f   LIBCMT:stdexcpt.obj
 0001:00052b44       ??4exception@std@@QEAAAEAV01@AEBV01@@Z 0000000180053b44 f   LIBCMT:stdexcpt.obj
 0001:00052b88       ??1exception@std@@UEAA@XZ  0000000180053b88 f   LIBCMT:stdexcpt.obj
 0001:00052b98       ??_Gexception@std@@UEAAPEAXI@Z 0000000180053b98 f i LIBCMT:stdexcpt.obj
 0001:00052b98       ??_Eexception@std@@UEAAPEAXI@Z 0000000180053b98 f i LIBCMT:stdexcpt.obj
 0001:00052bd4       ??0exception@std@@QEAA@AEBV01@@Z 0000000180053bd4 f   LIBCMT:stdexcpt.obj
 0001:00052c10       _CallSettingFrame          0000000180053c10 f   LIBCMT:handlers.obj
 0001:00052c50       _GetNextInstrOffset        0000000180053c50 f   LIBCMT:handlers.obj
 0001:00052c58       ?_ValidateRead@@YAHPEBXI@Z 0000000180053c58 f   LIBCMT:validate.obj
 0001:00052c58       ?_ValidateWrite@@YAHPEAXI@Z 0000000180053c58 f   LIBCMT:validate.obj
 0001:00052c58       ?_ValidateExecute@@YAHP6A_JXZ@Z 0000000180053c58 f   LIBCMT:validate.obj
 0001:00052c64       _ld12tod                   0000000180053c64 f   LIBCMT:_intrncvt_.obj
 0001:00053230       _ld12tof                   0000000180054230 f   LIBCMT:_intrncvt_.obj
 0001:000537fc       __strgtold12_l             00000001800547fc f   LIBCMT:_strgtold_.obj
 0001:00054060       $I10_OUTPUT                0000000180055060 f   LIBCMT:_x10fout_.obj
 0001:00054b0c       _raise_exc_ex              0000000180055b0c f   LIBCMT:_fpexcept_.obj
 0001:00054e18       _raise_exc                 0000000180055e18 f   LIBCMT:_fpexcept_.obj
 0001:00054e40       _set_errno_from_matherr    0000000180055e40 f   LIBCMT:_fpexcept_.obj
 0001:00054e70       _matherr                   0000000180055e70 f   LIBCMT:_matherr_.obj
 0001:00054e70       __set_flsgetvalue          0000000180055e70 f   LIBCMT:tidtable.obj
 0001:00054e74       _statfp                    0000000180055e74 f   LIBCMT:_fpctrl_.obj
 0001:00054e88       _clrfp                     0000000180055e88 f   LIBCMT:_fpctrl_.obj
 0001:00054ea8       _ctrlfp                    0000000180055ea8 f   LIBCMT:_fpctrl_.obj
 0001:00054f24       _set_statfp                0000000180055f24 f   LIBCMT:_fpctrl_.obj
 0001:00054f44       __mtold12                  0000000180055f44 f   LIBCMT:_mantold_.obj
 0001:00055180       _get_fpsr                  0000000180056180 f   LIBCMT:_fpsr_.obj
 0001:00055190       _set_fpsr                  0000000180056190 f   LIBCMT:_fpsr_.obj
 0001:0005519a       _fclrf                     000000018005619a f   LIBCMT:_fpsr_.obj
 0001:000551ae       _frnd                      00000001800561ae f   LIBCMT:_fpsr_.obj
 0001:000551ce       RtlPcToFileHeader          00000001800561ce f   kernel32:KERNEL32.dll
 0002:00000000       __imp_RegEnumKeyExW        0000000180063000     advapi32:ADVAPI32.dll
 0002:00000008       __imp_RegOpenKeyExW        0000000180063008     advapi32:ADVAPI32.dll
 0002:00000010       __imp_RegEnumValueW        0000000180063010     advapi32:ADVAPI32.dll
 0002:00000018       __imp_RegDeleteKeyW        0000000180063018     advapi32:ADVAPI32.dll
 0002:00000020       __imp_RegQueryValueExW     0000000180063020     advapi32:ADVAPI32.dll
 0002:00000028       __imp_RegCreateKeyExW      0000000180063028     advapi32:ADVAPI32.dll
 0002:00000030       __imp_RegCloseKey          0000000180063030     advapi32:ADVAPI32.dll
 0002:00000038       __imp_RegSetValueExW       0000000180063038     advapi32:ADVAPI32.dll
 0002:00000040       \177ADVAPI32_NULL_THUNK_DATA 0000000180063040     advapi32:ADVAPI32.dll
 0002:00000048       __imp_ExpandEnvironmentStringsW 0000000180063048     kernel32:KERNEL32.dll
 0002:00000050       __imp_FindFirstFileW       0000000180063050     kernel32:KERNEL32.dll
 0002:00000058       __imp_GetModuleHandleW     0000000180063058     kernel32:KERNEL32.dll
 0002:00000060       __imp_FindClose            0000000180063060     kernel32:KERNEL32.dll
 0002:00000068       __imp_FindNextFileW        0000000180063068     kernel32:KERNEL32.dll
 0002:00000070       __imp_WriteConsoleOutputW  0000000180063070     kernel32:KERNEL32.dll
 0002:00000078       __imp_SetConsoleActiveScreenBuffer 0000000180063078     kernel32:KERNEL32.dll
 0002:00000080       __imp_WriteConsoleOutputA  0000000180063080     kernel32:KERNEL32.dll
 0002:00000088       __imp_SetConsoleMode       0000000180063088     kernel32:KERNEL32.dll
 0002:00000090       __imp_CreateFileW          0000000180063090     kernel32:KERNEL32.dll
 0002:00000098       __imp_GetStdHandle         0000000180063098     kernel32:KERNEL32.dll
 0002:000000a0       __imp_GetModuleFileNameW   00000001800630a0     kernel32:KERNEL32.dll
 0002:000000a8       __imp_GetConsoleScreenBufferInfo 00000001800630a8     kernel32:KERNEL32.dll
 0002:000000b0       __imp_SetConsoleCursorInfo 00000001800630b0     kernel32:KERNEL32.dll
 0002:000000b8       __imp_ReadConsoleInputW    00000001800630b8     kernel32:KERNEL32.dll
 0002:000000c0       __imp_VirtualQuery         00000001800630c0     kernel32:KERNEL32.dll
 0002:000000c8       __imp_GetTickCount         00000001800630c8     kernel32:KERNEL32.dll
 0002:000000d0       __imp_VirtualFree          00000001800630d0     kernel32:KERNEL32.dll
 0002:000000d8       __imp_VirtualAlloc         00000001800630d8     kernel32:KERNEL32.dll
 0002:000000e0       __imp_GetSystemInfo        00000001800630e0     kernel32:KERNEL32.dll
 0002:000000e8       __imp_GetTimeZoneInformation 00000001800630e8     kernel32:KERNEL32.dll
 0002:000000f0       __imp_GetDriveTypeW        00000001800630f0     kernel32:KERNEL32.dll
 0002:000000f8       __imp_CloseHandle          00000001800630f8     kernel32:KERNEL32.dll
 0002:00000100       __imp_OpenFileMappingW     0000000180063100     kernel32:KERNEL32.dll
 0002:00000108       __imp_GetConsoleWindow     0000000180063108     kernel32:KERNEL32.dll
 0002:00000110       __imp_RaiseException       0000000180063110     kernel32:KERNEL32.dll
 0002:00000118       __imp_CreateConsoleScreenBuffer 0000000180063118     kernel32:KERNEL32.dll
 0002:00000120       __imp_HeapCreate           0000000180063120     kernel32:KERNEL32.dll
 0002:00000128       __imp_GetLastError         0000000180063128     kernel32:KERNEL32.dll
 0002:00000130       __imp_HeapFree             0000000180063130     kernel32:KERNEL32.dll
 0002:00000138       __imp_EncodePointer        0000000180063138     kernel32:KERNEL32.dll
 0002:00000140       __imp_DecodePointer        0000000180063140     kernel32:KERNEL32.dll
 0002:00000148       __imp_HeapReAlloc          0000000180063148     kernel32:KERNEL32.dll
 0002:00000150       __imp_HeapAlloc            0000000180063150     kernel32:KERNEL32.dll
 0002:00000158       __imp_ReadFile             0000000180063158     kernel32:KERNEL32.dll
 0002:00000160       __imp_GetFileAttributesA   0000000180063160     kernel32:KERNEL32.dll
 0002:00000168       __imp_FileTimeToSystemTime 0000000180063168     kernel32:KERNEL32.dll
 0002:00000170       __imp_FileTimeToLocalFileTime 0000000180063170     kernel32:KERNEL32.dll
 0002:00000178       __imp_GetDriveTypeA        0000000180063178     kernel32:KERNEL32.dll
 0002:00000180       __imp_FindFirstFileExA     0000000180063180     kernel32:KERNEL32.dll
 0002:00000188       __imp_EnterCriticalSection 0000000180063188     kernel32:KERNEL32.dll
 0002:00000190       __imp_LeaveCriticalSection 0000000180063190     kernel32:KERNEL32.dll
 0002:00000198       __imp_GetSystemTimeAsFileTime 0000000180063198     kernel32:KERNEL32.dll
 0002:000001a0       __imp_GetFileType          00000001800631a0     kernel32:KERNEL32.dll
 0002:000001a8       __imp_GetFileInformationByHandle 00000001800631a8     kernel32:KERNEL32.dll
 0002:000001b0       __imp_PeekNamedPipe        00000001800631b0     kernel32:KERNEL32.dll
 0002:000001b8       __imp_GetCurrentThreadId   00000001800631b8     kernel32:KERNEL32.dll
 0002:000001c0       __imp_FlsSetValue          00000001800631c0     kernel32:KERNEL32.dll
 0002:000001c8       __imp_GetCommandLineA      00000001800631c8     kernel32:KERNEL32.dll
 0002:000001d0       __imp_HeapSetInformation   00000001800631d0     kernel32:KERNEL32.dll
 0002:000001d8       __imp_GetVersion           00000001800631d8     kernel32:KERNEL32.dll
 0002:000001e0       __imp_RtlPcToFileHeader    00000001800631e0     kernel32:KERNEL32.dll
 0002:000001e8       __imp_HeapDestroy          00000001800631e8     kernel32:KERNEL32.dll
 0002:000001f0       __imp_Sleep                00000001800631f0     kernel32:KERNEL32.dll
 0002:000001f8       __imp_HeapSize             00000001800631f8     kernel32:KERNEL32.dll
 0002:00000200       __imp_GetProcAddress       0000000180063200     kernel32:KERNEL32.dll
 0002:00000208       __imp_ExitProcess          0000000180063208     kernel32:KERNEL32.dll
 0002:00000210       __imp_RtlUnwindEx          0000000180063210     kernel32:KERNEL32.dll
 0002:00000218       __imp_UnhandledExceptionFilter 0000000180063218     kernel32:KERNEL32.dll
 0002:00000220       __imp_SetUnhandledExceptionFilter 0000000180063220     kernel32:KERNEL32.dll
 0002:00000228       __imp_IsDebuggerPresent    0000000180063228     kernel32:KERNEL32.dll
 0002:00000230       __imp_RtlVirtualUnwind     0000000180063230     kernel32:KERNEL32.dll
 0002:00000238       __imp_RtlLookupFunctionEntry 0000000180063238     kernel32:KERNEL32.dll
 0002:00000240       __imp_RtlCaptureContext    0000000180063240     kernel32:KERNEL32.dll
 0002:00000248       __imp_TerminateProcess     0000000180063248     kernel32:KERNEL32.dll
 0002:00000250       __imp_GetCurrentProcess    0000000180063250     kernel32:KERNEL32.dll
 0002:00000258       __imp_WriteFile            0000000180063258     kernel32:KERNEL32.dll
 0002:00000260       __imp_GetCPInfo            0000000180063260     kernel32:KERNEL32.dll
 0002:00000268       __imp_GetACP               0000000180063268     kernel32:KERNEL32.dll
 0002:00000270       __imp_GetOEMCP             0000000180063270     kernel32:KERNEL32.dll
 0002:00000278       __imp_IsValidCodePage      0000000180063278     kernel32:KERNEL32.dll
 0002:00000280       __imp_FlsGetValue          0000000180063280     kernel32:KERNEL32.dll
 0002:00000288       __imp_FlsFree              0000000180063288     kernel32:KERNEL32.dll
 0002:00000290       __imp_SetLastError         0000000180063290     kernel32:KERNEL32.dll
 0002:00000298       __imp_FlsAlloc             0000000180063298     kernel32:KERNEL32.dll
 0002:000002a0       __imp_GetStringTypeW       00000001800632a0     kernel32:KERNEL32.dll
 0002:000002a8       __imp_MultiByteToWideChar  00000001800632a8     kernel32:KERNEL32.dll
 0002:000002b0       __imp_SetHandleCount       00000001800632b0     kernel32:KERNEL32.dll
 0002:000002b8       __imp_InitializeCriticalSectionAndSpinCount 00000001800632b8     kernel32:KERNEL32.dll
 0002:000002c0       __imp_GetStartupInfoW      00000001800632c0     kernel32:KERNEL32.dll
 0002:000002c8       __imp_DeleteCriticalSection 00000001800632c8     kernel32:KERNEL32.dll
 0002:000002d0       __imp_SetFilePointer       00000001800632d0     kernel32:KERNEL32.dll
 0002:000002d8       __imp_WideCharToMultiByte  00000001800632d8     kernel32:KERNEL32.dll
 0002:000002e0       __imp_GetConsoleCP         00000001800632e0     kernel32:KERNEL32.dll
 0002:000002e8       __imp_GetConsoleMode       00000001800632e8     kernel32:KERNEL32.dll
 0002:000002f0       __imp_GetFullPathNameA     00000001800632f0     kernel32:KERNEL32.dll
 0002:000002f8       __imp_CreateFileA          00000001800632f8     kernel32:KERNEL32.dll
 0002:00000300       __imp_GetCurrentDirectoryW 0000000180063300     kernel32:KERNEL32.dll
 0002:00000308       __imp_FlushFileBuffers     0000000180063308     kernel32:KERNEL32.dll
 0002:00000310       __imp_SetStdHandle         0000000180063310     kernel32:KERNEL32.dll
 0002:00000318       __imp_SetEndOfFile         0000000180063318     kernel32:KERNEL32.dll
 0002:00000320       __imp_GetProcessHeap       0000000180063320     kernel32:KERNEL32.dll
 0002:00000328       __imp_GetModuleFileNameA   0000000180063328     kernel32:KERNEL32.dll
 0002:00000330       __imp_FreeEnvironmentStringsW 0000000180063330     kernel32:KERNEL32.dll
 0002:00000338       __imp_GetEnvironmentStringsW 0000000180063338     kernel32:KERNEL32.dll
 0002:00000340       __imp_QueryPerformanceCounter 0000000180063340     kernel32:KERNEL32.dll
 0002:00000348       __imp_GetCurrentProcessId  0000000180063348     kernel32:KERNEL32.dll
 0002:00000350       __imp_LoadLibraryW         0000000180063350     kernel32:KERNEL32.dll
 0002:00000358       __imp_LCMapStringW         0000000180063358     kernel32:KERNEL32.dll
 0002:00000360       __imp_WriteConsoleW        0000000180063360     kernel32:KERNEL32.dll
 0002:00000368       __imp_CompareStringW       0000000180063368     kernel32:KERNEL32.dll
 0002:00000370       __imp_SetEnvironmentVariableA 0000000180063370     kernel32:KERNEL32.dll
 0002:00000378       \177KERNEL32_NULL_THUNK_DATA 0000000180063378     kernel32:KERNEL32.dll
 0002:00000380       __imp_CharUpperBuffW       0000000180063380     user32:USER32.dll
 0002:00000388       __imp_wsprintfW            0000000180063388     user32:USER32.dll
 0002:00000390       \177USER32_NULL_THUNK_DATA 0000000180063390     user32:USER32.dll
 0002:00000398       __imp_InternetCloseHandle  0000000180063398     wininet:WININET.dll
 0002:000003a0       __imp_InternetReadFile     00000001800633a0     wininet:WININET.dll
 0002:000003a8       __imp_InternetOpenUrlW     00000001800633a8     wininet:WININET.dll
 0002:000003b0       __imp_InternetOpenW        00000001800633b0     wininet:WININET.dll
 0002:000003b8       \177WININET_NULL_THUNK_DATA 00000001800633b8     wininet:WININET.dll
 0002:000003c0       __xc_a                     00000001800633c0     LIBCMT:crt0init.obj
 0002:00000668       __xc_z                     0000000180063668     LIBCMT:crt0init.obj
 0002:00000670       __xi_a                     0000000180063670     LIBCMT:crt0init.obj
 0002:00000698       __xi_z                     0000000180063698     LIBCMT:crt0init.obj
 0002:000006a0       __xp_a                     00000001800636a0     LIBCMT:crt0init.obj
 0002:000006b8       __xp_z                     00000001800636b8     LIBCMT:crt0init.obj
 0002:000006c0       __xt_a                     00000001800636c0     LIBCMT:crt0init.obj
 0002:000006c8       __xt_z                     00000001800636c8     LIBCMT:crt0init.obj
 0002:000006d8       ??_7type_info@@6B@         00000001800636d8     LIBCMT:typinfo.obj
 0002:000006e0       ??_C@_03LLEJOLGL@?4?1?2?$AA@ 00000001800636e0     LIBCMT:stati32.obj
 0002:000006e4       ??_C@_02EAOCEIGI@?$DP?$CK?$AA@ 00000001800636e4     LIBCMT:stati32.obj
 0002:000006e8       _pRawDllMain               00000001800636e8     LIBCMT:dllcrt0.obj
 0002:000006e8       _pDefaultRawDllMain        00000001800636e8     LIBCMT:dllcrt0.obj
 0002:000006f0       ??_C@_0P@MIGLKIOC@CorExitProcess?$AA@ 00000001800636f0     LIBCMT:crt0dat.obj
 0002:00000700       ??_C@_1BI@BGOHAHKC@?$AAm?$AAs?$AAc?$AAo?$AAr?$AAe?$AAe?$AA?4?$AAd?$AAl?$AAl?$AA?$AA@ 0000000180063700     LIBCMT:crt0dat.obj
 0002:00000718       ??_C@_1BO@BKOMIGKJ@?$AAr?$AAu?$AAn?$AAt?$AAi?$AAm?$AAe?$AA?5?$AAe?$AAr?$AAr?$AAo?$AAr?$AA?5?$AA?$AA@ 0000000180063718     LIBCMT:crt0msg.obj
 0002:00000738       ??_C@_15JNBOKNOG@?$AA?$AN?$AA?6?$AA?$AA@ 0000000180063738     LIBCMT:crt0msg.obj
 0002:00000740       ??_C@_1BM@JBBEPPHI@?$AAT?$AAL?$AAO?$AAS?$AAS?$AA?5?$AAe?$AAr?$AAr?$AAo?$AAr?$AA?$AN?$AA?6?$AA?$AA@ 0000000180063740     LIBCMT:crt0msg.obj
 0002:00000760       ??_C@_1BK@KMOMNAAI@?$AAS?$AAI?$AAN?$AAG?$AA?5?$AAe?$AAr?$AAr?$AAo?$AAr?$AA?$AN?$AA?6?$AA?$AA@ 0000000180063760     LIBCMT:crt0msg.obj
 0002:00000780       ??_C@_1BO@BFCDCGC@?$AAD?$AAO?$AAM?$AAA?$AAI?$AAN?$AA?5?$AAe?$AAr?$AAr?$AAo?$AAr?$AA?$AN?$AA?6?$AA?$AA@ 0000000180063780     LIBCMT:crt0msg.obj
 0002:000007a0       ??_C@_1BOO@KGEDBGAJ@?$AAR?$AA6?$AA0?$AA3?$AA3?$AA?$AN?$AA?6?$AA?9?$AA?5?$AAA?$AAt?$AAt?$AAe?$AAm?$AAp?$AAt?$AA?5?$AAt?$AAo?$AA?5?$AAu?$AAs?$AAe?$AA?5?$AAM?$AAS?$AAI?$AAL?$AA?5?$AAc?$AAo?$AAd@ 00000001800637a0     LIBCMT:crt0msg.obj
 0002:00000990       ??_C@_1GG@GOPILAJP@?$AAR?$AA6?$AA0?$AA3?$AA2?$AA?$AN?$AA?6?$AA?9?$AA?5?$AAn?$AAo?$AAt?$AA?5?$AAe?$AAn?$AAo?$AAu?$AAg?$AAh?$AA?5?$AAs?$AAp?$AAa?$AAc?$AAe?$AA?5?$AAf?$AAo?$AAr?$AA?5?$AAl?$AAo@ 0000000180063990     LIBCMT:crt0msg.obj
 0002:00000a00       ??_C@_1MG@ENCOOIDF@?$AAR?$AA6?$AA0?$AA3?$AA1?$AA?$AN?$AA?6?$AA?9?$AA?5?$AAA?$AAt?$AAt?$AAe?$AAm?$AAp?$AAt?$AA?5?$AAt?$AAo?$AA?5?$AAi?$AAn?$AAi?$AAt?$AAi?$AAa?$AAl?$AAi?$AAz?$AAe?$AA?5?$AAt@ 0000000180063a00     LIBCMT:crt0msg.obj
 0002:00000ac8       ??_C@_1DO@BMFCDCD@?$AAR?$AA6?$AA0?$AA3?$AA0?$AA?$AN?$AA?6?$AA?9?$AA?5?$AAC?$AAR?$AAT?$AA?5?$AAn?$AAo?$AAt?$AA?5?$AAi?$AAn?$AAi?$AAt?$AAi?$AAa?$AAl?$AAi?$AAz?$AAe?$AAd?$AA?$AN?$AA?6?$AA?$AA@ 0000000180063ac8     LIBCMT:crt0msg.obj
 0002:00000b10       ??_C@_1EK@HHFLMAOL@?$AAR?$AA6?$AA0?$AA2?$AA8?$AA?$AN?$AA?6?$AA?9?$AA?5?$AAu?$AAn?$AAa?$AAb?$AAl?$AAe?$AA?5?$AAt?$AAo?$AA?5?$AAi?$AAn?$AAi?$AAt?$AAi?$AAa?$AAl?$AAi?$AAz?$AAe?$AA?5?$AAh?$AAe@ 0000000180063b10     LIBCMT:crt0msg.obj
 0002:00000b60       ??_C@_1GK@MFGOKLAG@?$AAR?$AA6?$AA0?$AA2?$AA7?$AA?$AN?$AA?6?$AA?9?$AA?5?$AAn?$AAo?$AAt?$AA?5?$AAe?$AAn?$AAo?$AAu?$AAg?$AAh?$AA?5?$AAs?$AAp?$AAa?$AAc?$AAe?$AA?5?$AAf?$AAo?$AAr?$AA?5?$AAl?$AAo@ 0000000180063b60     LIBCMT:crt0msg.obj
 0002:00000bd0       ??_C@_1GK@MCAAGJMO@?$AAR?$AA6?$AA0?$AA2?$AA6?$AA?$AN?$AA?6?$AA?9?$AA?5?$AAn?$AAo?$AAt?$AA?5?$AAe?$AAn?$AAo?$AAu?$AAg?$AAh?$AA?5?$AAs?$AAp?$AAa?$AAc?$AAe?$AA?5?$AAf?$AAo?$AAr?$AA?5?$AAs?$AAt@ 0000000180063bd0     LIBCMT:crt0msg.obj
 0002:00000c40       ??_C@_1EM@MAADIHMB@?$AAR?$AA6?$AA0?$AA2?$AA5?$AA?$AN?$AA?6?$AA?9?$AA?5?$AAp?$AAu?$AAr?$AAe?$AA?5?$AAv?$AAi?$AAr?$AAt?$AAu?$AAa?$AAl?$AA?5?$AAf?$AAu?$AAn?$AAc?$AAt?$AAi?$AAo?$AAn?$AA?5?$AAc@ 0000000180063c40     LIBCMT:crt0msg.obj
 0002:00000c90       ??_C@_1GK@FHCKBEFA@?$AAR?$AA6?$AA0?$AA2?$AA4?$AA?$AN?$AA?6?$AA?9?$AA?5?$AAn?$AAo?$AAt?$AA?5?$AAe?$AAn?$AAo?$AAu?$AAg?$AAh?$AA?5?$AAs?$AAp?$AAa?$AAc?$AAe?$AA?5?$AAf?$AAo?$AAr?$AA?5?$AA_?$AAo@ 0000000180063c90     LIBCMT:crt0msg.obj
 0002:00000d00       ??_C@_1FC@ECHBIFBC@?$AAR?$AA6?$AA0?$AA1?$AA9?$AA?$AN?$AA?6?$AA?9?$AA?5?$AAu?$AAn?$AAa?$AAb?$AAl?$AAe?$AA?5?$AAt?$AAo?$AA?5?$AAo?$AAp?$AAe?$AAn?$AA?5?$AAc?$AAo?$AAn?$AAs?$AAo?$AAl?$AAe?$AA?5@ 0000000180063d00     LIBCMT:crt0msg.obj
 0002:00000d60       ??_C@_1EC@JIBHAOPH@?$AAR?$AA6?$AA0?$AA1?$AA8?$AA?$AN?$AA?6?$AA?9?$AA?5?$AAu?$AAn?$AAe?$AAx?$AAp?$AAe?$AAc?$AAt?$AAe?$AAd?$AA?5?$AAh?$AAe?$AAa?$AAp?$AA?5?$AAe?$AAr?$AAr?$AAo?$AAr?$AA?$AN?$AA?6@ 0000000180063d60     LIBCMT:crt0msg.obj
 0002:00000db0       ??_C@_1FK@BEOGODMC@?$AAR?$AA6?$AA0?$AA1?$AA7?$AA?$AN?$AA?6?$AA?9?$AA?5?$AAu?$AAn?$AAe?$AAx?$AAp?$AAe?$AAc?$AAt?$AAe?$AAd?$AA?5?$AAm?$AAu?$AAl?$AAt?$AAi?$AAt?$AAh?$AAr?$AAe?$AAa?$AAd?$AA?5@ 0000000180063db0     LIBCMT:crt0msg.obj
 0002:00000e10       ??_C@_1FI@LOGNIKDM@?$AAR?$AA6?$AA0?$AA1?$AA6?$AA?$AN?$AA?6?$AA?9?$AA?5?$AAn?$AAo?$AAt?$AA?5?$AAe?$AAn?$AAo?$AAu?$AAg?$AAh?$AA?5?$AAs?$AAp?$AAa?$AAc?$AAe?$AA?5?$AAf?$AAo?$AAr?$AA?5?$AAt?$AAh@ 0000000180063e10     LIBCMT:crt0msg.obj
 0002:00000e70       ??_C@_1EG@BEHAGFJD@?$AAR?$AA6?$AA0?$AA1?$AA0?$AA?$AN?$AA?6?$AA?9?$AA?5?$AAa?$AAb?$AAo?$AAr?$AAt?$AA?$CI?$AA?$CJ?$AA?5?$AAh?$AAa?$AAs?$AA?5?$AAb?$AAe?$AAe?$AAn?$AA?5?$AAc?$AAa?$AAl?$AAl?$AAe?$AAd@ 0000000180063e70     LIBCMT:crt0msg.obj
 0002:00000ec0       ??_C@_1FI@HONFMGBI@?$AAR?$AA6?$AA0?$AA0?$AA9?$AA?$AN?$AA?6?$AA?9?$AA?5?$AAn?$AAo?$AAt?$AA?5?$AAe?$AAn?$AAo?$AAu?$AAg?$AAh?$AA?5?$AAs?$AAp?$AAa?$AAc?$AAe?$AA?5?$AAf?$AAo?$AAr?$AA?5?$AAe?$AAn@ 0000000180063ec0     LIBCMT:crt0msg.obj
 0002:00000f20       ??_C@_1FE@LLNEDJMD@?$AAR?$AA6?$AA0?$AA0?$AA8?$AA?$AN?$AA?6?$AA?9?$AA?5?$AAn?$AAo?$AAt?$AA?5?$AAe?$AAn?$AAo?$AAu?$AAg?$AAh?$AA?5?$AAs?$AAp?$AAa?$AAc?$AAe?$AA?5?$AAf?$AAo?$AAr?$AA?5?$AAa?$AAr@ 0000000180063f20     LIBCMT:crt0msg.obj
 0002:00000f80       ??_C@_1FK@PGACCAFB@?$AAR?$AA6?$AA0?$AA0?$AA2?$AA?$AN?$AA?6?$AA?9?$AA?5?$AAf?$AAl?$AAo?$AAa?$AAt?$AAi?$AAn?$AAg?$AA?5?$AAp?$AAo?$AAi?$AAn?$AAt?$AA?5?$AAs?$AAu?$AAp?$AAp?$AAo?$AAr?$AAt?$AA?5@ 0000000180063f80     LIBCMT:crt0msg.obj
 0002:00001140       ??_C@_1EK@MBDPDCGA@?$AAM?$AAi?$AAc?$AAr?$AAo?$AAs?$AAo?$AAf?$AAt?$AA?5?$AAV?$AAi?$AAs?$AAu?$AAa?$AAl?$AA?5?$AAC?$AA?$CL?$AA?$CL?$AA?5?$AAR?$AAu?$AAn?$AAt?$AAi?$AAm?$AAe?$AA?5?$AAL?$AAi?$AAb@ 0000000180064140     LIBCMT:crt0msg.obj
 0002:0000118c       ??_C@_15IABLJNFO@?$AA?6?$AA?6?$AA?$AA@ 000000018006418c     LIBCMT:crt0msg.obj
 0002:00001198       ??_C@_17LGKOMLJ@?$AA?4?$AA?4?$AA?4?$AA?$AA@ 0000000180064198     LIBCMT:crt0msg.obj
 0002:000011a0       ??_C@_1CO@EAEJAADC@?$AA?$DM?$AAp?$AAr?$AAo?$AAg?$AAr?$AAa?$AAm?$AA?5?$AAn?$AAa?$AAm?$AAe?$AA?5?$AAu?$AAn?$AAk?$AAn?$AAo?$AAw?$AAn?$AA?$DO?$AA?$AA@ 00000001800641a0     LIBCMT:crt0msg.obj
 0002:000011d0       ??_C@_1DE@JNGNBFGO@?$AAR?$AAu?$AAn?$AAt?$AAi?$AAm?$AAe?$AA?5?$AAE?$AAr?$AAr?$AAo?$AAr?$AA?$CB?$AA?6?$AA?6?$AAP?$AAr?$AAo?$AAg?$AAr?$AAa?$AAm?$AA?3?$AA?5?$AA?$AA@ 00000001800641d0     LIBCMT:crt0msg.obj
 0002:00001208       ??_C@_1BC@GDGBMEMK@?$AAH?$AAH?$AA?3?$AAm?$AAm?$AA?3?$AAs?$AAs?$AA?$AA@ 0000000180064208     LIBCMT:nlsdata2.obj
 0002:00001220       ??_C@_1CI@KNAKOEBC@?$AAd?$AAd?$AAd?$AAd?$AA?0?$AA?5?$AAM?$AAM?$AAM?$AAM?$AA?5?$AAd?$AAd?$AA?0?$AA?5?$AAy?$AAy?$AAy?$AAy?$AA?$AA@ 0000000180064220     LIBCMT:nlsdata2.obj
 0002:00001248       ??_C@_1BC@IEBCMHCM@?$AAM?$AAM?$AA?1?$AAd?$AAd?$AA?1?$AAy?$AAy?$AA?$AA@ 0000000180064248     LIBCMT:nlsdata2.obj
 0002:0000125c       ??_C@_15CLMNNGEL@?$AAP?$AAM?$AA?$AA@ 000000018006425c     LIBCMT:nlsdata2.obj
 0002:00001264       ??_C@_15ODEHAHHF@?$AAA?$AAM?$AA?$AA@ 0000000180064264     LIBCMT:nlsdata2.obj
 0002:00001270       ??_C@_1BC@FEMKIFH@?$AAD?$AAe?$AAc?$AAe?$AAm?$AAb?$AAe?$AAr?$AA?$AA@ 0000000180064270     LIBCMT:nlsdata2.obj
 0002:00001288       ??_C@_1BC@BGLIFPF@?$AAN?$AAo?$AAv?$AAe?$AAm?$AAb?$AAe?$AAr?$AA?$AA@ 0000000180064288     LIBCMT:nlsdata2.obj
 0002:000012a0       ??_C@_1BA@EPANDLNG@?$AAO?$AAc?$AAt?$AAo?$AAb?$AAe?$AAr?$AA?$AA@ 00000001800642a0     LIBCMT:nlsdata2.obj
 0002:000012b0       ??_C@_1BE@DKAAMBJL@?$AAS?$AAe?$AAp?$AAt?$AAe?$AAm?$AAb?$AAe?$AAr?$AA?$AA@ 00000001800642b0     LIBCMT:nlsdata2.obj
 0002:000012c8       ??_C@_1O@PAHLKOAC@?$AAA?$AAu?$AAg?$AAu?$AAs?$AAt?$AA?$AA@ 00000001800642c8     LIBCMT:nlsdata2.obj
 0002:000012d8       ??_C@_19BIFMLPCD@?$AAJ?$AAu?$AAl?$AAy?$AA?$AA@ 00000001800642d8     LIBCMT:nlsdata2.obj
 0002:000012e8       ??_C@_19EPFLPGAP@?$AAJ?$AAu?$AAn?$AAe?$AA?$AA@ 00000001800642e8     LIBCMT:nlsdata2.obj
 0002:000012f8       ??_C@_1M@GJNLMHFD@?$AAA?$AAp?$AAr?$AAi?$AAl?$AA?$AA@ 00000001800642f8     LIBCMT:nlsdata2.obj
 0002:00001308       ??_C@_1M@IKEENEDF@?$AAM?$AAa?$AAr?$AAc?$AAh?$AA?$AA@ 0000000180064308     LIBCMT:nlsdata2.obj
 0002:00001318       ??_C@_1BC@JGDDFFAM@?$AAF?$AAe?$AAb?$AAr?$AAu?$AAa?$AAr?$AAy?$AA?$AA@ 0000000180064318     LIBCMT:nlsdata2.obj
 0002:00001330       ??_C@_1BA@EFMEIEBA@?$AAJ?$AAa?$AAn?$AAu?$AAa?$AAr?$AAy?$AA?$AA@ 0000000180064330     LIBCMT:nlsdata2.obj
 0002:00001340       ??_C@_17EGKACKIF@?$AAD?$AAe?$AAc?$AA?$AA@ 0000000180064340     LIBCMT:nlsdata2.obj
 0002:00001348       ??_C@_17BBDMLCIG@?$AAN?$AAo?$AAv?$AA?$AA@ 0000000180064348     LIBCMT:nlsdata2.obj
 0002:00001350       ??_C@_17FNLKOI@?$AAO?$AAc?$AAt?$AA?$AA@ 0000000180064350     LIBCMT:nlsdata2.obj
 0002:00001358       ??_C@_17HCHCOKMG@?$AAS?$AAe?$AAp?$AA?$AA@ 0000000180064358     LIBCMT:nlsdata2.obj
 0002:00001360       ??_C@_17ICPELBCN@?$AAA?$AAu?$AAg?$AA?$AA@ 0000000180064360     LIBCMT:nlsdata2.obj
 0002:00001368       ??_C@_17IJPCKHK@?$AAJ?$AAu?$AAl?$AA?$AA@ 0000000180064368     LIBCMT:nlsdata2.obj
 0002:00001370       ??_C@_17KCJGOCPB@?$AAJ?$AAu?$AAn?$AA?$AA@ 0000000180064370     LIBCMT:nlsdata2.obj
 0002:00001378       ??_C@_17PNNKMEED@?$AAM?$AAa?$AAy?$AA?$AA@ 0000000180064378     LIBCMT:nlsdata2.obj
 0002:00001380       ??_C@_17LFPOIHDD@?$AAA?$AAp?$AAr?$AA?$AA@ 0000000180064380     LIBCMT:nlsdata2.obj
 0002:00001388       ??_C@_17CKNLEDEC@?$AAM?$AAa?$AAr?$AA?$AA@ 0000000180064388     LIBCMT:nlsdata2.obj
 0002:00001390       ??_C@_17LMDJEKJN@?$AAF?$AAe?$AAb?$AA?$AA@ 0000000180064390     LIBCMT:nlsdata2.obj
 0002:00001398       ??_C@_17DKNBKCHM@?$AAJ?$AAa?$AAn?$AA?$AA@ 0000000180064398     LIBCMT:nlsdata2.obj
 0002:000013a0       ??_C@_1BC@ENMNNPAJ@?$AAS?$AAa?$AAt?$AAu?$AAr?$AAd?$AAa?$AAy?$AA?$AA@ 00000001800643a0     LIBCMT:nlsdata2.obj
 0002:000013b8       ??_C@_1O@PDICJHAG@?$AAF?$AAr?$AAi?$AAd?$AAa?$AAy?$AA?$AA@ 00000001800643b8     LIBCMT:nlsdata2.obj
 0002:000013c8       ??_C@_1BC@HHMNLIHE@?$AAT?$AAh?$AAu?$AAr?$AAs?$AAd?$AAa?$AAy?$AA?$AA@ 00000001800643c8     LIBCMT:nlsdata2.obj
 0002:000013e0       ??_C@_1BE@EBOGMDOH@?$AAW?$AAe?$AAd?$AAn?$AAe?$AAs?$AAd?$AAa?$AAy?$AA?$AA@ 00000001800643e0     LIBCMT:nlsdata2.obj
 0002:000013f8       ??_C@_1BA@ENFBFFEK@?$AAT?$AAu?$AAe?$AAs?$AAd?$AAa?$AAy?$AA?$AA@ 00000001800643f8     LIBCMT:nlsdata2.obj
 0002:00001408       ??_C@_1O@MMNBFLIA@?$AAM?$AAo?$AAn?$AAd?$AAa?$AAy?$AA?$AA@ 0000000180064408     LIBCMT:nlsdata2.obj
 0002:00001418       ??_C@_1O@IHNHDHPB@?$AAS?$AAu?$AAn?$AAd?$AAa?$AAy?$AA?$AA@ 0000000180064418     LIBCMT:nlsdata2.obj
 0002:00001428       ??_C@_17GGIBDPIH@?$AAS?$AAa?$AAt?$AA?$AA@ 0000000180064428     LIBCMT:nlsdata2.obj
 0002:00001430       ??_C@_17HFOLPPLP@?$AAF?$AAr?$AAi?$AA?$AA@ 0000000180064430     LIBCMT:nlsdata2.obj
 0002:00001438       ??_C@_17PDPHAADD@?$AAT?$AAh?$AAu?$AA?$AA@ 0000000180064438     LIBCMT:nlsdata2.obj
 0002:00001440       ??_C@_17CJEDCEPE@?$AAW?$AAe?$AAd?$AA?$AA@ 0000000180064440     LIBCMT:nlsdata2.obj
 0002:00001448       ??_C@_17BMKGEGOJ@?$AAT?$AAu?$AAe?$AA?$AA@ 0000000180064448     LIBCMT:nlsdata2.obj
 0002:00001450       ??_C@_17KBOMKBF@?$AAM?$AAo?$AAn?$AA?$AA@ 0000000180064450     LIBCMT:nlsdata2.obj
 0002:00001458       ??_C@_17MBGCMIPB@?$AAS?$AAu?$AAn?$AA?$AA@ 0000000180064458     LIBCMT:nlsdata2.obj
 0002:00001460       ??_C@_08JCCMCCIL@HH?3mm?3ss?$AA@ 0000000180064460     LIBCMT:nlsdata2.obj
 0002:00001470       ??_C@_0BE@CKGJFCPC@dddd?0?5MMMM?5dd?0?5yyyy?$AA@ 0000000180064470     LIBCMT:nlsdata2.obj
 0002:00001488       ??_C@_08BPBNCDIB@MM?1dd?1yy?$AA@ 0000000180064488     LIBCMT:nlsdata2.obj
 0002:00001494       ??_C@_02CJNFDJBF@PM?$AA@   0000000180064494     LIBCMT:nlsdata2.obj
 0002:00001498       ??_C@_02DEDBPAFC@AM?$AA@   0000000180064498     LIBCMT:nlsdata2.obj
 0002:000014a0       ??_C@_08EDHMEBNP@December?$AA@ 00000001800644a0     LIBCMT:nlsdata2.obj
 0002:000014b0       ??_C@_08HCHEGEOA@November?$AA@ 00000001800644b0     LIBCMT:nlsdata2.obj
 0002:000014c0       ??_C@_07JJNFCEND@October?$AA@ 00000001800644c0     LIBCMT:nlsdata2.obj
 0002:000014c8       ??_C@_09BHHEALKD@September?$AA@ 00000001800644c8     LIBCMT:nlsdata2.obj
 0002:000014d4       ??_C@_06LBBHFDDG@August?$AA@ 00000001800644d4     LIBCMT:nlsdata2.obj
 0002:000014dc       ??_C@_04MIEPOIFP@July?$AA@ 00000001800644dc     LIBCMT:nlsdata2.obj
 0002:000014e4       ??_C@_04CNLMGBGM@June?$AA@ 00000001800644e4     LIBCMT:nlsdata2.obj
 0002:000014ec       ??_C@_05DMJDNLEJ@April?$AA@ 00000001800644ec     LIBCMT:nlsdata2.obj
 0002:000014f4       ??_C@_05HPCKOFNC@March?$AA@ 00000001800644f4     LIBCMT:nlsdata2.obj
 0002:00001500       ??_C@_08GNJGEPFN@February?$AA@ 0000000180064500     LIBCMT:nlsdata2.obj
 0002:00001510       ??_C@_07CGJPFGJA@January?$AA@ 0000000180064510     LIBCMT:nlsdata2.obj
 0002:00001518       ??_C@_03MKABNOCG@Dec?$AA@  0000000180064518     LIBCMT:nlsdata2.obj
 0002:0000151c       ??_C@_03JPJOFNIA@Nov?$AA@  000000018006451c     LIBCMT:nlsdata2.obj
 0002:00001520       ??_C@_03BMAOKBAD@Oct?$AA@  0000000180064520     LIBCMT:nlsdata2.obj
 0002:00001524       ??_C@_03GGCAPAJC@Sep?$AA@  0000000180064524     LIBCMT:nlsdata2.obj
 0002:00001528       ??_C@_03IFJFEIGA@Aug?$AA@  0000000180064528     LIBCMT:nlsdata2.obj
 0002:0000152c       ??_C@_03LBGABGKK@Jul?$AA@  000000018006452c     LIBCMT:nlsdata2.obj
 0002:00001530       ??_C@_03IDFGHECI@Jun?$AA@  0000000180064530     LIBCMT:nlsdata2.obj
 0002:00001534       ??_C@_03CNMDKL@May?$AA@    0000000180064534     LIBCMT:nlsdata2.obj
 0002:00001538       ??_C@_03LEOLGMJP@Apr?$AA@  0000000180064538     LIBCMT:nlsdata2.obj
 0002:0000153c       ??_C@_03ODNJBKGA@Mar?$AA@  000000018006453c     LIBCMT:nlsdata2.obj
 0002:00001540       ??_C@_03HJBDCHOM@Feb?$AA@  0000000180064540     LIBCMT:nlsdata2.obj
 0002:00001544       ??_C@_03JIHJHPIE@Jan?$AA@  0000000180064544     LIBCMT:nlsdata2.obj
 0002:00001548       ??_C@_08INBOOONO@Saturday?$AA@ 0000000180064548     LIBCMT:nlsdata2.obj
 0002:00001554       ??_C@_06JECMNKMI@Friday?$AA@ 0000000180064554     LIBCMT:nlsdata2.obj
 0002:00001560       ??_C@_08HACCIKIA@Thursday?$AA@ 0000000180064560     LIBCMT:nlsdata2.obj
 0002:00001570       ??_C@_09DLIGFAKA@Wednesday?$AA@ 0000000180064570     LIBCMT:nlsdata2.obj
 0002:00001580       ??_C@_07BAAGCFCM@Tuesday?$AA@ 0000000180064580     LIBCMT:nlsdata2.obj
 0002:00001588       ??_C@_06JLEDEDGH@Monday?$AA@ 0000000180064588     LIBCMT:nlsdata2.obj
 0002:00001590       ??_C@_06OOPIFAJ@Sunday?$AA@ 0000000180064590     LIBCMT:nlsdata2.obj
 0002:00001598       ??_C@_03FEFJNEK@Sat?$AA@   0000000180064598     LIBCMT:nlsdata2.obj
 0002:0000159c       ??_C@_03IDIOELNC@Fri?$AA@  000000018006459c     LIBCMT:nlsdata2.obj
 0002:000015a0       ??_C@_03IOFIKPDN@Thu?$AA@  00000001800645a0     LIBCMT:nlsdata2.obj
 0002:000015a4       ??_C@_03MHOMLAJA@Wed?$AA@  00000001800645a4     LIBCMT:nlsdata2.obj
 0002:000015a8       ??_C@_03NAGEINEP@Tue?$AA@  00000001800645a8     LIBCMT:nlsdata2.obj
 0002:000015ac       ??_C@_03PDAGKDH@Mon?$AA@   00000001800645ac     LIBCMT:nlsdata2.obj
 0002:000015b0       ??_C@_03KOEHGMDN@Sun?$AA@  00000001800645b0     LIBCMT:nlsdata2.obj
 0002:000015e0       ??_C@_04PNGHFIJN@?4com?$AA@ 00000001800645e0     LIBCMT:stat.obj
 0002:000015e8       ??_C@_04NEEFLLOK@?4bat?$AA@ 00000001800645e8     LIBCMT:stat.obj
 0002:000015f0       ??_C@_04CPCBDHLK@?4cmd?$AA@ 00000001800645f0     LIBCMT:stat.obj
 0002:000015f8       ??_C@_04JLMDILM@?4exe?$AA@ 00000001800645f8     LIBCMT:stat.obj
 0002:00001600       ??_C@_1O@CEDCILHN@?$AA?$CI?$AAn?$AAu?$AAl?$AAl?$AA?$CJ?$AA?$AA@ 0000000180064600     LIBCMT:output.obj
 0002:00001610       ??_C@_06OJHGLDPL@?$CInull?$CJ?$AA@ 0000000180064610     LIBCMT:output.obj
 0002:00001620       __lookuptable              0000000180064620     LIBCMT:output.obj
 0002:00001680       __lookuptable_s            0000000180064680     LIBCMT:outputs.obj
 0002:000016e0       _XcptActTab                00000001800646e0     LIBCMT:winxfltr.obj
 0002:000017a0       _First_FPE_Indx            00000001800647a0     LIBCMT:winxfltr.obj
 0002:000017a4       _Num_FPE                   00000001800647a4     LIBCMT:winxfltr.obj
 0002:000017a8       _XcptActTabSize            00000001800647a8     LIBCMT:winxfltr.obj
 0002:000017ac       _XcptActTabCount           00000001800647ac     LIBCMT:winxfltr.obj
 0002:000017b0       ??_C@_0BK@CFCOFLF@?5Complete?5Object?5Locator?8?$AA@ 00000001800647b0     LIBCMT:undname.obj
 0002:000017d0       ??_C@_0BN@MECKDCOJ@?5Class?5Hierarchy?5Descriptor?8?$AA@ 00000001800647d0     LIBCMT:undname.obj
 0002:000017f0       ??_C@_0BD@LGICGFMM@?5Base?5Class?5Array?8?$AA@ 00000001800647f0     LIBCMT:undname.obj
 0002:00001808       ??_C@_0BM@LDKODKLH@?5Base?5Class?5Descriptor?5at?5?$CI?$AA@ 0000000180064808     LIBCMT:undname.obj
 0002:00001828       ??_C@_0BC@DAFEJGAK@?5Type?5Descriptor?8?$AA@ 0000000180064828     LIBCMT:undname.obj
 0002:00001840       ??_C@_0BM@PMGGMLDN@?$GAlocal?5static?5thread?5guard?8?$AA@ 0000000180064840     LIBCMT:undname.obj
 0002:00001860       ??_C@_0CL@FGIJHLCE@?$GAmanaged?5vector?5copy?5constructor@ 0000000180064860     LIBCMT:undname.obj
 0002:00001890       ??_C@_0CJ@GJELGAMM@?$GAvector?5vbase?5copy?5constructor?5i@ 0000000180064890     LIBCMT:undname.obj
 0002:000018c0       ??_C@_0CD@CGAJBKEJ@?$GAvector?5copy?5constructor?5iterato@ 00000001800648c0     LIBCMT:undname.obj
 0002:000018e8       ??_C@_0CB@PDBIFEP@?$GAdynamic?5atexit?5destructor?5for?5?8@ 00000001800648e8     LIBCMT:undname.obj
 0002:00001910       ??_C@_0BL@CLIPGLGB@?$GAdynamic?5initializer?5for?5?8?$AA@ 0000000180064910     LIBCMT:undname.obj
 0002:00001930       ??_C@_0CM@FCBBDIGB@?$GAeh?5vector?5vbase?5copy?5constructo@ 0000000180064930     LIBCMT:undname.obj
 0002:00001960       ??_C@_0CG@HLDDJMAG@?$GAeh?5vector?5copy?5constructor?5iter@ 0000000180064960     LIBCMT:undname.obj
 0002:00001988       ??_C@_0CF@IMGKMJNO@?$GAmanaged?5vector?5destructor?5itera@ 0000000180064988     LIBCMT:undname.obj
 0002:000019b0       ??_C@_0CG@CFDHKGGD@?$GAmanaged?5vector?5constructor?5iter@ 00000001800649b0     LIBCMT:undname.obj
 0002:000019d8       ??_C@_0BN@CKNJLHMB@?$GAplacement?5delete?$FL?$FN?5closure?8?$AA@ 00000001800649d8     LIBCMT:undname.obj
 0002:000019f8       ??_C@_0BL@CNOONJFP@?$GAplacement?5delete?5closure?8?$AA@ 00000001800649f8     LIBCMT:undname.obj
 0002:00001a18       ??_C@_0P@HJKNJFNN@?$GAomni?5callsig?8?$AA@ 0000000180064a18     LIBCMT:undname.obj
 0002:00001a28       ??_C@_09LBNFPBCA@?5delete?$FL?$FN?$AA@ 0000000180064a28     LIBCMT:undname.obj
 0002:00001a34       ??_C@_06FHBGPFGH@?5new?$FL?$FN?$AA@ 0000000180064a34     LIBCMT:undname.obj
 0002:00001a40       ??_C@_0CE@IIHCMGGL@?$GAlocal?5vftable?5constructor?5closu@ 0000000180064a40     LIBCMT:undname.obj
 0002:00001a68       ??_C@_0BA@KKLDJDLB@?$GAlocal?5vftable?8?$AA@ 0000000180064a68     LIBCMT:undname.obj
 0002:00001a78       ??_C@_05KHLCHHI@?$GARTTI?$AA@ 0000000180064a78     LIBCMT:undname.obj
 0002:00001a80       ??_C@_03KLGMFNMG@?$GAEH?$AA@ 0000000180064a80     LIBCMT:undname.obj
 0002:00001a88       ??_C@_0BA@KBCDOMBN@?$GAudt?5returning?8?$AA@ 0000000180064a88     LIBCMT:undname.obj
 0002:00001a98       ??_C@_0BL@LLKPOHJI@?$GAcopy?5constructor?5closure?8?$AA@ 0000000180064a98     LIBCMT:undname.obj
 0002:00001ab8       ??_C@_0CH@OOJPLCPH@?$GAeh?5vector?5vbase?5constructor?5ite@ 0000000180064ab8     LIBCMT:undname.obj
 0002:00001ae0       ??_C@_0CA@GCEOPDGL@?$GAeh?5vector?5destructor?5iterator?8?$AA@ 0000000180064ae0     LIBCMT:undname.obj
 0002:00001b00       ??_C@_0CB@JONCMFFK@?$GAeh?5vector?5constructor?5iterator?8@ 0000000180064b00     LIBCMT:undname.obj
 0002:00001b28       ??_C@_0BL@NILFHHPC@?$GAvirtual?5displacement?5map?8?$AA@ 0000000180064b28     LIBCMT:undname.obj
 0002:00001b48       ??_C@_0CE@IKBNEHA@?$GAvector?5vbase?5constructor?5iterat@ 0000000180064b48     LIBCMT:undname.obj
 0002:00001b70       ??_C@_0BN@LFPFMEDL@?$GAvector?5destructor?5iterator?8?$AA@ 0000000180064b70     LIBCMT:undname.obj
 0002:00001b90       ??_C@_0BO@PFGOCPJJ@?$GAvector?5constructor?5iterator?8?$AA@ 0000000180064b90     LIBCMT:undname.obj
 0002:00001bb0       ??_C@_0BN@IMDCHIKM@?$GAscalar?5deleting?5destructor?8?$AA@ 0000000180064bb0     LIBCMT:undname.obj
 0002:00001bd0       ??_C@_0BO@OBMKPJIG@?$GAdefault?5constructor?5closure?8?$AA@ 0000000180064bd0     LIBCMT:undname.obj
 0002:00001bf0       ??_C@_0BN@DEGPLNFK@?$GAvector?5deleting?5destructor?8?$AA@ 0000000180064bf0     LIBCMT:undname.obj
 0002:00001c10       ??_C@_0BD@JDLKDPAB@?$GAvbase?5destructor?8?$AA@ 0000000180064c10     LIBCMT:undname.obj
 0002:00001c28       ??_C@_08OBABFOLI@?$GAstring?8?$AA@ 0000000180064c28     LIBCMT:undname.obj
 0002:00001c38       ??_C@_0BF@KDPPACIK@?$GAlocal?5static?5guard?8?$AA@ 0000000180064c38     LIBCMT:undname.obj
 0002:00001c50       ??_C@_08LLFFHHDJ@?$GAtypeof?8?$AA@ 0000000180064c50     LIBCMT:undname.obj
 0002:00001c60       ??_C@_07FEEIOKP@?$GAvcall?8?$AA@ 0000000180064c60     LIBCMT:undname.obj
 0002:00001c68       ??_C@_09BLBHBJP@?$GAvbtable?8?$AA@ 0000000180064c68     LIBCMT:undname.obj
 0002:00001c78       ??_C@_09IFPLHPGF@?$GAvftable?8?$AA@ 0000000180064c78     LIBCMT:undname.obj
 0002:00001c84       ??_C@_02MHEGNOJ@?$FO?$DN?$AA@ 0000000180064c84     LIBCMT:undname.obj
 0002:00001c88       ??_C@_02DHLNPPGH@?$HM?$DN?$AA@ 0000000180064c88     LIBCMT:undname.obj
 0002:00001c8c       ??_C@_02FGJGFEAB@?$CG?$DN?$AA@ 0000000180064c8c     LIBCMT:undname.obj
 0002:00001c90       ??_C@_03CDNPDDLA@?$DM?$DM?$DN?$AA@ 0000000180064c90     LIBCMT:undname.obj
 0002:00001c94       ??_C@_03IKFCCPFF@?$DO?$DO?$DN?$AA@ 0000000180064c94     LIBCMT:undname.obj
 0002:00001c98       ??_C@_02FENAOKFI@?$CF?$DN?$AA@ 0000000180064c98     LIBCMT:undname.obj
 0002:00001c9c       ??_C@_02FJEHGPIO@?1?$DN?$AA@ 0000000180064c9c     LIBCMT:undname.obj
 0002:00001ca0       ??_C@_02FKMDLLOA@?9?$DN?$AA@ 0000000180064ca0     LIBCMT:undname.obj
 0002:00001ca4       ??_C@_02FOEOMHFC@?$CL?$DN?$AA@ 0000000180064ca4     LIBCMT:undname.obj
 0002:00001ca8       ??_C@_02FPIMKNGF@?$CK?$DN?$AA@ 0000000180064ca8     LIBCMT:undname.obj
 0002:00001cac       ??_C@_02NONPIBCD@?$HM?$HM?$AA@ 0000000180064cac     LIBCMT:undname.obj
 0002:00001cb0       ??_C@_02PPKAJPJL@?$CG?$CG?$AA@ 0000000180064cb0     LIBCMT:undname.obj
 0002:00001cb4       ??_C@_01DNKMNLPK@?$HM?$AA@ 0000000180064cb4     LIBCMT:undname.obj
 0002:00001cb8       ??_C@_01JKBOJNNK@?$FO?$AA@ 0000000180064cb8     LIBCMT:undname.obj
 0002:00001cbc       ??_C@_01PJKLJHI@?$HO?$AA@  0000000180064cbc     LIBCMT:undname.obj
 0002:00001cc0       ??_C@_02HCKGKOFO@?$CI?$CJ?$AA@ 0000000180064cc0     LIBCMT:undname.obj
 0002:00001cc4       ??_C@_01IHBHIGKO@?0?$AA@   0000000180064cc4     LIBCMT:undname.obj
 0002:00001cc8       ??_C@_02EEKDKGMJ@?$DO?$DN?$AA@ 0000000180064cc8     LIBCMT:undname.obj
 0002:00001ccc       ??_C@_02EHCHHCKH@?$DM?$DN?$AA@ 0000000180064ccc     LIBCMT:undname.obj
 0002:00001cd0       ??_C@_01FGNFDNOH@?$CF?$AA@ 0000000180064cd0     LIBCMT:undname.obj
 0002:00001cd4       ??_C@_03MNHNFDLC@?9?$DO?$CK?$AA@ 0000000180064cd4     LIBCMT:undname.obj
 0002:00001cd8       ??_C@_01MIFGBAGJ@?$CL?$AA@ 0000000180064cd8     LIBCMT:undname.obj
 0002:00001cdc       ??_C@_02ECNGHCIF@?$CL?$CL?$AA@ 0000000180064cdc     LIBCMT:undname.obj
 0002:00001ce0       ??_C@_01NBENCBCI@?$CK?$AA@ 0000000180064ce0     LIBCMT:undname.obj
 0002:00001ce4       ??_C@_02HBOOOICD@?9?$DO?$AA@ 0000000180064ce4     LIBCMT:undname.obj
 0002:00001ce8       ??_C@_08LHJFAFGD@operator?$AA@ 0000000180064ce8     LIBCMT:undname.obj
 0002:00001cf4       ??_C@_02GPECMEKF@?$FL?$FN?$AA@ 0000000180064cf4     LIBCMT:undname.obj
 0002:00001cf8       ??_C@_02FDNJECIE@?$CB?$DN?$AA@ 0000000180064cf8     LIBCMT:undname.obj
 0002:00001cfc       ??_C@_02EGOFBIJA@?$DN?$DN?$AA@ 0000000180064cfc     LIBCMT:undname.obj
 0002:00001d00       ??_C@_02FODMEDOG@?$DM?$DM?$AA@ 0000000180064d00     LIBCMT:undname.obj
 0002:00001d04       ??_C@_02GPIOPFAK@?$DO?$DO?$AA@ 0000000180064d04     LIBCMT:undname.obj
 0002:00001d08       ??_C@_07FPCDHGMM@?5delete?$AA@ 0000000180064d08     LIBCMT:undname.obj
 0002:00001d10       ??_C@_04NIHEBCM@?5new?$AA@ 0000000180064d10     LIBCMT:undname.obj
 0002:00001d18       ??_C@_0M@GFIIJFMG@__unaligned?$AA@ 0000000180064d18     LIBCMT:undname.obj
 0002:00001d28       ??_C@_0L@PILCLIHE@__restrict?$AA@ 0000000180064d28     LIBCMT:undname.obj
 0002:00001d38       ??_C@_07JOMMBBKO@__ptr64?$AA@ 0000000180064d38     LIBCMT:undname.obj
 0002:00001d40       ??_C@_06GHPCKEAG@__eabi?$AA@ 0000000180064d40     LIBCMT:undname.obj
 0002:00001d48       ??_C@_09HIJEGCPM@__clrcall?$AA@ 0000000180064d48     LIBCMT:undname.obj
 0002:00001d58       ??_C@_0L@JMKHOMEK@__fastcall?$AA@ 0000000180064d58     LIBCMT:undname.obj
 0002:00001d68       ??_C@_0L@NPHFGOKO@__thiscall?$AA@ 0000000180064d68     LIBCMT:undname.obj
 0002:00001d78       ??_C@_09IFJBGAPI@__stdcall?$AA@ 0000000180064d78     LIBCMT:undname.obj
 0002:00001d88       ??_C@_08GHMPAG@__pascal?$AA@ 0000000180064d88     LIBCMT:undname.obj
 0002:00001d98       ??_C@_07KOLFKCDI@__cdecl?$AA@ 0000000180064d98     LIBCMT:undname.obj
 0002:00001da0       ??_C@_08EHJDFFNH@__based?$CI?$AA@ 0000000180064da0     LIBCMT:undname.obj
 0002:000020b8       ??_C@_0BI@DFKBFLJE@GetProcessWindowStation?$AA@ 00000001800650b8     LIBCMT:crtmboxw.obj
 0002:000020d0       ??_C@_0BK@DEKFELLI@GetUserObjectInformationW?$AA@ 00000001800650d0     LIBCMT:crtmboxw.obj
 0002:000020f0       ??_C@_0BD@HHGDFDBJ@GetLastActivePopup?$AA@ 00000001800650f0     LIBCMT:crtmboxw.obj
 0002:00002108       ??_C@_0BA@HNOPNCHB@GetActiveWindow?$AA@ 0000000180065108     LIBCMT:crtmboxw.obj
 0002:00002118       ??_C@_0M@DLDCCGNP@MessageBoxW?$AA@ 0000000180065118     LIBCMT:crtmboxw.obj
 0002:00002128       ??_C@_1BG@GOEBHBDC@?$AAU?$AAS?$AAE?$AAR?$AA3?$AA2?$AA?4?$AAD?$AAL?$AAL?$AA?$AA@ 0000000180065128     LIBCMT:crtmboxw.obj
 0002:00002140       __newctype                 0000000180065140     LIBCMT:ctype.obj
 0002:00002440       _wctype                    0000000180065440     LIBCMT:ctype.obj
 0002:00002650       __newclmap                 0000000180065650     LIBCMT:ctype.obj
 0002:000027d0       __newcumap                 00000001800657d0     LIBCMT:ctype.obj
 0002:00002960       ??_C@_02CLFPBFFP@TZ?$AA@   0000000180065960     LIBCMT:tzset.obj
 0002:00002968       __dnames                   0000000180065968     LIBCMT:timeset.obj
 0002:00002980       __mnames                   0000000180065980     LIBCMT:timeset.obj
 0002:000029a8       ??_C@_1BA@BALFACEM@?$AAC?$AAO?$AAN?$AAO?$AAU?$AAT?$AA$?$AA?$AA@ 00000001800659a8     LIBCMT:initcon.obj
 0002:00002a40       ??_C@_0L@IGDPGFPH@show?9cross?$AA@ 0000000180065a40     ChooseTypeMenu.obj
 0002:00002a4c       ??_C@_04CGFJFPFD@none?$AA@ 0000000180065a4c     ChooseTypeMenu.obj
 0002:00002a58       ??_C@_08NEOMLJGJ@vertical?$AA@ 0000000180065a58     ChooseTypeMenu.obj
 0002:00002a68       ??_C@_0L@LMMKHPOB@horizontal?$AA@ 0000000180065a68     ChooseTypeMenu.obj
 0002:00002a74       ??_C@_04EHLGOKLJ@both?$AA@ 0000000180065a74     ChooseTypeMenu.obj
 0002:00002a80       ??_C@_0N@CLDFDHNK@cross?9zorder?$AA@ 0000000180065a80     ChooseTypeMenu.obj
 0002:00002a90       ??_C@_06PMMPCIPB@bottom?$AA@ 0000000180065a90     ChooseTypeMenu.obj
 0002:00002a98       ??_C@_03FGFCOCMD@top?$AA@  0000000180065a98     ChooseTypeMenu.obj
 0002:00002a9c       ??_C@_03ICICOMAL@yes?$AA@  0000000180065a9c     ChooseTypeMenu.obj
 0002:00002aa0       ??_C@_02KAJCLHKP@no?$AA@   0000000180065aa0     ChooseTypeMenu.obj
 0002:00002aa4       ??_C@_04LOAJBDKD@true?$AA@ 0000000180065aa4     ChooseTypeMenu.obj
 0002:00002aac       ??_C@_05LAPONLG@false?$AA@ 0000000180065aac     ChooseTypeMenu.obj
 0002:00002ab8       ??_C@_09HFNBBLKE@backparse?$AA@ 0000000180065ab8     ChooseTypeMenu.obj
 0002:00002ac8       ??_C@_0O@PFNGMNPK@maxlinelength?$AA@ 0000000180065ac8     ChooseTypeMenu.obj
 0002:00002ad8       ??_C@_0N@KMNJLGEC@default?9fore?$AA@ 0000000180065ad8     ChooseTypeMenu.obj
 0002:00002ae8       ??_C@_0N@DKOBIDHI@default?9back?$AA@ 0000000180065ae8     ChooseTypeMenu.obj
 0002:00002af8       ??_C@_08ENOPBGGF@fullback?$AA@ 0000000180065af8     ChooseTypeMenu.obj
 0002:00002b04       ??_C@_06HDPMGCPF@hotkey?$AA@ 0000000180065b04     ChooseTypeMenu.obj
 0002:00002b10       ??_C@_08NCJKLPIM@favorite?$AA@ 0000000180065b10     ChooseTypeMenu.obj
 0002:00002b1c       ??_C@_03LPDOBDFE@?$CGA?5?$AA@ 0000000180065b1c     ChooseTypeMenu.obj
 0002:00002b20       ??_C@_01HNPIGOCE@?$CG?$AA@ 0000000180065b20     ChooseTypeMenu.obj
 0002:00002b24       ??_C@_01CLKCMJKC@?5?$AA@   0000000180065b24     ChooseTypeMenu.obj
 0002:00002b28       ??_C@_0CK@CPPKMCFJ@Bad?5type?5cast?5exception?5into?5Sty@ 0000000180065b28     FarEditor.obj
 0002:00002b58       ??_C@_0N@MLFMAGHI@def?3Outlined?$AA@ 0000000180065b58     FarEditor.obj
 0002:00002b68       ??_C@_09ILCJHDEG@def?3Error?$AA@ 0000000180065b68     FarEditor.obj
 0002:00002b78       ??_C@_07DLHCIBDH@default?$AA@ 0000000180065b78     FarEditor.obj
 0002:00002b80       ??_C@_0BN@OLBJGIFH@No?5?8default?8?5file?5type?5found?$AA@ 0000000180065b80     FarEditor.obj
 0002:00002ba0       ??_C@_0CL@ENAIIFKG@HRD?5Background?5region?5?8def?3Text?8@ 0000000180065ba0     FarEditor.obj
 0002:00002bd0       ??_C@_19IHNBOAOI@?$AA?$CF?$AA4?$AAd?$AA?5?$AA?$AA@ 0000000180065bd0     FarEditor.obj
 0002:00002be0       ??_C@_17FBJJOGO@?$AA?$CF?$AAc?$AA?5?$AA?$AA@ 0000000180065be0     FarEditor.obj
 0002:00002be8       ??_C@_13HGPDMIBE@?$AA?$DP?$AA?$AA@ 0000000180065be8     FarEditor.obj
 0002:00002bf0       ??_C@_17KBLNKNKL@?$AAa?$AAd?$AAd?$AA?$AA@ 0000000180065bf0     FarEditor.obj
 0002:00002bf8       ??_7LineSource@@6B@        0000000180065bf8     FarEditor.obj
 0002:00002c18       ??_7FarEditor@@6B@         0000000180065c18     FarEditor.obj
 0002:00002c50       ?ENC_UTF8_BOM@Encodings@@2HB 0000000180065c50     Encodings.obj
 0002:00002c54       ?ENC_UTF16_BOM@Encodings@@2HB 0000000180065c54     Encodings.obj
 0002:00002c58       ?ENC_UTF16BE_BOM@Encodings@@2HB 0000000180065c58     Encodings.obj
 0002:00002c5c       ?ENC_UTF32_BOM@Encodings@@2HB 0000000180065c5c     Encodings.obj
 0002:00002c60       ?ENC_UTF32BE_BOM@Encodings@@2HB 0000000180065c60     Encodings.obj
 0002:00002c64       ?ENC_UTF32BE@Encodings@@2HB 0000000180065c64     Encodings.obj
 0002:00002c68       ?ENC_UTF32@Encodings@@2HB  0000000180065c68     Encodings.obj
 0002:00002c6c       ?ENC_UTF16BE@Encodings@@2HB 0000000180065c6c     Encodings.obj
 0002:00002c70       ?ENC_UTF16@Encodings@@2HB  0000000180065c70     Encodings.obj
 0002:00002c74       ?ENC_UTF8@Encodings@@2HB   0000000180065c74     Encodings.obj
 0002:00002c78       ?RD_BOLD@StyledRegion@@2HB 0000000180065c78     StyledHRDMapper.obj
 0002:00002c7c       ?RD_ITALIC@StyledRegion@@2HB 0000000180065c7c     StyledHRDMapper.obj
 0002:00002c80       ?RD_UNDERLINE@StyledRegion@@2HB 0000000180065c80     StyledHRDMapper.obj
 0002:00002c84       ?RD_STRIKEOUT@StyledRegion@@2HB 0000000180065c84     StyledHRDMapper.obj
 0002:00002cb0       unz_copyright              0000000180065cb0     unzip.obj
 0002:00002d08       inflate_copyright          0000000180065d08     inftrees.obj
 0002:00002d60       z_errmsg                   0000000180065d60     zutil.obj
 0002:00005bc0       ??_C@_07PMJAFAE@console?$AA@ 0000000180068bc0     FarEditorSet.obj
 0002:00005bc8       ??_C@_03FNOJMHE@rgb?$AA@   0000000180068bc8     FarEditorSet.obj
 0002:00005bd0       ??_C@_09IOAPNCJN@?$DMdefault?$DO?$AA@ 0000000180068bd0     FarEditorSet.obj
 0002:00005be0       ??_C@_0L@JHGOBHFD@autodetect?$AA@ 0000000180068be0     FarEditorSet.obj
 0002:00005bf0       ??_C@_1BG@MMHCHEFB@?$AA?$CF?$AAs?$AA?2?$AAc?$AAo?$AAl?$AAo?$AAr?$AAe?$AAr?$AA?$AA@ 0000000180068bf0     FarEditorSet.obj
 0002:00005c08       ??_C@_19MOHIIIBC@?$AAm?$AAe?$AAn?$AAu?$AA?$AA@ 0000000180068c08     FarEditorSet.obj
 0002:00005c18       ??_C@_0CE@HHEPLIC@Can?8t?5find?5current?5editor?5in?5arr@ 0000000180068c18     FarEditorSet.obj
 0002:00005c40       ??_C@_0L@MJPGIICB@openMenu?3?5?$AA@ 0000000180068c40     FarEditorSet.obj
 0002:00005c50       ??_C@_1BE@EHNIEDM@?$AAe?$AAx?$AAc?$AAe?$AAp?$AAt?$AAi?$AAo?$AAn?$AA?$AA@ 0000000180068c50     FarEditorSet.obj
 0002:00005c68       ??_C@_0BE@NNHNGOG@Colorer?5is?5disabled?$AA@ 0000000180068c68     FarEditorSet.obj
 0002:00005c80       ??_C@_08BNCPCDBC@def?3Text?$AA@ 0000000180068c80     FarEditorSet.obj
 0002:00005c90       ??_C@_1BO@KAODFIIF@?$AAf?$AAi?$AAl?$AAe?$AAt?$AAy?$AAp?$AAe?$AAc?$AAh?$AAo?$AAo?$AAs?$AAe?$AA?$AA@ 0000000180068c90     FarEditorSet.obj
 0002:00005cb0       ??_C@_11LOCGONAA@?$AA?$AA@ 0000000180068cb0     FarEditorSet.obj
 0002:00005cb8       ??_C@_1BE@LCKEBMOF@?$AAk?$AAe?$AAy?$AAa?$AAs?$AAs?$AAi?$AAg?$AAn?$AA?$AA@ 0000000180068cb8     FarEditorSet.obj
 0002:00005cd0       ??_C@_1BA@NDGBPBIE@?$AAc?$AAa?$AAt?$AAa?$AAl?$AAo?$AAg?$AA?$AA@ 0000000180068cd0     FarEditorSet.obj
 0002:00005ce0       ??_C@_1BA@OEPENKP@?$AAu?$AAs?$AAe?$AAr?$AAh?$AAr?$AAc?$AA?$AA@ 0000000180068ce0     FarEditorSet.obj
 0002:00005cf0       ??_C@_1BA@JDJIHFBG@?$AAu?$AAs?$AAe?$AAr?$AAh?$AAr?$AAd?$AA?$AA@ 0000000180068cf0     FarEditorSet.obj
 0002:00005d00       ??_C@_1O@NEJONDGE@?$AAc?$AAo?$AAn?$AAf?$AAi?$AAg?$AA?$AA@ 0000000180068d00     FarEditorSet.obj
 0002:00005d10       ??_C@_0M@BBFFIMII@configure?3?5?$AA@ 0000000180068d10     FarEditorSet.obj
 0002:00005d20       ??_C@_17GLHNFHAG@?$AAh?$AAr?$AAd?$AA?$AA@ 0000000180068d20     FarEditorSet.obj
 0002:00005d28       ??_C@_0O@CFBCBJIA@editorEvent?3?5?$AA@ 0000000180068d28     FarEditorSet.obj
 0002:00005d38       ??_C@_02LMMGGCAJ@?3?5?$AA@ 0000000180068d38     FarEditorSet.obj
 0002:00005d40       ??_C@_1DK@MADFMCPB@?$AAC?$AAo?$AAn?$AAs?$AAo?$AAl?$AAe?$AA_?$AAa?$AAn?$AAn?$AAo?$AAt?$AAa?$AAt?$AAi?$AAo?$AAn?$AAI?$AAn?$AAf?$AAo?$AA_?$AA?$CF?$AAx?$AA_?$AA?$CF?$AAx?$AA?$AA@ 0000000180068d40     FarEditorSet.obj
 0002:00005d80       ??_C@_08DBJDFHIJ@hrd?9sets?$AA@ 0000000180068d80     FarEditorSet.obj
 0002:00005d90       ??_C@_0CC@DANINIGD@main?5?8?$DMhrd?9sets?$DO?8?5block?5not?5foun@ 0000000180068d90     FarEditorSet.obj
 0002:00005db4       ??_C@_03HGMNONJC@hrd?$AA@  0000000180068db4     FarEditorSet.obj
 0002:00005db8       ??_C@_09OPOAJDAP@?$DMdefault?9?$AA@ 0000000180068db8     FarEditorSet.obj
 0002:00005dc4       ??_C@_01PPODPGHN@?$DO?$AA@ 0000000180068dc4     FarEditorSet.obj
 0002:00005dc8       ??_C@_1BG@FNMAPHHK@?$AA?$DM?$AAn?$AAo?$AA?5?$AAg?$AAr?$AAo?$AAu?$AAp?$AA?$DO?$AA?$AA@ 0000000180068dc8     FarEditorSet.obj
 0002:00005de0       ??_C@_1O@JMBLCINJ@?$AA?$CF?$AAs?$AA?3?$AA?5?$AA?$CF?$AAs?$AA?$AA@ 0000000180068de0     FarEditorSet.obj
 0002:00005df0       ??_C@_0L@JPKFMNBJ@firstlines?$AA@ 0000000180068df0     FarEditorSet.obj
 0002:00005e00       ??_C@_0P@JFLNJMMK@firstlinebytes?$AA@ 0000000180068e00     FarEditorSet.obj
 0002:00005e10       ??_C@_1BE@OGFIAMJH@?$AAc?$AAo?$AAn?$AAf?$AAi?$AAg?$AAh?$AAr?$AAc?$AA?$AA@ 0000000180068e10     FarEditorSet.obj
 0002:00005e28       ??_C@_0DF@DNNOFLMI@Hashtable?5enumeration?5fault?5?9?5ob@ 0000000180068e28     FarEditorSet.obj
 0002:00005e60       ??_C@_0CO@MBGHDCJJ@Hashtable?5enumeration?5fault?5?9?5en@ 0000000180068e60     FarEditorSet.obj
 0002:00005e90       ??_7String@@6B@            0000000180068e90     FarEditorSet.obj
 0002:00005f00       ??_7DString@@6B@           0000000180068f00     FarEditorSet.obj
 0002:00005f68       ??_C@_0BK@NLCJIMMN@FarHrcSettingsException?3?5?$AA@ 0000000180068f68     FarHrcSettings.obj
 0002:00005f88       ??_C@_0N@MAHPFPMA@hrc?9settings?$AA@ 0000000180068f88     FarHrcSettings.obj
 0002:00005f98       ??_C@_0CG@CIKEJAHN@main?5?8?$DMhrc?9settings?$DO?8?5block?5not?5@ 0000000180068f98     FarHrcSettings.obj
 0002:00005fc0       ??_C@_09IKDJFMEJ@prototype?$AA@ 0000000180068fc0     FarHrcSettings.obj
 0002:00005fcc       ??_C@_04MEMAJGDJ@name?$AA@ 0000000180068fcc     FarHrcSettings.obj
 0002:00005fd4       ??_C@_05LJDNNBIK@param?$AA@ 0000000180068fd4     FarHrcSettings.obj
 0002:00005fdc       ??_C@_05MFEJDJP@value?$AA@ 0000000180068fdc     FarHrcSettings.obj
 0002:00005fe8       ??_C@_0M@PPJNHBMP@description?$AA@ 0000000180068fe8     FarHrcSettings.obj
 0002:00005ff8       ??_C@_1CO@CHFEHJFP@?$AA?$CF?$AAs?$AA?2?$AAc?$AAo?$AAl?$AAo?$AAr?$AAe?$AAr?$AA?2?$AAH?$AAr?$AAc?$AAS?$AAe?$AAt?$AAt?$AAi?$AAn?$AAg?$AAs?$AA?$AA@ 0000000180068ff8     FarHrcSettings.obj
 0002:00006028       ??_C@_1DE@FMBFINHC@?$AA?$CF?$AAs?$AA?2?$AAc?$AAo?$AAl?$AAo?$AAr?$AAe?$AAr?$AA?2?$AAH?$AAr?$AAc?$AAS?$AAe?$AAt?$AAt?$AAi?$AAn?$AAg?$AAs?$AA?2?$AA?$CF?$AAs?$AA?$AA@ 0000000180069028     FarHrcSettings.obj
 0002:00006060       ??_C@_17HKLJCAPI@?$AAc?$AAl?$AAr?$AA?$AA@ 0000000180069060     pcolorer.obj
 0002:00006068       ??_C@_19MJCDBCKE@?$AA?2?$AA?2?$AA?$DP?$AA?2?$AA?$AA@ 0000000180069068     tools.obj
 0002:00006074       ??_C@_15LEKKCGMK@?$AA?2?$AA?2?$AA?$AA@ 0000000180069074     tools.obj
 0002:00006080       ??_C@_1BA@BFGBFLGI@?$AA?2?$AA?2?$AA?$DP?$AA?2?$AAU?$AAN?$AAC?$AA?$AA@ 0000000180069080     tools.obj
 0002:00006090       ??_C@_0BO@ECPMAOGG@invalid?5distance?5too?5far?5back?$AA@ 0000000180069090     inffast.obj
 0002:000060b0       ??_C@_0BG@LBKINIKP@invalid?5distance?5code?$AA@ 00000001800690b0     inffast.obj
 0002:000060c8       ??_C@_0BM@FFFLPBBC@invalid?5literal?1length?5code?$AA@ 00000001800690c8     inffast.obj
 0002:000060e8       ??_C@_0BH@LIBMMIGA@incorrect?5header?5check?$AA@ 00000001800690e8     inflate.obj
 0002:00006100       ??_C@_0BL@IHKGDAEE@unknown?5compression?5method?$AA@ 0000000180069100     inflate.obj
 0002:00006120       ??_C@_0BE@EMOGCLGO@invalid?5window?5size?$AA@ 0000000180069120     inflate.obj
 0002:00006138       ??_C@_0BJ@BLBBCOMO@unknown?5header?5flags?5set?$AA@ 0000000180069138     inflate.obj
 0002:00006158       ??_C@_0BE@GONKLEPM@header?5crc?5mismatch?$AA@ 0000000180069158     inflate.obj
 0002:00006170       ??_C@_0BD@PJCBIDD@invalid?5block?5type?$AA@ 0000000180069170     inflate.obj
 0002:00006188       ??_C@_0BN@LGAADGOK@invalid?5stored?5block?5lengths?$AA@ 0000000180069188     inflate.obj
 0002:000061a8       ??_C@_0CE@GMIGFPBB@too?5many?5length?5or?5distance?5symb@ 00000001800691a8     inflate.obj
 0002:000061d0       ??_C@_0BJ@HDEPPGOH@invalid?5code?5lengths?5set?$AA@ 00000001800691d0     inflate.obj
 0002:000061f0       ??_C@_0BK@BMMPFBBH@invalid?5bit?5length?5repeat?$AA@ 00000001800691f0     inflate.obj
 0002:00006210       ??_C@_0CF@DGDMADCD@invalid?5code?5?9?9?5missing?5end?9of?9b@ 0000000180069210     inflate.obj
 0002:00006238       ??_C@_0BM@IIMGAINC@invalid?5literal?1lengths?5set?$AA@ 0000000180069238     inflate.obj
 0002:00006258       ??_C@_0BG@GMDFCBGP@invalid?5distances?5set?$AA@ 0000000180069258     inflate.obj
 0002:00006270       ??_C@_0BF@MEIGEHBE@incorrect?5data?5check?$AA@ 0000000180069270     inflate.obj
 0002:00006288       ??_C@_0BH@FGKKJGOC@incorrect?5length?5check?$AA@ 0000000180069288     inflate.obj
 0002:000062a0       ??_C@_0BF@CJFPCCEG@incompatible?5version?$AA@ 00000001800692a0     zutil.obj
 0002:000062b8       ??_C@_0N@DFPGLBGC@buffer?5error?$AA@ 00000001800692b8     zutil.obj
 0002:000062c8       ??_C@_0BE@OGGJBMCE@insufficient?5memory?$AA@ 00000001800692c8     zutil.obj
 0002:000062e0       ??_C@_0L@HAHMBNLP@data?5error?$AA@ 00000001800692e0     zutil.obj
 0002:000062f0       ??_C@_0N@MKKNPMJD@stream?5error?$AA@ 00000001800692f0     zutil.obj
 0002:00006300       ??_C@_0L@KIJFAKBJ@file?5error?$AA@ 0000000180069300     zutil.obj
 0002:0000630b       ??_C@_00CNPNBAHC@?$AA@     000000018006930b     zutil.obj
 0002:00006310       ??_C@_0L@FNAOCBOG@stream?5end?$AA@ 0000000180069310     zutil.obj
 0002:00006320       ??_C@_0BA@MOKMMFOD@need?5dictionary?$AA@ 0000000180069320     zutil.obj
 0002:00006330       ??_C@_02JDPG@rb?$AA@       0000000180069330     ioapi.obj
 0002:00006334       ??_C@_03HMFOOINA@r?$CLb?$AA@ 0000000180069334     ioapi.obj
 0002:00006338       ??_C@_02GMLFBBN@wb?$AA@    0000000180069338     ioapi.obj
 0002:00006340       ??_C@_0BJ@IKGPACGH@ParserFactoryException?3?5?$AA@ 0000000180069340     ParserFactory.obj
 0002:00006360       ??_C@_07MFFOOIHD@catalog?$AA@ 0000000180069360     ParserFactory.obj
 0002:00006368       ??_C@_0BG@KNJAMOAD@bad?5catalog?5structure?$AA@ 0000000180069368     ParserFactory.obj
 0002:00006380       ??_C@_08PEDEGJAH@hrc?9sets?$AA@ 0000000180069380     ParserFactory.obj
 0002:00006390       ??_C@_0N@MFKLFMOI@log?9location?$AA@ 0000000180069390     ParserFactory.obj
 0002:000063a0       ??_C@_08CBBFJFMD@location?$AA@ 00000001800693a0     ParserFactory.obj
 0002:000063ac       ??_C@_04OHHBHOGB@link?$AA@ 00000001800693ac     ParserFactory.obj
 0002:000063b4       ??_C@_05ENKANFLO@class?$AA@ 00000001800693b4     ParserFactory.obj
 0002:000063c0       ??_C@_0BG@JJKJOMLH@Duplicate?5hrd?5class?5?8?$AA@ 00000001800693c0     ParserFactory.obj
 0002:000063d8       ??_C@_01GEODFPGF@?8?$AA@   00000001800693d8     ParserFactory.obj
 0002:000063dc       ??_C@_01JOAMLHOP@?9?$AA@   00000001800693dc     ParserFactory.obj
 0002:000063e0       ??_C@_1BA@KDEKKIGH@?$AAc?$AAo?$AAl?$AAo?$AAr?$AAe?$AAr?$AA?$AA@ 00000001800693e0     ParserFactory.obj
 0002:000063f0       ??_C@_1BI@KNOOCEEB@?$AAc?$AAo?$AAl?$AAo?$AAr?$AAe?$AAr?$AA_?$AAx?$AA6?$AA4?$AA?$AA@ 00000001800693f0     ParserFactory.obj
 0002:00006408       ??_C@_0N@KPOBKDCG@?2catalog?4xml?$AA@ 0000000180069408     ParserFactory.obj
 0002:00006418       ??_C@_0BA@HHPGLKLH@COLORER5CATALOG?$AA@ 0000000180069418     ParserFactory.obj
 0002:00006428       ??_C@_09OBKBLLMN@HOMEDRIVE?$AA@ 0000000180069428     ParserFactory.obj
 0002:00006438       ??_C@_08LOOGKGJL@HOMEPATH?$AA@ 0000000180069438     ParserFactory.obj
 0002:00006448       ??_C@_0BC@PFKFHFCO@?1?4colorer5catalog?$AA@ 0000000180069448     ParserFactory.obj
 0002:00006460       ??_C@_0L@CLNGBNDK@SYSTEMROOT?$AA@ 0000000180069460     ParserFactory.obj
 0002:0000646c       ??_C@_06KIMFAMMH@WINDIR?$AA@ 000000018006946c     ParserFactory.obj
 0002:00006480       ??_C@_0ED@ODBJFPOE@Can?8t?5find?5suitable?5catalog?4xml?5@ 0000000180069480     ParserFactory.obj
 0002:000064c8       ??_C@_07CAIJGPF@file?3?1?1?$AA@ 00000001800694c8     ParserFactory.obj
 0002:000064d0       ??_C@_06MONEMCJK@file?3?1?$AA@ 00000001800694d0     ParserFactory.obj
 0002:000064d8       ??_C@_05BOPHDICO@file?3?$AA@ 00000001800694d8     ParserFactory.obj
 0002:000064e0       ??_C@_04FGAJMCLA@?2?$CK?4?$CK?$AA@ 00000001800694e0     ParserFactory.obj
 0002:000064e8       ??_C@_01KICIPPFI@?2?$AA@   00000001800694e8     ParserFactory.obj
 0002:000064f0       ??_C@_0BB@JCAFBFOJ@Can?8t?5load?5hrc?3?5?$AA@ 00000001800694f0     ParserFactory.obj
 0002:00006508       ??_C@_0BG@LNPACFPD@can?8t?5find?5hrdClass?5?8?$AA@ 0000000180069508     ParserFactory.obj
 0002:00006520       ??_C@_0M@IPPAKKCD@COLORER5HRD?$AA@ 0000000180069520     ParserFactory.obj
 0002:00006530       ??_C@_0BF@KEKNMLOJ@can?8t?5find?5hrdName?5?8?$AA@ 0000000180069530     ParserFactory.obj
 0002:00006548       ??_C@_0BB@PNCCNFA@Can?8t?5load?5hrd?3?5?$AA@ 0000000180069548     ParserFactory.obj
 0002:00006560       ??_C@_0P@NHKDLEJN@Error?5load?5hrd?$AA@ 0000000180069560     ParserFactory.obj
 0002:00006570       ??_7ErrorHandler@@6B@      0000000180069570     ParserFactory.obj
 0002:00006590       ??_7DefaultErrorHandler@@6B@ 0000000180069590     ParserFactory.obj
 0002:000065b0       ??_7ParserFactory@@6B@     00000001800695b0     ParserFactory.obj
 0002:000065b8       ??_C@_01JLIPDDHJ@?3?$AA@   00000001800695b8     ConsoleTools.obj
 0002:000065bc       ??_C@_02BAABKJLB@?9?9?$AA@ 00000001800695bc     ConsoleTools.obj
 0002:000065c0       ??_C@_05JKJFEODM@?$CGamp?$DL?$AA@ 00000001800695c0     ConsoleTools.obj
 0002:000065c8       ??_C@_04GJOGLFEJ@?$CGlt?$DL?$AA@ 00000001800695c8     ConsoleTools.obj
 0002:000065d0       ??_C@_06MMEMGLOP@scheme?$AA@ 00000001800695d0     ConsoleTools.obj
 0002:000065d8       ??_C@_01EEMJAFIK@?6?$AA@   00000001800695d8     ConsoleTools.obj
 0002:000065e0       ??_7Writer@@6B@            00000001800695e0     ConsoleTools.obj
 0002:00006610       ??_C@_1O@PNMIMBDD@?$AAC?$AAO?$AAN?$AAI?$AAN?$AA$?$AA?$AA@ 0000000180069610     TextConsoleViewer.obj
 0002:00006620       ??_C@_04PFOHOKJK@?5?5?5?5?$AA@ 0000000180069620     TextLinesStore.obj
 0002:00006628       ??_C@_01GPOEFGEJ@?7?$AA@   0000000180069628     TextLinesStore.obj
 0002:00006630       ??_7TextLinesStore@@6B@    0000000180069630     TextLinesStore.obj
 0002:00006650       ??_C@_0BI@FDANEDOH@?6?9?9?9?5start?5logging?5?9?9?9?5?$AA@ 0000000180069650     ErrorHandlerWriter.obj
 0002:00006668       ??_C@_0BH@IEFAHEGG@?9?9?9?5end?5?5?5logging?5?9?9?9?5?$AA@ 0000000180069668     ErrorHandlerWriter.obj
 0002:00006680       ??_C@_07FJOHCPOO@error?3?5?$AA@ 0000000180069680     ErrorHandlerWriter.obj
 0002:00006688       ??_C@_07FIPBNDIO@fatal?3?5?$AA@ 0000000180069688     ErrorHandlerWriter.obj
 0002:00006690       ??_C@_07GNCLHBHC@warn?5?3?5?$AA@ 0000000180069690     ErrorHandlerWriter.obj
 0002:00006698       ??_7ErrorHandlerWriter@@6B@ 0000000180069698     ErrorHandlerWriter.obj
 0002:000066b8       ??_C@_03GAACFCKC@ab?$CL?$AA@ 00000001800696b8     FileErrorHandler.obj
 0002:000066c0       ??_C@_0CO@OPIBPNFJ@Can?8t?5open?5output?5stream?5for?5err@ 00000001800696c0     FileErrorHandler.obj
 0002:000066f0       ??_7FileErrorHandler@@6B@  00000001800696f0     FileErrorHandler.obj
 0002:00006710       ??_7LineRegionsCompactSupport@@6B@ 0000000180069710     LineRegionsCompactSupport.obj
 0002:00006750       ??_C@_0BP@NOPMDOFN@no?5lastElement?5in?5empty?5vector?$AA@ 0000000180069750     LineRegionsSupport.obj
 0002:00006770       ??_7RegionHandler@@6B@     0000000180069770     LineRegionsSupport.obj
 0002:000067b0       ??_7LineRegionsSupport@@6B@ 00000001800697b0     LineRegionsSupport.obj
 0002:000067f0       ??_C@_0BH@JFINGNFA@Error?5loading?5HRD?5file?$AA@ 00000001800697f0     StyledHRDMapper.obj
 0002:00006808       ??_C@_06IMFOKBKF@assign?$AA@ 0000000180069808     StyledHRDMapper.obj
 0002:00006810       ??_C@_04DBFEOIG@fore?$AA@  0000000180069810     StyledHRDMapper.obj
 0002:00006818       ??_C@_04JFCNHLLM@back?$AA@ 0000000180069818     StyledHRDMapper.obj
 0002:00006820       ??_C@_05IAKJCFIM@style?$AA@ 0000000180069820     StyledHRDMapper.obj
 0002:00006830       ??_C@_0EB@LJNFMDDF@?$DM?$DPxml?5version?$DN?$CC1?40?$CC?$DP?$DO?6?$DM?$CBDOCTYPE?5@ 0000000180069830     StyledHRDMapper.obj
 0002:00006878       ??_C@_0BB@EPCEEOII@?5?5?$DMdefine?5name?$DN?8?$AA@ 0000000180069878     StyledHRDMapper.obj
 0002:00006890       ??_C@_0O@MCFILJAF@?5fore?$DN?$CC?$CD?$CF06x?$CC?$AA@ 0000000180069890     StyledHRDMapper.obj
 0002:000068a0       ??_C@_0O@JKGBCLDF@?5back?$DN?$CC?$CD?$CF06x?$CC?$AA@ 00000001800698a0     StyledHRDMapper.obj
 0002:000068b0       ??_C@_0P@NMGBKHLN@?5style?$DN?$CC?$CD?$CF06x?$CC?$AA@ 00000001800698b0     StyledHRDMapper.obj
 0002:000068c0       ??_C@_03PCPALPJL@?1?$DO?6?$AA@ 00000001800698c0     StyledHRDMapper.obj
 0002:000068c8       ??_C@_08GAKEBAFE@?6?$DM?1hrd?$DO?6?$AA@ 00000001800698c8     StyledHRDMapper.obj
 0002:000068d8       ??_7RegionDefine@@6B@      00000001800698d8     StyledHRDMapper.obj
 0002:00006900       ??_7Scheme@@6B@            0000000180069900     HRCParserImpl.obj
 0002:00006900       ??_7RegionMapper@@6B@      0000000180069900     StyledHRDMapper.obj
 0002:00006918       ??_7RegionMapperImpl@@6B@  0000000180069918     StyledHRDMapper.obj
 0002:00006948       ??_7StyledRegion@@6B@      0000000180069948     StyledHRDMapper.obj
 0002:00006970       ??_7StyledHRDMapper@@6B@   0000000180069970     StyledHRDMapper.obj
 0002:000069a0       ??_C@_0CG@EKPGKOMG@Bad?5BaseEditor?5constructor?5param@ 00000001800699a0     BaseEditor.obj
 0002:000069c8       ??_C@_0L@CKHDNACL@def?3Syntax?$AA@ 00000001800699c8     BaseEditor.obj
 0002:000069d8       ??_C@_0M@JOACOAKJ@def?3Special?$AA@ 00000001800699d8     BaseEditor.obj
 0002:000069e8       ??_C@_0O@PKOIPAPG@def?3PairStart?$AA@ 00000001800699e8     BaseEditor.obj
 0002:000069f8       ??_C@_0M@NCAHNDMK@def?3PairEnd?$AA@ 00000001800699f8     BaseEditor.obj
 0002:00006a08       ??_C@_0O@DGKHPFJK@def?3HorzCross?$AA@ 0000000180069a08     BaseEditor.obj
 0002:00006a18       ??_C@_0O@MKNBLFAC@def?3VertCross?$AA@ 0000000180069a18     BaseEditor.obj
 0002:00006a28       ??_7PairMatch@@6B@         0000000180069a28     BaseEditor.obj
 0002:00006a30       ??_7BaseEditor@@6B@        0000000180069a30     BaseEditor.obj
 0002:00006a68       ??_7Outliner@@6BRegionHandler@@@ 0000000180069a68     Outliner.obj
 0002:00006aa0       ??_7Outliner@@6BEditorListener@@@ 0000000180069aa0     Outliner.obj
 0002:00006aa8       ??_C@_0BF@EEHAMAGA@HRCParserException?3?5?$AA@ 0000000180069aa8     HRCParserImpl.obj
 0002:00006ac0       ??_C@_0DG@BMIEHEED@Can?8t?5open?5stream?5for?5type?5witho@ 0000000180069ac0     HRCParserImpl.obj
 0002:00006af8       ??_C@_0BL@EGGMECPO@Can?8t?5open?5source?5stream?3?5?$AA@ 0000000180069af8     HRCParserImpl.obj
 0002:00006b14       ??_C@_02GBLMOEJC@?5?$FL?$AA@ 0000000180069b14     HRCParserImpl.obj
 0002:00006b18       ??_C@_01LBDDMOBJ@?$FN?$AA@ 0000000180069b18     HRCParserImpl.obj
 0002:00006b20       ??_C@_0CB@PEMPEAPH@Unknown?5exception?5while?5loading?5@ 0000000180069b20     HRCParserImpl.obj
 0002:00006b44       ??_C@_03DJIMHLFF@hrc?$AA@  0000000180069b44     HRCParserImpl.obj
 0002:00006b48       ??_C@_0BN@IBPBELDI@main?5?8?$DMhrc?$DO?8?5block?5not?5found?$AA@ 0000000180069b48     HRCParserImpl.obj
 0002:00006b68       ??_C@_07CPCPJPKL@version?$AA@ 0000000180069b68     HRCParserImpl.obj
 0002:00006b70       ??_C@_07KNEGBPNO@package?$AA@ 0000000180069b70     HRCParserImpl.obj
 0002:00006b78       ??_C@_04GPMDFGEJ@type?$AA@ 0000000180069b78     HRCParserImpl.obj
 0002:00006b80       ??_C@_05MGJOOGAJ@group?$AA@ 0000000180069b80     HRCParserImpl.obj
 0002:00006b88       ??_C@_0BD@FGPOGEAJ@unnamed?5prototype?5?$AA@ 0000000180069b88     HRCParserImpl.obj
 0002:00006ba0       ??_C@_0BG@JKCKKJLL@Duplicate?5prototype?5?8?$AA@ 0000000180069ba0     HRCParserImpl.obj
 0002:00006bb8       ??_C@_0CN@FEIIBLGL@Bad?5?8location?8?5link?5attribute?5in@ 0000000180069bb8     HRCParserImpl.obj
 0002:00006be8       ??_C@_08BABJIOEM@filename?$AA@ 0000000180069be8     HRCParserImpl.obj
 0002:00006bf8       ??_C@_09NDCFJMMA@firstline?$AA@ 0000000180069bf8     HRCParserImpl.obj
 0002:00006c04       ??_C@_05PODDDPBH@Bad?5?8?$AA@ 0000000180069c04     HRCParserImpl.obj
 0002:00006c10       ??_C@_0BJ@JECHMMNI@?8?5element?5in?5prototype?5?8?$AA@ 0000000180069c10     HRCParserImpl.obj
 0002:00006c30       ??_C@_0BN@IBPFBBPH@Fault?5compiling?5chooser?5RE?5?8?$AA@ 0000000180069c30     HRCParserImpl.obj
 0002:00006c50       ??_C@_0BB@MKKOFGOB@?8?5in?5prototype?5?8?$AA@ 0000000180069c50     HRCParserImpl.obj
 0002:00006c64       ??_C@_06CMCBKMCB@weight?$AA@ 0000000180069c64     HRCParserImpl.obj
 0002:00006c70       ??_C@_0L@HHPOFMCB@parameters?$AA@ 0000000180069c70     HRCParserImpl.obj
 0002:00006c80       ??_C@_0BN@EFFBAECH@Bad?5parameter?5in?5prototype?5?8?$AA@ 0000000180069c80     HRCParserImpl.obj
 0002:00006ca0       ??_C@_0BD@EHEIHHIN@Unnamed?5type?5found?$AA@ 0000000180069ca0     HRCParserImpl.obj
 0002:00006cb4       ??_C@_06EBDLJLML@type?5?8?$AA@ 0000000180069cb4     HRCParserImpl.obj
 0002:00006cc0       ??_C@_0BE@NLONNFCP@?8?5without?5prototype?$AA@ 0000000180069cc0     HRCParserImpl.obj
 0002:00006cd8       ??_C@_0BE@CDHEHAOE@?8?5is?5already?5loaded?$AA@ 0000000180069cd8     HRCParserImpl.obj
 0002:00006cec       ??_C@_06JEJEKGIK@region?$AA@ 0000000180069cec     HRCParserImpl.obj
 0002:00006cf4       ??_C@_06MLKDMCBD@parent?$AA@ 0000000180069cf4     HRCParserImpl.obj
 0002:00006d00       ??_C@_0CI@PCLBFOHJ@No?5?8name?8?5attribute?5in?5?$DMregion?$DO?5@ 0000000180069d00     HRCParserImpl.obj
 0002:00006d28       ??_C@_0BD@NHCDHBB@Duplicate?5region?5?8?$AA@ 0000000180069d28     HRCParserImpl.obj
 0002:00006d40       ??_C@_0BH@JIPLKABB@?8?5definition?5in?5type?5?8?$AA@ 0000000180069d40     HRCParserImpl.obj
 0002:00006d58       ??_C@_06GOJKNBFM@entity?$AA@ 0000000180069d58     HRCParserImpl.obj
 0002:00006d60       ??_C@_0BG@DJJPKMIL@Bad?5entity?5attributes?$AA@ 0000000180069d60     HRCParserImpl.obj
 0002:00006d78       ??_C@_06EOGGDCGF@import?$AA@ 0000000180069d78     HRCParserImpl.obj
 0002:00006d80       ??_C@_0BC@DHCJDPLK@Import?5with?5bad?5?8?$AA@ 0000000180069d80     HRCParserImpl.obj
 0002:00006d98       ??_C@_0BG@MLDGDJHP@?8?5attribute?5in?5type?5?8?$AA@ 0000000180069d98     HRCParserImpl.obj
 0002:00006db0       ??_C@_0BI@OPLAGMOO@?8?5has?5no?5default?5scheme?$AA@ 0000000180069db0     HRCParserImpl.obj
 0002:00006dc8       ??_C@_0BK@BIDDPFAH@bad?5scheme?5name?5in?5type?5?8?$AA@ 0000000180069dc8     HRCParserImpl.obj
 0002:00006de8       ??_C@_0BI@HCFMJDMD@duplicate?5scheme?5name?5?8?$AA@ 0000000180069de8     HRCParserImpl.obj
 0002:00006e00       ??_C@_02HEBPBKGD@if?$AA@   0000000180069e00     HRCParserImpl.obj
 0002:00006e04       ??_C@_06OMKCNAGG@unless?$AA@ 0000000180069e04     HRCParserImpl.obj
 0002:00006e10       ??_C@_07PGOGPNPO@inherit?$AA@ 0000000180069e10     HRCParserImpl.obj
 0002:00006e18       ??_C@_0DG@HFGOKJPC@empty?5scheme?5name?5in?5inheritance@ 0000000180069e18     HRCParserImpl.obj
 0002:00006e50       ??_C@_07HIMIIOGA@virtual?$AA@ 0000000180069e50     HRCParserImpl.obj
 0002:00006e58       ??_C@_0N@DPHJOAIB@subst?9scheme?$AA@ 0000000180069e58     HRCParserImpl.obj
 0002:00006e68       ??_C@_0CG@KCLHEGOB@bad?5virtualize?5attributes?5in?5sch@ 0000000180069e68     HRCParserImpl.obj
 0002:00006e90       ??_C@_06BDGKJDBI@regexp?$AA@ 0000000180069e90     HRCParserImpl.obj
 0002:00006e98       ??_C@_05FNONLPDI@match?$AA@ 0000000180069e98     HRCParserImpl.obj
 0002:00006ea0       ??_C@_0CA@KGAJJIOA@no?5?8match?8?5in?5regexp?5in?5scheme?5?$AA@ 0000000180069ea0     HRCParserImpl.obj
 0002:00006ec0       ??_C@_03IMLOALHE@low?$AA@  0000000180069ec0     HRCParserImpl.obj
 0002:00006ec8       ??_C@_08IIJFADMF@priority?$AA@ 0000000180069ec8     HRCParserImpl.obj
 0002:00006ed8       ??_C@_0BJ@KOKNBJDL@fault?5compiling?5regexp?5?8?$AA@ 0000000180069ed8     HRCParserImpl.obj
 0002:00006ef8       ??_C@_0O@DFGPHDMJ@?8?5in?5scheme?5?8?$AA@ 0000000180069ef8     HRCParserImpl.obj
 0002:00006f08       ??_C@_05PIBOEKAB@block?$AA@ 0000000180069f08     HRCParserImpl.obj
 0002:00006f10       ??_C@_05FAGFPHJG@start?$AA@ 0000000180069f10     HRCParserImpl.obj
 0002:00006f18       ??_C@_03JBJLGPFL@end?$AA@  0000000180069f18     HRCParserImpl.obj
 0002:00006f20       ??_C@_0CO@HFBEKDN@?8start?8?5block?5attribute?5not?5foun@ 0000000180069f20     HRCParserImpl.obj
 0002:00006f50       ??_C@_0CM@BNLOOKHI@?8end?8?5block?5attribute?5not?5found?5@ 0000000180069f50     HRCParserImpl.obj
 0002:00006f80       ??_C@_0CM@NKOCIMIG@block?5with?5bad?5scheme?5attribute?5@ 0000000180069f80     HRCParserImpl.obj
 0002:00006fb0       ??_C@_0BB@EKMOBOGD@content?9priority?$AA@ 0000000180069fb0     HRCParserImpl.obj
 0002:00006fc8       ??_C@_0N@MHMDLOAI@inner?9region?$AA@ 0000000180069fc8     HRCParserImpl.obj
 0002:00006fd8       ??_C@_08KBIEDDDE@keywords?$AA@ 0000000180069fd8     HRCParserImpl.obj
 0002:00006fe8       ??_C@_0L@CBELJKHN@ignorecase?$AA@ 0000000180069fe8     HRCParserImpl.obj
 0002:00006ff4       ??_C@_06IKLLLDHL@normal?$AA@ 0000000180069ff4     HRCParserImpl.obj
 0002:00007000       ??_C@_07OBMJLHNP@worddiv?$AA@ 000000018006a000     HRCParserImpl.obj
 0002:00007008       ??_C@_0CB@HHDLLBKI@fault?5compiling?5worddiv?5regexp?5?8@ 000000018006a008     HRCParserImpl.obj
 0002:0000702c       ??_C@_04EHIOMBPF@word?$AA@ 000000018006a02c     HRCParserImpl.obj
 0002:00007034       ??_C@_04IGFMCMLN@symb?$AA@ 000000018006a034     HRCParserImpl.obj
 0002:00007040       ??_C@_0BN@CJNNILKB@cannot?5resolve?5scheme?5name?5?8?$AA@ 000000018006a040     HRCParserImpl.obj
 0002:00007060       ??_C@_0BL@EPABPCAE@cannot?5virtualize?5scheme?5?8?$AA@ 000000018006a060     HRCParserImpl.obj
 0002:00007080       ??_C@_0CO@HEIMCDIP@cannot?5virtualize?5using?5subst?9sc@ 000000018006a080     HRCParserImpl.obj
 0002:000070b0       ??_C@_0BI@DPPKKDOE@type?5name?5qualifer?5in?5?8?$AA@ 000000018006a0b0     HRCParserImpl.obj
 0002:000070c8       ??_C@_0BH@PBKHKCO@?8?5doesn?8t?5match?5type?5?8?$AA@ 000000018006a0c8     HRCParserImpl.obj
 0002:000070e0       ??_C@_08BMFBBGAN@region?5?8?$AA@ 000000018006a0e0     HRCParserImpl.obj
 0002:000070f0       ??_C@_0BI@FFHBAHCC@?8?0?5referenced?5in?5type?5?8?$AA@ 000000018006a0f0     HRCParserImpl.obj
 0002:00007108       ??_C@_0BC@LFPMEFFO@?8?0?5is?5not?5defined?$AA@ 000000018006a108     HRCParserImpl.obj
 0002:00007120       ??_C@_08FFCGKAF@entity?5?8?$AA@ 000000018006a120     HRCParserImpl.obj
 0002:00007130       ??_C@_08OBAOGPDK@scheme?5?8?$AA@ 000000018006a130     HRCParserImpl.obj
 0002:00007140       ??_C@_0BJ@ELMJJJDM@?8?5doesn?8t?5match?5any?5type?$AA@ 000000018006a140     HRCParserImpl.obj
 0002:00007160       ??_C@_0BD@LLMBEMND@unqualified?5name?5?8?$AA@ 000000018006a160     HRCParserImpl.obj
 0002:00007178       ??_C@_0CI@BPOMGHGI@?8?5doesn?8t?5belong?5to?5any?5imported@ 000000018006a178     HRCParserImpl.obj
 0002:000071a0       ??_C@_08DEGAALM@?3default?$AA@ 000000018006a1a0     HRCParserImpl.obj
 0002:000071b0       ??_7Region@@6B@            000000018006a1b0     HRCParserImpl.obj
 0002:000071e0       ??_7FileType@@6B@          000000018006a1e0     HRCParserImpl.obj
 0002:000071e0       ??_7HRCParser@@6B@         000000018006a1e0     HRCParserImpl.obj
 0002:00007238       ??_7SchemeImpl@@6B@        000000018006a238     HRCParserImpl.obj
 0002:00007250       ??_7FileTypeImpl@@6B@      000000018006a250     HRCParserImpl.obj
 0002:000072b0       ??_7HRCParserImpl@@6B@     000000018006a2b0     HRCParserImpl.obj
 0002:00007308       ??_7?$Hashtable@PEAV?$Hashtable@PEAV?$Vector@PEBVString@@@@@@@@6B@ 000000018006a308     ParserFactory.obj
 0002:00007308       ??_7?$HashtableCore@PEAVString@@@@6B@ 000000018006a308     ConsoleTools.obj
 0002:00007308       ??_7?$HashtableCore@PEBVString@@@@6B@ 000000018006a308     FarEditorSet.obj
 0002:00007308       ??_7?$Hashtable@PEAVString@@@@6B@ 000000018006a308     ConsoleTools.obj
 0002:00007308       ??_7?$HashtableCore@PEAVSchemeImpl@@@@6B@ 000000018006a308     HRCParserImpl.obj
 0002:00007308       ??_7?$HashtableCore@PEAV?$Vector@PEBVString@@@@@@6B@ 000000018006a308     ParserFactory.obj
 0002:00007308       ??_7?$Hashtable@PEAVFileTypeImpl@@@@6B@ 000000018006a308     HRCParserImpl.obj
 0002:00007308       ??_7?$HashtableCore@H@@6B@ 000000018006a308     HRCParserImpl.obj
 0002:00007308       ??_7?$HashtableCore@PEAVSharedInputSource@@@@6B@ 000000018006a308     SharedInputSource.obj
 0002:00007308       ??_7?$Hashtable@PEAVSharedInputSource@@@@6B@ 000000018006a308     SharedInputSource.obj
 0002:00007308       ??_7?$HashtableCore@PEAV?$Hashtable@PEAV?$Vector@PEBVString@@@@@@@@6B@ 000000018006a308     ParserFactory.obj
 0002:00007308       ??_7?$HashtableCore@PEAVFileTypeImpl@@@@6B@ 000000018006a308     HRCParserImpl.obj
 0002:00007308       ??_7?$HashtableCore@PEBVRegion@@@@6B@ 000000018006a308     HRCParserImpl.obj
 0002:00007308       ??_7?$Hashtable@PEAVFarEditor@@@@6B@ 000000018006a308     FarEditorSet.obj
 0002:00007308       ??_7?$Hashtable@PEBVString@@@@6B@ 000000018006a308     FarEditorSet.obj
 0002:00007308       ??_7?$HashtableCore@PEAVRegionDefine@@@@6B@ 000000018006a308     StyledHRDMapper.obj
 0002:00007308       ??_7?$Hashtable@H@@6B@     000000018006a308     HRCParserImpl.obj
 0002:00007308       ??_7?$Hashtable@PEAV?$Vector@PEBVString@@@@@@6B@ 000000018006a308     ParserFactory.obj
 0002:00007308       ??_7?$HashtableCore@PEAVFarEditor@@@@6B@ 000000018006a308     FarEditorSet.obj
 0002:00007308       ??_7?$Hashtable@PEBVRegion@@@@6B@ 000000018006a308     HRCParserImpl.obj
 0002:00007308       ??_7?$Hashtable@PEAVSchemeImpl@@@@6B@ 000000018006a308     HRCParserImpl.obj
 0002:00007308       ??_7?$Hashtable@PEAVRegionDefine@@@@6B@ 000000018006a308     StyledHRDMapper.obj
 0002:00007310       ??_C@_0CF@KDPIPOII@null?5String?5passed?5into?5the?5pars@ 000000018006a310     TextParserImpl.obj
 0002:00007338       ??_7TextParser@@6B@        000000018006a338     TextParserImpl.obj
 0002:00007370       ??_7TextParserImpl@@6B@    000000018006a370     TextParserImpl.obj
 0002:000073a8       ??_C@_07LLLEBHK@INHERIT?$AA@ 000000018006a3a8     HRCParserHelpers.obj
 0002:000073b0       ??_C@_08NOCIANBD@KEYWORDS?$AA@ 000000018006a3b0     HRCParserHelpers.obj
 0002:000073bc       ??_C@_06MIGHLFDN@SCHEME?$AA@ 000000018006a3bc     HRCParserHelpers.obj
 0002:000073c4       ??_C@_02OCIIGHHD@RE?$AA@   000000018006a3c4     HRCParserHelpers.obj
 0002:000073c8       ??_C@_05HKAKDGKI@EMPTY?$AA@ 000000018006a3c8     HRCParserHelpers.obj
 0002:000073d0       ??_C@_03NIFPGLBG@ALL?$AA@  000000018006a3d0     CharacterClass.obj
 0002:000073d8       ??_C@_08ECIAMOMD@ASSIGNED?$AA@ 000000018006a3d8     CharacterClass.obj
 0002:000073e8       ??_C@_0L@EGJECNPE@UNASSIGNED?$AA@ 000000018006a3e8     CharacterClass.obj
 0002:000073f4       ??_C@_01OCOKONAJ@L?$AA@    000000018006a3f4     CharacterClass.obj
 0002:000073f8       ??_C@_01POHCFINO@Z?$AA@    000000018006a3f8     CharacterClass.obj
 0002:00007400       ??_C@_09GHEONEIE@encoding?$DN?$AA@ 000000018006a400     DString.obj
 0002:00007410       ??_C@_0BP@EJEACAND@encoding?5conflict?5?9?5can?8t?5use?5?$AA@ 000000018006a410     DString.obj
 0002:00007430       ??_C@_0CC@FOKJPJOB@bad?5string?5constructor?5parameter@ 000000018006a430     DString.obj
 0002:00007458       ??_C@_0BP@BFHIEPOL@UnsupportedEncodingException?3?5?$AA@ 000000018006a458     Encodings.obj
 0002:00007478       ??_C@_02DPKJAMEF@?$CFd?$AA@ 000000018006a478     SString.obj
 0002:00007480       ??_C@_0CC@HJGKLFDF@StringIndexOutOfBoundsException?3@ 000000018006a480     String.obj
 0002:000074a4       ??_C@_04MLLLIHIP@null?$AA@ 000000018006a4a4     StringBuffer.obj
 0002:000074b0       ??_7StringBuffer@@6B@      000000018006a4b0     StringBuffer.obj
 0002:000074b0       ??_7SString@@6B@           000000018006a4b0     SString.obj
 0002:00007518       ??_C@_0M@KDEACOCM@Exception?3?5?$AA@ 000000018006a518     Exception.obj
 0002:00007528       ??_C@_0BH@MDDPLPDL@InputSourceException?3?5?$AA@ 000000018006a528     Exception.obj
 0002:00007540       ??_C@_0BG@CHIPDAFO@OutOfBoundException?3?5?$AA@ 000000018006a540     Exception.obj
 0002:00007558       ??_7ParserFactoryException@@6B@ 000000018006a558     ParserFactory.obj
 0002:00007558       ??_7FarHrcSettingsException@@6B@ 000000018006a558     FarHrcSettings.obj
 0002:00007558       ??_7OutOfBoundException@@6B@ 000000018006a558     ChooseTypeMenu.obj
 0002:00007558       ??_7UnsupportedEncodingException@@6B@ 000000018006a558     DString.obj
 0002:00007558       ??_7InputSourceException@@6B@ 000000018006a558     TextLinesStore.obj
 0002:00007558       ??_7ParseException@@6B@    000000018006a558     xmldom.obj
 0002:00007558       ??_7HRCParserException@@6B@ 000000018006a558     HRCParserImpl.obj
 0002:00007558       ??_7StringIndexOutOfBoundsException@@6B@ 000000018006a558     DString.obj
 0002:00007558       ??_7Exception@@6B@         000000018006a558     Exception.obj
 0002:00007568       ??_C@_0P@IJGGOEPP@JavaLineSource?$AA@ 000000018006a568     Logging.obj
 0002:00007578       ??_C@_0BB@NAGIDBKD@BaseEditorNative?$AA@ 000000018006a578     Logging.obj
 0002:0000758c       ??_C@_04BEADLPGM@INFO?$AA@ 000000018006a58c     Logging.obj
 0002:00007594       ??_C@_05EHILDPJH@TRACE?$AA@ 000000018006a594     Logging.obj
 0002:0000759c       ??_C@_04JBIELMDE@WARN?$AA@ 000000018006a59c     Logging.obj
 0002:000075a4       ??_C@_05MBDEGLCK@ERROR?$AA@ 000000018006a5a4     Logging.obj
 0002:000075ac       ??_C@_05DHIGAFHJ@QUIET?$AA@ 000000018006a5ac     Logging.obj
 0002:000075b4       ??_C@_01KMDKNFGN@?1?$AA@   000000018006a5b4     FileInputSource.obj
 0002:000075b8       ??_C@_0CO@ECBNJMED@openStream?$CI?$CJ?3?5source?5stream?5alre@ 000000018006a5b8     FileInputSource.obj
 0002:000075e8       ??_C@_0BC@PNMECEJF@Can?8t?5open?5file?5?8?$AA@ 000000018006a5e8     FileInputSource.obj
 0002:00007600       ??_C@_0CP@IPKCKMMM@closeStream?$CI?$CJ?3?5source?5stream?5is?5@ 000000018006a600     FileInputSource.obj
 0002:00007630       ??_C@_0CD@GIBHKNBA@length?$CI?$CJ?3?5stream?5is?5not?5yet?5open@ 000000018006a630     FileInputSource.obj
 0002:00007658       ??_7InputSource@@6B@       000000018006a658     FileInputSource.obj
 0002:00007688       ??_7FileInputSource@@6B@   000000018006a688     FileInputSource.obj
 0002:000076c0       ??_C@_1EA@ODIMDLKH@?$AAC?$AAo?$AAl?$AAo?$AAr?$AAe?$AAr?$AA?9?$AAt?$AAa?$AAk?$AAe?$AA5?$AA?5?$AAl?$AAi?$AAb?$AAr?$AAa?$AAr?$AAy?$AA?5?$AAc?$AAo?$AAn?$AAn?$AAe?$AAc?$AAt?$AAo?$AAr?$AA?$AA@ 000000018006a6c0     HTTPInputSource.obj
 0002:00007700       ??_C@_0CB@NLGKHBPA@Can?8t?5create?5internet?5connection@ 000000018006a700     HTTPInputSource.obj
 0002:00007728       ??_C@_0BD@CBLEANBJ@Can?8t?5access?5URL?5?8?$AA@ 000000018006a728     HTTPInputSource.obj
 0002:00007740       ??_C@_0BJ@DINGBAGA@Can?8t?5read?5http?5stream?3?5?$AA@ 000000018006a740     HTTPInputSource.obj
 0002:00007760       ??_7HTTPInputSource@@6B@   000000018006a760     HTTPInputSource.obj
 0002:00007790       ??_C@_0CH@DLLLHDOD@InputSource?3?3newInstance?3?5path?5i@ 000000018006a790     InputSource.obj
 0002:000077b8       ??_C@_07FGAOOBMN@http?3?1?1?$AA@ 000000018006a7b8     InputSource.obj
 0002:000077c0       ??_C@_04BLBJJFCP@jar?3?$AA@ 000000018006a7c0     InputSource.obj
 0002:000077c8       ??_C@_0BK@MHABJOLD@Unknown?5input?5source?5type?$AA@ 000000018006a7c8     InputSource.obj
 0002:000077e8       ??_C@_0BI@LODBIIEF@Can?8t?5create?5jar?5source?$AA@ 000000018006a7e8     JARInputSource.obj
 0002:00007800       ??_C@_0BF@JAHHNEBF@Bad?5jar?5uri?5format?3?5?$AA@ 000000018006a800     JARInputSource.obj
 0002:00007818       ??_C@_01DCLJPIOD@?$CB?$AA@ 000000018006a818     JARInputSource.obj
 0002:00007820       ??_C@_0CE@EDJIMBNH@Can?8t?5locate?5file?5in?5JAR?5content@ 000000018006a820     JARInputSource.obj
 0002:00007848       ??_C@_0CO@DFLAPANK@Can?8t?5retrieve?5current?5file?5in?5J@ 000000018006a848     JARInputSource.obj
 0002:00007878       ??_C@_0CK@JBOBENOM@Can?8t?5open?5current?5file?5in?5JAR?5c@ 000000018006a878     JARInputSource.obj
 0002:000078a8       ??_C@_0CK@DGNHPGFK@Can?8t?5read?5current?5file?5in?5JAR?5c@ 000000018006a8a8     JARInputSource.obj
 0002:000078d4       ??_C@_03IGEOFPCO@?8?5?$CI?$AA@ 000000018006a8d4     JARInputSource.obj
 0002:000078d8       ??_C@_01PKGAHCOL@?$CJ?$AA@ 000000018006a8d8     JARInputSource.obj
 0002:000078e0       ??_C@_0BB@GGAABBBB@Bad?5JAR?5file?5CRC?$AA@ 000000018006a8e0     JARInputSource.obj
 0002:000078f8       ??_7JARInputSource@@6B@    000000018006a8f8     JARInputSource.obj
 0002:00007928       ??_7SharedInputSource@@6B@ 000000018006a928     SharedInputSource.obj
 0002:00007958       ??_C@_0P@KOFPNFCE@Invalid?5stream?$AA@ 000000018006a958     StreamWriter.obj
 0002:00007968       ??_7StreamWriter@@6B@      000000018006a968     StreamWriter.obj
 0002:00007998       ??_C@_0BB@OHEMGNIP@ParseException?3?5?$AA@ 000000018006a998     xmldom.obj
 0002:000079b0       ??_C@_0L@INJHKMPP@?5at?5line?3?5?$AA@ 000000018006a9b0     xmldom.obj
 0002:000079c0       ??_C@_07COALMINI@?0?5pos?3?5?$AA@ 000000018006a9c0     xmldom.obj
 0002:000079c8       ??_C@_0BJ@BGLLIKLB@End?5of?5stream?5is?5reached?$AA@ 000000018006a9c8     xmldom.obj
 0002:000079e8       ??_C@_0BO@FGDBEJIC@Invalid?5document?5root?5content?$AA@ 000000018006a9e8     xmldom.obj
 0002:00007a08       ??_C@_09DFKKGJPK@?$CDdocument?$AA@ 000000018006aa08     xmldom.obj
 0002:00007a14       ??_C@_03IMPCJIIN@?$CDpi?$AA@ 000000018006aa14     xmldom.obj
 0002:00007a18       ??_C@_06NCJAKFPF@?$CDcdata?$AA@ 000000018006aa18     xmldom.obj
 0002:00007a20       ??_C@_01MNNFJEPP@?$DM?$AA@ 000000018006aa20     xmldom.obj
 0002:00007a24       ??_C@_04LOOHDCEI@?$CGgt?$DL?$AA@ 000000018006aa24     xmldom.obj
 0002:00007a2c       ??_C@_06DDLNFFBN@?$CGquot?$DL?$AA@ 000000018006aa2c     xmldom.obj
 0002:00007a34       ??_C@_01BJJEKLCA@?$CC?$AA@ 000000018006aa34     xmldom.obj
 0002:00007a38       ??_C@_06PNMEMOHD@?$CGapos?$DL?$AA@ 000000018006aa38     xmldom.obj
 0002:00007a40       ??_C@_03DCBBJBAA@amp?$AA@  000000018006aa40     xmldom.obj
 0002:00007a44       ??_C@_02KCAKIFL@lt?$AA@    000000018006aa44     xmldom.obj
 0002:00007a48       ??_C@_02GHFEHLK@gt?$AA@    000000018006aa48     xmldom.obj
 0002:00007a4c       ??_C@_04KJFGKBNM@quot?$AA@ 000000018006aa4c     xmldom.obj
 0002:00007a54       ??_C@_04LBCJFAKL@apos?$AA@ 000000018006aa54     xmldom.obj
 0002:00007a60       ??_C@_0P@DAEICJJF@Empty?5document?$AA@ 000000018006aa60     xmldom.obj
 0002:00007a70       ??_C@_0CE@LNAIDPOG@Extra?5markup?5after?5the?5root?5elem@ 000000018006aa70     xmldom.obj
 0002:00007a94       ??_C@_05DJDIECHG@?$DM?$DPxml?$AA@ 000000018006aa94     xmldom.obj
 0002:00007a9c       ??_C@_01NEMOKFLO@?$DN?$AA@ 000000018006aa9c     xmldom.obj
 0002:00007aa0       ??_C@_08MLPGAEIK@encoding?$AA@ 000000018006aaa0     xmldom.obj
 0002:00007ab0       ??_C@_0L@FLHGMILF@standalone?$AA@ 000000018006aab0     xmldom.obj
 0002:00007abc       ??_C@_02GOEMJPDN@?$DP?$DO?$AA@ 000000018006aabc     xmldom.obj
 0002:00007ac0       ??_C@_09PHEMGOEJ@?$DM?$CBDOCTYPE?$AA@ 000000018006aac0     xmldom.obj
 0002:00007acc       ??_C@_06FDHFNJBJ@SYSTEM?$AA@ 000000018006aacc     xmldom.obj
 0002:00007ad4       ??_C@_06EKOLBGFH@PUBLIC?$AA@ 000000018006aad4     xmldom.obj
 0002:00007adc       ??_C@_01OHGJGJJP@?$FL?$AA@ 000000018006aadc     xmldom.obj
 0002:00007ae0       ??_C@_08OMANJFFA@?$DM?$CBENTITY?$AA@ 000000018006aae0     xmldom.obj
 0002:00007aec       ??_C@_02HCGKDMEN@?1?$DO?$AA@ 000000018006aaec     xmldom.obj
 0002:00007af0       ??_C@_02DPNDACHE@?$DM?1?$AA@ 000000018006aaf0     xmldom.obj
 0002:00007af8       ??_C@_09BLLNCBLF@?$DM?$CB?$FLCDATA?$FL?$AA@ 000000018006aaf8     xmldom.obj
 0002:00007b04       ??_C@_03MCHNFBAC@?$FN?$FN?$DO?$AA@ 000000018006ab04     xmldom.obj
 0002:00007b08       ??_C@_0CN@PHKMPDEB@?$CG?$CD?5syntax?5of?5Character?5Reference@ 000000018006ab08     xmldom.obj
 0002:00007b38       ??_C@_02ICNHGLNO@?$CG?$CD?$AA@ 000000018006ab38     xmldom.obj
 0002:00007b3c       ??_C@_01IPJKGB@?$CD?$AA@   000000018006ab3c     xmldom.obj
 0002:00007b40       ??_C@_0CK@ODGPOHFD@Invalid?5Character?5Reference?5nume@ 000000018006ab40     xmldom.obj
 0002:00007b70       ??_C@_0BL@DLBCBMHD@Undefined?5Entity?5Reference?$AA@ 000000018006ab70     xmldom.obj
 0002:00007b90       ??_C@_0BC@CNMDCPHP@Space?5is?5required?$AA@ 000000018006ab90     xmldom.obj
 0002:00007ba8       ??_C@_0CB@PANLFAMH@Qoute?5character?5is?5required?5here@ 000000018006aba8     xmldom.obj
 0002:00007bd0       ??_C@_0BG@IGAPHLFH@Name?5is?5required?5here?$AA@ 000000018006abd0     xmldom.obj
 0002:00007be8       ??_C@_0BF@KJBFLKON@NCName?5required?5here?$AA@ 000000018006abe8     xmldom.obj
 0002:00007c00       ??_C@_02HFBBBACF@?$DM?$DP?$AA@ 000000018006ac00     xmldom.obj
 0002:00007c04       ??_C@_04FFDNBKGC@?$DM?$CB?9?9?$AA@ 000000018006ac04     xmldom.obj
 0002:00007c0c       ??_C@_03PNLDJJMO@?9?9?$DO?$AA@ 000000018006ac0c     xmldom.obj
 0002:00007c10       ??_C@_0CA@DBOFLDNH@Invalid?5sequence?4?5waiting?5for?5?8?$AA@ 000000018006ac10     xmldom.obj
 0002:00007c30       ??_C@_0BA@FMELJKHC@?$DM?$DPxml?5version?$DN?$CC?$AA@ 000000018006ac30     xmldom.obj
 0002:00007c40       ??_C@_0N@OCOAJNOF@?$CC?5encoding?$DN?$CC?$AA@ 000000018006ac40     xmldom.obj
 0002:00007c50       ??_C@_04POIOLMGB@?$CC?$DP?$DO?6?$AA@ 000000018006ac50     xmldom.obj
 0002:00007c58       ??_C@_02NEKEAGPN@?$DO?6?$AA@ 000000018006ac58     xmldom.obj
 0002:00007c5c       ??_C@_03KCOJOIAE@?$DP?$DO?6?$AA@ 000000018006ac5c     xmldom.obj
 0002:00007c60       ??_C@_04IGMOLEKE@?9?9?$DO?6?$AA@ 000000018006ac60     xmldom.obj
 0002:00007c68       ??_7Node@@6B@              000000018006ac68     xmldom.obj
 0002:00007c98       ??_7Document@@6B@          000000018006ac98     xmldom.obj
 0002:00007cc8       ??_7Element@@6B@           000000018006acc8     xmldom.obj
 0002:00007cf8       ??_7ProcessingInstruction@@6B@ 000000018006acf8     xmldom.obj
 0002:00007d28       ??_7CharacterData@@6B@     000000018006ad28     xmldom.obj
 0002:00007d58       ??_7Comment@@6B@           000000018006ad58     xmldom.obj
 0002:00007d88       ??_7Text@@6B@              000000018006ad88     xmldom.obj
 0002:00007db8       ??_7DefaultEntityResolver@@6B@ 000000018006adb8     xmldom.obj
 0002:00007dc0       __mask@@NegDouble@         000000018006adc0      CIL library: CIL module
 0002:00007dd0       __real@4024000000000000    000000018006add0      CIL library: CIL module
 0002:00007ec8       __real@3fe8000000000000    000000018006aec8      CIL library: CIL module
 0002:00007ed0       __real@3f847ae147ae147b    000000018006aed0      CIL library: CIL module
 0002:0000ad58       __real@3eb0c6f7a0b5ed8d    000000018006dd58      CIL library: CIL module
 0002:0000ceb8       _FPinit                    000000018006feb8     LIBCMT:_fpinit_.obj
 0002:0000cfa0       __real@0000000000000000    000000018006ffa0     LIBCMT:cvt.obj
 0002:0000cfa8       ??_C@_05KLBDPFGC@e?$CL000?$AA@ 000000018006ffa8     LIBCMT:cvt.obj
 0002:0000cfb0       ??_C@_03JGHBODFD@pow?$AA@  000000018006ffb0     LIBCMT:_pow_special_.obj
 0002:0000cfb8       _pDestructExceptionObject  000000018006ffb8     LIBCMT:frame.obj
 0002:0000cfc8       ??_7bad_exception@std@@6B@ 000000018006ffc8     LIBCMT:frame.obj
 0002:0000cfd8       ??_C@_0O@DPKOEFFH@bad?5exception?$AA@ 000000018006ffd8     LIBCMT:frame.obj
 0002:0000cff0       ??_7exception@std@@6B@     000000018006fff0     LIBCMT:stdexcpt.obj
 0002:0000d000       ??_C@_0BC@EOODALEL@Unknown?5exception?$AA@ 0000000180070000     LIBCMT:stdexcpt.obj
 0002:0000d014       ??_C@_06IMKFLFPG@1?$CDQNAN?$AA@ 0000000180070014     LIBCMT:_x10fout_.obj
 0002:0000d01c       ??_C@_05DNEBIAHO@1?$CDINF?$AA@ 000000018007001c     LIBCMT:_x10fout_.obj
 0002:0000d024       ??_C@_05PHHOCPM@1?$CDIND?$AA@ 0000000180070024     LIBCMT:_x10fout_.obj
 0002:0000d02c       ??_C@_06PGGFOGJG@1?$CDSNAN?$AA@ 000000018007002c     LIBCMT:_x10fout_.obj
 0002:0000d038       ??_C@_0L@KDOEJCKC@_nextafter?$AA@ 0000000180070038     LIBCMT:_fpexcept_.obj
 0002:0000d044       ??_C@_05JGDBENOH@_logb?$AA@ 0000000180070044     LIBCMT:_fpexcept_.obj
 0002:0000d04c       ??_C@_03ONILCKOB@_yn?$AA@  000000018007004c     LIBCMT:_fpexcept_.obj
 0002:0000d050       ??_C@_03NAKIGLHK@_y1?$AA@  0000000180070050     LIBCMT:_fpexcept_.obj
 0002:0000d054       ??_C@_03MJLDFKDL@_y0?$AA@  0000000180070054     LIBCMT:_fpexcept_.obj
 0002:0000d058       ??_C@_05GKKHEGJL@frexp?$AA@ 0000000180070058     LIBCMT:_fpexcept_.obj
 0002:0000d060       ??_C@_04KEPJIHGP@fmod?$AA@ 0000000180070060     LIBCMT:_fpexcept_.obj
 0002:0000d068       ??_C@_06MEIMCGCF@_hypot?$AA@ 0000000180070068     LIBCMT:_fpexcept_.obj
 0002:0000d070       ??_C@_05KBKMEMPO@_cabs?$AA@ 0000000180070070     LIBCMT:_fpexcept_.obj
 0002:0000d078       ??_C@_05CEJMAHNP@ldexp?$AA@ 0000000180070078     LIBCMT:_fpexcept_.obj
 0002:0000d080       ??_C@_04EHEDPDJG@modf?$AA@ 0000000180070080     LIBCMT:_fpexcept_.obj
 0002:0000d088       ??_C@_04ODHECPBC@fabs?$AA@ 0000000180070088     LIBCMT:_fpexcept_.obj
 0002:0000d090       ??_C@_05PBJFFIGL@floor?$AA@ 0000000180070090     LIBCMT:_fpexcept_.obj
 0002:0000d098       ??_C@_04GFPJNGEK@ceil?$AA@ 0000000180070098     LIBCMT:_fpexcept_.obj
 0002:0000d0a0       ??_C@_03IIINPABG@tan?$AA@  00000001800700a0     LIBCMT:_fpexcept_.obj
 0002:0000d0a4       ??_C@_03LALBNOCG@cos?$AA@  00000001800700a4     LIBCMT:_fpexcept_.obj
 0002:0000d0a8       ??_C@_03BLEJJJBH@sin?$AA@  00000001800700a8     LIBCMT:_fpexcept_.obj
 0002:0000d0ac       ??_C@_04EIAKFFMI@sqrt?$AA@ 00000001800700ac     LIBCMT:_fpexcept_.obj
 0002:0000d0b4       ??_C@_05KNGEOGJB@atan2?$AA@ 00000001800700b4     LIBCMT:_fpexcept_.obj
 0002:0000d0bc       ??_C@_04MLLJIGOK@atan?$AA@ 00000001800700bc     LIBCMT:_fpexcept_.obj
 0002:0000d0c4       ??_C@_04PDIFKINK@acos?$AA@ 00000001800700c4     LIBCMT:_fpexcept_.obj
 0002:0000d0cc       ??_C@_04FIHNOPOL@asin?$AA@ 00000001800700cc     LIBCMT:_fpexcept_.obj
 0002:0000d0d4       ??_C@_04FJHINJAO@tanh?$AA@ 00000001800700d4     LIBCMT:_fpexcept_.obj
 0002:0000d0dc       ??_C@_04HPJJNFIM@cosh?$AA@ 00000001800700dc     LIBCMT:_fpexcept_.obj
 0002:0000d0e4       ??_C@_04COOMCNPB@sinh?$AA@ 00000001800700e4     LIBCMT:_fpexcept_.obj
 0002:0000d0ec       ??_C@_05HGHHAHAP@log10?$AA@ 00000001800700ec     LIBCMT:_fpexcept_.obj
 0002:0000d0f4       ??_C@_03MGHMBJCF@log?$AA@  00000001800700f4     LIBCMT:_fpexcept_.obj
 0002:0000d0f8       ??_C@_03KHJOGHMM@exp?$AA@  00000001800700f8     LIBCMT:_fpexcept_.obj
 0002:0000d110       ??_R4type_info@@6B@        0000000180070110     LIBCMT:typinfo.obj
 0002:0000d138       ??_R3type_info@@8          0000000180070138     LIBCMT:typinfo.obj
 0002:0000d150       ??_R2type_info@@8          0000000180070150     LIBCMT:typinfo.obj
 0002:0000d160       ??_R1A@?0A@EA@type_info@@8 0000000180070160     LIBCMT:typinfo.obj
 0002:0000d188       ??_R4bad_exception@std@@6B@ 0000000180070188     LIBCMT:frame.obj
 0002:0000d1b0       ??_R3bad_exception@std@@8  00000001800701b0     LIBCMT:frame.obj
 0002:0000d1c8       ??_R2bad_exception@std@@8  00000001800701c8     LIBCMT:frame.obj
 0002:0000d1e0       ??_R1A@?0A@EA@bad_exception@std@@8 00000001800701e0     LIBCMT:frame.obj
 0002:0000d208       ??_R1A@?0A@EA@exception@std@@8 0000000180070208     LIBCMT:frame.obj
 0002:0000d230       ??_R3exception@std@@8      0000000180070230     LIBCMT:frame.obj
 0002:0000d248       ??_R2exception@std@@8      0000000180070248     LIBCMT:frame.obj
 0002:0000d258       ??_R4exception@std@@6B@    0000000180070258     LIBCMT:stdexcpt.obj
 0002:0000d280       __rtc_iaa                  0000000180070280     LIBCMT:_initsect_.obj
 0002:0000d288       __rtc_izz                  0000000180070288     LIBCMT:_initsect_.obj
 0002:0000d290       __rtc_taa                  0000000180070290     LIBCMT:_initsect_.obj
 0002:0000d298       __rtc_tzz                  0000000180070298     LIBCMT:_initsect_.obj
 0002:0001f9c8       _CT??_R0?AVException@@@8??0Exception@@QEAA@AEBV0@@Z16 00000001800829c8     ChooseTypeMenu.obj
 0002:0001f9f0       _CT??_R0?AVOutOfBoundException@@@8??0OutOfBoundException@@QEAA@AEBV0@@Z16 00000001800829f0     ChooseTypeMenu.obj
 0002:0001fa18       _CTA2?AVOutOfBoundException@@ 0000000180082a18     ChooseTypeMenu.obj
 0002:0001fa30       _TI2?AVOutOfBoundException@@ 0000000180082a30     ChooseTypeMenu.obj
 0002:0001fa50       _CTA1?AVException@@        0000000180082a50     FarEditor.obj
 0002:0001fa60       _TI1?AVException@@         0000000180082a60     FarEditor.obj
 0002:0001fa80       _CT??_R0?AVFarHrcSettingsException@@@8??0FarHrcSettingsException@@QEAA@AEBV0@@Z16 0000000180082a80     FarHrcSettings.obj
 0002:0001faa8       _CTA2?AVFarHrcSettingsException@@ 0000000180082aa8     FarHrcSettings.obj
 0002:0001fac0       _TI2?AVFarHrcSettingsException@@ 0000000180082ac0     FarHrcSettings.obj
 0002:0001fae0       _CT??_R0?AVParserFactoryException@@@8??0ParserFactoryException@@QEAA@AEBV0@@Z16 0000000180082ae0     ParserFactory.obj
 0002:0001fb08       _CTA2?AVParserFactoryException@@ 0000000180082b08     ParserFactory.obj
 0002:0001fb20       _TI2?AVParserFactoryException@@ 0000000180082b20     ParserFactory.obj
 0002:0001fb40       _CT??_R0?AVInputSourceException@@@8??0InputSourceException@@QEAA@AEBV0@@Z16 0000000180082b40     TextLinesStore.obj
 0002:0001fb68       _CTA2?AVInputSourceException@@ 0000000180082b68     TextLinesStore.obj
 0002:0001fb80       _TI2?AVInputSourceException@@ 0000000180082b80     TextLinesStore.obj
 0002:0001fba0       _CT??_R0?AVHRCParserException@@@8??0HRCParserException@@QEAA@AEBV0@@Z16 0000000180082ba0     HRCParserImpl.obj
 0002:0001fbc8       _CTA2?AVHRCParserException@@ 0000000180082bc8     HRCParserImpl.obj
 0002:0001fbe0       _TI2?AVHRCParserException@@ 0000000180082be0     HRCParserImpl.obj
 0002:0001fc00       _CT??_R0?AVUnsupportedEncodingException@@@8??0UnsupportedEncodingException@@QEAA@AEBV0@@Z16 0000000180082c00     DString.obj
 0002:0001fc28       _CTA2?AVUnsupportedEncodingException@@ 0000000180082c28     DString.obj
 0002:0001fc40       _TI2?AVUnsupportedEncodingException@@ 0000000180082c40     DString.obj
 0002:0001fc60       _CT??_R0?AVStringIndexOutOfBoundsException@@@8??0StringIndexOutOfBoundsException@@QEAA@AEBV0@@Z16 0000000180082c60     DString.obj
 0002:0001fc88       _CTA2?AVStringIndexOutOfBoundsException@@ 0000000180082c88     DString.obj
 0002:0001fca0       _TI2?AVStringIndexOutOfBoundsException@@ 0000000180082ca0     DString.obj
 0002:0001fcc0       _CT??_R0?AVParseException@@@8??0ParseException@@QEAA@AEBV0@@Z16 0000000180082cc0     xmldom.obj
 0002:0001fce8       _CTA2?AVParseException@@   0000000180082ce8     xmldom.obj
 0002:0001fd00       _TI2?AVParseException@@    0000000180082d00     xmldom.obj
 0002:0001fd20       _TI2?AVbad_exception@std@@ 0000000180082d20     LIBCMT:frame.obj
 0002:0001fd40       _CTA2?AVbad_exception@std@@ 0000000180082d40     LIBCMT:frame.obj
 0002:0001fd58       _CT??_R0?AVbad_exception@std@@@8??0bad_exception@std@@QEAA@AEBV01@@Z24 0000000180082d58     LIBCMT:frame.obj
 0002:0001fd80       _CT??_R0?AVexception@std@@@8??0exception@std@@QEAA@AEBV01@@Z24 0000000180082d80     LIBCMT:frame.obj
 0002:0001fda4       __IMPORT_DESCRIPTOR_WININET 0000000180082da4     wininet:WININET.dll
 0002:0001fdb8       __IMPORT_DESCRIPTOR_KERNEL32 0000000180082db8     kernel32:KERNEL32.dll
 0002:0001fdcc       __IMPORT_DESCRIPTOR_USER32 0000000180082dcc     user32:USER32.dll
 0002:0001fde0       __IMPORT_DESCRIPTOR_ADVAPI32 0000000180082de0     advapi32:ADVAPI32.dll
 0002:0001fdf4       __NULL_IMPORT_DESCRIPTOR   0000000180082df4     wininet:WININET.dll
 0003:00000000       ??_R0?AVtype_info@@@8      0000000180084000     LIBCMT:typinfo.obj
 0003:00000020       _iob                       0000000180084020     LIBCMT:_file.obj
 0003:000003e0       __abort_behavior           00000001800843e0     LIBCMT:abort.obj
 0003:00000560       __initialmbcinfo           0000000180084560     LIBCMT:mbctype.obj
 0003:00000780       _mbctype                   0000000180084780     LIBCMT:mbctype.obj
 0003:00000890       _mbcasemap                 0000000180084890     LIBCMT:mbctype.obj
 0003:00000990       __ptmbcinfo                0000000180084990     LIBCMT:mbctype.obj
 0003:00000a90       __globallocalestatus       0000000180084a90     LIBCMT:glstatus.obj
 0003:00000a94       __clocalestr               0000000180084a94     LIBCMT:nlsdata2.obj
 0003:00000aa0       __lc_time_c                0000000180084aa0     LIBCMT:nlsdata2.obj
 0003:00000d60       __initiallocinfo           0000000180084d60     LIBCMT:nlsdata2.obj
 0003:00000ec0       __ptlocinfo                0000000180084ec0     LIBCMT:nlsdata2.obj
 0003:00000ec8       __initiallocalestructinfo  0000000180084ec8     LIBCMT:nlsdata2.obj
 0003:00000ed8       __flsindex                 0000000180084ed8     LIBCMT:tidtable.obj
 0003:00000ee0       _lookuptrailbytes          0000000180084ee0     LIBCMT:read.obj
 0003:00000fe0       __badioinfo                0000000180084fe0     LIBCMT:ioinit.obj
 0003:00001038       __security_cookie          0000000180085038     LIBCMT:gs_cookie.obj
 0003:00001040       __security_cookie_complement 0000000180085040     LIBCMT:gs_cookie.obj
 0003:00001290       __nullstring               0000000180085290     LIBCMT:output.obj
 0003:00001298       __wnullstring              0000000180085298     LIBCMT:output.obj
 0003:000012a0       _cfltcvt_tab               00000001800852a0     LIBCMT:cmiscdat.obj
 0003:000012f0       __lconv_static_decimal     00000001800852f0     LIBCMT:lconv.obj
 0003:000012f4       __lconv_static_W_decimal   00000001800852f4     LIBCMT:lconv.obj
 0003:000012f8       __lconv                    00000001800852f8     LIBCMT:lconv.obj
 0003:00001300       __lconv_c                  0000000180085300     LIBCMT:lconv.obj
 0003:00001398       _pctype                    0000000180085398     LIBCMT:ctype.obj
 0003:000013a0       _pwctype                   00000001800853a0     LIBCMT:ctype.obj
 0003:000013d0       _timezone                  00000001800853d0     LIBCMT:timeset.obj
 0003:000013d4       _daylight                  00000001800853d4     LIBCMT:timeset.obj
 0003:000013d8       _dstbias                   00000001800853d8     LIBCMT:timeset.obj
 0003:00001460       _tzname                    0000000180085460     LIBCMT:timeset.obj
 0003:00001470       _lpdays                    0000000180085470     LIBCMT:days.obj
 0003:000014a8       _days                      00000001800854a8     LIBCMT:days.obj
 0003:000014e0       _confh                     00000001800854e0     LIBCMT:initcon.obj
 0003:000014f0       __mb_cur_max               00000001800854f0     LIBCMT:nlsdata1.obj
 0003:000014f4       __decimal_point            00000001800854f4     LIBCMT:nlsdata1.obj
 0003:000014f8       __decimal_point_length     00000001800854f8     LIBCMT:nlsdata1.obj
 0003:00001500       ??_R0?AVException@@@8      0000000180085500     ChooseTypeMenu.obj
 0003:00001520       ??_R0?AVOutOfBoundException@@@8 0000000180085520     ChooseTypeMenu.obj
 0003:00001550       ??_R0?AVParserFactoryException@@@8 0000000180085550     FarEditorSet.obj
 0003:00001580       ??_R0?AVFarHrcSettingsException@@@8 0000000180085580     FarHrcSettings.obj
 0003:000015b0       ??_R0?AVInputSourceException@@@8 00000001800855b0     ParserFactory.obj
 0003:000015e0       ??_R0?AVHRCParserException@@@8 00000001800855e0     HRCParserImpl.obj
 0003:000156e0       ?schemeNodeTypeNames@@3PAPEADA 00000001800996e0     HRCParserHelpers.obj
 0003:000166c8       ??_R0?AVUnsupportedEncodingException@@@8 000000018009a6c8     DString.obj
 0003:00016700       ??_R0?AVStringIndexOutOfBoundsException@@@8 000000018009a700     DString.obj
 0003:00016738       ??_R0?AVParseException@@@8 000000018009a738     xmldom.obj
 0003:00016760       _fltused                   000000018009a760     LIBCMT:_fpinit_.obj
 0003:00016764       _ldused                    000000018009a764     LIBCMT:_fpinit_.obj
 0003:00016770       ??_R0?AVbad_exception@std@@@8 000000018009a770     LIBCMT:frame.obj
 0003:00016798       ??_R0?AVexception@std@@@8  000000018009a798     LIBCMT:frame.obj
 0003:000169c0       _matherr_flag              000000018009a9c0     LIBCMT:_matherr_.obj
 0003:000169d0       _pow10pos                  000000018009a9d0     LIBCMT:_constpow_.obj
 0003:00016b30       _pow10neg                  000000018009ab30     LIBCMT:_constpow_.obj
 0003:00016c90       _d_inf                     000000018009ac90     LIBCMT:_util_.obj
 0003:00016c98       _d_ind                     000000018009ac98     LIBCMT:_util_.obj
 0003:00016ca0       _d_max                     000000018009aca0     LIBCMT:_util_.obj
 0003:00016ca8       _d_min                     000000018009aca8     LIBCMT:_util_.obj
 0003:00016cb0       _d_mzero                   000000018009acb0     LIBCMT:_util_.obj
 0003:00016cc0       _cflush                    000000018009acc0     LIBCMT:_file.obj
 0003:00016cdc       __error_mode               000000018009acdc     LIBCMT:dllcrt0.obj
 0003:00016ce0       _aenvptr                   000000018009ace0     LIBCMT:dllcrt0.obj
 0003:00016ce8       _wenvptr                   000000018009ace8     LIBCMT:dllcrt0.obj
 0003:00016cf0       __app_type                 000000018009acf0     LIBCMT:dllcrt0.obj
 0003:00016cf8       _crtheap                   000000018009acf8     LIBCMT:heapinit.obj
 0003:00016d00       _maxwait                   000000018009ad00     LIBCMT:crtheap.obj
 0003:00016d08       _umaskval                  000000018009ad08     LIBCMT:crt0dat.obj
 0003:00016d0c       __argc                     000000018009ad0c     LIBCMT:crt0dat.obj
 0003:00016d10       __argv                     000000018009ad10     LIBCMT:crt0dat.obj
 0003:00016d18       __wargv                    000000018009ad18     LIBCMT:crt0dat.obj
 0003:00016d20       _environ                   000000018009ad20     LIBCMT:crt0dat.obj
 0003:00016d28       __initenv                  000000018009ad28     LIBCMT:crt0dat.obj
 0003:00016d30       _wenviron                  000000018009ad30     LIBCMT:crt0dat.obj
 0003:00016d38       __winitenv                 000000018009ad38     LIBCMT:crt0dat.obj
 0003:00016d40       _pgmptr                    000000018009ad40     LIBCMT:crt0dat.obj
 0003:00016d48       _wpgmptr                   000000018009ad48     LIBCMT:crt0dat.obj
 0003:00016d50       _exitflag                  000000018009ad50     LIBCMT:crt0dat.obj
 0003:00016d54       _C_Termination_Done        000000018009ad54     LIBCMT:crt0dat.obj
 0003:00016d58       _C_Exit_Done               000000018009ad58     LIBCMT:crt0dat.obj
 0003:00016d60       ?_pnhHeap@@3P6AH_K@ZEA     000000018009ad60     LIBCMT:handler.obj
 0003:00016d68       _newmode                   000000018009ad68     LIBCMT:_newmode.obj
 0003:00016d80       __pInvalidArgHandler       000000018009ad80     LIBCMT:invarg.obj
 0003:000173b8       __pPurecall                000000018009b3b8     LIBCMT:inithelp.obj
 0003:000173c8       __mbulinfo                 000000018009b3c8     LIBCMT:mbctype.obj
 0003:000173d4       __mbcodepage               000000018009b3d4     LIBCMT:mbctype.obj
 0003:000173d8       __ismbcodepage             000000018009b3d8     LIBCMT:mbctype.obj
 0003:000173dc       __mblcid                   000000018009b3dc     LIBCMT:mbctype.obj
 0003:00017610       _stdbuf                    000000018009b610     LIBCMT:_sftbuf.obj
 0003:00017778       ?__pInconsistency@@3P6AXXZEA 000000018009b778     LIBCMT:hooks.obj
 0003:00017788       ?pArgList@UnDecorator@@0PEAVReplicator@@EA 000000018009b788     LIBCMT:undname.obj
 0003:000177b8       ?pZNameList@UnDecorator@@0PEAVReplicator@@EA 000000018009b7b8     LIBCMT:undname.obj
 0003:000177c0       ?pTemplateArgList@UnDecorator@@0PEAVReplicator@@EA 000000018009b7c0     LIBCMT:undname.obj
 0003:000177c8       ?gName@UnDecorator@@0PEBDEB 000000018009b7c8     LIBCMT:undname.obj
 0003:000177d0       ?name@UnDecorator@@0PEBDEB 000000018009b7d0     LIBCMT:undname.obj
 0003:000177d8       ?outputString@UnDecorator@@0PEADEA 000000018009b7d8     LIBCMT:undname.obj
 0003:000177e0       ?maxStringLength@UnDecorator@@0HA 000000018009b7e0     LIBCMT:undname.obj
 0003:000177e4       ?disableFlags@UnDecorator@@0KA 000000018009b7e4     LIBCMT:undname.obj
 0003:000177e8       ?m_pGetParameter@UnDecorator@@0P6APEADJ@ZEA 000000018009b7e8     LIBCMT:undname.obj
 0003:000177f0       ?fExplicitTemplateParams@UnDecorator@@0_NA 000000018009b7f0     LIBCMT:undname.obj
 0003:000177f1       ?fGetTemplateArgumentList@UnDecorator@@0_NA 000000018009b7f1     LIBCMT:undname.obj
 0003:00017820       __lconv_static_null        000000018009b820     LIBCMT:lconv.obj
 0003:00017824       __lconv_static_W_null      000000018009b824     LIBCMT:lconv.obj
 0003:00017da0       _commode                   000000018009bda0     LIBCMT:ncommode.obj
 0003:00017e6c       _fmode                     000000018009be6c     LIBCMT:txtmode.obj
 0003:00017e70       __locale_changed           000000018009be70     LIBCMT:setlocal.obj
 0003:00017e80       ?PluginPath@@3PEAVStringBuffer@@EA 000000018009be80     pcolorer.obj
 0003:00017e88       ?eh@@3PEAVErrorHandler@@EA 000000018009be88     BaseEditor.obj
 0003:00017e90       ?Info@@3UPluginStartupInfo@@A 000000018009be90     pcolorer.obj
 0003:00017fa0       ?FSF@@3UFarStandardFunctions@@A 000000018009bfa0     pcolorer.obj
 0003:00018540       ?editorSet@@3PEAVFarEditorSet@@EA 000000018009c540     pcolorer.obj
 0003:00018554       ?new_calls@@3HA            000000018009c554     MemoryChunks.obj
 0003:00018560       ?total_req@@3_KA           000000018009c560     MemoryChunks.obj
 0003:00018568       ?free_calls@@3HA           000000018009c568     MemoryChunks.obj
 0003:00018570       ?isHash@SharedInputSource@@0PEAV?$Hashtable@PEAVSharedInputSource@@@@EA 000000018009c570     SharedInputSource.obj
 0003:00018588       __fastflag                 000000018009c588     LIBCMT:_fpinit_.obj
 0003:0001858c       _outputformat              000000018009c58c     LIBCMT:outputformat.obj
 0003:00018590       _debugger_hook_dummy       000000018009c590     <common>
 0003:00018594       _nhandle                   000000018009c594     <common>
 0003:000185a0       __pioinfo                  000000018009c5a0     <common>
 0003:000187a0       __env_initialized          000000018009c7a0     <common>
 0003:000187a8       __onexitend                000000018009c7a8     <common>
 0003:000187b0       __onexitbegin              000000018009c7b0     <common>
 0003:000187b8       __mbctype_initialized      000000018009c7b8     <common>
 0003:000187c0       __dyn_tls_init_callback    000000018009c7c0     <common>
 0003:000187c8       _acmdln                    000000018009c7c8     <common>
 0003:000187d0       __piob                     000000018009c7d0     <common>
 0003:000187e0       _bufin                     000000018009c7e0     <common>
 0003:000197e0       _nstream                   000000018009d7e0     <common>
 0005:00000000       pow                        00000001800a2000 f   LIBCMT:_pow_.obj

 entry point at        0001:00042980

 Static symbols

 0001:0000f920       crc32_little               0000000180010920 f    CIL library: CIL module
 0001:000102a0       updatewindow               00000001800112a0 f    CIL library: CIL module
 0001:00011f90       fopen64_file_func          0000000180012f90 f    CIL library: CIL module
 0001:00011fe0       fread_file_func            0000000180012fe0 f    CIL library: CIL module
 0001:00012000       fwrite_file_func           0000000180013000 f    CIL library: CIL module
 0001:00012020       ftell64_file_func          0000000180013020 f    CIL library: CIL module
 0001:00012030       fseek64_file_func          0000000180013030 f    CIL library: CIL module
 0001:00012090       fclose_file_func           0000000180013090 f    CIL library: CIL module
 0001:000120a0       ferror_file_func           00000001800130a0 f    CIL library: CIL module
 0001:000120b0       unz64local_getShort        00000001800130b0 f    CIL library: CIL module
 0001:00012160       unz64local_getLong         0000000180013160 f    CIL library: CIL module
 0001:00012290       unz64local_getLong64       0000000180013290 f    CIL library: CIL module
 0001:000124c0       unz64local_SearchCentralDir 00000001800134c0 f    CIL library: CIL module
 0001:00012680       unz64local_SearchCentralDir64 0000000180013680 f    CIL library: CIL module
 0001:00012940       unzOpenInternal            0000000180013940 f    CIL library: CIL module
 0001:00013120       unz64local_GetCurrentFileInfoInternal 0000000180014120 f    CIL library: CIL module
 0001:000139e0       unz64local_CheckCurrentFileCoherencyHeader 00000001800149e0 f    CIL library: CIL module
 0001:000394a0       init_mparams               000000018003a4a0 f    CIL library: CIL module
 0001:00039560       mmap_alloc                 000000018003a560 f    CIL library: CIL module
 0001:00039640       init_top                   000000018003a640 f    CIL library: CIL module
 0001:00039680       prepend_alloc              000000018003a680 f    CIL library: CIL module
 0001:00039a70       add_segment                000000018003aa70 f    CIL library: CIL module
 0001:00039d50       sys_alloc                  000000018003ad50 f    CIL library: CIL module
 0001:0003a080       release_unused_segments    000000018003b080 f    CIL library: CIL module
 0001:0003a4b0       sys_trim                   000000018003b4b0 f    CIL library: CIL module
 0001:0003a670       tmalloc_large              000000018003b670 f    CIL library: CIL module
 0001:0003ab80       tmalloc_small              000000018003bb80 f    CIL library: CIL module
 0001:000413a0       flsall                     00000001800423a0 f   LIBCMT:fflush.obj
 0001:000414e0       shortsort                  00000001800424e0 f   LIBCMT:qsort.obj
 0001:00041968       _tsopen_nolock             0000000180042968 f   LIBCMT:wopen.obj
 0001:00042864       __DllMainCRTStartup        0000000180043864 f   LIBCMT:dllcrt0.obj
 0001:00042e08       _initterm                  0000000180043e08 f   LIBCMT:crt0dat.obj
 0001:00042f28       doexit                     0000000180043f28 f   LIBCMT:crt0dat.obj
 0001:000438e4       write_char                 00000001800448e4 f   LIBCMT:woutput.obj
 0001:0004391c       write_multi_char           000000018004491c f   LIBCMT:woutput.obj
 0001:00043970       write_string               0000000180044970 f   LIBCMT:woutput.obj
 0001:000448d4       ?setSBCS@@YAXPEAUthreadmbcinfostruct@@@Z 00000001800458d4 f   LIBCMT:mbctype.obj
 0001:00044960       ?setSBUpLow@@YAXPEAUthreadmbcinfostruct@@@Z 0000000180045960 f   LIBCMT:mbctype.obj
 0001:00044c0c       ?getSystemCP@@YAHH@Z       0000000180045c0c f   LIBCMT:mbctype.obj
 0001:00047f60       _tsopen_nolock             0000000180048f60 f   LIBCMT:open.obj
 0001:00048db4       write_char                 0000000180049db4 f   LIBCMT:output.obj
 0001:00048dfc       write_multi_char           0000000180049dfc f   LIBCMT:output.obj
 0001:00048e50       write_string               0000000180049e50 f   LIBCMT:output.obj
 0001:0004acc8       parse_cmdline              000000018004bcc8 f   LIBCMT:stdargv.obj
 0001:0004bec0       ?__crtLCMapStringA_stat@@YAHPEAUlocaleinfo_struct@@KKPEBDHPEADHHH@Z 000000018004cec0 f   LIBCMT:a_map.obj
 0001:0004c224       ?__crtGetStringTypeA_stat@@YAHPEAUlocaleinfo_struct@@KPEBDHPEAGHHH@Z 000000018004d224 f   LIBCMT:a_str.obj
 0001:0004ce6c       ?__crtCompareStringA_stat@@YAHPEAUlocaleinfo_struct@@KKPEBDH1HH@Z 000000018004de6c f   LIBCMT:a_cmp.obj
 0001:0004dbac       _tzset_nolock              000000018004ebac f   LIBCMT:tzset.obj
 0001:0004e02c       cvtdate                    000000018004f02c f   LIBCMT:tzset.obj
 0001:0004e300       _isindst_nolock            000000018004f300 f   LIBCMT:tzset.obj
 0001:0004ec0c       ?strtoxl@@YAKPEAUlocaleinfo_struct@@PEBDPEAPEBDHH@Z 000000018004fc0c f   LIBCMT:strtol.obj
 0001:0004eea8       ?x_ismbbtype_l@@YAHPEAUlocaleinfo_struct@@IHH@Z 000000018004fea8 f   LIBCMT:ismbbyte.obj
 0001:0005029c       _cftoe2_l                  000000018005129c f   LIBCMT:cvt.obj
 0001:000509a8       _cftof2_l                  00000001800519a8 f   LIBCMT:cvt.obj
 0001:000513f0       ?IsInExceptionSpec@@YAEPEAUEHExceptionRecord@@PEBU_s_ESTypeList@@@Z 00000001800523f0 f   LIBCMT:frame.obj
 0001:0005198c       ?CatchIt@@YAXPEAUEHExceptionRecord@@PEA_KPEAU_CONTEXT@@PEAU_xDISPATCHER_CONTEXT@@PEBU_s_FuncInfo@@PEBU_s_HandlerType@@PEBU_s_CatchableType@@PEBU_s_TryBlockMapEntry@@H1EE@Z 000000018005298c f   LIBCMT:frame.obj
 0001:00051a50       ?FindHandlerForForeignException@@YAXPEAUEHExceptionRecord@@PEA_KPEAU_CONTEXT@@PEAU_xDISPATCHER_CONTEXT@@PEBU_s_FuncInfo@@HH1@Z 0000000180052a50 f   LIBCMT:frame.obj
 0001:00051c88       ?FindHandler@@YAXPEAUEHExceptionRecord@@PEA_KPEAU_CONTEXT@@PEAU_xDISPATCHER_CONTEXT@@PEBU_s_FuncInfo@@EH1@Z 0000000180052c88 f   LIBCMT:frame.obj
 0001:00052870       _exception_enabled         0000000180053870 f   LIBCMT:_libm_error_.obj
 0001:000551e0       _onexit$fin$0              00000001800561e0 f   LIBCMT:onexit.obj
 0001:000551f6       _fsopen$fin$0              00000001800561f6 f   LIBCMT:fopen.obj
 0001:00055210       fread_s$fin$0              0000000180056210 f   LIBCMT:fread.obj
 0001:0005522a       fwrite$fin$0               000000018005622a f   LIBCMT:fwrite.obj
 0001:00055244       fflush$fin$0               0000000180056244 f   LIBCMT:fclose.obj
 0001:00055244       fclose$fin$0               0000000180056244 f   LIBCMT:fclose.obj
 0001:00055244       _fseeki64$fin$0            0000000180056244 f   LIBCMT:fclose.obj
 0001:00055244       _ftelli64$fin$0            0000000180056244 f   LIBCMT:fclose.obj
 0001:0005525e       _getcwd$fin$0              000000018005625e f   LIBCMT:getenv.obj
 0001:0005525e       getenv$fin$0               000000018005625e f   LIBCMT:getenv.obj
 0001:00055279       _gets_helper$fin$0         0000000180056279 f   LIBCMT:gets.obj
 0001:00055299       flsall$fin$0               0000000180056299 f   LIBCMT:fflush.obj
 0001:000552c9       flsall$fin$1               00000001800562c9 f   LIBCMT:fflush.obj
 0001:000552e4       _wopen$fin$0               00000001800562e4 f   LIBCMT:wopen.obj
 0001:00055332       _fstat64i32$fin$0          0000000180056332 f   LIBCMT:fstati32.obj
 0001:0005534b       putc$fin$0                 000000018005634b f   LIBCMT:fputc.obj
 0001:00055365       _CRT_INIT$fin$0            0000000180056365 f   LIBCMT:dllcrt0.obj
 0001:0005538b       __DllMainCRTStartup$filt$0 000000018005638b f   LIBCMT:dllcrt0.obj
 0001:000553a9       doexit$fin$0               00000001800563a9 f   LIBCMT:crt0dat.obj
 0001:000553cd       ?fin$0@?0??_Type_info_dtor@type_info@@CAXPEAV1@@Z@4HA 00000001800563cd f   LIBCMT:typname.obj
 0001:000553e8       __updatetmbcinfo$fin$0     00000001800563e8 f   LIBCMT:mbctype.obj
 0001:000553e8       _setmbcp$fin$0             00000001800563e8 f   LIBCMT:mbctype.obj
 0001:00055403       __updatetlocinfo$fin$0     0000000180056403 f   LIBCMT:localref.obj
 0001:0005541e       _initptd$fin$1             000000018005641e f   LIBCMT:tidtable.obj
 0001:0005541e       _freefls$fin$1             000000018005641e f   LIBCMT:tidtable.obj
 0001:0005543e       _freefls$fin$0             000000018005643e f   LIBCMT:tidtable.obj
 0001:0005543e       _initptd$fin$0             000000018005643e f   LIBCMT:tidtable.obj
 0001:00055459       _lseeki64$fin$0            0000000180056459 f   LIBCMT:lseeki64.obj
 0001:00055459       _write$fin$0               0000000180056459 f   LIBCMT:lseeki64.obj
 0001:00055459       _read$fin$0                0000000180056459 f   LIBCMT:lseeki64.obj
 0001:00055472       _close$fin$0               0000000180056472 f   LIBCMT:close.obj
 0001:00055472       _commit$fin$0              0000000180056472 f   LIBCMT:close.obj
 0001:0005548b       _mtinitlocknum$fin$0       000000018005648b f   LIBCMT:mlock.obj
 0001:000554a9       _sopen_helper$fin$0        00000001800564a9 f   LIBCMT:open.obj
 0001:000554f2       _getstream$fin$0           00000001800564f2 f   LIBCMT:closeall.obj
 0001:000554f2       _fcloseall$fin$0           00000001800564f2 f   LIBCMT:closeall.obj
 0001:0005550d       __lock_fhandle$fin$0       000000018005650d f   LIBCMT:osfinfo.obj
 0001:00055528       _alloc_osfhnd$fin$0        0000000180056528 f   LIBCMT:osfinfo.obj
 0001:00055548       _alloc_osfhnd$fin$1        0000000180056548 f   LIBCMT:osfinfo.obj
 0001:00055563       raise$fin$0                0000000180056563 f   LIBCMT:winsig.obj
 0001:00055590       _IsNonwritableInCurrentImage$filt$0 0000000180056590 f   LIBCMT:pesect.obj
 0001:000555b2       _tzset_nolock$fin$0        00000001800565b2 f   LIBCMT:tzset.obj
 0001:000555cd       __tzset$fin$0              00000001800565cd f   LIBCMT:tzset.obj
 0001:000555cd       _isindst$fin$0             00000001800565cd f   LIBCMT:tzset.obj
 0001:000555f0       ?dtor$0@?0???0DString@@QEAA@PEBDHHH@Z@4HA 00000001800565f0 f    CIL library: CIL module
 0001:00055600       ?dtor$1@?0???0DString@@QEAA@PEBDHHH@Z@4HA 0000000180056600 f    CIL library: CIL module
 0001:00055610       ?dtor$0@?0???1BaseEditor@@UEAA@XZ@4HA 0000000180056610 f    CIL library: CIL module
 0001:00055620       ?dtor$1@?0???1BaseEditor@@UEAA@XZ@4HA 0000000180056620 f    CIL library: CIL module
 0001:00055640       ?dtor$2@?0???1BaseEditor@@UEAA@XZ@4HA 0000000180056640 f    CIL library: CIL module
 0001:00055660       ?dtor$0@?0??clone@StyledRegion@@UEBAPEAVRegionDefine@@XZ@4HA 0000000180056660 f    CIL library: CIL module
 0001:00055670       ?dtor$1@?0??clone@StyledRegion@@UEBAPEAVRegionDefine@@XZ@4HA 0000000180056670 f    CIL library: CIL module
 0001:00055680       ?dtor$0@?0???1RegionMapperImpl@@UEAA@XZ@4HA 0000000180056680 f    CIL library: CIL module
 0001:00055680       ?dtor$0@?0???0RegionMapperImpl@@QEAA@XZ@4HA 0000000180056680 f    CIL library: CIL module
 0001:00055690       ?dtor$1@?0???0RegionMapperImpl@@QEAA@XZ@4HA 0000000180056690 f    CIL library: CIL module
 0001:00055690       ?dtor$1@?0???1RegionMapperImpl@@UEAA@XZ@4HA 0000000180056690 f    CIL library: CIL module
 0001:000556a0       ?dtor$0@?0???0LineRegionsSupport@@QEAA@XZ@4HA 00000001800566a0 f    CIL library: CIL module
 0001:000556b0       ?dtor$1@?0???0LineRegionsSupport@@QEAA@XZ@4HA 00000001800566b0 f    CIL library: CIL module
 0001:000556c0       ?dtor$0@?0???_GFileErrorHandler@@UEAAPEAXI@Z@4HA 00000001800566c0 f    CIL library: CIL module
 0001:000556d0       ?dtor$0@?0???1ErrorHandlerWriter@@UEAA@XZ@4HA 00000001800566d0 f    CIL library: CIL module
 0001:000556d0       ?dtor$0@?0???0ErrorHandlerWriter@@QEAA@PEAVWriter@@@Z@4HA 00000001800566d0 f    CIL library: CIL module
 0001:000556e0       ?dtor$3@?0???1ErrorHandlerWriter@@UEAA@XZ@4HA 00000001800566e0 f    CIL library: CIL module
 0001:000556e0       ?dtor$3@?0???0ErrorHandlerWriter@@QEAA@PEAVWriter@@@Z@4HA 00000001800566e0 f    CIL library: CIL module
 0001:000556f0       ?dtor$1@?0???0ErrorHandlerWriter@@QEAA@PEAVWriter@@@Z@4HA 00000001800566f0 f    CIL library: CIL module
 0001:000556f0       ?dtor$1@?0???1ErrorHandlerWriter@@UEAA@XZ@4HA 00000001800566f0 f    CIL library: CIL module
 0001:00055700       ?dtor$9@?0???0ErrorHandlerWriter@@QEAA@PEAVWriter@@@Z@4HA 0000000180056700 f    CIL library: CIL module
 0001:00055700       ?dtor$9@?0???1ErrorHandlerWriter@@UEAA@XZ@4HA 0000000180056700 f    CIL library: CIL module
 0001:00055710       ?dtor$10@?0???0ErrorHandlerWriter@@QEAA@PEAVWriter@@@Z@4HA 0000000180056710 f    CIL library: CIL module
 0001:00055710       ?dtor$10@?0???1ErrorHandlerWriter@@UEAA@XZ@4HA 0000000180056710 f    CIL library: CIL module
 0001:00055720       ?dtor$2@?0???0ErrorHandlerWriter@@QEAA@PEAVWriter@@@Z@4HA 0000000180056720 f    CIL library: CIL module
 0001:00055720       ?dtor$2@?0???1ErrorHandlerWriter@@UEAA@XZ@4HA 0000000180056720 f    CIL library: CIL module
 0001:00055730       ?dtor$13@?0???1ErrorHandlerWriter@@UEAA@XZ@4HA 0000000180056730 f    CIL library: CIL module
 0001:00055730       ?dtor$13@?0???0ErrorHandlerWriter@@QEAA@PEAVWriter@@@Z@4HA 0000000180056730 f    CIL library: CIL module
 0001:00055740       ?dtor$0@?0???1DocumentBuilder@@QEAA@XZ@4HA 0000000180056740 f    CIL library: CIL module
 0001:00055750       ?dtor$1@?0???1DocumentBuilder@@QEAA@XZ@4HA 0000000180056750 f    CIL library: CIL module
 0001:00055760       ?dtor$3@?0???1DocumentBuilder@@QEAA@XZ@4HA 0000000180056760 f    CIL library: CIL module
 0001:00055770       ?dtor$0@?0???0DocumentBuilder@@QEAA@XZ@4HA 0000000180056770 f    CIL library: CIL module
 0001:00055780       ?dtor$3@?0??serialize@Comment@@UEAAXPEAVWriter@@FF@Z@4HA 0000000180056780 f    CIL library: CIL module
 0001:00055790       ?dtor$0@?0??serialize@Comment@@UEAAXPEAVWriter@@FF@Z@4HA 0000000180056790 f    CIL library: CIL module
 0001:000557a0       ?dtor$6@?0??serialize@Comment@@UEAAXPEAVWriter@@FF@Z@4HA 00000001800567a0 f    CIL library: CIL module
 0001:000557b0       ?dtor$1@?0??serialize@Comment@@UEAAXPEAVWriter@@FF@Z@4HA 00000001800567b0 f    CIL library: CIL module
 0001:000557c0       ?dtor$9@?0??serialize@Comment@@UEAAXPEAVWriter@@FF@Z@4HA 00000001800567c0 f    CIL library: CIL module
 0001:000557d0       ?dtor$10@?0??serialize@Comment@@UEAAXPEAVWriter@@FF@Z@4HA 00000001800567d0 f    CIL library: CIL module
 0001:000557e0       ?dtor$2@?0??serialize@Comment@@UEAAXPEAVWriter@@FF@Z@4HA 00000001800567e0 f    CIL library: CIL module
 0001:000557f0       ?dtor$13@?0??serialize@Comment@@UEAAXPEAVWriter@@FF@Z@4HA 00000001800567f0 f    CIL library: CIL module
 0001:00055800       ?dtor$14@?0??serialize@Comment@@UEAAXPEAVWriter@@FF@Z@4HA 0000000180056800 f    CIL library: CIL module
 0001:00055810       ?dtor$0@?0???0CharacterData@@IEAA@W4NodeType@Node@@PEBVString@@@Z@4HA 0000000180056810 f    CIL library: CIL module
 0001:00055810       ?dtor$0@?0???0ProcessingInstruction@@IEAA@PEBVString@@0@Z@4HA 0000000180056810 f    CIL library: CIL module
 0001:00055810       ?dtor$0@?0???0Document@@IEAA@XZ@4HA 0000000180056810 f    CIL library: CIL module
 0001:00055820       ?dtor$2@?0???0ProcessingInstruction@@IEAA@PEBVString@@0@Z@4HA 0000000180056820 f    CIL library: CIL module
 0001:00055820       ?dtor$2@?0???0CharacterData@@IEAA@W4NodeType@Node@@PEBVString@@@Z@4HA 0000000180056820 f    CIL library: CIL module
 0001:00055820       ?dtor$2@?0???0Document@@IEAA@XZ@4HA 0000000180056820 f    CIL library: CIL module
 0001:00055830       ?dtor$0@?0???_GProcessingInstruction@@MEAAPEAXI@Z@4HA 0000000180056830 f    CIL library: CIL module
 0001:00055830       ?dtor$1@?0???_GText@@UEAAPEAXI@Z@4HA 0000000180056830 f    CIL library: CIL module
 0001:00055830       ?dtor$0@?0???_GCharacterData@@MEAAPEAXI@Z@4HA 0000000180056830 f    CIL library: CIL module
 0001:00055830       ?dtor$1@?0???_GComment@@UEAAPEAXI@Z@4HA 0000000180056830 f    CIL library: CIL module
 0001:00055840       ?dtor$0@?0???0Element@@IEAA@PEBVString@@@Z@4HA 0000000180056840 f    CIL library: CIL module
 0001:00055850       ?dtor$1@?0???0Element@@IEAA@PEBVString@@@Z@4HA 0000000180056850 f    CIL library: CIL module
 0001:00055860       ?dtor$0@?0???_GHTTPInputSource@@UEAAPEAXI@Z@4HA 0000000180056860 f    CIL library: CIL module
 0001:00055860       ?dtor$0@?0???1SharedInputSource@@EEAA@XZ@4HA 0000000180056860 f    CIL library: CIL module
 0001:00055860       ?dtor$0@?0???1JARInputSource@@UEAA@XZ@4HA 0000000180056860 f    CIL library: CIL module
 0001:00055860       ?dtor$0@?0???_GFileInputSource@@UEAAPEAXI@Z@4HA 0000000180056860 f    CIL library: CIL module
 0001:00055870       ?dtor$0@?0???0StringBuffer@@QEAA@H@Z@4HA 0000000180056870 f    CIL library: CIL module
 0001:00055870       ?dtor$0@?0???0StringBuffer@@QEAA@XZ@4HA 0000000180056870 f    CIL library: CIL module
 0001:00055880       ?dtor$4@?0??chooseFileTypeCh@BaseEditor@@AEAAPEAVFileType@@PEBVString@@HH@Z@4HA 0000000180056880 f    CIL library: CIL module
 0001:00055890       ?dtor$0@?0??chooseFileTypeCh@BaseEditor@@AEAAPEAVFileType@@PEBVString@@HH@Z@4HA 0000000180056890 f    CIL library: CIL module
 0001:000558a0       ?dtor$5@?0??chooseFileTypeCh@BaseEditor@@AEAAPEAVFileType@@PEBVString@@HH@Z@4HA 00000001800568a0 f    CIL library: CIL module
 0001:000558b0       ?dtor$1@?0??chooseFileTypeCh@BaseEditor@@AEAAPEAVFileType@@PEBVString@@HH@Z@4HA 00000001800568b0 f    CIL library: CIL module
 0001:000558c0       ?dtor$8@?0??chooseFileTypeCh@BaseEditor@@AEAAPEAVFileType@@PEBVString@@HH@Z@4HA 00000001800568c0 f    CIL library: CIL module
 0001:000558d0       ?dtor$9@?0??chooseFileTypeCh@BaseEditor@@AEAAPEAVFileType@@PEBVString@@HH@Z@4HA 00000001800568d0 f    CIL library: CIL module
 0001:000558e0       ?dtor$2@?0??chooseFileTypeCh@BaseEditor@@AEAAPEAVFileType@@PEBVString@@HH@Z@4HA 00000001800568e0 f    CIL library: CIL module
 0001:000558f0       ?dtor$12@?0??chooseFileTypeCh@BaseEditor@@AEAAPEAVFileType@@PEBVString@@HH@Z@4HA 00000001800568f0 f    CIL library: CIL module
 0001:00055900       ?dtor$13@?0??chooseFileTypeCh@BaseEditor@@AEAAPEAVFileType@@PEBVString@@HH@Z@4HA 0000000180056900 f    CIL library: CIL module
 0001:00055910       ?dtor$3@?0??chooseFileTypeCh@BaseEditor@@AEAAPEAVFileType@@PEBVString@@HH@Z@4HA 0000000180056910 f    CIL library: CIL module
 0001:00055920       ?dtor$16@?0??chooseFileTypeCh@BaseEditor@@AEAAPEAVFileType@@PEBVString@@HH@Z@4HA 0000000180056920 f    CIL library: CIL module
 0001:00055930       ?dtor$18@?0??chooseFileTypeCh@BaseEditor@@AEAAPEAVFileType@@PEBVString@@HH@Z@4HA 0000000180056930 f    CIL library: CIL module
 0001:00055940       ?dtor$0@?0???1FarEditor@@UEAA@XZ@4HA 0000000180056940 f    CIL library: CIL module
 0001:00055950       ?dtor$0@?0??GenerateName@ChooseTypeMenu@@QEAAPEAVStringBuffer@@PEBVFileType@@@Z@4HA 0000000180056950 f    CIL library: CIL module
 0001:00055960       ?dtor$4@?0??GenerateName@ChooseTypeMenu@@QEAAPEAVStringBuffer@@PEBVFileType@@@Z@4HA 0000000180056960 f    CIL library: CIL module
 0001:00055970       ?dtor$1@?0??GenerateName@ChooseTypeMenu@@QEAAPEAVStringBuffer@@PEBVFileType@@@Z@4HA 0000000180056970 f    CIL library: CIL module
 0001:00055980       ?dtor$7@?0??GenerateName@ChooseTypeMenu@@QEAAPEAVStringBuffer@@PEBVFileType@@@Z@4HA 0000000180056980 f    CIL library: CIL module
 0001:00055990       ?dtor$8@?0??GenerateName@ChooseTypeMenu@@QEAAPEAVStringBuffer@@PEBVFileType@@@Z@4HA 0000000180056990 f    CIL library: CIL module
 0001:000559a0       ?dtor$2@?0??GenerateName@ChooseTypeMenu@@QEAAPEAVStringBuffer@@PEBVFileType@@@Z@4HA 00000001800569a0 f    CIL library: CIL module
 0001:000559b0       ?dtor$11@?0??GenerateName@ChooseTypeMenu@@QEAAPEAVStringBuffer@@PEBVFileType@@@Z@4HA 00000001800569b0 f    CIL library: CIL module
 0001:000559c0       ?dtor$12@?0??GenerateName@ChooseTypeMenu@@QEAAPEAVStringBuffer@@PEBVFileType@@@Z@4HA 00000001800569c0 f    CIL library: CIL module
 0001:000559d0       ?dtor$3@?0??GenerateName@ChooseTypeMenu@@QEAAPEAVStringBuffer@@PEBVFileType@@@Z@4HA 00000001800569d0 f    CIL library: CIL module
 0001:000559e0       ?dtor$15@?0??GenerateName@ChooseTypeMenu@@QEAAPEAVStringBuffer@@PEBVFileType@@@Z@4HA 00000001800569e0 f    CIL library: CIL module
 0001:000559f0       ?dtor$0@?0???0SString@@QEAA@H@Z@4HA 00000001800569f0 f    CIL library: CIL module
 0001:00055a00       ?dtor$2@?0???0SString@@QEAA@H@Z@4HA 0000000180056a00 f    CIL library: CIL module
 0001:00055a10       ?dtor$1@?0???0SString@@QEAA@H@Z@4HA 0000000180056a10 f    CIL library: CIL module
 0001:00055a20       ?dtor$9@?0???0SString@@QEAA@H@Z@4HA 0000000180056a20 f    CIL library: CIL module
 0001:00055a30       ?dtor$8@?0???0SString@@QEAA@H@Z@4HA 0000000180056a30 f    CIL library: CIL module
 0001:00055a40       ?dtor$13@?0???0SString@@QEAA@H@Z@4HA 0000000180056a40 f    CIL library: CIL module
 0001:00055a50       ?dtor$0@?0???0SString@@QEAA@PEADH@Z@4HA 0000000180056a50 f    CIL library: CIL module
 0001:00055a50       ?dtor$0@?0???0SString@@QEAA@PEA_W@Z@4HA 0000000180056a50 f    CIL library: CIL module
 0001:00055a60       ?dtor$2@?0???0SString@@QEAA@PEA_W@Z@4HA 0000000180056a60 f    CIL library: CIL module
 0001:00055a60       ?dtor$2@?0???0SString@@QEAA@PEADH@Z@4HA 0000000180056a60 f    CIL library: CIL module
 0001:00055a70       ?dtor$1@?0???0SString@@QEAA@PEA_W@Z@4HA 0000000180056a70 f    CIL library: CIL module
 0001:00055a70       ?dtor$1@?0???0SString@@QEAA@PEADH@Z@4HA 0000000180056a70 f    CIL library: CIL module
 0001:00055a80       ?dtor$8@?0???0SString@@QEAA@PEADH@Z@4HA 0000000180056a80 f    CIL library: CIL module
 0001:00055a80       ?dtor$8@?0???0SString@@QEAA@PEA_W@Z@4HA 0000000180056a80 f    CIL library: CIL module
 0001:00055a90       ?dtor$0@?0???_GTextParserImpl@@UEAAPEAXI@Z@4HA 0000000180056a90 f    CIL library: CIL module
 0001:00055a90       ?dtor$0@?0???0TextParserImpl@@QEAA@XZ@4HA 0000000180056a90 f    CIL library: CIL module
 0001:00055aa0       ?dtor$0@?0???0SchemeImpl@@IEAA@PEBVString@@@Z@4HA 0000000180056aa0 f    CIL library: CIL module
 0001:00055ab0       ?dtor$1@?0???0SchemeImpl@@IEAA@PEBVString@@@Z@4HA 0000000180056ab0 f    CIL library: CIL module
 0001:00055ac0       ?dtor$2@?0???0SchemeImpl@@IEAA@PEBVString@@@Z@4HA 0000000180056ac0 f    CIL library: CIL module
 0001:00055ad0       ?dtor$3@?0???0SchemeImpl@@IEAA@PEBVString@@@Z@4HA 0000000180056ad0 f    CIL library: CIL module
 0001:00055ae0       ?dtor$5@?0???0SchemeImpl@@IEAA@PEBVString@@@Z@4HA 0000000180056ae0 f    CIL library: CIL module
 0001:00055af0       ?dtor$4@?0???0SchemeImpl@@IEAA@PEBVString@@@Z@4HA 0000000180056af0 f    CIL library: CIL module
 0001:00055b00       ?dtor$0@?0???0Region@@QEAA@PEBVString@@0PEBV0@H@Z@4HA 0000000180056b00 f    CIL library: CIL module
 0001:00055b00       ?dtor$0@?0???0VirtualEntry@@QEAA@PEBVString@@0@Z@4HA 0000000180056b00 f    CIL library: CIL module
 0001:00055b10       ?dtor$2@?0???0Region@@QEAA@PEBVString@@0PEBV0@H@Z@4HA 0000000180056b10 f    CIL library: CIL module
 0001:00055b10       ?dtor$2@?0???0VirtualEntry@@QEAA@PEBVString@@0@Z@4HA 0000000180056b10 f    CIL library: CIL module
 0001:00055b20       ?dtor$4@?0???0Region@@QEAA@PEBVString@@0PEBV0@H@Z@4HA 0000000180056b20 f    CIL library: CIL module
 0001:00055b20       ?dtor$4@?0???0VirtualEntry@@QEAA@PEBVString@@0@Z@4HA 0000000180056b20 f    CIL library: CIL module
 0001:00055b30       ?dtor$3@?0???0Region@@QEAA@PEBVString@@0PEBV0@H@Z@4HA 0000000180056b30 f    CIL library: CIL module
 0001:00055b30       ?dtor$3@?0???0VirtualEntry@@QEAA@PEBVString@@0@Z@4HA 0000000180056b30 f    CIL library: CIL module
 0001:00055b40       ?dtor$1@?0???0VirtualEntry@@QEAA@PEBVString@@0@Z@4HA 0000000180056b40 f    CIL library: CIL module
 0001:00055b40       ?dtor$1@?0???0Region@@QEAA@PEBVString@@0PEBV0@H@Z@4HA 0000000180056b40 f    CIL library: CIL module
 0001:00055b50       ?dtor$8@?0???0VirtualEntry@@QEAA@PEBVString@@0@Z@4HA 0000000180056b50 f    CIL library: CIL module
 0001:00055b50       ?dtor$8@?0???0Region@@QEAA@PEBVString@@0PEBV0@H@Z@4HA 0000000180056b50 f    CIL library: CIL module
 0001:00055b60       ?dtor$10@?0???0Region@@QEAA@PEBVString@@0PEBV0@H@Z@4HA 0000000180056b60 f    CIL library: CIL module
 0001:00055b60       ?dtor$10@?0???0VirtualEntry@@QEAA@PEBVString@@0@Z@4HA 0000000180056b60 f    CIL library: CIL module
 0001:00055b70       ?dtor$9@?0???0Region@@QEAA@PEBVString@@0PEBV0@H@Z@4HA 0000000180056b70 f    CIL library: CIL module
 0001:00055b70       ?dtor$9@?0???0VirtualEntry@@QEAA@PEBVString@@0@Z@4HA 0000000180056b70 f    CIL library: CIL module
 0001:00055b80       ?dtor$3@?0??chooseFileType@BaseEditor@@QEAAPEAVFileType@@PEBVString@@@Z@4HA 0000000180056b80 f    CIL library: CIL module
 0001:00055b90       ?dtor$0@?0??chooseFileType@BaseEditor@@QEAAPEAVFileType@@PEBVString@@@Z@4HA 0000000180056b90 f    CIL library: CIL module
 0001:00055ba0       ?dtor$6@?0??chooseFileType@BaseEditor@@QEAAPEAVFileType@@PEBVString@@@Z@4HA 0000000180056ba0 f    CIL library: CIL module
 0001:00055bb0       ?dtor$7@?0??chooseFileType@BaseEditor@@QEAAPEAVFileType@@PEBVString@@@Z@4HA 0000000180056bb0 f    CIL library: CIL module
 0001:00055bc0       ?dtor$1@?0??chooseFileType@BaseEditor@@QEAAPEAVFileType@@PEBVString@@@Z@4HA 0000000180056bc0 f    CIL library: CIL module
 0001:00055bd0       ?dtor$10@?0??chooseFileType@BaseEditor@@QEAAPEAVFileType@@PEBVString@@@Z@4HA 0000000180056bd0 f    CIL library: CIL module
 0001:00055be0       ?dtor$11@?0??chooseFileType@BaseEditor@@QEAAPEAVFileType@@PEBVString@@@Z@4HA 0000000180056be0 f    CIL library: CIL module
 0001:00055bf0       ?dtor$2@?0??chooseFileType@BaseEditor@@QEAAPEAVFileType@@PEBVString@@@Z@4HA 0000000180056bf0 f    CIL library: CIL module
 0001:00055c00       ?dtor$14@?0??chooseFileType@BaseEditor@@QEAAPEAVFileType@@PEBVString@@@Z@4HA 0000000180056c00 f    CIL library: CIL module
 0001:00055c10       ?dtor$2@?0???0ParserFactoryException@@QEAA@AEBVString@@@Z@4HA 0000000180056c10 f    CIL library: CIL module
 0001:00055c10       ?dtor$2@?0???0InputSourceException@@QEAA@AEBVString@@@Z@4HA 0000000180056c10 f    CIL library: CIL module
 0001:00055c10       ?dtor$2@?0???0OutOfBoundException@@QEAA@AEBVString@@@Z@4HA 0000000180056c10 f    CIL library: CIL module
 0001:00055c10       ?dtor$2@?0???0FarHrcSettingsException@@QEAA@AEBVString@@@Z@4HA 0000000180056c10 f    CIL library: CIL module
 0001:00055c10       ?dtor$2@?0???0HRCParserException@@QEAA@AEBVString@@@Z@4HA 0000000180056c10 f    CIL library: CIL module
 0001:00055c20       ?dtor$0@?0???0HRCParserException@@QEAA@AEBVString@@@Z@4HA 0000000180056c20 f    CIL library: CIL module
 0001:00055c20       ?dtor$0@?0???0InputSourceException@@QEAA@AEBVString@@@Z@4HA 0000000180056c20 f    CIL library: CIL module
 0001:00055c20       ?dtor$0@?0???0FarHrcSettingsException@@QEAA@AEBVString@@@Z@4HA 0000000180056c20 f    CIL library: CIL module
 0001:00055c20       ?dtor$0@?0???0ParserFactoryException@@QEAA@AEBVString@@@Z@4HA 0000000180056c20 f    CIL library: CIL module
 0001:00055c20       ?dtor$0@?0???0OutOfBoundException@@QEAA@AEBVString@@@Z@4HA 0000000180056c20 f    CIL library: CIL module
 0001:00055c30       ?dtor$3@?0???0OutOfBoundException@@QEAA@AEBVString@@@Z@4HA 0000000180056c30 f    CIL library: CIL module
 0001:00055c30       ?dtor$3@?0???0FarHrcSettingsException@@QEAA@AEBVString@@@Z@4HA 0000000180056c30 f    CIL library: CIL module
 0001:00055c30       ?dtor$3@?0???0InputSourceException@@QEAA@AEBVString@@@Z@4HA 0000000180056c30 f    CIL library: CIL module
 0001:00055c30       ?dtor$3@?0???0HRCParserException@@QEAA@AEBVString@@@Z@4HA 0000000180056c30 f    CIL library: CIL module
 0001:00055c30       ?dtor$3@?0???0ParserFactoryException@@QEAA@AEBVString@@@Z@4HA 0000000180056c30 f    CIL library: CIL module
 0001:00055c40       ?dtor$1@?0???0FarHrcSettingsException@@QEAA@AEBVString@@@Z@4HA 0000000180056c40 f    CIL library: CIL module
 0001:00055c40       ?dtor$1@?0???0ParserFactoryException@@QEAA@AEBVString@@@Z@4HA 0000000180056c40 f    CIL library: CIL module
 0001:00055c40       ?dtor$1@?0???0InputSourceException@@QEAA@AEBVString@@@Z@4HA 0000000180056c40 f    CIL library: CIL module
 0001:00055c40       ?dtor$1@?0???0OutOfBoundException@@QEAA@AEBVString@@@Z@4HA 0000000180056c40 f    CIL library: CIL module
 0001:00055c40       ?dtor$1@?0???0HRCParserException@@QEAA@AEBVString@@@Z@4HA 0000000180056c40 f    CIL library: CIL module
 0001:00055c50       ?dtor$9@?0???0FarHrcSettingsException@@QEAA@AEBVString@@@Z@4HA 0000000180056c50 f    CIL library: CIL module
 0001:00055c50       ?dtor$9@?0???0HRCParserException@@QEAA@AEBVString@@@Z@4HA 0000000180056c50 f    CIL library: CIL module
 0001:00055c50       ?dtor$9@?0???0ParserFactoryException@@QEAA@AEBVString@@@Z@4HA 0000000180056c50 f    CIL library: CIL module
 0001:00055c50       ?dtor$9@?0???0OutOfBoundException@@QEAA@AEBVString@@@Z@4HA 0000000180056c50 f    CIL library: CIL module
 0001:00055c50       ?dtor$9@?0???0InputSourceException@@QEAA@AEBVString@@@Z@4HA 0000000180056c50 f    CIL library: CIL module
 0001:00055c60       ?dtor$0@?0??dropCurrentEditor@FarEditorSet@@AEAAX_N@Z@4HA 0000000180056c60 f    CIL library: CIL module
 0001:00055c70       ?dtor$2@?0??dropCurrentEditor@FarEditorSet@@AEAAX_N@Z@4HA 0000000180056c70 f    CIL library: CIL module
 0001:00055c80       ?dtor$1@?0??dropCurrentEditor@FarEditorSet@@AEAAX_N@Z@4HA 0000000180056c80 f    CIL library: CIL module
 0001:00055c90       ?dtor$3@?0??dropCurrentEditor@FarEditorSet@@AEAAX_N@Z@4HA 0000000180056c90 f    CIL library: CIL module
 0001:00055ca0       ?dtor$0@?0??getCurrentEditor@FarEditorSet@@AEAAPEAVFarEditor@@XZ@4HA 0000000180056ca0 f    CIL library: CIL module
 0001:00055cb0       ?dtor$1@?0??getCurrentEditor@FarEditorSet@@AEAAPEAVFarEditor@@XZ@4HA 0000000180056cb0 f    CIL library: CIL module
 0001:00055cc0       ?dtor$0@?0??consumeComment@DocumentBuilder@@AEAAXPEAVNode@@@Z@4HA 0000000180056cc0 f    CIL library: CIL module
 0001:00055cc0       ?dtor$0@?0??consumeCDataSection@DocumentBuilder@@AEAAXPEAVNode@@@Z@4HA 0000000180056cc0 f    CIL library: CIL module
 0001:00055cc0       ?dtor$0@?0??setEnd@PairMatch@@QEAAXPEAVLineRegion@@@Z@4HA 0000000180056cc0 f    CIL library: CIL module
 0001:00055cc0       ?dtor$0@?0??setStart@PairMatch@@QEAAXPEAVLineRegion@@@Z@4HA 0000000180056cc0 f    CIL library: CIL module
 0001:00055cc0       ?dtor$0@?0??createComment@Document@@QEAAPEAVComment@@PEBVString@@@Z@4HA 0000000180056cc0 f    CIL library: CIL module
 0001:00055cc0       ?dtor$0@?0??createTextNode@Document@@QEAAPEAVText@@PEBVString@@@Z@4HA 0000000180056cc0 f    CIL library: CIL module
 0001:00055cc0       ?dtor$0@?0???0KeywordList@@QEAA@XZ@4HA 0000000180056cc0 f    CIL library: CIL module
 0001:00055cd0       ?dtor$6@?0???0ParseException@@QEAA@AEBVString@@HH@Z@4HA 0000000180056cd0 f    CIL library: CIL module
 0001:00055ce0       ?dtor$0@?0???0ParseException@@QEAA@AEBVString@@HH@Z@4HA 0000000180056ce0 f    CIL library: CIL module
 0001:00055cf0       ?dtor$7@?0???0ParseException@@QEAA@AEBVString@@HH@Z@4HA 0000000180056cf0 f    CIL library: CIL module
 0001:00055d00       ?dtor$1@?0???0ParseException@@QEAA@AEBVString@@HH@Z@4HA 0000000180056d00 f    CIL library: CIL module
 0001:00055d10       ?dtor$10@?0???0ParseException@@QEAA@AEBVString@@HH@Z@4HA 0000000180056d10 f    CIL library: CIL module
 0001:00055d20       ?dtor$2@?0???0ParseException@@QEAA@AEBVString@@HH@Z@4HA 0000000180056d20 f    CIL library: CIL module
 0001:00055d30       ?dtor$11@?0???0ParseException@@QEAA@AEBVString@@HH@Z@4HA 0000000180056d30 f    CIL library: CIL module
 0001:00055d40       ?dtor$3@?0???0ParseException@@QEAA@AEBVString@@HH@Z@4HA 0000000180056d40 f    CIL library: CIL module
 0001:00055d50       ?dtor$14@?0???0ParseException@@QEAA@AEBVString@@HH@Z@4HA 0000000180056d50 f    CIL library: CIL module
 0001:00055d60       ?dtor$15@?0???0ParseException@@QEAA@AEBVString@@HH@Z@4HA 0000000180056d60 f    CIL library: CIL module
 0001:00055d70       ?dtor$4@?0???0ParseException@@QEAA@AEBVString@@HH@Z@4HA 0000000180056d70 f    CIL library: CIL module
 0001:00055d80       ?dtor$16@?0???0ParseException@@QEAA@AEBVString@@HH@Z@4HA 0000000180056d80 f    CIL library: CIL module
 0001:00055d90       ?dtor$5@?0???0ParseException@@QEAA@AEBVString@@HH@Z@4HA 0000000180056d90 f    CIL library: CIL module
 0001:00055da0       ?dtor$19@?0???0ParseException@@QEAA@AEBVString@@HH@Z@4HA 0000000180056da0 f    CIL library: CIL module
 0001:00055db0       ?dtor$20@?0???0ParseException@@QEAA@AEBVString@@HH@Z@4HA 0000000180056db0 f    CIL library: CIL module
 0001:00055dc0       ?dtor$0@?0???0?$HashEntry@PEAV?$Hashtable@PEAV?$Vector@PEBVString@@@@@@@@QEAA@HPEBVString@@PEAV?$Hashtable@PEAV?$Vector@PEBVString@@@@@@PEAV0@@Z@4HA 0000000180056dc0 f    CIL library: CIL module
 0001:00055dc0       ?dtor$0@?0???0?$HashEntry@PEBVRegion@@@@QEAA@HPEBVString@@PEBVRegion@@PEAV0@@Z@4HA 0000000180056dc0 f    CIL library: CIL module
 0001:00055dc0       ?dtor$0@?0???0?$HashEntry@PEAVSharedInputSource@@@@QEAA@HPEBVString@@PEAVSharedInputSource@@PEAV0@@Z@4HA 0000000180056dc0 f    CIL library: CIL module
 0001:00055dc0       ?dtor$0@?0???0?$HashEntry@PEAVFarEditor@@@@QEAA@HPEBVString@@PEAVFarEditor@@PEAV0@@Z@4HA 0000000180056dc0 f    CIL library: CIL module
 0001:00055dc0       ?dtor$0@?0???0?$HashEntry@PEAVSchemeImpl@@@@QEAA@HPEBVString@@PEAVSchemeImpl@@PEAV0@@Z@4HA 0000000180056dc0 f    CIL library: CIL module
 0001:00055dc0       ?dtor$0@?0???0?$HashEntry@PEAV?$Vector@PEBVString@@@@@@QEAA@HPEBVString@@PEAV?$Vector@PEBVString@@@@PEAV0@@Z@4HA 0000000180056dc0 f    CIL library: CIL module
 0001:00055dc0       ?dtor$0@?0???0?$HashEntry@PEAVString@@@@QEAA@HPEBVString@@PEAV1@PEAV0@@Z@4HA 0000000180056dc0 f    CIL library: CIL module
 0001:00055dc0       ?dtor$0@?0???0?$HashEntry@PEAVFileTypeImpl@@@@QEAA@HPEBVString@@PEAVFileTypeImpl@@PEAV0@@Z@4HA 0000000180056dc0 f    CIL library: CIL module
 0001:00055dc0       ?dtor$0@?0??addParam@FileTypeImpl@@QEAAXPEBVString@@@Z@4HA 0000000180056dc0 f    CIL library: CIL module
 0001:00055dc0       ?dtor$0@?0???0?$HashEntry@PEAVRegionDefine@@@@QEAA@HPEBVString@@PEAVRegionDefine@@PEAV0@@Z@4HA 0000000180056dc0 f    CIL library: CIL module
 0001:00055dc0       ?dtor$0@?0???0?$HashEntry@PEBVString@@@@QEAA@HPEBVString@@0PEAV0@@Z@4HA 0000000180056dc0 f    CIL library: CIL module
 0001:00055dd0       ?dtor$1@?0???0?$HashEntry@PEAVRegionDefine@@@@QEAA@HPEBVString@@PEAVRegionDefine@@PEAV0@@Z@4HA 0000000180056dd0 f    CIL library: CIL module
 0001:00055dd0       ?dtor$1@?0???0?$HashEntry@PEAVString@@@@QEAA@HPEBVString@@PEAV1@PEAV0@@Z@4HA 0000000180056dd0 f    CIL library: CIL module
 0001:00055dd0       ?dtor$1@?0???0?$HashEntry@PEAVSchemeImpl@@@@QEAA@HPEBVString@@PEAVSchemeImpl@@PEAV0@@Z@4HA 0000000180056dd0 f    CIL library: CIL module
 0001:00055dd0       ?dtor$1@?0???0?$HashEntry@PEAV?$Vector@PEBVString@@@@@@QEAA@HPEBVString@@PEAV?$Vector@PEBVString@@@@PEAV0@@Z@4HA 0000000180056dd0 f    CIL library: CIL module
 0001:00055dd0       ?dtor$1@?0???0?$HashEntry@PEBVRegion@@@@QEAA@HPEBVString@@PEBVRegion@@PEAV0@@Z@4HA 0000000180056dd0 f    CIL library: CIL module
 0001:00055dd0       ?dtor$1@?0???0?$HashEntry@PEAVFarEditor@@@@QEAA@HPEBVString@@PEAVFarEditor@@PEAV0@@Z@4HA 0000000180056dd0 f    CIL library: CIL module
 0001:00055dd0       ?dtor$1@?0???0?$HashEntry@PEAV?$Hashtable@PEAV?$Vector@PEBVString@@@@@@@@QEAA@HPEBVString@@PEAV?$Hashtable@PEAV?$Vector@PEBVString@@@@@@PEAV0@@Z@4HA 0000000180056dd0 f    CIL library: CIL module
 0001:00055dd0       ?dtor$1@?0??addParam@FileTypeImpl@@QEAAXPEBVString@@@Z@4HA 0000000180056dd0 f    CIL library: CIL module
 0001:00055dd0       ?dtor$1@?0???0?$HashEntry@PEAVFileTypeImpl@@@@QEAA@HPEBVString@@PEAVFileTypeImpl@@PEAV0@@Z@4HA 0000000180056dd0 f    CIL library: CIL module
 0001:00055dd0       ?dtor$1@?0???0?$HashEntry@PEBVString@@@@QEAA@HPEBVString@@0PEAV0@@Z@4HA 0000000180056dd0 f    CIL library: CIL module
 0001:00055dd0       ?dtor$1@?0???0?$HashEntry@PEAVSharedInputSource@@@@QEAA@HPEBVString@@PEAVSharedInputSource@@PEAV0@@Z@4HA 0000000180056dd0 f    CIL library: CIL module
 0001:00055de0       ?dtor$3@?0???0?$HashEntry@PEBVString@@@@QEAA@HPEBVString@@0PEAV0@@Z@4HA 0000000180056de0 f    CIL library: CIL module
 0001:00055de0       ?dtor$3@?0???0?$HashEntry@PEAV?$Vector@PEBVString@@@@@@QEAA@HPEBVString@@PEAV?$Vector@PEBVString@@@@PEAV0@@Z@4HA 0000000180056de0 f    CIL library: CIL module
 0001:00055de0       ?dtor$3@?0???0?$HashEntry@PEAVRegionDefine@@@@QEAA@HPEBVString@@PEAVRegionDefine@@PEAV0@@Z@4HA 0000000180056de0 f    CIL library: CIL module
 0001:00055de0       ?dtor$3@?0???0?$HashEntry@PEAVFileTypeImpl@@@@QEAA@HPEBVString@@PEAVFileTypeImpl@@PEAV0@@Z@4HA 0000000180056de0 f    CIL library: CIL module
 0001:00055de0       ?dtor$3@?0???0?$HashEntry@PEAVSchemeImpl@@@@QEAA@HPEBVString@@PEAVSchemeImpl@@PEAV0@@Z@4HA 0000000180056de0 f    CIL library: CIL module
 0001:00055de0       ?dtor$3@?0???0?$HashEntry@PEAVString@@@@QEAA@HPEBVString@@PEAV1@PEAV0@@Z@4HA 0000000180056de0 f    CIL library: CIL module
 0001:00055de0       ?dtor$3@?0???0?$HashEntry@PEBVRegion@@@@QEAA@HPEBVString@@PEBVRegion@@PEAV0@@Z@4HA 0000000180056de0 f    CIL library: CIL module
 0001:00055de0       ?dtor$3@?0??addParam@FileTypeImpl@@QEAAXPEBVString@@@Z@4HA 0000000180056de0 f    CIL library: CIL module
 0001:00055de0       ?dtor$3@?0???0?$HashEntry@PEAVFarEditor@@@@QEAA@HPEBVString@@PEAVFarEditor@@PEAV0@@Z@4HA 0000000180056de0 f    CIL library: CIL module
 0001:00055de0       ?dtor$3@?0???0?$HashEntry@PEAVSharedInputSource@@@@QEAA@HPEBVString@@PEAVSharedInputSource@@PEAV0@@Z@4HA 0000000180056de0 f    CIL library: CIL module
 0001:00055de0       ?dtor$3@?0???0?$HashEntry@PEAV?$Hashtable@PEAV?$Vector@PEBVString@@@@@@@@QEAA@HPEBVString@@PEAV?$Hashtable@PEAV?$Vector@PEBVString@@@@@@PEAV0@@Z@4HA 0000000180056de0 f    CIL library: CIL module
 0001:00055df0       ?dtor$2@?0???0?$HashEntry@PEAVFileTypeImpl@@@@QEAA@HPEBVString@@PEAVFileTypeImpl@@PEAV0@@Z@4HA 0000000180056df0 f    CIL library: CIL module
 0001:00055df0       ?dtor$2@?0???0?$HashEntry@PEAVSharedInputSource@@@@QEAA@HPEBVString@@PEAVSharedInputSource@@PEAV0@@Z@4HA 0000000180056df0 f    CIL library: CIL module
 0001:00055df0       ?dtor$2@?0???0?$HashEntry@PEAVFarEditor@@@@QEAA@HPEBVString@@PEAVFarEditor@@PEAV0@@Z@4HA 0000000180056df0 f    CIL library: CIL module
 0001:00055df0       ?dtor$2@?0???0?$HashEntry@PEBVString@@@@QEAA@HPEBVString@@0PEAV0@@Z@4HA 0000000180056df0 f    CIL library: CIL module
 0001:00055df0       ?dtor$2@?0???0?$HashEntry@PEAV?$Hashtable@PEAV?$Vector@PEBVString@@@@@@@@QEAA@HPEBVString@@PEAV?$Hashtable@PEAV?$Vector@PEBVString@@@@@@PEAV0@@Z@4HA 0000000180056df0 f    CIL library: CIL module
 0001:00055df0       ?dtor$2@?0??addParam@FileTypeImpl@@QEAAXPEBVString@@@Z@4HA 0000000180056df0 f    CIL library: CIL module
 0001:00055df0       ?dtor$2@?0???0?$HashEntry@PEAV?$Vector@PEBVString@@@@@@QEAA@HPEBVString@@PEAV?$Vector@PEBVString@@@@PEAV0@@Z@4HA 0000000180056df0 f    CIL library: CIL module
 0001:00055df0       ?dtor$2@?0???0?$HashEntry@PEAVRegionDefine@@@@QEAA@HPEBVString@@PEAVRegionDefine@@PEAV0@@Z@4HA 0000000180056df0 f    CIL library: CIL module
 0001:00055df0       ?dtor$2@?0???0?$HashEntry@PEAVString@@@@QEAA@HPEBVString@@PEAV1@PEAV0@@Z@4HA 0000000180056df0 f    CIL library: CIL module
 0001:00055df0       ?dtor$2@?0???0?$HashEntry@PEAVSchemeImpl@@@@QEAA@HPEBVString@@PEAVSchemeImpl@@PEAV0@@Z@4HA 0000000180056df0 f    CIL library: CIL module
 0001:00055df0       ?dtor$2@?0???0?$HashEntry@PEBVRegion@@@@QEAA@HPEBVString@@PEBVRegion@@PEAV0@@Z@4HA 0000000180056df0 f    CIL library: CIL module
 0001:00055e00       ?dtor$1@?0???1StringBuffer@@UEAA@XZ@4HA 0000000180056e00 f    CIL library: CIL module
 0001:00055e00       ?dtor$1@?0???_GStringBuffer@@UEAAPEAXI@Z@4HA 0000000180056e00 f    CIL library: CIL module
 0001:00055e00       ?dtor$0@?0???1SString@@UEAA@XZ@4HA 0000000180056e00 f    CIL library: CIL module
 0001:00055e00       ?dtor$1@?0???0StringBuffer@@QEAA@PEBVString@@HH@Z@4HA 0000000180056e00 f    CIL library: CIL module
 0001:00055e00       ?dtor$0@?0???1DString@@UEAA@XZ@4HA 0000000180056e00 f    CIL library: CIL module
 0001:00055e00       ?dtor$1@?0???0StringBuffer@@QEAA@AEBVString@@HH@Z@4HA 0000000180056e00 f    CIL library: CIL module
 0001:00055e00       ?dtor$0@?0???_GDString@@UEAAPEAXI@Z@4HA 0000000180056e00 f    CIL library: CIL module
 0001:00055e00       ?dtor$0@?0???_GSString@@UEAAPEAXI@Z@4HA 0000000180056e00 f    CIL library: CIL module
 0001:00055e10       ?dtor$0@?0???0StringBuffer@@QEAA@PEBDHH@Z@4HA 0000000180056e10 f    CIL library: CIL module
 0001:00055e20       ?dtor$2@?0???0StringBuffer@@QEAA@PEBDHH@Z@4HA 0000000180056e20 f    CIL library: CIL module
 0001:00055e30       ?dtor$4@?0???0StringBuffer@@QEAA@PEBDHH@Z@4HA 0000000180056e30 f    CIL library: CIL module
 0001:00055e40       ?dtor$3@?0???0StringBuffer@@QEAA@PEBDHH@Z@4HA 0000000180056e40 f    CIL library: CIL module
 0001:00055e50       ?dtor$1@?0???0StringBuffer@@QEAA@PEBDHH@Z@4HA 0000000180056e50 f    CIL library: CIL module
 0001:00055e60       ?dtor$8@?0???0StringBuffer@@QEAA@PEBDHH@Z@4HA 0000000180056e60 f    CIL library: CIL module
 0001:00055e70       ?dtor$2@?0???0UnsupportedEncodingException@@QEAA@AEBVString@@@Z@4HA 0000000180056e70 f    CIL library: CIL module
 0001:00055e70       ?dtor$2@?0???0StringIndexOutOfBoundsException@@QEAA@AEBVString@@@Z@4HA 0000000180056e70 f    CIL library: CIL module
 0001:00055e80       ?dtor$0@?0???0StringIndexOutOfBoundsException@@QEAA@AEBVString@@@Z@4HA 0000000180056e80 f    CIL library: CIL module
 0001:00055e80       ?dtor$0@?0???0UnsupportedEncodingException@@QEAA@AEBVString@@@Z@4HA 0000000180056e80 f    CIL library: CIL module
 0001:00055e90       ?dtor$1@?0???0UnsupportedEncodingException@@QEAA@AEBVString@@@Z@4HA 0000000180056e90 f    CIL library: CIL module
 0001:00055e90       ?dtor$1@?0???0StringIndexOutOfBoundsException@@QEAA@AEBVString@@@Z@4HA 0000000180056e90 f    CIL library: CIL module
 0001:00055ea0       ?dtor$0@?0???0DString@@QEAA@PEBEHH@Z@4HA 0000000180056ea0 f    CIL library: CIL module
 0001:00055eb0       ?dtor$1@?0???0DString@@QEAA@PEBEHH@Z@4HA 0000000180056eb0 f    CIL library: CIL module
 0001:00055ec0       ?dtor$2@?0???0DString@@QEAA@PEBEHH@Z@4HA 0000000180056ec0 f    CIL library: CIL module
 0001:00055ed0       ?dtor$3@?0???0DString@@QEAA@PEBEHH@Z@4HA 0000000180056ed0 f    CIL library: CIL module
 0001:00055ee0       ?dtor$7@?0???0DString@@QEAA@PEBEHH@Z@4HA 0000000180056ee0 f    CIL library: CIL module
 0001:00055ef0       ?dtor$0@?0??put@?$HashtableCore@PEAV?$Vector@PEBVString@@@@@@QEAA_NPEBVString@@PEAV?$Vector@PEBVString@@@@@Z@4HA 0000000180056ef0 f    CIL library: CIL module
 0001:00055ef0       ?dtor$0@?0??put@?$HashtableCore@PEAV?$Hashtable@PEAV?$Vector@PEBVString@@@@@@@@QEAA_NPEBVString@@PEAV?$Hashtable@PEAV?$Vector@PEBVString@@@@@@@Z@4HA 0000000180056ef0 f    CIL library: CIL module
 0001:00055ef0       ?dtor$0@?0??put@?$HashtableCore@PEAVFarEditor@@@@QEAA_NPEBVString@@PEAVFarEditor@@@Z@4HA 0000000180056ef0 f    CIL library: CIL module
 0001:00055ef0       ?dtor$0@?0??put@?$HashtableCore@PEAVSharedInputSource@@@@QEAA_NPEBVString@@PEAVSharedInputSource@@@Z@4HA 0000000180056ef0 f    CIL library: CIL module
 0001:00055ef0       ?dtor$0@?0??put@?$HashtableCore@PEAVRegionDefine@@@@QEAA_NPEBVString@@PEAVRegionDefine@@@Z@4HA 0000000180056ef0 f    CIL library: CIL module
 0001:00055ef0       ?dtor$0@?0??put@?$HashtableCore@PEAVString@@@@QEAA_NPEBVString@@PEAV2@@Z@4HA 0000000180056ef0 f    CIL library: CIL module
 0001:00055ef0       ?dtor$0@?0??put@?$HashtableCore@PEBVString@@@@QEAA_NPEBVString@@0@Z@4HA 0000000180056ef0 f    CIL library: CIL module
 0001:00055ef0       ?dtor$0@?0??put@?$HashtableCore@PEBVRegion@@@@QEAA_NPEBVString@@PEBVRegion@@@Z@4HA 0000000180056ef0 f    CIL library: CIL module
 0001:00055ef0       ?dtor$0@?0??put@?$HashtableCore@PEAVFileTypeImpl@@@@QEAA_NPEBVString@@PEAVFileTypeImpl@@@Z@4HA 0000000180056ef0 f    CIL library: CIL module
 0001:00055ef0       ?dtor$0@?0??put@?$HashtableCore@PEAVSchemeImpl@@@@QEAA_NPEBVString@@PEAVSchemeImpl@@@Z@4HA 0000000180056ef0 f    CIL library: CIL module
 0001:00055f00       ?dtor$0@?0??checkNameExist@HRCParserImpl@@IEAA_NPEBVString@@PEAVFileTypeImpl@@W4QualifyNameType@1@_N@Z@4HA 0000000180056f00 f    CIL library: CIL module
 0001:00055f10       ?dtor$4@?0??checkNameExist@HRCParserImpl@@IEAA_NPEBVString@@PEAVFileTypeImpl@@W4QualifyNameType@1@_N@Z@4HA 0000000180056f10 f    CIL library: CIL module
 0001:00055f20       ?dtor$1@?0??checkNameExist@HRCParserImpl@@IEAA_NPEBVString@@PEAVFileTypeImpl@@W4QualifyNameType@1@_N@Z@4HA 0000000180056f20 f    CIL library: CIL module
 0001:00055f30       ?dtor$6@?0??checkNameExist@HRCParserImpl@@IEAA_NPEBVString@@PEAVFileTypeImpl@@W4QualifyNameType@1@_N@Z@4HA 0000000180056f30 f    CIL library: CIL module
 0001:00055f40       ?dtor$2@?0??checkNameExist@HRCParserImpl@@IEAA_NPEBVString@@PEAVFileTypeImpl@@W4QualifyNameType@1@_N@Z@4HA 0000000180056f40 f    CIL library: CIL module
 0001:00055f50       ?dtor$8@?0??checkNameExist@HRCParserImpl@@IEAA_NPEBVString@@PEAVFileTypeImpl@@W4QualifyNameType@1@_N@Z@4HA 0000000180056f50 f    CIL library: CIL module
 0001:00055f60       ?catch$0@?0??loadFileType@HRCParserImpl@@IEAAXPEAVFileType@@@Z@4HA 0000000180056f60 f    CIL library: CIL module
 0001:00055f6f       __catch$?loadFileType@HRCParserImpl@@IEAAXPEAVFileType@@@Z$0 0000000180056f6f f    CIL library: CIL module
 0001:00056030       ?dtor$0@?0??loadFileType@HRCParserImpl@@IEAAXPEAVFileType@@@Z@4HA 0000000180057030 f    CIL library: CIL module
 0001:00056040       ?dtor$5@?0??loadFileType@HRCParserImpl@@IEAAXPEAVFileType@@@Z@4HA 0000000180057040 f    CIL library: CIL module
 0001:00056050       ?catch$1@?0??loadFileType@HRCParserImpl@@IEAAXPEAVFileType@@@Z@4HA 0000000180057050 f    CIL library: CIL module
 0001:00056060       __catch$?loadFileType@HRCParserImpl@@IEAAXPEAVFileType@@@Z$1 0000000180057060 f    CIL library: CIL module
 0001:00056260       ?dtor$7@?0??loadFileType@HRCParserImpl@@IEAAXPEAVFileType@@@Z@4HA 0000000180057260 f    CIL library: CIL module
 0001:00056270       ?dtor$9@?0??loadFileType@HRCParserImpl@@IEAAXPEAVFileType@@@Z@4HA 0000000180057270 f    CIL library: CIL module
 0001:00056280       ?dtor$8@?0??loadFileType@HRCParserImpl@@IEAAXPEAVFileType@@@Z@4HA 0000000180057280 f    CIL library: CIL module
 0001:00056290       ?dtor$1@?0??loadFileType@HRCParserImpl@@IEAAXPEAVFileType@@@Z@4HA 0000000180057290 f    CIL library: CIL module
 0001:000562a0       ?dtor$14@?0??loadFileType@HRCParserImpl@@IEAAXPEAVFileType@@@Z@4HA 00000001800572a0 f    CIL library: CIL module
 0001:000562b0       ?catch$2@?0??loadFileType@HRCParserImpl@@IEAAXPEAVFileType@@@Z@4HA 00000001800572b0 f    CIL library: CIL module
 0001:000562c0       __catch$?loadFileType@HRCParserImpl@@IEAAXPEAVFileType@@@Z$2 00000001800572c0 f    CIL library: CIL module
 0001:000564c0       ?dtor$16@?0??loadFileType@HRCParserImpl@@IEAAXPEAVFileType@@@Z@4HA 00000001800574c0 f    CIL library: CIL module
 0001:000564d0       ?dtor$18@?0??loadFileType@HRCParserImpl@@IEAAXPEAVFileType@@@Z@4HA 00000001800574d0 f    CIL library: CIL module
 0001:000564e0       ?dtor$17@?0??loadFileType@HRCParserImpl@@IEAAXPEAVFileType@@@Z@4HA 00000001800574e0 f    CIL library: CIL module
 0001:000564f0       ?dtor$2@?0??loadFileType@HRCParserImpl@@IEAAXPEAVFileType@@@Z@4HA 00000001800574f0 f    CIL library: CIL module
 0001:00056500       ?dtor$23@?0??loadFileType@HRCParserImpl@@IEAAXPEAVFileType@@@Z@4HA 0000000180057500 f    CIL library: CIL module
 0001:00056510       ?catch$3@?0??loadFileType@HRCParserImpl@@IEAAXPEAVFileType@@@Z@4HA 0000000180057510 f    CIL library: CIL module
 0001:00056520       __catch$?loadFileType@HRCParserImpl@@IEAAXPEAVFileType@@@Z$3 0000000180057520 f    CIL library: CIL module
 0001:000565e0       ?dtor$3@?0??loadFileType@HRCParserImpl@@IEAAXPEAVFileType@@@Z@4HA 00000001800575e0 f    CIL library: CIL module
 0001:000565f0       ?dtor$25@?0??loadFileType@HRCParserImpl@@IEAAXPEAVFileType@@@Z@4HA 00000001800575f0 f    CIL library: CIL module
 0001:00056600       ?dtor$0@?0???0HRCParserImpl@@QEAA@XZ@4HA 0000000180057600 f    CIL library: CIL module
 0001:00056610       ?dtor$1@?0???0HRCParserImpl@@QEAA@XZ@4HA 0000000180057610 f    CIL library: CIL module
 0001:00056620       ?dtor$2@?0???0HRCParserImpl@@QEAA@XZ@4HA 0000000180057620 f    CIL library: CIL module
 0001:00056630       ?dtor$3@?0???0HRCParserImpl@@QEAA@XZ@4HA 0000000180057630 f    CIL library: CIL module
 0001:00056640       ?dtor$4@?0???0HRCParserImpl@@QEAA@XZ@4HA 0000000180057640 f    CIL library: CIL module
 0001:00056660       ?dtor$5@?0???0HRCParserImpl@@QEAA@XZ@4HA 0000000180057660 f    CIL library: CIL module
 0001:00056680       ?dtor$6@?0???0HRCParserImpl@@QEAA@XZ@4HA 0000000180057680 f    CIL library: CIL module
 0001:000566a0       ?dtor$7@?0???0HRCParserImpl@@QEAA@XZ@4HA 00000001800576a0 f    CIL library: CIL module
 0001:000566c0       ?dtor$0@?0???0FileTypeImpl@@IEAA@PEAVHRCParserImpl@@@Z@4HA 00000001800576c0 f    CIL library: CIL module
 0001:000566d0       ?dtor$1@?0???0FileTypeImpl@@IEAA@PEAVHRCParserImpl@@@Z@4HA 00000001800576d0 f    CIL library: CIL module
 0001:000566e0       ?dtor$2@?0???0FileTypeImpl@@IEAA@PEAVHRCParserImpl@@@Z@4HA 00000001800576e0 f    CIL library: CIL module
 0001:000566f0       ?dtor$3@?0???0FileTypeImpl@@IEAA@PEAVHRCParserImpl@@@Z@4HA 00000001800576f0 f    CIL library: CIL module
 0001:00056710       ?dtor$4@?0???0FileTypeImpl@@IEAA@PEAVHRCParserImpl@@@Z@4HA 0000000180057710 f    CIL library: CIL module
 0001:00056730       ?dtor$5@?0???0FileTypeImpl@@IEAA@PEAVHRCParserImpl@@@Z@4HA 0000000180057730 f    CIL library: CIL module
 0001:00056750       ?dtor$1@?0??manageTree@Outliner@@SAHAEAV?$Vector@H@@H@Z@4HA 0000000180057750 f    CIL library: CIL module
 0001:00056760       ?dtor$0@?0??manageTree@Outliner@@SAHAEAV?$Vector@H@@H@Z@4HA 0000000180057760 f    CIL library: CIL module
 0001:00056770       ?dtor$5@?0??manageTree@Outliner@@SAHAEAV?$Vector@H@@H@Z@4HA 0000000180057770 f    CIL library: CIL module
 0001:00056780       ?dtor$0@?0??leaveScheme@BaseEditor@@UEAAXHPEAVString@@HHPEBVRegion@@PEBVScheme@@@Z@4HA 0000000180057780 f    CIL library: CIL module
 0001:00056780       ?dtor$0@?0??enterScheme@BaseEditor@@UEAAXHPEAVString@@HHPEBVRegion@@PEBVScheme@@@Z@4HA 0000000180057780 f    CIL library: CIL module
 0001:00056790       ?dtor$0@?0??addRegion@BaseEditor@@UEAAXHPEAVString@@HHPEBVRegion@@@Z@4HA 0000000180057790 f    CIL library: CIL module
 0001:000567a0       ?dtor$0@?0??setElementAt@?$Vector@PEBVRegionDefine@@@@QEAAXQEBVRegionDefine@@H@Z@4HA 00000001800577a0 f    CIL library: CIL module
 0001:000567a0       ?dtor$0@?0???ASString@@UEBA_WH@Z@4HA 00000001800577a0 f    CIL library: CIL module
 0001:000567a0       ?dtor$0@?0??getRegionDefine@RegionMapperImpl@@UEBAPEBVRegionDefine@@PEBVRegion@@@Z@4HA 00000001800577a0 f    CIL library: CIL module
 0001:000567a0       ?dtor$0@?0??insertElementAt@?$Vector@PEAVFileTypeImpl@@@@QEAAXQEAVFileTypeImpl@@H@Z@4HA 00000001800577a0 f    CIL library: CIL module
 0001:000567a0       ?dtor$0@?0??insertElementAt@?$Vector@PEBVString@@@@QEAAXQEBVString@@H@Z@4HA 00000001800577a0 f    CIL library: CIL module
 0001:000567a0       ?dtor$0@?0??startParsing@BaseEditor@@UEAAXH@Z@4HA 00000001800577a0 f    CIL library: CIL module
 0001:000567a0       ?dtor$0@?0??endParsing@BaseEditor@@UEAAXH@Z@4HA 00000001800577a0 f    CIL library: CIL module
 0001:000567a0       ?dtor$0@?0??clearLine@BaseEditor@@UEAAXHPEAVString@@@Z@4HA 00000001800577a0 f    CIL library: CIL module
 0001:000567a0       ?dtor$0@?0??removeElement@?$Vector@PEAVFileTypeImpl@@@@QEAA_NQEAVFileTypeImpl@@@Z@4HA 00000001800577a0 f    CIL library: CIL module
 0001:000567a0       ?dtor$0@?0???ADString@@UEBA_WH@Z@4HA 00000001800577a0 f    CIL library: CIL module
 0001:000567a0       ?dtor$0@?0??getLineRegions@LineRegionsSupport@@QEBAPEAVLineRegion@@H@Z@4HA 00000001800577a0 f    CIL library: CIL module
 0001:000567a0       ?dtor$0@?0??removeElement@?$Vector@PEAVRegionHandler@@@@QEAA_NQEAVRegionHandler@@@Z@4HA 00000001800577a0 f    CIL library: CIL module
 0001:000567a0       ?dtor$0@?0??searchLocalPair@BaseEditor@@QEAAPEAVPairMatch@@HH@Z@4HA 00000001800577a0 f    CIL library: CIL module
 0001:000567a0       ?dtor$0@?0??searchGlobalPair@BaseEditor@@QEAAPEAVPairMatch@@HH@Z@4HA 00000001800577a0 f    CIL library: CIL module
 0001:000567a0       ?dtor$0@?0??removeElement@?$Vector@PEAVEditorListener@@@@QEAA_NQEAVEditorListener@@@Z@4HA 00000001800577a0 f    CIL library: CIL module
 0001:000567a0       ?dtor$0@?0??insertElementAt@?$Vector@PEAVRegionHandler@@@@QEAAXQEAVRegionHandler@@H@Z@4HA 00000001800577a0 f    CIL library: CIL module
 0001:000567a0       ?dtor$0@?0??insertElementAt@?$Vector@PEAVEditorListener@@@@QEAAXQEAVEditorListener@@H@Z@4HA 00000001800577a0 f    CIL library: CIL module
 0001:000567a0       ?dtor$0@?0??insertElementAt@?$Vector@PEAVSchemeNode@@@@QEAAXQEAVSchemeNode@@H@Z@4HA 00000001800577a0 f    CIL library: CIL module
 0001:000567a0       ?dtor$0@?0??chooseFileType@HRCParserImpl@@UEAAPEAVFileType@@PEBVString@@0H@Z@4HA 00000001800577a0 f    CIL library: CIL module
 0001:000567a0       ?dtor$0@?0??getPriority@FileTypeImpl@@QEBANPEBVString@@0@Z@4HA 00000001800577a0 f    CIL library: CIL module
 0001:000567a0       ?dtor$0@?0??freeFile@TextLinesStore@@IEAAXXZ@4HA 00000001800577a0 f    CIL library: CIL module
 0001:000567a0       ?dtor$0@?0??getLine@TextLinesStore@@UEAAPEAVString@@H@Z@4HA 00000001800577a0 f    CIL library: CIL module
 0001:000567a0       ?dtor$0@?0??clear@LineRegionsSupport@@QEAAXXZ@4HA 00000001800577a0 f    CIL library: CIL module
 0001:000567a0       ?dtor$0@?0??addLineRegion@LineRegionsSupport@@MEAAXHPEAVLineRegion@@@Z@4HA 00000001800577a0 f    CIL library: CIL module
 0001:000567a0       ?dtor$0@?0??enumerateParameters@FileTypeImpl@@UEAAPEBVString@@H@Z@4HA 00000001800577a0 f    CIL library: CIL module
 0001:000567a0       ?dtor$0@?0??pushvirt@VTList@@QEAAPEAVSchemeImpl@@PEAV2@@Z@4HA 00000001800577a0 f    CIL library: CIL module
 0001:000567a0       ?dtor$0@?0??insertElementAt@?$Vector@PEAE@@QEAAXQEAEH@Z@4HA 00000001800577a0 f    CIL library: CIL module
 0001:000567a0       ?dtor$0@?0??closeStream@FileInputSource@@UEAAXXZ@4HA 00000001800577a0 f    CIL library: CIL module
 0001:000567a0       ?dtor$0@?0??closeStream@HTTPInputSource@@UEAAXXZ@4HA 00000001800577a0 f    CIL library: CIL module
 0001:000567a0       ?dtor$0@?0??closeStream@JARInputSource@@UEAAXXZ@4HA 00000001800577a0 f    CIL library: CIL module
 0001:000567a0       ?dtor$0@?0??insertElementAt@?$Vector@PEAVVirtualEntry@@@@QEAAXQEAVVirtualEntry@@H@Z@4HA 00000001800577a0 f    CIL library: CIL module
 0001:000567a0       ?dtor$0@?0??insertElementAt@?$Vector@H@@QEAAXHH@Z@4HA 00000001800577a0 f    CIL library: CIL module
 0001:000567a0       ?dtor$0@?0??insertElementAt@?$Vector@PEAVOutlineItem@@@@QEAAXQEAVOutlineItem@@H@Z@4HA 00000001800577a0 f    CIL library: CIL module
 0001:000567a0       ?dtor$0@?0??getItem@Outliner@@QEAAPEAVOutlineItem@@H@Z@4HA 00000001800577a0 f    CIL library: CIL module
 0001:000567a0       ?dtor$0@?0??startParsing@LineRegionsSupport@@UEAAXH@Z@4HA 00000001800577a0 f    CIL library: CIL module
 0001:000567a0       ?dtor$0@?0??removeElementAt@?$Vector@PEBVString@@@@QEAAXH@Z@4HA 00000001800577a0 f    CIL library: CIL module
 0001:000567a0       ?dtor$0@?0??enumerateFileTypes@HRCParserImpl@@UEAAPEAVFileType@@H@Z@4HA 00000001800577a0 f    CIL library: CIL module
 0001:000567a0       ?dtor$0@?0??insertElementAt@?$Vector@PEAVFileTypeChooser@@@@QEAAXQEAVFileTypeChooser@@H@Z@4HA 00000001800577a0 f    CIL library: CIL module
 0001:000567a0       ?dtor$0@?0??insertElementAt@?$Vector@PEBVRegion@@@@QEAAXQEBVRegion@@H@Z@4HA 00000001800577a0 f    CIL library: CIL module
 0001:000567a0       ?dtor$0@?0??modifyEvent@Outliner@@UEAAXH@Z@4HA 00000001800577a0 f    CIL library: CIL module
 0001:000567a0       ?dtor$0@?0??insertElementAt@?$Vector@PEAVLineRegion@@@@QEAAXQEAVLineRegion@@H@Z@4HA 00000001800577a0 f    CIL library: CIL module
 0001:000567a0       ?dtor$0@?0??insertElementAt@?$Vector@PEAVString@@@@QEAAXQEAVString@@H@Z@4HA 00000001800577a0 f    CIL library: CIL module
 0001:000567a0       ?dtor$0@?0??modifyEvent@BaseEditor@@QEAAXH@Z@4HA 00000001800577a0 f    CIL library: CIL module
 0001:000567b0       ?dtor$1@?0??enterScheme@LineRegionsSupport@@UEAAXHPEAVString@@HHPEBVRegion@@PEBVScheme@@@Z@4HA 00000001800577b0 f    CIL library: CIL module
 0001:000567c0       ?dtor$1@?0??addLineRegion@LineRegionsCompactSupport@@MEAAXHPEAVLineRegion@@@Z@4HA 00000001800577c0 f    CIL library: CIL module
 0001:000567d0       ?dtor$3@?0??addLineRegion@LineRegionsCompactSupport@@MEAAXHPEAVLineRegion@@@Z@4HA 00000001800577d0 f    CIL library: CIL module
 0001:000567e0       ?dtor$0@?0??addLineRegion@LineRegionsCompactSupport@@MEAAXHPEAVLineRegion@@@Z@4HA 00000001800577e0 f    CIL library: CIL module
 0001:000567f0       ?dtor$5@?0??addLineRegion@LineRegionsCompactSupport@@MEAAXHPEAVLineRegion@@@Z@4HA 00000001800577f0 f    CIL library: CIL module
 0001:00056800       ?dtor$2@?0??getHRDescription@ParserFactory@@QEAAPEBVString@@AEBV2@0@Z@4HA 0000000180057800 f    CIL library: CIL module
 0001:00056810       ?dtor$4@?0??getHRDescription@ParserFactory@@QEAAPEBVString@@AEBV2@0@Z@4HA 0000000180057810 f    CIL library: CIL module
 0001:00056820       ?dtor$3@?0??getHRDescription@ParserFactory@@QEAAPEBVString@@AEBV2@0@Z@4HA 0000000180057820 f    CIL library: CIL module
 0001:00056830       ?dtor$0@?0??getHRDescription@ParserFactory@@QEAAPEBVString@@AEBV2@0@Z@4HA 0000000180057830 f    CIL library: CIL module
 0001:00056840       ?dtor$9@?0??getHRDescription@ParserFactory@@QEAAPEBVString@@AEBV2@0@Z@4HA 0000000180057840 f    CIL library: CIL module
 0001:00056850       ?dtor$12@?0??parseHRDSetsChild@ParserFactory@@QEAAXPEAVNode@@@Z@4HA 0000000180057850 f    CIL library: CIL module
 0001:00056860       ?dtor$0@?0??parseHRDSetsChild@ParserFactory@@QEAAXPEAVNode@@@Z@4HA 0000000180057860 f    CIL library: CIL module
 0001:00056870       ?dtor$15@?0??parseHRDSetsChild@ParserFactory@@QEAAXPEAVNode@@@Z@4HA 0000000180057870 f    CIL library: CIL module
 0001:00056880       ?dtor$16@?0??parseHRDSetsChild@ParserFactory@@QEAAXPEAVNode@@@Z@4HA 0000000180057880 f    CIL library: CIL module
 0001:00056890       ?dtor$1@?0??parseHRDSetsChild@ParserFactory@@QEAAXPEAVNode@@@Z@4HA 0000000180057890 f    CIL library: CIL module
 0001:000568a0       ?dtor$19@?0??parseHRDSetsChild@ParserFactory@@QEAAXPEAVNode@@@Z@4HA 00000001800578a0 f    CIL library: CIL module
 0001:000568b0       ?dtor$2@?0??parseHRDSetsChild@ParserFactory@@QEAAXPEAVNode@@@Z@4HA 00000001800578b0 f    CIL library: CIL module
 0001:000568c0       ?dtor$3@?0??parseHRDSetsChild@ParserFactory@@QEAAXPEAVNode@@@Z@4HA 00000001800578c0 f    CIL library: CIL module
 0001:000568d0       ?dtor$22@?0??parseHRDSetsChild@ParserFactory@@QEAAXPEAVNode@@@Z@4HA 00000001800578d0 f    CIL library: CIL module
 0001:000568e0       ?dtor$4@?0??parseHRDSetsChild@ParserFactory@@QEAAXPEAVNode@@@Z@4HA 00000001800578e0 f    CIL library: CIL module
 0001:000568f0       ?dtor$5@?0??parseHRDSetsChild@ParserFactory@@QEAAXPEAVNode@@@Z@4HA 00000001800578f0 f    CIL library: CIL module
 0001:00056900       ?dtor$6@?0??parseHRDSetsChild@ParserFactory@@QEAAXPEAVNode@@@Z@4HA 0000000180057900 f    CIL library: CIL module
 0001:00056910       ?dtor$23@?0??parseHRDSetsChild@ParserFactory@@QEAAXPEAVNode@@@Z@4HA 0000000180057910 f    CIL library: CIL module
 0001:00056920       ?dtor$7@?0??parseHRDSetsChild@ParserFactory@@QEAAXPEAVNode@@@Z@4HA 0000000180057920 f    CIL library: CIL module
 0001:00056950       ?dtor$26@?0??parseHRDSetsChild@ParserFactory@@QEAAXPEAVNode@@@Z@4HA 0000000180057950 f    CIL library: CIL module
 0001:00056960       ?dtor$28@?0??parseHRDSetsChild@ParserFactory@@QEAAXPEAVNode@@@Z@4HA 0000000180057960 f    CIL library: CIL module
 0001:00056970       ?dtor$27@?0??parseHRDSetsChild@ParserFactory@@QEAAXPEAVNode@@@Z@4HA 0000000180057970 f    CIL library: CIL module
 0001:00056980       ?dtor$32@?0??parseHRDSetsChild@ParserFactory@@QEAAXPEAVNode@@@Z@4HA 0000000180057980 f    CIL library: CIL module
 0001:00056990       ?dtor$8@?0??parseHRDSetsChild@ParserFactory@@QEAAXPEAVNode@@@Z@4HA 0000000180057990 f    CIL library: CIL module
 0001:000569a0       ?dtor$33@?0??parseHRDSetsChild@ParserFactory@@QEAAXPEAVNode@@@Z@4HA 00000001800579a0 f    CIL library: CIL module
 0001:000569b0       ?dtor$35@?0??parseHRDSetsChild@ParserFactory@@QEAAXPEAVNode@@@Z@4HA 00000001800579b0 f    CIL library: CIL module
 0001:000569c0       ?dtor$34@?0??parseHRDSetsChild@ParserFactory@@QEAAXPEAVNode@@@Z@4HA 00000001800579c0 f    CIL library: CIL module
 0001:000569d0       ?dtor$40@?0??parseHRDSetsChild@ParserFactory@@QEAAXPEAVNode@@@Z@4HA 00000001800579d0 f    CIL library: CIL module
 0001:000569e0       ?dtor$42@?0??parseHRDSetsChild@ParserFactory@@QEAAXPEAVNode@@@Z@4HA 00000001800579e0 f    CIL library: CIL module
 0001:000569f0       ?dtor$41@?0??parseHRDSetsChild@ParserFactory@@QEAAXPEAVNode@@@Z@4HA 00000001800579f0 f    CIL library: CIL module
 0001:00056a00       ?dtor$9@?0??parseHRDSetsChild@ParserFactory@@QEAAXPEAVNode@@@Z@4HA 0000000180057a00 f    CIL library: CIL module
 0001:00056a10       ?dtor$47@?0??parseHRDSetsChild@ParserFactory@@QEAAXPEAVNode@@@Z@4HA 0000000180057a10 f    CIL library: CIL module
 0001:00056a20       ?dtor$10@?0??parseHRDSetsChild@ParserFactory@@QEAAXPEAVNode@@@Z@4HA 0000000180057a20 f    CIL library: CIL module
 0001:00056a30       ?dtor$48@?0??parseHRDSetsChild@ParserFactory@@QEAAXPEAVNode@@@Z@4HA 0000000180057a30 f    CIL library: CIL module
 0001:00056a40       ?dtor$11@?0??parseHRDSetsChild@ParserFactory@@QEAAXPEAVNode@@@Z@4HA 0000000180057a40 f    CIL library: CIL module
 0001:00056a70       ?dtor$51@?0??parseHRDSetsChild@ParserFactory@@QEAAXPEAVNode@@@Z@4HA 0000000180057a70 f    CIL library: CIL module
 0001:00056a80       ?dtor$53@?0??parseHRDSetsChild@ParserFactory@@QEAAXPEAVNode@@@Z@4HA 0000000180057a80 f    CIL library: CIL module
 0001:00056a90       ?dtor$52@?0??parseHRDSetsChild@ParserFactory@@QEAAXPEAVNode@@@Z@4HA 0000000180057a90 f    CIL library: CIL module
 0001:00056aa0       ?dtor$57@?0??parseHRDSetsChild@ParserFactory@@QEAAXPEAVNode@@@Z@4HA 0000000180057aa0 f    CIL library: CIL module
 0001:00056ab0       ?dtor$0@?0??setParamDescription@FileTypeImpl@@QEAAXAEBVString@@PEBV2@@Z@4HA 0000000180057ab0 f    CIL library: CIL module
 0001:00056ab0       ?dtor$0@?0???0OutlineItem@@QEAA@HHHPEAVString@@PEBVRegion@@@Z@4HA 0000000180057ab0 f    CIL library: CIL module
 0001:00056ab0       ?dtor$0@?0??setParamDefaultValue@FileTypeImpl@@QEAAXAEBVString@@PEBV2@@Z@4HA 0000000180057ab0 f    CIL library: CIL module
 0001:00056ab0       ?dtor$0@?0??setParamValue@FileTypeImpl@@UEAAXAEBVString@@PEBV2@@Z@4HA 0000000180057ab0 f    CIL library: CIL module
 0001:00056ac0       ?dtor$2@?0???0OutlineItem@@QEAA@HHHPEAVString@@PEBVRegion@@@Z@4HA 0000000180057ac0 f    CIL library: CIL module
 0001:00056ac0       ?dtor$1@?0??setParamValue@FileTypeImpl@@UEAAXAEBVString@@PEBV2@@Z@4HA 0000000180057ac0 f    CIL library: CIL module
 0001:00056ac0       ?dtor$1@?0??setParamDescription@FileTypeImpl@@QEAAXAEBVString@@PEBV2@@Z@4HA 0000000180057ac0 f    CIL library: CIL module
 0001:00056ac0       ?dtor$1@?0??setParamDefaultValue@FileTypeImpl@@QEAAXAEBVString@@PEBV2@@Z@4HA 0000000180057ac0 f    CIL library: CIL module
 0001:00056ad0       ?dtor$4@?0???0OutlineItem@@QEAA@HHHPEAVString@@PEBVRegion@@@Z@4HA 0000000180057ad0 f    CIL library: CIL module
 0001:00056ad0       ?dtor$3@?0??setParamDescription@FileTypeImpl@@QEAAXAEBVString@@PEBV2@@Z@4HA 0000000180057ad0 f    CIL library: CIL module
 0001:00056ad0       ?dtor$3@?0??setParamValue@FileTypeImpl@@UEAAXAEBVString@@PEBV2@@Z@4HA 0000000180057ad0 f    CIL library: CIL module
 0001:00056ad0       ?dtor$3@?0??setParamDefaultValue@FileTypeImpl@@QEAAXAEBVString@@PEBV2@@Z@4HA 0000000180057ad0 f    CIL library: CIL module
 0001:00056ae0       ?dtor$2@?0??setParamDescription@FileTypeImpl@@QEAAXAEBVString@@PEBV2@@Z@4HA 0000000180057ae0 f    CIL library: CIL module
 0001:00056ae0       ?dtor$3@?0???0OutlineItem@@QEAA@HHHPEAVString@@PEBVRegion@@@Z@4HA 0000000180057ae0 f    CIL library: CIL module
 0001:00056ae0       ?dtor$2@?0??setParamValue@FileTypeImpl@@UEAAXAEBVString@@PEBV2@@Z@4HA 0000000180057ae0 f    CIL library: CIL module
 0001:00056ae0       ?dtor$2@?0??setParamDefaultValue@FileTypeImpl@@QEAAXAEBVString@@PEBV2@@Z@4HA 0000000180057ae0 f    CIL library: CIL module
 0001:00056af0       ?dtor$0@?0??chooseHRDName@FarEditorSet@@QEAAPEBVString@@PEBV2@VDString@@@Z@4HA 0000000180057af0 f    CIL library: CIL module
 0001:00056b00       ?dtor$1@?0??chooseHRDName@FarEditorSet@@QEAAPEBVString@@PEBV2@VDString@@@Z@4HA 0000000180057b00 f    CIL library: CIL module
 0001:00056b10       ?dtor$2@?0??chooseHRDName@FarEditorSet@@QEAAPEBVString@@PEBV2@VDString@@@Z@4HA 0000000180057b10 f    CIL library: CIL module
 0001:00056b20       ?dtor$0@?0??getHRDescription@FarEditorSet@@QEAAPEBVString@@AEBV2@VDString@@@Z@4HA 0000000180057b20 f    CIL library: CIL module
 0001:00056b30       ?dtor$1@?0??getHRDescription@FarEditorSet@@QEAAPEBVString@@AEBV2@VDString@@@Z@4HA 0000000180057b30 f    CIL library: CIL module
 0001:00056b40       ?dtor$0@?0??rehash@?$HashtableCore@PEAV?$Hashtable@PEAV?$Vector@PEBVString@@@@@@@@IEAAXXZ@4HA 0000000180057b40 f    CIL library: CIL module
 0001:00056b40       ?dtor$0@?0??rehash@?$HashtableCore@PEAVRegionDefine@@@@IEAAXXZ@4HA 0000000180057b40 f    CIL library: CIL module
 0001:00056b40       ?dtor$0@?0??rehash@?$HashtableCore@PEAVFarEditor@@@@IEAAXXZ@4HA 0000000180057b40 f    CIL library: CIL module
 0001:00056b40       ?dtor$0@?0??rehash@?$HashtableCore@PEAV?$Vector@PEBVString@@@@@@IEAAXXZ@4HA 0000000180057b40 f    CIL library: CIL module
 0001:00056b40       ?dtor$0@?0??rehash@?$HashtableCore@PEAVSharedInputSource@@@@IEAAXXZ@4HA 0000000180057b40 f    CIL library: CIL module
 0001:00056b40       ?dtor$0@?0??rehash@?$HashtableCore@PEAVString@@@@IEAAXXZ@4HA 0000000180057b40 f    CIL library: CIL module
 0001:00056b40       ?dtor$0@?0??rehash@?$HashtableCore@PEBVString@@@@IEAAXXZ@4HA 0000000180057b40 f    CIL library: CIL module
 0001:00056b40       ?dtor$0@?0??rehash@?$HashtableCore@PEBVRegion@@@@IEAAXXZ@4HA 0000000180057b40 f    CIL library: CIL module
 0001:00056b40       ?dtor$0@?0??rehash@?$HashtableCore@PEAVSchemeImpl@@@@IEAAXXZ@4HA 0000000180057b40 f    CIL library: CIL module
 0001:00056b40       ?dtor$0@?0??rehash@?$HashtableCore@PEAVFileTypeImpl@@@@IEAAXXZ@4HA 0000000180057b40 f    CIL library: CIL module
 0001:00056b50       ?dtor$1@?0??lastElement@?$Vector@H@@QEBAHXZ@4HA 0000000180057b50 f    CIL library: CIL module
 0001:00056b50       ?dtor$1@?0??lastElement@?$Vector@PEAVLineRegion@@@@QEBAPEAVLineRegion@@XZ@4HA 0000000180057b50 f    CIL library: CIL module
 0001:00056b50       ?dtor$1@?0??length@FileInputSource@@UEBAHXZ@4HA 0000000180057b50 f    CIL library: CIL module
 0001:00056b50       ?dtor$1@?0??length@HTTPInputSource@@UEBAHXZ@4HA 0000000180057b50 f    CIL library: CIL module
 0001:00056b50       ?dtor$1@?0??appendChild@Document@@UEAAPEAVNode@@PEAV2@@Z@4HA 0000000180057b50 f    CIL library: CIL module
 0001:00056b50       ?dtor$1@?0??init@StreamWriter@@IEAAXPEAU_iobuf@@H_N@Z@4HA 0000000180057b50 f    CIL library: CIL module
 0001:00056b50       ?dtor$1@?0??lastElement@?$Vector@PEAVOutlineItem@@@@QEBAPEAVOutlineItem@@XZ@4HA 0000000180057b50 f    CIL library: CIL module
 0001:00056b50       ?dtor$1@?0??length@JARInputSource@@UEBAHXZ@4HA 0000000180057b50 f    CIL library: CIL module
 0001:00056b50       ?dtor$1@?0??construct@SString@@IEAAXPEBVString@@HH@Z@4HA 0000000180057b50 f    CIL library: CIL module
 0001:00056b50       ?dtor$1@?0??cast@StyledRegion@@SAPEBV1@PEBVRegionDefine@@@Z@4HA 0000000180057b50 f    CIL library: CIL module
 0001:00056b60       ?dtor$0@?0??length@JARInputSource@@UEBAHXZ@4HA 0000000180057b60 f    CIL library: CIL module
 0001:00056b60       ?dtor$0@?0??lastElement@?$Vector@H@@QEBAHXZ@4HA 0000000180057b60 f    CIL library: CIL module
 0001:00056b60       ?dtor$0@?0??init@StreamWriter@@IEAAXPEAU_iobuf@@H_N@Z@4HA 0000000180057b60 f    CIL library: CIL module
 0001:00056b60       ?dtor$0@?0??cast@StyledRegion@@SAPEBV1@PEBVRegionDefine@@@Z@4HA 0000000180057b60 f    CIL library: CIL module
 0001:00056b60       ?dtor$0@?0??lastElement@?$Vector@PEAVLineRegion@@@@QEBAPEAVLineRegion@@XZ@4HA 0000000180057b60 f    CIL library: CIL module
 0001:00056b60       ?dtor$0@?0??length@FileInputSource@@UEBAHXZ@4HA 0000000180057b60 f    CIL library: CIL module
 0001:00056b60       ?dtor$0@?0??construct@SString@@IEAAXPEBVString@@HH@Z@4HA 0000000180057b60 f    CIL library: CIL module
 0001:00056b60       ?dtor$0@?0??appendChild@Document@@UEAAPEAVNode@@PEAV2@@Z@4HA 0000000180057b60 f    CIL library: CIL module
 0001:00056b60       ?dtor$0@?0??lastElement@?$Vector@PEAVOutlineItem@@@@QEBAPEAVOutlineItem@@XZ@4HA 0000000180057b60 f    CIL library: CIL module
 0001:00056b60       ?dtor$0@?0??length@HTTPInputSource@@UEBAHXZ@4HA 0000000180057b60 f    CIL library: CIL module
 0001:00056b70       ?dtor$0@?0??openStream@JARInputSource@@UEAAPEBEXZ@4HA 0000000180057b70 f    CIL library: CIL module
 0001:00056b80       ?dtor$1@?0??openStream@JARInputSource@@UEAAPEBEXZ@4HA 0000000180057b80 f    CIL library: CIL module
 0001:00056b90       ?dtor$2@?0??openStream@JARInputSource@@UEAAPEBEXZ@4HA 0000000180057b90 f    CIL library: CIL module
 0001:00056ba0       ?dtor$3@?0??openStream@JARInputSource@@UEAAPEBEXZ@4HA 0000000180057ba0 f    CIL library: CIL module
 0001:00056bb0       ?dtor$4@?0??openStream@JARInputSource@@UEAAPEBEXZ@4HA 0000000180057bb0 f    CIL library: CIL module
 0001:00056bc0       ?dtor$5@?0??openStream@JARInputSource@@UEAAPEBEXZ@4HA 0000000180057bc0 f    CIL library: CIL module
 0001:00056bd0       ?dtor$6@?0??openStream@JARInputSource@@UEAAPEBEXZ@4HA 0000000180057bd0 f    CIL library: CIL module
 0001:00056be0       ?dtor$7@?0??openStream@JARInputSource@@UEAAPEBEXZ@4HA 0000000180057be0 f    CIL library: CIL module
 0001:00056bf0       ?dtor$0@?0??openStream@FileInputSource@@UEAAPEBEXZ@4HA 0000000180057bf0 f    CIL library: CIL module
 0001:00056c00       ?dtor$1@?0??openStream@FileInputSource@@UEAAPEBEXZ@4HA 0000000180057c00 f    CIL library: CIL module
 0001:00056c10       ?dtor$0@?0???0Exception@@QEAA@AEBVString@@@Z@4HA 0000000180057c10 f    CIL library: CIL module
 0001:00056c20       ?dtor$2@?0???0Exception@@QEAA@AEBVString@@@Z@4HA 0000000180057c20 f    CIL library: CIL module
 0001:00056c30       ?dtor$1@?0???0Exception@@QEAA@AEBVString@@@Z@4HA 0000000180057c30 f    CIL library: CIL module
 0001:00056c60       ?dtor$6@?0???0Exception@@QEAA@AEBVString@@@Z@4HA 0000000180057c60 f    CIL library: CIL module
 0001:00056c70       ?dtor$8@?0???0Exception@@QEAA@AEBVString@@@Z@4HA 0000000180057c70 f    CIL library: CIL module
 0001:00056c80       ?dtor$7@?0???0Exception@@QEAA@AEBVString@@@Z@4HA 0000000180057c80 f    CIL library: CIL module
 0001:00056c90       ?dtor$12@?0???0Exception@@QEAA@AEBVString@@@Z@4HA 0000000180057c90 f    CIL library: CIL module
 0001:00056ca0       ?dtor$0@?0???0Exception@@QEAA@AEBV0@@Z@4HA 0000000180057ca0 f    CIL library: CIL module
 0001:00056cb0       ?dtor$2@?0???0Exception@@QEAA@AEBV0@@Z@4HA 0000000180057cb0 f    CIL library: CIL module
 0001:00056cc0       ?dtor$4@?0???0Exception@@QEAA@AEBV0@@Z@4HA 0000000180057cc0 f    CIL library: CIL module
 0001:00056cd0       ?dtor$3@?0???0Exception@@QEAA@AEBV0@@Z@4HA 0000000180057cd0 f    CIL library: CIL module
 0001:00056ce0       ?dtor$0@?0??setAttribute@Element@@QEAAXPEBVString@@0@Z@4HA 0000000180057ce0 f    CIL library: CIL module
 0001:00056ce0       ?dtor$0@?0??toBytes@Encodings@@SAHH_WPEAE@Z@4HA 0000000180057ce0 f    CIL library: CIL module
 0001:00056cf0       ?dtor$2@?0??setAttribute@Element@@QEAAXPEBVString@@0@Z@4HA 0000000180057cf0 f    CIL library: CIL module
 0001:00056cf0       ?dtor$1@?0??toBytes@Encodings@@SAHH_WPEAE@Z@4HA 0000000180057cf0 f    CIL library: CIL module
 0001:00056d00       ?dtor$0@?0???0DString@@QEAA@PEBVString@@HH@Z@4HA 0000000180057d00 f    CIL library: CIL module
 0001:00056d00       ?dtor$0@?0???0DString@@QEAA@AEBVString@@HH@Z@4HA 0000000180057d00 f    CIL library: CIL module
 0001:00056d10       ?dtor$2@?0???0DString@@QEAA@AEBVString@@HH@Z@4HA 0000000180057d10 f    CIL library: CIL module
 0001:00056d10       ?dtor$2@?0???0DString@@QEAA@PEBVString@@HH@Z@4HA 0000000180057d10 f    CIL library: CIL module
 0001:00056d20       ?dtor$1@?0???0DString@@QEAA@PEBVString@@HH@Z@4HA 0000000180057d20 f    CIL library: CIL module
 0001:00056d20       ?dtor$1@?0???0DString@@QEAA@AEBVString@@HH@Z@4HA 0000000180057d20 f    CIL library: CIL module
 0001:00056d30       ?dtor$0@?0???0DString@@QEAA@PEB_WHH@Z@4HA 0000000180057d30 f    CIL library: CIL module
 0001:00056d40       ?dtor$2@?0???0DString@@QEAA@PEB_WHH@Z@4HA 0000000180057d40 f    CIL library: CIL module
 0001:00056d50       ?dtor$1@?0???0DString@@QEAA@PEB_WHH@Z@4HA 0000000180057d50 f    CIL library: CIL module
 0001:00056d60       ?dtor$1@?0??substrIndex@KeywordList@@QEAAXXZ@4HA 0000000180057d60 f    CIL library: CIL module
 0001:00056d70       ?dtor$3@?0??substrIndex@KeywordList@@QEAAXXZ@4HA 0000000180057d70 f    CIL library: CIL module
 0001:00056d80       ?dtor$2@?0??substrIndex@KeywordList@@QEAAXXZ@4HA 0000000180057d80 f    CIL library: CIL module
 0001:00056d90       ?dtor$0@?0??substrIndex@KeywordList@@QEAAXXZ@4HA 0000000180057d90 f    CIL library: CIL module
 0001:00056dc0       ?dtor$7@?0??substrIndex@KeywordList@@QEAAXXZ@4HA 0000000180057dc0 f    CIL library: CIL module
 0001:00056dd0       ?dtor$0@?0??searchKW@TextParserImpl@@AEAAHPEBVSchemeNode@@HHH@Z@4HA 0000000180057dd0 f    CIL library: CIL module
 0001:00056de0       ?dtor$2@?0??searchKW@TextParserImpl@@AEAAHPEBVSchemeNode@@HHH@Z@4HA 0000000180057de0 f    CIL library: CIL module
 0001:00056df0       ?dtor$1@?0??searchKW@TextParserImpl@@AEAAHPEBVSchemeNode@@HHH@Z@4HA 0000000180057df0 f    CIL library: CIL module
 0001:00056e00       ?dtor$3@?0??searchKW@TextParserImpl@@AEAAHPEBVSchemeNode@@HHH@Z@4HA 0000000180057e00 f    CIL library: CIL module
 0001:00056e10       ?dtor$2@?0??next_int@?$HashtableCore@PEAVFileTypeImpl@@@@IEBAPEAPEAVFileTypeImpl@@XZ@4HA 0000000180057e10 f    CIL library: CIL module
 0001:00056e10       ?dtor$2@?0??next_int@?$HashtableCore@PEBVString@@@@IEBAPEAPEBVString@@XZ@4HA 0000000180057e10 f    CIL library: CIL module
 0001:00056e10       ?dtor$2@?0??next_int@?$HashtableCore@PEAVRegionDefine@@@@IEBAPEAPEAVRegionDefine@@XZ@4HA 0000000180057e10 f    CIL library: CIL module
 0001:00056e10       ?dtor$2@?0??next_int@?$HashtableCore@PEAVSchemeImpl@@@@IEBAPEAPEAVSchemeImpl@@XZ@4HA 0000000180057e10 f    CIL library: CIL module
 0001:00056e10       ?dtor$2@?0??next_int@?$HashtableCore@PEAVFarEditor@@@@IEBAPEAPEAVFarEditor@@XZ@4HA 0000000180057e10 f    CIL library: CIL module
 0001:00056e10       ?dtor$2@?0??nextkey@?$HashtableCore@PEAVRegionDefine@@@@QEBAPEAVString@@XZ@4HA 0000000180057e10 f    CIL library: CIL module
 0001:00056e10       ?dtor$2@?0??next_int@?$HashtableCore@PEAV?$Hashtable@PEAV?$Vector@PEBVString@@@@@@@@IEBAPEAPEAV?$Hashtable@PEAV?$Vector@PEBVString@@@@@@XZ@4HA 0000000180057e10 f    CIL library: CIL module
 0001:00056e10       ?dtor$2@?0??next_int@?$HashtableCore@PEAV?$Vector@PEBVString@@@@@@IEBAPEAPEAV?$Vector@PEBVString@@@@XZ@4HA 0000000180057e10 f    CIL library: CIL module
 0001:00056e10       ?dtor$2@?0??next_int@?$HashtableCore@PEAVString@@@@IEBAPEAPEAVString@@XZ@4HA 0000000180057e10 f    CIL library: CIL module
 0001:00056e20       ?dtor$0@?0??next_int@?$HashtableCore@PEAVString@@@@IEBAPEAPEAVString@@XZ@4HA 0000000180057e20 f    CIL library: CIL module
 0001:00056e20       ?dtor$0@?0??next_int@?$HashtableCore@PEAV?$Vector@PEBVString@@@@@@IEBAPEAPEAV?$Vector@PEBVString@@@@XZ@4HA 0000000180057e20 f    CIL library: CIL module
 0001:00056e20       ?dtor$0@?0??next_int@?$HashtableCore@PEAV?$Hashtable@PEAV?$Vector@PEBVString@@@@@@@@IEBAPEAPEAV?$Hashtable@PEAV?$Vector@PEBVString@@@@@@XZ@4HA 0000000180057e20 f    CIL library: CIL module
 0001:00056e20       ?dtor$0@?0??next_int@?$HashtableCore@PEAVFarEditor@@@@IEBAPEAPEAVFarEditor@@XZ@4HA 0000000180057e20 f    CIL library: CIL module
 0001:00056e20       ?dtor$0@?0??next_int@?$HashtableCore@PEBVString@@@@IEBAPEAPEBVString@@XZ@4HA 0000000180057e20 f    CIL library: CIL module
 0001:00056e20       ?dtor$0@?0??next_int@?$HashtableCore@PEAVSchemeImpl@@@@IEBAPEAPEAVSchemeImpl@@XZ@4HA 0000000180057e20 f    CIL library: CIL module
 0001:00056e20       ?dtor$0@?0??next_int@?$HashtableCore@PEAVRegionDefine@@@@IEBAPEAPEAVRegionDefine@@XZ@4HA 0000000180057e20 f    CIL library: CIL module
 0001:00056e20       ?dtor$0@?0??nextkey@?$HashtableCore@PEAVRegionDefine@@@@QEBAPEAVString@@XZ@4HA 0000000180057e20 f    CIL library: CIL module
 0001:00056e20       ?dtor$0@?0??next_int@?$HashtableCore@PEAVFileTypeImpl@@@@IEBAPEAPEAVFileTypeImpl@@XZ@4HA 0000000180057e20 f    CIL library: CIL module
 0001:00056e30       ?dtor$6@?0??next_int@?$HashtableCore@PEAVString@@@@IEBAPEAPEAVString@@XZ@4HA 0000000180057e30 f    CIL library: CIL module
 0001:00056e30       ?dtor$6@?0??next_int@?$HashtableCore@PEAVRegionDefine@@@@IEBAPEAPEAVRegionDefine@@XZ@4HA 0000000180057e30 f    CIL library: CIL module
 0001:00056e30       ?dtor$6@?0??nextkey@?$HashtableCore@PEAVRegionDefine@@@@QEBAPEAVString@@XZ@4HA 0000000180057e30 f    CIL library: CIL module
 0001:00056e30       ?dtor$6@?0??next_int@?$HashtableCore@PEAVSchemeImpl@@@@IEBAPEAPEAVSchemeImpl@@XZ@4HA 0000000180057e30 f    CIL library: CIL module
 0001:00056e30       ?dtor$6@?0??next_int@?$HashtableCore@PEAV?$Vector@PEBVString@@@@@@IEBAPEAPEAV?$Vector@PEBVString@@@@XZ@4HA 0000000180057e30 f    CIL library: CIL module
 0001:00056e30       ?dtor$6@?0??next_int@?$HashtableCore@PEAV?$Hashtable@PEAV?$Vector@PEBVString@@@@@@@@IEBAPEAPEAV?$Hashtable@PEAV?$Vector@PEBVString@@@@@@XZ@4HA 0000000180057e30 f    CIL library: CIL module
 0001:00056e30       ?dtor$6@?0??next_int@?$HashtableCore@PEAVFarEditor@@@@IEBAPEAPEAVFarEditor@@XZ@4HA 0000000180057e30 f    CIL library: CIL module
 0001:00056e30       ?dtor$6@?0??next_int@?$HashtableCore@PEBVString@@@@IEBAPEAPEBVString@@XZ@4HA 0000000180057e30 f    CIL library: CIL module
 0001:00056e30       ?dtor$6@?0??next_int@?$HashtableCore@PEAVFileTypeImpl@@@@IEBAPEAPEAVFileTypeImpl@@XZ@4HA 0000000180057e30 f    CIL library: CIL module
 0001:00056e40       ?dtor$1@?0??next_int@?$HashtableCore@PEBVString@@@@IEBAPEAPEBVString@@XZ@4HA 0000000180057e40 f    CIL library: CIL module
 0001:00056e40       ?dtor$1@?0??next_int@?$HashtableCore@PEAV?$Hashtable@PEAV?$Vector@PEBVString@@@@@@@@IEBAPEAPEAV?$Hashtable@PEAV?$Vector@PEBVString@@@@@@XZ@4HA 0000000180057e40 f    CIL library: CIL module
 0001:00056e40       ?dtor$1@?0??next_int@?$HashtableCore@PEAVFarEditor@@@@IEBAPEAPEAVFarEditor@@XZ@4HA 0000000180057e40 f    CIL library: CIL module
 0001:00056e40       ?dtor$1@?0??nextkey@?$HashtableCore@PEAVRegionDefine@@@@QEBAPEAVString@@XZ@4HA 0000000180057e40 f    CIL library: CIL module
 0001:00056e40       ?dtor$1@?0??next_int@?$HashtableCore@PEAVSchemeImpl@@@@IEBAPEAPEAVSchemeImpl@@XZ@4HA 0000000180057e40 f    CIL library: CIL module
 0001:00056e40       ?dtor$1@?0??next_int@?$HashtableCore@PEAVRegionDefine@@@@IEBAPEAPEAVRegionDefine@@XZ@4HA 0000000180057e40 f    CIL library: CIL module
 0001:00056e40       ?dtor$1@?0??next_int@?$HashtableCore@PEAVString@@@@IEBAPEAPEAVString@@XZ@4HA 0000000180057e40 f    CIL library: CIL module
 0001:00056e40       ?dtor$1@?0??next_int@?$HashtableCore@PEAVFileTypeImpl@@@@IEBAPEAPEAVFileTypeImpl@@XZ@4HA 0000000180057e40 f    CIL library: CIL module
 0001:00056e40       ?dtor$1@?0??next_int@?$HashtableCore@PEAV?$Vector@PEBVString@@@@@@IEBAPEAPEAV?$Vector@PEBVString@@@@XZ@4HA 0000000180057e40 f    CIL library: CIL module
 0001:00056e50       ?dtor$6@?0??qualifyForeignName@HRCParserImpl@@IEAAPEAVString@@PEBV2@W4QualifyNameType@1@_N@Z@4HA 0000000180057e50 f    CIL library: CIL module
 0001:00056e60       ?dtor$8@?0??qualifyForeignName@HRCParserImpl@@IEAAPEAVString@@PEBV2@W4QualifyNameType@1@_N@Z@4HA 0000000180057e60 f    CIL library: CIL module
 0001:00056e70       ?dtor$7@?0??qualifyForeignName@HRCParserImpl@@IEAAPEAVString@@PEBV2@W4QualifyNameType@1@_N@Z@4HA 0000000180057e70 f    CIL library: CIL module
 0001:00056e80       ?dtor$0@?0??qualifyForeignName@HRCParserImpl@@IEAAPEAVString@@PEBV2@W4QualifyNameType@1@_N@Z@4HA 0000000180057e80 f    CIL library: CIL module
 0001:00056e90       ?dtor$1@?0??qualifyForeignName@HRCParserImpl@@IEAAPEAVString@@PEBV2@W4QualifyNameType@1@_N@Z@4HA 0000000180057e90 f    CIL library: CIL module
 0001:00056ea0       ?dtor$13@?0??qualifyForeignName@HRCParserImpl@@IEAAPEAVString@@PEBV2@W4QualifyNameType@1@_N@Z@4HA 0000000180057ea0 f    CIL library: CIL module
 0001:00056eb0       ?dtor$14@?0??qualifyForeignName@HRCParserImpl@@IEAAPEAVString@@PEBV2@W4QualifyNameType@1@_N@Z@4HA 0000000180057eb0 f    CIL library: CIL module
 0001:00056ec0       ?dtor$2@?0??qualifyForeignName@HRCParserImpl@@IEAAPEAVString@@PEBV2@W4QualifyNameType@1@_N@Z@4HA 0000000180057ec0 f    CIL library: CIL module
 0001:00056ed0       ?dtor$15@?0??qualifyForeignName@HRCParserImpl@@IEAAPEAVString@@PEBV2@W4QualifyNameType@1@_N@Z@4HA 0000000180057ed0 f    CIL library: CIL module
 0001:00056ee0       ?dtor$17@?0??qualifyForeignName@HRCParserImpl@@IEAAPEAVString@@PEBV2@W4QualifyNameType@1@_N@Z@4HA 0000000180057ee0 f    CIL library: CIL module
 0001:00056ef0       ?dtor$16@?0??qualifyForeignName@HRCParserImpl@@IEAAPEAVString@@PEBV2@W4QualifyNameType@1@_N@Z@4HA 0000000180057ef0 f    CIL library: CIL module
 0001:00056f00       ?dtor$21@?0??qualifyForeignName@HRCParserImpl@@IEAAPEAVString@@PEBV2@W4QualifyNameType@1@_N@Z@4HA 0000000180057f00 f    CIL library: CIL module
 0001:00056f10       ?dtor$22@?0??qualifyForeignName@HRCParserImpl@@IEAAPEAVString@@PEBV2@W4QualifyNameType@1@_N@Z@4HA 0000000180057f10 f    CIL library: CIL module
 0001:00056f20       ?dtor$23@?0??qualifyForeignName@HRCParserImpl@@IEAAPEAVString@@PEBV2@W4QualifyNameType@1@_N@Z@4HA 0000000180057f20 f    CIL library: CIL module
 0001:00056f30       ?dtor$3@?0??qualifyForeignName@HRCParserImpl@@IEAAPEAVString@@PEBV2@W4QualifyNameType@1@_N@Z@4HA 0000000180057f30 f    CIL library: CIL module
 0001:00056f40       ?dtor$26@?0??qualifyForeignName@HRCParserImpl@@IEAAPEAVString@@PEBV2@W4QualifyNameType@1@_N@Z@4HA 0000000180057f40 f    CIL library: CIL module
 0001:00056f50       ?dtor$28@?0??qualifyForeignName@HRCParserImpl@@IEAAPEAVString@@PEBV2@W4QualifyNameType@1@_N@Z@4HA 0000000180057f50 f    CIL library: CIL module
 0001:00056f60       ?dtor$27@?0??qualifyForeignName@HRCParserImpl@@IEAAPEAVString@@PEBV2@W4QualifyNameType@1@_N@Z@4HA 0000000180057f60 f    CIL library: CIL module
 0001:00056f70       ?dtor$32@?0??qualifyForeignName@HRCParserImpl@@IEAAPEAVString@@PEBV2@W4QualifyNameType@1@_N@Z@4HA 0000000180057f70 f    CIL library: CIL module
 0001:00056f80       ?dtor$4@?0??qualifyForeignName@HRCParserImpl@@IEAAPEAVString@@PEBV2@W4QualifyNameType@1@_N@Z@4HA 0000000180057f80 f    CIL library: CIL module
 0001:00056f90       ?dtor$35@?0??qualifyForeignName@HRCParserImpl@@IEAAPEAVString@@PEBV2@W4QualifyNameType@1@_N@Z@4HA 0000000180057f90 f    CIL library: CIL module
 0001:00056fa0       ?dtor$5@?0??qualifyForeignName@HRCParserImpl@@IEAAPEAVString@@PEBV2@W4QualifyNameType@1@_N@Z@4HA 0000000180057fa0 f    CIL library: CIL module
 0001:00056fb0       ?dtor$46@?0??qualifyForeignName@HRCParserImpl@@IEAAPEAVString@@PEBV2@W4QualifyNameType@1@_N@Z@4HA 0000000180057fb0 f    CIL library: CIL module
 0001:00056fc0       ?dtor$5@?0??qualifyOwnName@HRCParserImpl@@IEAAPEAVString@@PEBV2@@Z@4HA 0000000180057fc0 f    CIL library: CIL module
 0001:00056fd0       ?dtor$7@?0??qualifyOwnName@HRCParserImpl@@IEAAPEAVString@@PEBV2@@Z@4HA 0000000180057fd0 f    CIL library: CIL module
 0001:00056fe0       ?dtor$6@?0??qualifyOwnName@HRCParserImpl@@IEAAPEAVString@@PEBV2@@Z@4HA 0000000180057fe0 f    CIL library: CIL module
 0001:00056ff0       ?dtor$0@?0??qualifyOwnName@HRCParserImpl@@IEAAPEAVString@@PEBV2@@Z@4HA 0000000180057ff0 f    CIL library: CIL module
 0001:00057020       ?dtor$11@?0??qualifyOwnName@HRCParserImpl@@IEAAPEAVString@@PEBV2@@Z@4HA 0000000180058020 f    CIL library: CIL module
 0001:00057030       ?dtor$1@?0??qualifyOwnName@HRCParserImpl@@IEAAPEAVString@@PEBV2@@Z@4HA 0000000180058030 f    CIL library: CIL module
 0001:00057040       ?dtor$13@?0??qualifyOwnName@HRCParserImpl@@IEAAPEAVString@@PEBV2@@Z@4HA 0000000180058040 f    CIL library: CIL module
 0001:00057050       ?dtor$2@?0??qualifyOwnName@HRCParserImpl@@IEAAPEAVString@@PEBV2@@Z@4HA 0000000180058050 f    CIL library: CIL module
 0001:00057060       ?dtor$14@?0??qualifyOwnName@HRCParserImpl@@IEAAPEAVString@@PEBV2@@Z@4HA 0000000180058060 f    CIL library: CIL module
 0001:00057070       ?dtor$16@?0??qualifyOwnName@HRCParserImpl@@IEAAPEAVString@@PEBV2@@Z@4HA 0000000180058070 f    CIL library: CIL module
 0001:00057080       ?dtor$15@?0??qualifyOwnName@HRCParserImpl@@IEAAPEAVString@@PEBV2@@Z@4HA 0000000180058080 f    CIL library: CIL module
 0001:00057090       ?dtor$3@?0??qualifyOwnName@HRCParserImpl@@IEAAPEAVString@@PEBV2@@Z@4HA 0000000180058090 f    CIL library: CIL module
 0001:000570a0       ?dtor$20@?0??qualifyOwnName@HRCParserImpl@@IEAAPEAVString@@PEBV2@@Z@4HA 00000001800580a0 f    CIL library: CIL module
 0001:000570b0       ?dtor$4@?0??qualifyOwnName@HRCParserImpl@@IEAAPEAVString@@PEBV2@@Z@4HA 00000001800580b0 f    CIL library: CIL module
 0001:000570c0       ?dtor$23@?0??qualifyOwnName@HRCParserImpl@@IEAAPEAVString@@PEBV2@@Z@4HA 00000001800580c0 f    CIL library: CIL module
 0001:000570d0       ?dtor$3@?0??updateLinks@HRCParserImpl@@IEAAXXZ@4HA 00000001800580d0 f    CIL library: CIL module
 0001:000570e0       ?dtor$0@?0??updateLinks@HRCParserImpl@@IEAAXXZ@4HA 00000001800580e0 f    CIL library: CIL module
 0001:000570f0       ?dtor$6@?0??updateLinks@HRCParserImpl@@IEAAXXZ@4HA 00000001800580f0 f    CIL library: CIL module
 0001:00057100       ?dtor$7@?0??updateLinks@HRCParserImpl@@IEAAXXZ@4HA 0000000180058100 f    CIL library: CIL module
 0001:00057110       ?dtor$1@?0??updateLinks@HRCParserImpl@@IEAAXXZ@4HA 0000000180058110 f    CIL library: CIL module
 0001:00057120       ?dtor$10@?0??updateLinks@HRCParserImpl@@IEAAXXZ@4HA 0000000180058120 f    CIL library: CIL module
 0001:00057130       ?dtor$2@?0??updateLinks@HRCParserImpl@@IEAAXXZ@4HA 0000000180058130 f    CIL library: CIL module
 0001:00057140       ?dtor$12@?0??updateLinks@HRCParserImpl@@IEAAXXZ@4HA 0000000180058140 f    CIL library: CIL module
 0001:00057150       ?dtor$0@?0??addRegion@Outliner@@UEAAXHPEAVString@@HHPEBVRegion@@@Z@4HA 0000000180058150 f    CIL library: CIL module
 0001:00057160       ?dtor$1@?0??addRegion@Outliner@@UEAAXHPEAVString@@HHPEBVRegion@@@Z@4HA 0000000180058160 f    CIL library: CIL module
 0001:00057170       ?dtor$0@?0???1Outliner@@UEAA@XZ@4HA 0000000180058170 f    CIL library: CIL module
 0001:00057180       ?dtor$1@?0???1Outliner@@UEAA@XZ@4HA 0000000180058180 f    CIL library: CIL module
 0001:00057190       ?dtor$2@?0???1Outliner@@UEAA@XZ@4HA 0000000180058190 f    CIL library: CIL module
 0001:000571a0       ?dtor$0@?0???0Outliner@@QEAA@PEAVBaseEditor@@PEBVRegion@@@Z@4HA 00000001800581a0 f    CIL library: CIL module
 0001:000571b0       ?dtor$1@?0???0Outliner@@QEAA@PEAVBaseEditor@@PEBVRegion@@@Z@4HA 00000001800581b0 f    CIL library: CIL module
 0001:000571c0       ?dtor$0@?0???1StyledHRDMapper@@UEAA@XZ@4HA 00000001800581c0 f    CIL library: CIL module
 0001:000571d0       ?dtor$1@?0???1StyledHRDMapper@@UEAA@XZ@4HA 00000001800581d0 f    CIL library: CIL module
 0001:000571e0       ?dtor$2@?0???1StyledHRDMapper@@UEAA@XZ@4HA 00000001800581e0 f    CIL library: CIL module
 0001:000571f0       ?dtor$0@?0??clearLine@LineRegionsSupport@@UEAAXHPEAVString@@@Z@4HA 00000001800581f0 f    CIL library: CIL module
 0001:00057200       ?dtor$1@?0??clearLine@LineRegionsSupport@@UEAAXHPEAVString@@@Z@4HA 0000000180058200 f    CIL library: CIL module
 0001:00057210       ?dtor$0@?0???1LineRegionsSupport@@UEAA@XZ@4HA 0000000180058210 f    CIL library: CIL module
 0001:00057220       ?dtor$1@?0???1LineRegionsSupport@@UEAA@XZ@4HA 0000000180058220 f    CIL library: CIL module
 0001:00057230       ?dtor$2@?0???1LineRegionsSupport@@UEAA@XZ@4HA 0000000180058230 f    CIL library: CIL module
 0001:00057240       ?dtor$3@?0???1LineRegionsSupport@@UEAA@XZ@4HA 0000000180058240 f    CIL library: CIL module
 0001:00057250       ?dtor$4@?0???1LineRegionsSupport@@UEAA@XZ@4HA 0000000180058250 f    CIL library: CIL module
 0001:00057260       ?dtor$2@?0??error@ErrorHandlerWriter@@UEAAXAEBVString@@@Z@4HA 0000000180058260 f    CIL library: CIL module
 0001:00057260       ?dtor$2@?0??fatalError@ErrorHandlerWriter@@UEAAXAEBVString@@@Z@4HA 0000000180058260 f    CIL library: CIL module
 0001:00057260       ?dtor$2@?0??warning@ErrorHandlerWriter@@UEAAXAEBVString@@@Z@4HA 0000000180058260 f    CIL library: CIL module
 0001:00057270       ?dtor$0@?0??warning@ErrorHandlerWriter@@UEAAXAEBVString@@@Z@4HA 0000000180058270 f    CIL library: CIL module
 0001:00057270       ?dtor$0@?0??fatalError@ErrorHandlerWriter@@UEAAXAEBVString@@@Z@4HA 0000000180058270 f    CIL library: CIL module
 0001:00057270       ?dtor$0@?0??error@ErrorHandlerWriter@@UEAAXAEBVString@@@Z@4HA 0000000180058270 f    CIL library: CIL module
 0001:00057280       ?dtor$5@?0??warning@ErrorHandlerWriter@@UEAAXAEBVString@@@Z@4HA 0000000180058280 f    CIL library: CIL module
 0001:00057280       ?dtor$5@?0??fatalError@ErrorHandlerWriter@@UEAAXAEBVString@@@Z@4HA 0000000180058280 f    CIL library: CIL module
 0001:00057280       ?dtor$5@?0??error@ErrorHandlerWriter@@UEAAXAEBVString@@@Z@4HA 0000000180058280 f    CIL library: CIL module
 0001:00057290       ?dtor$6@?0??error@ErrorHandlerWriter@@UEAAXAEBVString@@@Z@4HA 0000000180058290 f    CIL library: CIL module
 0001:00057290       ?dtor$6@?0??fatalError@ErrorHandlerWriter@@UEAAXAEBVString@@@Z@4HA 0000000180058290 f    CIL library: CIL module
 0001:00057290       ?dtor$6@?0??warning@ErrorHandlerWriter@@UEAAXAEBVString@@@Z@4HA 0000000180058290 f    CIL library: CIL module
 0001:000572a0       ?dtor$8@?0??warning@ErrorHandlerWriter@@UEAAXAEBVString@@@Z@4HA 00000001800582a0 f    CIL library: CIL module
 0001:000572a0       ?dtor$8@?0??error@ErrorHandlerWriter@@UEAAXAEBVString@@@Z@4HA 00000001800582a0 f    CIL library: CIL module
 0001:000572a0       ?dtor$8@?0??fatalError@ErrorHandlerWriter@@UEAAXAEBVString@@@Z@4HA 00000001800582a0 f    CIL library: CIL module
 0001:000572b0       ?dtor$7@?0??error@ErrorHandlerWriter@@UEAAXAEBVString@@@Z@4HA 00000001800582b0 f    CIL library: CIL module
 0001:000572b0       ?dtor$7@?0??fatalError@ErrorHandlerWriter@@UEAAXAEBVString@@@Z@4HA 00000001800582b0 f    CIL library: CIL module
 0001:000572b0       ?dtor$7@?0??warning@ErrorHandlerWriter@@UEAAXAEBVString@@@Z@4HA 00000001800582b0 f    CIL library: CIL module
 0001:000572c0       ?dtor$1@?0??error@ErrorHandlerWriter@@UEAAXAEBVString@@@Z@4HA 00000001800582c0 f    CIL library: CIL module
 0001:000572c0       ?dtor$1@?0??fatalError@ErrorHandlerWriter@@UEAAXAEBVString@@@Z@4HA 00000001800582c0 f    CIL library: CIL module
 0001:000572c0       ?dtor$1@?0??warning@ErrorHandlerWriter@@UEAAXAEBVString@@@Z@4HA 00000001800582c0 f    CIL library: CIL module
 0001:000572d0       ?dtor$12@?0??fatalError@ErrorHandlerWriter@@UEAAXAEBVString@@@Z@4HA 00000001800582d0 f    CIL library: CIL module
 0001:000572d0       ?dtor$12@?0??error@ErrorHandlerWriter@@UEAAXAEBVString@@@Z@4HA 00000001800582d0 f    CIL library: CIL module
 0001:000572d0       ?dtor$12@?0??warning@ErrorHandlerWriter@@UEAAXAEBVString@@@Z@4HA 00000001800582d0 f    CIL library: CIL module
 0001:000572e0       ?dtor$0@?0???_GTextLinesStore@@UEAAPEAXI@Z@4HA 00000001800582e0 f    CIL library: CIL module
 0001:000572e0       ?dtor$0@?0???1TextLinesStore@@UEAA@XZ@4HA 00000001800582e0 f    CIL library: CIL module
 0001:000572f0       ?dtor$1@?0???_GTextLinesStore@@UEAAPEAXI@Z@4HA 00000001800582f0 f    CIL library: CIL module
 0001:000572f0       ?dtor$1@?0???1TextLinesStore@@UEAA@XZ@4HA 00000001800582f0 f    CIL library: CIL module
 0001:00057300       ?dtor$0@?0???1ParserFactory@@UEAA@XZ@4HA 0000000180058300 f    CIL library: CIL module
 0001:00057310       ?dtor$1@?0???1ParserFactory@@UEAA@XZ@4HA 0000000180058310 f    CIL library: CIL module
 0001:00057320       ?dtor$2@?0???1ParserFactory@@UEAA@XZ@4HA 0000000180058320 f    CIL library: CIL module
 0001:00057330       ?dtor$3@?0???1ParserFactory@@UEAA@XZ@4HA 0000000180058330 f    CIL library: CIL module
 0001:00057340       ?dtor$5@?0???1ParserFactory@@UEAA@XZ@4HA 0000000180058340 f    CIL library: CIL module
 0001:00057350       ?dtor$0@?0??getParamDefValue@FarEditorSet@@AEAAPEBVString@@PEAVFileTypeImpl@@VSString@@@Z@4HA 0000000180058350 f    CIL library: CIL module
 0001:00057360       ?dtor$1@?0??getParamDefValue@FarEditorSet@@AEAAPEBVString@@PEAVFileTypeImpl@@VSString@@@Z@4HA 0000000180058360 f    CIL library: CIL module
 0001:00057370       ?dtor$4@?0??getParamDefValue@FarEditorSet@@AEAAPEBVString@@PEAVFileTypeImpl@@VSString@@@Z@4HA 0000000180058370 f    CIL library: CIL module
 0001:00057380       ?dtor$6@?0??getParamDefValue@FarEditorSet@@AEAAPEBVString@@PEAVFileTypeImpl@@VSString@@@Z@4HA 0000000180058380 f    CIL library: CIL module
 0001:00057390       ?dtor$5@?0??getParamDefValue@FarEditorSet@@AEAAPEBVString@@PEAVFileTypeImpl@@VSString@@@Z@4HA 0000000180058390 f    CIL library: CIL module
 0001:000573a0       ?dtor$2@?0??getParamDefValue@FarEditorSet@@AEAAPEBVString@@PEAVFileTypeImpl@@VSString@@@Z@4HA 00000001800583a0 f    CIL library: CIL module
 0001:000573b0       ?dtor$10@?0??getParamDefValue@FarEditorSet@@AEAAPEBVString@@PEAVFileTypeImpl@@VSString@@@Z@4HA 00000001800583b0 f    CIL library: CIL module
 0001:000573c0       ?dtor$11@?0??getParamDefValue@FarEditorSet@@AEAAPEBVString@@PEAVFileTypeImpl@@VSString@@@Z@4HA 00000001800583c0 f    CIL library: CIL module
 0001:000573d0       ?dtor$3@?0??getParamDefValue@FarEditorSet@@AEAAPEBVString@@PEAVFileTypeImpl@@VSString@@@Z@4HA 00000001800583d0 f    CIL library: CIL module
 0001:000573e0       ?dtor$14@?0??getParamDefValue@FarEditorSet@@AEAAPEBVString@@PEAVFileTypeImpl@@VSString@@@Z@4HA 00000001800583e0 f    CIL library: CIL module
 0001:000573f0       ?dtor$15@?0??getParamDefValue@FarEditorSet@@AEAAPEBVString@@PEAVFileTypeImpl@@VSString@@@Z@4HA 00000001800583f0 f    CIL library: CIL module
 0001:00057400       ?dtor$2@?0??getCurrentFileName@FarEditorSet@@AEAAPEAVString@@XZ@4HA 0000000180058400 f    CIL library: CIL module
 0001:00057410       ?dtor$0@?0??getCurrentFileName@FarEditorSet@@AEAAPEAVString@@XZ@4HA 0000000180058410 f    CIL library: CIL module
 0001:00057420       ?dtor$1@?0??getCurrentFileName@FarEditorSet@@AEAAPEAVString@@XZ@4HA 0000000180058420 f    CIL library: CIL module
 0001:00057430       ?dtor$8@?0??getCurrentFileName@FarEditorSet@@AEAAPEAVString@@XZ@4HA 0000000180058430 f    CIL library: CIL module
 0001:00057440       ?dtor$10@?0??getCurrentFileName@FarEditorSet@@AEAAPEAVString@@XZ@4HA 0000000180058440 f    CIL library: CIL module
 0001:00057450       ?dtor$9@?0??getCurrentFileName@FarEditorSet@@AEAAPEAVString@@XZ@4HA 0000000180058450 f    CIL library: CIL module
 0001:00057460       ?dtor$14@?0??getCurrentFileName@FarEditorSet@@AEAAPEAVString@@XZ@4HA 0000000180058460 f    CIL library: CIL module
 0001:00057470       ?dtor$0@?0???1FarEditorSet@@QEAA@XZ@4HA 0000000180058470 f    CIL library: CIL module
 0001:00057480       ?dtor$1@?0???1FarEditorSet@@QEAA@XZ@4HA 0000000180058480 f    CIL library: CIL module
 0001:00057490       ?dtor$2@?0???1FarEditorSet@@QEAA@XZ@4HA 0000000180058490 f    CIL library: CIL module
 0001:000574b0       ?dtor$3@?0???1FarEditorSet@@QEAA@XZ@4HA 00000001800584b0 f    CIL library: CIL module
 0001:000574c0       ?dtor$4@?0???1FarEditorSet@@QEAA@XZ@4HA 00000001800584c0 f    CIL library: CIL module
 0001:000574d0       ?dtor$0@?0??showOutliner@FarEditor@@AEAAXPEAVOutliner@@@Z@4HA 00000001800584d0 f    CIL library: CIL module
 0001:000574e0       ?dtor$6@?0??showOutliner@FarEditor@@AEAAXPEAVOutliner@@@Z@4HA 00000001800584e0 f    CIL library: CIL module
 0001:000574f0       ?dtor$8@?0??showOutliner@FarEditor@@AEAAXPEAVOutliner@@@Z@4HA 00000001800584f0 f    CIL library: CIL module
 0001:00057500       ?dtor$1@?0??showOutliner@FarEditor@@AEAAXPEAVOutliner@@@Z@4HA 0000000180058500 f    CIL library: CIL module
 0001:00057510       ?dtor$14@?0??showOutliner@FarEditor@@AEAAXPEAVOutliner@@@Z@4HA 0000000180058510 f    CIL library: CIL module
 0001:00057520       ?dtor$15@?0??showOutliner@FarEditor@@AEAAXPEAVOutliner@@@Z@4HA 0000000180058520 f    CIL library: CIL module
 0001:00057530       ?dtor$2@?0??showOutliner@FarEditor@@AEAAXPEAVOutliner@@@Z@4HA 0000000180058530 f    CIL library: CIL module
 0001:00057540       ?dtor$21@?0??showOutliner@FarEditor@@AEAAXPEAVOutliner@@@Z@4HA 0000000180058540 f    CIL library: CIL module
 0001:00057550       ?dtor$3@?0??showOutliner@FarEditor@@AEAAXPEAVOutliner@@@Z@4HA 0000000180058550 f    CIL library: CIL module
 0001:00057560       ?dtor$27@?0??showOutliner@FarEditor@@AEAAXPEAVOutliner@@@Z@4HA 0000000180058560 f    CIL library: CIL module
 0001:00057570       ?dtor$28@?0??showOutliner@FarEditor@@AEAAXPEAVOutliner@@@Z@4HA 0000000180058570 f    CIL library: CIL module
 0001:00057580       ?dtor$29@?0??showOutliner@FarEditor@@AEAAXPEAVOutliner@@@Z@4HA 0000000180058580 f    CIL library: CIL module
 0001:00057590       ?dtor$4@?0??showOutliner@FarEditor@@AEAAXPEAVOutliner@@@Z@4HA 0000000180058590 f    CIL library: CIL module
 0001:000575a0       ?dtor$35@?0??showOutliner@FarEditor@@AEAAXPEAVOutliner@@@Z@4HA 00000001800585a0 f    CIL library: CIL module
 0001:000575b0       ?dtor$5@?0??showOutliner@FarEditor@@AEAAXPEAVOutliner@@@Z@4HA 00000001800585b0 f    CIL library: CIL module
 0001:000575c0       ?dtor$41@?0??showOutliner@FarEditor@@AEAAXPEAVOutliner@@@Z@4HA 00000001800585c0 f    CIL library: CIL module
 0001:000575d0       ?dtor$42@?0??showOutliner@FarEditor@@AEAAXPEAVOutliner@@@Z@4HA 00000001800585d0 f    CIL library: CIL module
 0001:000575e0       ?dtor$0@?0??getLine@FarEditor@@UEAAPEAVString@@H@Z@4HA 00000001800585e0 f    CIL library: CIL module
 0001:000575e0       ?dtor$1@?0??setSize@?$Vector@PEAVOutlineItem@@@@QEAAXH@Z@4HA 00000001800585e0 f    CIL library: CIL module
 0001:000575e0       ?dtor$1@?0??setSize@?$Vector@PEBVRegionDefine@@@@QEAAXH@Z@4HA 00000001800585e0 f    CIL library: CIL module
 0001:000575e0       ?dtor$1@?0??setSize@?$Vector@PEAVLineRegion@@@@QEAAXH@Z@4HA 00000001800585e0 f    CIL library: CIL module
 0001:000575f0       ?dtor$1@?0??AddItemInGroup@ChooseTypeMenu@@QEAAHPEAVFileType@@@Z@4HA 00000001800585f0 f    CIL library: CIL module
 0001:00057600       ?dtor$0@?0??AddItemInGroup@ChooseTypeMenu@@QEAAHPEAVFileType@@@Z@4HA 0000000180058600 f    CIL library: CIL module
 0001:00057630       ?dtor$7@?0??AddItemInGroup@ChooseTypeMenu@@QEAAHPEAVFileType@@@Z@4HA 0000000180058630 f    CIL library: CIL module
 0001:00057640       ?dtor$3@?0???0ChooseTypeMenu@@QEAA@PEB_W0@Z@4HA 0000000180058640 f    CIL library: CIL module
 0001:00057650       ?dtor$0@?0???0ChooseTypeMenu@@QEAA@PEB_W0@Z@4HA 0000000180058650 f    CIL library: CIL module
 0001:00057660       ?dtor$4@?0???0ChooseTypeMenu@@QEAA@PEB_W0@Z@4HA 0000000180058660 f    CIL library: CIL module
 0001:00057670       ?dtor$1@?0???0ChooseTypeMenu@@QEAA@PEB_W0@Z@4HA 0000000180058670 f    CIL library: CIL module
 0001:00057680       ?dtor$10@?0???0ChooseTypeMenu@@QEAA@PEB_W0@Z@4HA 0000000180058680 f    CIL library: CIL module
 0001:00057690       ?dtor$2@?0???0ChooseTypeMenu@@QEAA@PEB_W0@Z@4HA 0000000180058690 f    CIL library: CIL module
 0001:000576a0       ?dtor$13@?0???0ChooseTypeMenu@@QEAA@PEB_W0@Z@4HA 00000001800586a0 f    CIL library: CIL module
 0001:000576b0       ?dtor$14@?0???0ChooseTypeMenu@@QEAA@PEB_W0@Z@4HA 00000001800586b0 f    CIL library: CIL module
 0001:000576c0       ?dtor$16@?0???0ChooseTypeMenu@@QEAA@PEB_W0@Z@4HA 00000001800586c0 f    CIL library: CIL module
 0001:000576d0       ?dtor$0@?0??lowParse@CRegExp@@AEAA_NPEAVSRegInfo@@0H@Z@4HA 00000001800586d0 f    CIL library: CIL module
 0001:000576e0       ?dtor$1@?0??lowParse@CRegExp@@AEAA_NPEAVSRegInfo@@0H@Z@4HA 00000001800586e0 f    CIL library: CIL module
 0001:000576f0       ?dtor$0@?0??consume@DocumentBuilder@@AEAAXPEADH@Z@4HA 00000001800586f0 f    CIL library: CIL module
 0001:00057700       ?dtor$2@?0??consume@DocumentBuilder@@AEAAXPEADH@Z@4HA 0000000180058700 f    CIL library: CIL module
 0001:00057710       ?dtor$3@?0??consume@DocumentBuilder@@AEAAXPEADH@Z@4HA 0000000180058710 f    CIL library: CIL module
 0001:00057720       ?dtor$1@?0??consume@DocumentBuilder@@AEAAXPEADH@Z@4HA 0000000180058720 f    CIL library: CIL module
 0001:00057730       ?dtor$0@?0??consume@DocumentBuilder@@AEAAXAEAVString@@@Z@4HA 0000000180058730 f    CIL library: CIL module
 0001:00057740       ?dtor$2@?0??consume@DocumentBuilder@@AEAAXAEAVString@@@Z@4HA 0000000180058740 f    CIL library: CIL module
 0001:00057750       ?dtor$3@?0??consume@DocumentBuilder@@AEAAXAEAVString@@@Z@4HA 0000000180058750 f    CIL library: CIL module
 0001:00057760       ?dtor$1@?0??consume@DocumentBuilder@@AEAAXAEAVString@@@Z@4HA 0000000180058760 f    CIL library: CIL module
 0001:00057770       ?dtor$0@?0??consumeNCName@DocumentBuilder@@AEAAPEAVString@@XZ@4HA 0000000180058770 f    CIL library: CIL module
 0001:00057770       ?dtor$0@?0??consumeName@DocumentBuilder@@AEAAPEAVString@@XZ@4HA 0000000180058770 f    CIL library: CIL module
 0001:00057780       ?dtor$2@?0??consumeName@DocumentBuilder@@AEAAPEAVString@@XZ@4HA 0000000180058780 f    CIL library: CIL module
 0001:00057780       ?dtor$2@?0??consumeNCName@DocumentBuilder@@AEAAPEAVString@@XZ@4HA 0000000180058780 f    CIL library: CIL module
 0001:00057790       ?dtor$3@?0??consumeName@DocumentBuilder@@AEAAPEAVString@@XZ@4HA 0000000180058790 f    CIL library: CIL module
 0001:00057790       ?dtor$3@?0??consumeNCName@DocumentBuilder@@AEAAPEAVString@@XZ@4HA 0000000180058790 f    CIL library: CIL module
 0001:000577a0       ?dtor$1@?0??consumeNCName@DocumentBuilder@@AEAAPEAVString@@XZ@4HA 00000001800587a0 f    CIL library: CIL module
 0001:000577a0       ?dtor$1@?0??consumeName@DocumentBuilder@@AEAAPEAVString@@XZ@4HA 00000001800587a0 f    CIL library: CIL module
 0001:000577b0       ?dtor$7@?0??consumeNCName@DocumentBuilder@@AEAAPEAVString@@XZ@4HA 00000001800587b0 f    CIL library: CIL module
 0001:000577b0       ?dtor$7@?0??consumeName@DocumentBuilder@@AEAAPEAVString@@XZ@4HA 00000001800587b0 f    CIL library: CIL module
 0001:000577c0       ?dtor$6@?0??consumeNCName@DocumentBuilder@@AEAAPEAVString@@XZ@4HA 00000001800587c0 f    CIL library: CIL module
 0001:000577c0       ?dtor$6@?0??consumeName@DocumentBuilder@@AEAAPEAVString@@XZ@4HA 00000001800587c0 f    CIL library: CIL module
 0001:000577d0       ?dtor$1@?0??consumeSpaces@DocumentBuilder@@AEAAXH@Z@4HA 00000001800587d0 f    CIL library: CIL module
 0001:000577e0       ?dtor$0@?0??consumeSpaces@DocumentBuilder@@AEAAXH@Z@4HA 00000001800587e0 f    CIL library: CIL module
 0001:000577f0       ?dtor$5@?0??consumeSpaces@DocumentBuilder@@AEAAXH@Z@4HA 00000001800587f0 f    CIL library: CIL module
 0001:00057800       ?dtor$4@?0??consumeSpaces@DocumentBuilder@@AEAAXH@Z@4HA 0000000180058800 f    CIL library: CIL module
 0001:00057810       ?dtor$0@?0??consumeEntityRef@DocumentBuilder@@AEAAPEAVString@@_N@Z@4HA 0000000180058810 f    CIL library: CIL module
 0001:00057820       ?dtor$5@?0??consumeEntityRef@DocumentBuilder@@AEAAPEAVString@@_N@Z@4HA 0000000180058820 f    CIL library: CIL module
 0001:00057830       ?dtor$6@?0??consumeEntityRef@DocumentBuilder@@AEAAPEAVString@@_N@Z@4HA 0000000180058830 f    CIL library: CIL module
 0001:00057840       ?dtor$1@?0??consumeEntityRef@DocumentBuilder@@AEAAPEAVString@@_N@Z@4HA 0000000180058840 f    CIL library: CIL module
 0001:00057850       ?dtor$10@?0??consumeEntityRef@DocumentBuilder@@AEAAPEAVString@@_N@Z@4HA 0000000180058850 f    CIL library: CIL module
 0001:00057860       ?dtor$9@?0??consumeEntityRef@DocumentBuilder@@AEAAPEAVString@@_N@Z@4HA 0000000180058860 f    CIL library: CIL module
 0001:00057870       ?dtor$2@?0??consumeEntityRef@DocumentBuilder@@AEAAPEAVString@@_N@Z@4HA 0000000180058870 f    CIL library: CIL module
 0001:00057880       ?dtor$13@?0??consumeEntityRef@DocumentBuilder@@AEAAPEAVString@@_N@Z@4HA 0000000180058880 f    CIL library: CIL module
 0001:00057890       ?dtor$15@?0??consumeEntityRef@DocumentBuilder@@AEAAPEAVString@@_N@Z@4HA 0000000180058890 f    CIL library: CIL module
 0001:000578a0       ?dtor$14@?0??consumeEntityRef@DocumentBuilder@@AEAAPEAVString@@_N@Z@4HA 00000001800588a0 f    CIL library: CIL module
 0001:000578b0       ?dtor$3@?0??consumeEntityRef@DocumentBuilder@@AEAAPEAVString@@_N@Z@4HA 00000001800588b0 f    CIL library: CIL module
 0001:000578c0       ?dtor$4@?0??consumeEntityRef@DocumentBuilder@@AEAAPEAVString@@_N@Z@4HA 00000001800588c0 f    CIL library: CIL module
 0001:000578f0       ?dtor$19@?0??consumeEntityRef@DocumentBuilder@@AEAAPEAVString@@_N@Z@4HA 00000001800588f0 f    CIL library: CIL module
 0001:00057900       ?dtor$21@?0??consumeEntityRef@DocumentBuilder@@AEAAPEAVString@@_N@Z@4HA 0000000180058900 f    CIL library: CIL module
 0001:00057910       ?dtor$20@?0??consumeEntityRef@DocumentBuilder@@AEAAPEAVString@@_N@Z@4HA 0000000180058910 f    CIL library: CIL module
 0001:00057920       ?dtor$25@?0??consumeEntityRef@DocumentBuilder@@AEAAPEAVString@@_N@Z@4HA 0000000180058920 f    CIL library: CIL module
 0001:00057930       ?dtor$3@?0??consumeCharRef@DocumentBuilder@@AEAA_WXZ@4HA 0000000180058930 f    CIL library: CIL module
 0001:00057940       ?dtor$0@?0??consumeCharRef@DocumentBuilder@@AEAA_WXZ@4HA 0000000180058940 f    CIL library: CIL module
 0001:00057950       ?dtor$7@?0??consumeCharRef@DocumentBuilder@@AEAA_WXZ@4HA 0000000180058950 f    CIL library: CIL module
 0001:00057960       ?dtor$6@?0??consumeCharRef@DocumentBuilder@@AEAA_WXZ@4HA 0000000180058960 f    CIL library: CIL module
 0001:00057970       ?dtor$1@?0??consumeCharRef@DocumentBuilder@@AEAA_WXZ@4HA 0000000180058970 f    CIL library: CIL module
 0001:00057980       ?dtor$9@?0??consumeCharRef@DocumentBuilder@@AEAA_WXZ@4HA 0000000180058980 f    CIL library: CIL module
 0001:00057990       ?dtor$2@?0??consumeCharRef@DocumentBuilder@@AEAA_WXZ@4HA 0000000180058990 f    CIL library: CIL module
 0001:000579a0       ?dtor$13@?0??consumeCharRef@DocumentBuilder@@AEAA_WXZ@4HA 00000001800589a0 f    CIL library: CIL module
 0001:000579b0       ?dtor$12@?0??consumeCharRef@DocumentBuilder@@AEAA_WXZ@4HA 00000001800589b0 f    CIL library: CIL module
 0001:000579c0       ?dtor$0@?0??consumeText@DocumentBuilder@@AEAAXPEAVNode@@@Z@4HA 00000001800589c0 f    CIL library: CIL module
 0001:000579d0       ?dtor$1@?0??consumeText@DocumentBuilder@@AEAAXPEAVNode@@@Z@4HA 00000001800589d0 f    CIL library: CIL module
 0001:000579e0       ?dtor$0@?0???1Element@@MEAA@XZ@4HA 00000001800589e0 f    CIL library: CIL module
 0001:000579f0       ?dtor$1@?0???1Element@@MEAA@XZ@4HA 00000001800589f0 f    CIL library: CIL module
 0001:00057a00       ?dtor$2@?0???1Element@@MEAA@XZ@4HA 0000000180058a00 f    CIL library: CIL module
 0001:00057a10       ?dtor$3@?0???1Element@@MEAA@XZ@4HA 0000000180058a10 f    CIL library: CIL module
 0001:00057a20       ?dtor$0@?0???0JARInputSource@@QEAA@PEBVString@@PEAVInputSource@@@Z@4HA 0000000180058a20 f    CIL library: CIL module
 0001:00057a30       ?dtor$1@?0???0JARInputSource@@QEAA@PEBVString@@PEAVInputSource@@@Z@4HA 0000000180058a30 f    CIL library: CIL module
 0001:00057a40       ?dtor$2@?0???0JARInputSource@@QEAA@PEBVString@@PEAVInputSource@@@Z@4HA 0000000180058a40 f    CIL library: CIL module
 0001:00057a50       ?dtor$3@?0???0JARInputSource@@QEAA@PEBVString@@PEAVInputSource@@@Z@4HA 0000000180058a50 f    CIL library: CIL module
 0001:00057a60       ?dtor$12@?0???0JARInputSource@@QEAA@PEBVString@@PEAVInputSource@@@Z@4HA 0000000180058a60 f    CIL library: CIL module
 0001:00057a70       ?dtor$14@?0???0JARInputSource@@QEAA@PEBVString@@PEAVInputSource@@@Z@4HA 0000000180058a70 f    CIL library: CIL module
 0001:00057a80       ?dtor$13@?0???0JARInputSource@@QEAA@PEBVString@@PEAVInputSource@@@Z@4HA 0000000180058a80 f    CIL library: CIL module
 0001:00057a90       ?dtor$18@?0???0JARInputSource@@QEAA@PEBVString@@PEAVInputSource@@@Z@4HA 0000000180058a90 f    CIL library: CIL module
 0001:00057aa0       ?dtor$20@?0???0JARInputSource@@QEAA@PEBVString@@PEAVInputSource@@@Z@4HA 0000000180058aa0 f    CIL library: CIL module
 0001:00057ab0       ?dtor$19@?0???0JARInputSource@@QEAA@PEBVString@@PEAVInputSource@@@Z@4HA 0000000180058ab0 f    CIL library: CIL module
 0001:00057ac0       ?dtor$4@?0???0JARInputSource@@QEAA@PEBVString@@PEAVInputSource@@@Z@4HA 0000000180058ac0 f    CIL library: CIL module
 0001:00057ad0       ?dtor$24@?0???0JARInputSource@@QEAA@PEBVString@@PEAVInputSource@@@Z@4HA 0000000180058ad0 f    CIL library: CIL module
 0001:00057ae0       ?dtor$5@?0???0JARInputSource@@QEAA@PEBVString@@PEAVInputSource@@@Z@4HA 0000000180058ae0 f    CIL library: CIL module
 0001:00057af0       ?dtor$25@?0???0JARInputSource@@QEAA@PEBVString@@PEAVInputSource@@@Z@4HA 0000000180058af0 f    CIL library: CIL module
 0001:00057b00       ?dtor$6@?0???0JARInputSource@@QEAA@PEBVString@@PEAVInputSource@@@Z@4HA 0000000180058b00 f    CIL library: CIL module
 0001:00057b10       ?dtor$28@?0???0JARInputSource@@QEAA@PEBVString@@PEAVInputSource@@@Z@4HA 0000000180058b10 f    CIL library: CIL module
 0001:00057b20       ?dtor$7@?0???0JARInputSource@@QEAA@PEBVString@@PEAVInputSource@@@Z@4HA 0000000180058b20 f    CIL library: CIL module
 0001:00057b30       ?dtor$29@?0???0JARInputSource@@QEAA@PEBVString@@PEAVInputSource@@@Z@4HA 0000000180058b30 f    CIL library: CIL module
 0001:00057b40       ?dtor$31@?0???0JARInputSource@@QEAA@PEBVString@@PEAVInputSource@@@Z@4HA 0000000180058b40 f    CIL library: CIL module
 0001:00057b50       ?dtor$30@?0???0JARInputSource@@QEAA@PEBVString@@PEAVInputSource@@@Z@4HA 0000000180058b50 f    CIL library: CIL module
 0001:00057b60       ?dtor$36@?0???0JARInputSource@@QEAA@PEBVString@@PEAVInputSource@@@Z@4HA 0000000180058b60 f    CIL library: CIL module
 0001:00057b70       ?dtor$0@?0??getAbsolutePath@InputSource@@SAPEAVString@@PEBV2@0@Z@4HA 0000000180058b70 f    CIL library: CIL module
 0001:00057b80       ?dtor$2@?0??getAbsolutePath@InputSource@@SAPEAVString@@PEBV2@0@Z@4HA 0000000180058b80 f    CIL library: CIL module
 0001:00057b90       ?dtor$4@?0??getAbsolutePath@InputSource@@SAPEAVString@@PEBV2@0@Z@4HA 0000000180058b90 f    CIL library: CIL module
 0001:00057ba0       ?dtor$3@?0??getAbsolutePath@InputSource@@SAPEAVString@@PEBV2@0@Z@4HA 0000000180058ba0 f    CIL library: CIL module
 0001:00057bb0       ?dtor$1@?0??getAbsolutePath@InputSource@@SAPEAVString@@PEBV2@0@Z@4HA 0000000180058bb0 f    CIL library: CIL module
 0001:00057bc0       ?dtor$8@?0??getAbsolutePath@InputSource@@SAPEAVString@@PEBV2@0@Z@4HA 0000000180058bc0 f    CIL library: CIL module
 0001:00057bd0       ?dtor$0@?0??openStream@HTTPInputSource@@UEAAPEBEXZ@4HA 0000000180058bd0 f    CIL library: CIL module
 0001:00057be0       ?dtor$1@?0??openStream@HTTPInputSource@@UEAAPEBEXZ@4HA 0000000180058be0 f    CIL library: CIL module
 0001:00057bf0       ?dtor$2@?0??openStream@HTTPInputSource@@UEAAPEBEXZ@4HA 0000000180058bf0 f    CIL library: CIL module
 0001:00057c00       ?dtor$3@?0??openStream@HTTPInputSource@@UEAAPEBEXZ@4HA 0000000180058c00 f    CIL library: CIL module
 0001:00057c10       ?dtor$4@?0??openStream@HTTPInputSource@@UEAAPEBEXZ@4HA 0000000180058c10 f    CIL library: CIL module
 0001:00057c20       ?dtor$5@?0??openStream@HTTPInputSource@@UEAAPEBEXZ@4HA 0000000180058c20 f    CIL library: CIL module
 0001:00057c30       ?dtor$14@?0??openStream@HTTPInputSource@@UEAAPEBEXZ@4HA 0000000180058c30 f    CIL library: CIL module
 0001:00057c40       ?dtor$16@?0??openStream@HTTPInputSource@@UEAAPEBEXZ@4HA 0000000180058c40 f    CIL library: CIL module
 0001:00057c50       ?dtor$18@?0??openStream@HTTPInputSource@@UEAAPEBEXZ@4HA 0000000180058c50 f    CIL library: CIL module
 0001:00057c60       ?dtor$0@?0???0HTTPInputSource@@QEAA@PEBVString@@PEAV0@@Z@4HA 0000000180058c60 f    CIL library: CIL module
 0001:00057c70       ?dtor$1@?0???0HTTPInputSource@@QEAA@PEBVString@@PEAV0@@Z@4HA 0000000180058c70 f    CIL library: CIL module
 0001:00057c80       ?dtor$2@?0???0HTTPInputSource@@QEAA@PEBVString@@PEAV0@@Z@4HA 0000000180058c80 f    CIL library: CIL module
 0001:00057c90       ?dtor$4@?0???0HTTPInputSource@@QEAA@PEBVString@@PEAV0@@Z@4HA 0000000180058c90 f    CIL library: CIL module
 0001:00057ca0       ?dtor$3@?0???0HTTPInputSource@@QEAA@PEBVString@@PEAV0@@Z@4HA 0000000180058ca0 f    CIL library: CIL module
 0001:00057cb0       ?dtor$0@?0???0FileInputSource@@QEAA@PEBVString@@PEAV0@@Z@4HA 0000000180058cb0 f    CIL library: CIL module
 0001:00057cc0       ?dtor$11@?0???0FileInputSource@@QEAA@PEBVString@@PEAV0@@Z@4HA 0000000180058cc0 f    CIL library: CIL module
 0001:00057cd0       ?dtor$1@?0???0FileInputSource@@QEAA@PEBVString@@PEAV0@@Z@4HA 0000000180058cd0 f    CIL library: CIL module
 0001:00057ce0       ?dtor$14@?0???0FileInputSource@@QEAA@PEBVString@@PEAV0@@Z@4HA 0000000180058ce0 f    CIL library: CIL module
 0001:00057cf0       ?dtor$2@?0???0FileInputSource@@QEAA@PEBVString@@PEAV0@@Z@4HA 0000000180058cf0 f    CIL library: CIL module
 0001:00057d00       ?dtor$15@?0???0FileInputSource@@QEAA@PEBVString@@PEAV0@@Z@4HA 0000000180058d00 f    CIL library: CIL module
 0001:00057d10       ?dtor$17@?0???0FileInputSource@@QEAA@PEBVString@@PEAV0@@Z@4HA 0000000180058d10 f    CIL library: CIL module
 0001:00057d20       ?dtor$16@?0???0FileInputSource@@QEAA@PEBVString@@PEAV0@@Z@4HA 0000000180058d20 f    CIL library: CIL module
 0001:00057d30       ?dtor$21@?0???0FileInputSource@@QEAA@PEBVString@@PEAV0@@Z@4HA 0000000180058d30 f    CIL library: CIL module
 0001:00057d40       ?dtor$3@?0???0FileInputSource@@QEAA@PEBVString@@PEAV0@@Z@4HA 0000000180058d40 f    CIL library: CIL module
 0001:00057d50       ?dtor$24@?0???0FileInputSource@@QEAA@PEBVString@@PEAV0@@Z@4HA 0000000180058d50 f    CIL library: CIL module
 0001:00057d60       ?dtor$4@?0???0FileInputSource@@QEAA@PEBVString@@PEAV0@@Z@4HA 0000000180058d60 f    CIL library: CIL module
 0001:00057d70       ?dtor$25@?0???0FileInputSource@@QEAA@PEBVString@@PEAV0@@Z@4HA 0000000180058d70 f    CIL library: CIL module
 0001:00057d80       ?dtor$27@?0???0FileInputSource@@QEAA@PEBVString@@PEAV0@@Z@4HA 0000000180058d80 f    CIL library: CIL module
 0001:00057d90       ?dtor$26@?0???0FileInputSource@@QEAA@PEBVString@@PEAV0@@Z@4HA 0000000180058d90 f    CIL library: CIL module
 0001:00057da0       ?dtor$31@?0???0FileInputSource@@QEAA@PEBVString@@PEAV0@@Z@4HA 0000000180058da0 f    CIL library: CIL module
 0001:00057db0       ?dtor$5@?0???0FileInputSource@@QEAA@PEBVString@@PEAV0@@Z@4HA 0000000180058db0 f    CIL library: CIL module
 0001:00057dc0       ?dtor$34@?0???0FileInputSource@@QEAA@PEBVString@@PEAV0@@Z@4HA 0000000180058dc0 f    CIL library: CIL module
 0001:00057dd0       ?dtor$6@?0???0FileInputSource@@QEAA@PEBVString@@PEAV0@@Z@4HA 0000000180058dd0 f    CIL library: CIL module
 0001:00057de0       ?dtor$35@?0???0FileInputSource@@QEAA@PEBVString@@PEAV0@@Z@4HA 0000000180058de0 f    CIL library: CIL module
 0001:00057df0       ?dtor$37@?0???0FileInputSource@@QEAA@PEBVString@@PEAV0@@Z@4HA 0000000180058df0 f    CIL library: CIL module
 0001:00057e00       ?dtor$36@?0???0FileInputSource@@QEAA@PEBVString@@PEAV0@@Z@4HA 0000000180058e00 f    CIL library: CIL module
 0001:00057e10       ?dtor$7@?0???0FileInputSource@@QEAA@PEBVString@@PEAV0@@Z@4HA 0000000180058e10 f    CIL library: CIL module
 0001:00057e20       ?dtor$41@?0???0FileInputSource@@QEAA@PEBVString@@PEAV0@@Z@4HA 0000000180058e20 f    CIL library: CIL module
 0001:00057e30       ?dtor$43@?0???0FileInputSource@@QEAA@PEBVString@@PEAV0@@Z@4HA 0000000180058e30 f    CIL library: CIL module
 0001:00057e40       ?dtor$42@?0???0FileInputSource@@QEAA@PEBVString@@PEAV0@@Z@4HA 0000000180058e40 f    CIL library: CIL module
 0001:00057e50       ?dtor$47@?0???0FileInputSource@@QEAA@PEBVString@@PEAV0@@Z@4HA 0000000180058e50 f    CIL library: CIL module
 0001:00057e60       ?dtor$8@?0???0FileInputSource@@QEAA@PEBVString@@PEAV0@@Z@4HA 0000000180058e60 f    CIL library: CIL module
 0001:00057e90       ?dtor$50@?0???0FileInputSource@@QEAA@PEBVString@@PEAV0@@Z@4HA 0000000180058e90 f    CIL library: CIL module
 0001:00057ea0       ?dtor$9@?0???0FileInputSource@@QEAA@PEBVString@@PEAV0@@Z@4HA 0000000180058ea0 f    CIL library: CIL module
 0001:00057eb0       ?dtor$51@?0???0FileInputSource@@QEAA@PEBVString@@PEAV0@@Z@4HA 0000000180058eb0 f    CIL library: CIL module
 0001:00057ec0       ?dtor$10@?0???0FileInputSource@@QEAA@PEBVString@@PEAV0@@Z@4HA 0000000180058ec0 f    CIL library: CIL module
 0001:00057ed0       ?dtor$54@?0???0FileInputSource@@QEAA@PEBVString@@PEAV0@@Z@4HA 0000000180058ed0 f    CIL library: CIL module
 0001:00057ee0       ?dtor$0@?0??replace@String@@QEBAPEAV1@AEBV1@0@Z@4HA 0000000180058ee0 f    CIL library: CIL module
 0001:00057ef0       ?dtor$1@?0??replace@String@@QEBAPEAV1@AEBV1@0@Z@4HA 0000000180058ef0 f    CIL library: CIL module
 0001:00057f00       ?dtor$3@?0??replace@String@@QEBAPEAV1@AEBV1@0@Z@4HA 0000000180058f00 f    CIL library: CIL module
 0001:00057f10       ?dtor$2@?0??replace@String@@QEBAPEAV1@AEBV1@0@Z@4HA 0000000180058f10 f    CIL library: CIL module
 0001:00057f20       ?dtor$4@?0??replace@String@@QEBAPEAV1@AEBV1@0@Z@4HA 0000000180058f20 f    CIL library: CIL module
 0001:00057f30       ?dtor$0@?0???1SchemeNode@@QEAA@XZ@4HA 0000000180058f30 f    CIL library: CIL module
 0001:00057f40       ?dtor$1@?0???1SchemeNode@@QEAA@XZ@4HA 0000000180058f40 f    CIL library: CIL module
 0001:00057f50       ?dtor$1@?0???HStringBuffer@@QEAAAEAV0@PEBD@Z@4HA 0000000180058f50 f    CIL library: CIL module
 0001:00057f50       ?dtor$1@?0??equals@String@@QEBA_NPEBD@Z@4HA 0000000180058f50 f    CIL library: CIL module
 0001:00057f50       ?dtor$1@?0??append@StringBuffer@@QEAAAEAV1@PEBVString@@@Z@4HA 0000000180058f50 f    CIL library: CIL module
 0001:00057f50       ?dtor$1@?0??getNCRegion@HRCParserImpl@@IEAAPEBVRegion@@PEBVString@@_N@Z@4HA 0000000180058f50 f    CIL library: CIL module
 0001:00057f50       ?dtor$1@?0??addCategory@CharacterClass@@QEAAXPEBD@Z@4HA 0000000180058f50 f    CIL library: CIL module
 0001:00057f50       ?dtor$1@?0???9String@@QEBA_NPEBD@Z@4HA 0000000180058f50 f    CIL library: CIL module
 0001:00057f50       ?dtor$1@?0??clearCategory@CharacterClass@@QEAAXPEBD@Z@4HA 0000000180058f50 f    CIL library: CIL module
 0001:00057f50       ?dtor$1@?0???8String@@QEBA_NPEBD@Z@4HA 0000000180058f50 f    CIL library: CIL module
 0001:00057f60       ?dtor$0@?0???HStringBuffer@@QEAAAEAV0@PEBD@Z@4HA 0000000180058f60 f    CIL library: CIL module
 0001:00057f60       ?dtor$0@?0???8String@@QEBA_NPEBD@Z@4HA 0000000180058f60 f    CIL library: CIL module
 0001:00057f60       ?dtor$0@?0??append@StringBuffer@@QEAAAEAV1@PEBVString@@@Z@4HA 0000000180058f60 f    CIL library: CIL module
 0001:00057f60       ?dtor$0@?0???9String@@QEBA_NPEBD@Z@4HA 0000000180058f60 f    CIL library: CIL module
 0001:00057f60       ?dtor$0@?0??clearCategory@CharacterClass@@QEAAXPEBD@Z@4HA 0000000180058f60 f    CIL library: CIL module
 0001:00057f60       ?dtor$0@?0??equals@String@@QEBA_NPEBD@Z@4HA 0000000180058f60 f    CIL library: CIL module
 0001:00057f60       ?dtor$0@?0??addCategory@CharacterClass@@QEAAXPEBD@Z@4HA 0000000180058f60 f    CIL library: CIL module
 0001:00057f60       ?dtor$0@?0??getNCRegion@HRCParserImpl@@IEAAPEBVRegion@@PEBVString@@_N@Z@4HA 0000000180058f60 f    CIL library: CIL module
 0001:00057f70       ?dtor$4@?0??clearCategory@CharacterClass@@QEAAXPEBD@Z@4HA 0000000180058f70 f    CIL library: CIL module
 0001:00057f70       ?dtor$7@?0??append@StringBuffer@@QEAAAEAV1@PEBVString@@@Z@4HA 0000000180058f70 f    CIL library: CIL module
 0001:00057f70       ?dtor$7@?0???8String@@QEBA_NPEBD@Z@4HA 0000000180058f70 f    CIL library: CIL module
 0001:00057f70       ?dtor$7@?0???HStringBuffer@@QEAAAEAV0@PEBD@Z@4HA 0000000180058f70 f    CIL library: CIL module
 0001:00057f70       ?dtor$4@?0??addCategory@CharacterClass@@QEAAXPEBD@Z@4HA 0000000180058f70 f    CIL library: CIL module
 0001:00057f70       ?dtor$7@?0??equals@String@@QEBA_NPEBD@Z@4HA 0000000180058f70 f    CIL library: CIL module
 0001:00057f70       ?dtor$4@?0??getNCRegion@HRCParserImpl@@IEAAPEBVRegion@@PEBVString@@_N@Z@4HA 0000000180058f70 f    CIL library: CIL module
 0001:00057f70       ?dtor$7@?0???9String@@QEBA_NPEBD@Z@4HA 0000000180058f70 f    CIL library: CIL module
 0001:00057f80       ?dtor$0@?0??useEntities@HRCParserImpl@@IEAAPEAVString@@PEBV2@@Z@4HA 0000000180058f80 f    CIL library: CIL module
 0001:00057f90       ?dtor$1@?0??useEntities@HRCParserImpl@@IEAAPEAVString@@PEBV2@@Z@4HA 0000000180058f90 f    CIL library: CIL module
 0001:00057fa0       ?dtor$4@?0??useEntities@HRCParserImpl@@IEAAPEAVString@@PEBV2@@Z@4HA 0000000180058fa0 f    CIL library: CIL module
 0001:00057fb0       ?dtor$2@?0??useEntities@HRCParserImpl@@IEAAPEAVString@@PEBV2@@Z@4HA 0000000180058fb0 f    CIL library: CIL module
 0001:00057fc0       ?dtor$5@?0??useEntities@HRCParserImpl@@IEAAPEAVString@@PEBV2@@Z@4HA 0000000180058fc0 f    CIL library: CIL module
 0001:00057fd0       ?dtor$6@?0??useEntities@HRCParserImpl@@IEAAPEAVString@@PEBV2@@Z@4HA 0000000180058fd0 f    CIL library: CIL module
 0001:00057fe0       ?dtor$3@?0??useEntities@HRCParserImpl@@IEAAPEAVString@@PEBV2@@Z@4HA 0000000180058fe0 f    CIL library: CIL module
 0001:00057ff0       ?dtor$7@?0??useEntities@HRCParserImpl@@IEAAPEAVString@@PEBV2@@Z@4HA 0000000180058ff0 f    CIL library: CIL module
 0001:00058000       ?dtor$0@?0???1HRCParserImpl@@UEAA@XZ@4HA 0000000180059000 f    CIL library: CIL module
 0001:00058010       ?dtor$1@?0???1HRCParserImpl@@UEAA@XZ@4HA 0000000180059010 f    CIL library: CIL module
 0001:00058020       ?dtor$2@?0???1HRCParserImpl@@UEAA@XZ@4HA 0000000180059020 f    CIL library: CIL module
 0001:00058030       ?dtor$3@?0???1HRCParserImpl@@UEAA@XZ@4HA 0000000180059030 f    CIL library: CIL module
 0001:00058040       ?dtor$4@?0???1HRCParserImpl@@UEAA@XZ@4HA 0000000180059040 f    CIL library: CIL module
 0001:00058060       ?dtor$5@?0???1HRCParserImpl@@UEAA@XZ@4HA 0000000180059060 f    CIL library: CIL module
 0001:00058080       ?dtor$6@?0???1HRCParserImpl@@UEAA@XZ@4HA 0000000180059080 f    CIL library: CIL module
 0001:000580a0       ?dtor$7@?0???1HRCParserImpl@@UEAA@XZ@4HA 00000001800590a0 f    CIL library: CIL module
 0001:000580c0       ?dtor$8@?0???1HRCParserImpl@@UEAA@XZ@4HA 00000001800590c0 f    CIL library: CIL module
 0001:000580e0       ?dtor$9@?0???1HRCParserImpl@@UEAA@XZ@4HA 00000001800590e0 f    CIL library: CIL module
 0001:000580f0       ?dtor$0@?0???1SchemeImpl@@MEAA@XZ@4HA 00000001800590f0 f    CIL library: CIL module
 0001:00058100       ?dtor$1@?0???1SchemeImpl@@MEAA@XZ@4HA 0000000180059100 f    CIL library: CIL module
 0001:00058110       ?dtor$2@?0???1SchemeImpl@@MEAA@XZ@4HA 0000000180059110 f    CIL library: CIL module
 0001:00058120       ?dtor$0@?0??remapLRS@BaseEditor@@AEAAX_N@Z@4HA 0000000180059120 f    CIL library: CIL module
 0001:00058130       ?dtor$1@?0??remapLRS@BaseEditor@@AEAAX_N@Z@4HA 0000000180059130 f    CIL library: CIL module
 0001:00058140       ?dtor$6@?0??remapLRS@BaseEditor@@AEAAX_N@Z@4HA 0000000180059140 f    CIL library: CIL module
 0001:00058150       ?dtor$2@?0??remapLRS@BaseEditor@@AEAAX_N@Z@4HA 0000000180059150 f    CIL library: CIL module
 0001:00058160       ?dtor$9@?0??remapLRS@BaseEditor@@AEAAX_N@Z@4HA 0000000180059160 f    CIL library: CIL module
 0001:00058170       ?dtor$10@?0??remapLRS@BaseEditor@@AEAAX_N@Z@4HA 0000000180059170 f    CIL library: CIL module
 0001:00058180       ?dtor$3@?0??remapLRS@BaseEditor@@AEAAX_N@Z@4HA 0000000180059180 f    CIL library: CIL module
 0001:00058190       ?dtor$13@?0??remapLRS@BaseEditor@@AEAAX_N@Z@4HA 0000000180059190 f    CIL library: CIL module
 0001:000581a0       ?dtor$14@?0??remapLRS@BaseEditor@@AEAAX_N@Z@4HA 00000001800591a0 f    CIL library: CIL module
 0001:000581b0       ?dtor$4@?0??remapLRS@BaseEditor@@AEAAX_N@Z@4HA 00000001800591b0 f    CIL library: CIL module
 0001:000581c0       ?dtor$17@?0??remapLRS@BaseEditor@@AEAAX_N@Z@4HA 00000001800591c0 f    CIL library: CIL module
 0001:000581d0       ?dtor$0@?0??setRegionDefine@StyledHRDMapper@@UEAAXAEBVString@@PEBVRegionDefine@@@Z@4HA 00000001800591d0 f    CIL library: CIL module
 0001:000581e0       ?dtor$1@?0??setRegionDefine@StyledHRDMapper@@UEAAXAEBVString@@PEBVRegionDefine@@@Z@4HA 00000001800591e0 f    CIL library: CIL module
 0001:000581f0       ?dtor$2@?0??setRegionDefine@StyledHRDMapper@@UEAAXAEBVString@@PEBVRegionDefine@@@Z@4HA 00000001800591f0 f    CIL library: CIL module
 0001:00058200       ?dtor$4@?0??setRegionDefine@StyledHRDMapper@@UEAAXAEBVString@@PEBVRegionDefine@@@Z@4HA 0000000180059200 f    CIL library: CIL module
 0001:00058210       ?dtor$7@?0??saveRegionMappings@StyledHRDMapper@@UEBAXPEAVWriter@@@Z@4HA 0000000180059210 f    CIL library: CIL module
 0001:00058220       ?dtor$0@?0??saveRegionMappings@StyledHRDMapper@@UEBAXPEAVWriter@@@Z@4HA 0000000180059220 f    CIL library: CIL module
 0001:00058230       ?dtor$10@?0??saveRegionMappings@StyledHRDMapper@@UEBAXPEAVWriter@@@Z@4HA 0000000180059230 f    CIL library: CIL module
 0001:00058240       ?dtor$1@?0??saveRegionMappings@StyledHRDMapper@@UEBAXPEAVWriter@@@Z@4HA 0000000180059240 f    CIL library: CIL module
 0001:00058250       ?dtor$12@?0??saveRegionMappings@StyledHRDMapper@@UEBAXPEAVWriter@@@Z@4HA 0000000180059250 f    CIL library: CIL module
 0001:00058260       ?dtor$13@?0??saveRegionMappings@StyledHRDMapper@@UEBAXPEAVWriter@@@Z@4HA 0000000180059260 f    CIL library: CIL module
 0001:00058270       ?dtor$2@?0??saveRegionMappings@StyledHRDMapper@@UEBAXPEAVWriter@@@Z@4HA 0000000180059270 f    CIL library: CIL module
 0001:00058280       ?dtor$16@?0??saveRegionMappings@StyledHRDMapper@@UEBAXPEAVWriter@@@Z@4HA 0000000180059280 f    CIL library: CIL module
 0001:00058290       ?dtor$17@?0??saveRegionMappings@StyledHRDMapper@@UEBAXPEAVWriter@@@Z@4HA 0000000180059290 f    CIL library: CIL module
 0001:000582a0       ?dtor$3@?0??saveRegionMappings@StyledHRDMapper@@UEBAXPEAVWriter@@@Z@4HA 00000001800592a0 f    CIL library: CIL module
 0001:000582b0       ?dtor$20@?0??saveRegionMappings@StyledHRDMapper@@UEBAXPEAVWriter@@@Z@4HA 00000001800592b0 f    CIL library: CIL module
 0001:000582c0       ?dtor$21@?0??saveRegionMappings@StyledHRDMapper@@UEBAXPEAVWriter@@@Z@4HA 00000001800592c0 f    CIL library: CIL module
 0001:000582d0       ?dtor$4@?0??saveRegionMappings@StyledHRDMapper@@UEBAXPEAVWriter@@@Z@4HA 00000001800592d0 f    CIL library: CIL module
 0001:000582e0       ?dtor$24@?0??saveRegionMappings@StyledHRDMapper@@UEBAXPEAVWriter@@@Z@4HA 00000001800592e0 f    CIL library: CIL module
 0001:000582f0       ?dtor$25@?0??saveRegionMappings@StyledHRDMapper@@UEBAXPEAVWriter@@@Z@4HA 00000001800592f0 f    CIL library: CIL module
 0001:00058300       ?dtor$5@?0??saveRegionMappings@StyledHRDMapper@@UEBAXPEAVWriter@@@Z@4HA 0000000180059300 f    CIL library: CIL module
 0001:00058310       ?dtor$28@?0??saveRegionMappings@StyledHRDMapper@@UEBAXPEAVWriter@@@Z@4HA 0000000180059310 f    CIL library: CIL module
 0001:00058320       ?dtor$29@?0??saveRegionMappings@StyledHRDMapper@@UEBAXPEAVWriter@@@Z@4HA 0000000180059320 f    CIL library: CIL module
 0001:00058330       ?dtor$6@?0??saveRegionMappings@StyledHRDMapper@@UEBAXPEAVWriter@@@Z@4HA 0000000180059330 f    CIL library: CIL module
 0001:00058340       ?dtor$32@?0??saveRegionMappings@StyledHRDMapper@@UEBAXPEAVWriter@@@Z@4HA 0000000180059340 f    CIL library: CIL module
 0001:00058350       ?dtor$2@?0??replaceTabs@TextLinesStore@@AEAAXH@Z@4HA 0000000180059350 f    CIL library: CIL module
 0001:00058360       ?dtor$0@?0??replaceTabs@TextLinesStore@@AEAAXH@Z@4HA 0000000180059360 f    CIL library: CIL module
 0001:00058370       ?dtor$5@?0??replaceTabs@TextLinesStore@@AEAAXH@Z@4HA 0000000180059370 f    CIL library: CIL module
 0001:00058380       ?dtor$1@?0??replaceTabs@TextLinesStore@@AEAAXH@Z@4HA 0000000180059380 f    CIL library: CIL module
 0001:00058390       ?dtor$8@?0??replaceTabs@TextLinesStore@@AEAAXH@Z@4HA 0000000180059390 f    CIL library: CIL module
 0001:000583a0       ?dtor$10@?0??replaceTabs@TextLinesStore@@AEAAXH@Z@4HA 00000001800593a0 f    CIL library: CIL module
 0001:000583b0       ?dtor$11@?0??replaceTabs@TextLinesStore@@AEAAXH@Z@4HA 00000001800593b0 f    CIL library: CIL module
 0001:000583c0       ?dtor$12@?0??replaceTabs@TextLinesStore@@AEAAXH@Z@4HA 00000001800593c0 f    CIL library: CIL module
 0001:000583d0       ?dtor$14@?0??replaceTabs@TextLinesStore@@AEAAXH@Z@4HA 00000001800593d0 f    CIL library: CIL module
 0001:000583e0       ?dtor$0@?0??PathToFullS@@YAPEAVSString@@PEB_W_N@Z@4HA 00000001800593e0 f    CIL library: CIL module
 0001:000583f0       ?dtor$3@?0??SaveChangedValueParam@FarEditorSet@@AEAAXPEAX@Z@4HA 00000001800593f0 f    CIL library: CIL module
 0001:00058400       ?dtor$0@?0??SaveChangedValueParam@FarEditorSet@@AEAAXPEAX@Z@4HA 0000000180059400 f    CIL library: CIL module
 0001:00058410       ?dtor$9@?0??SaveChangedValueParam@FarEditorSet@@AEAAXPEAX@Z@4HA 0000000180059410 f    CIL library: CIL module
 0001:00058420       ?dtor$1@?0??SaveChangedValueParam@FarEditorSet@@AEAAXPEAX@Z@4HA 0000000180059420 f    CIL library: CIL module
 0001:00058430       ?dtor$15@?0??SaveChangedValueParam@FarEditorSet@@AEAAXPEAX@Z@4HA 0000000180059430 f    CIL library: CIL module
 0001:00058440       ?dtor$17@?0??SaveChangedValueParam@FarEditorSet@@AEAAXPEAX@Z@4HA 0000000180059440 f    CIL library: CIL module
 0001:00058450       ?dtor$16@?0??SaveChangedValueParam@FarEditorSet@@AEAAXPEAX@Z@4HA 0000000180059450 f    CIL library: CIL module
 0001:00058460       ?dtor$21@?0??SaveChangedValueParam@FarEditorSet@@AEAAXPEAX@Z@4HA 0000000180059460 f    CIL library: CIL module
 0001:00058470       ?dtor$22@?0??SaveChangedValueParam@FarEditorSet@@AEAAXPEAX@Z@4HA 0000000180059470 f    CIL library: CIL module
 0001:00058480       ?dtor$0@?0??setYNListValueToCombobox@FarEditorSet@@AEAAXPEAVFileTypeImpl@@PEAXVDString@@@Z@4HA 0000000180059480 f    CIL library: CIL module
 0001:00058480       ?dtor$0@?0??setCustomListValueToCombobox@FarEditorSet@@AEAAXPEAVFileTypeImpl@@PEAXVDString@@@Z@4HA 0000000180059480 f    CIL library: CIL module
 0001:00058480       ?dtor$0@?0??setTFListValueToCombobox@FarEditorSet@@AEAAXPEAVFileTypeImpl@@PEAXVDString@@@Z@4HA 0000000180059480 f    CIL library: CIL module
 0001:00058490       ?dtor$2@?0??setCustomListValueToCombobox@FarEditorSet@@AEAAXPEAVFileTypeImpl@@PEAXVDString@@@Z@4HA 0000000180059490 f    CIL library: CIL module
 0001:00058490       ?dtor$2@?0??setTFListValueToCombobox@FarEditorSet@@AEAAXPEAVFileTypeImpl@@PEAXVDString@@@Z@4HA 0000000180059490 f    CIL library: CIL module
 0001:00058490       ?dtor$2@?0??setYNListValueToCombobox@FarEditorSet@@AEAAXPEAVFileTypeImpl@@PEAXVDString@@@Z@4HA 0000000180059490 f    CIL library: CIL module
 0001:000584a0       ?dtor$4@?0??setTFListValueToCombobox@FarEditorSet@@AEAAXPEAVFileTypeImpl@@PEAXVDString@@@Z@4HA 00000001800594a0 f    CIL library: CIL module
 0001:000584a0       ?dtor$4@?0??setYNListValueToCombobox@FarEditorSet@@AEAAXPEAVFileTypeImpl@@PEAXVDString@@@Z@4HA 00000001800594a0 f    CIL library: CIL module
 0001:000584a0       ?dtor$4@?0??setCustomListValueToCombobox@FarEditorSet@@AEAAXPEAVFileTypeImpl@@PEAXVDString@@@Z@4HA 00000001800594a0 f    CIL library: CIL module
 0001:000584b0       ?dtor$3@?0??setTFListValueToCombobox@FarEditorSet@@AEAAXPEAVFileTypeImpl@@PEAXVDString@@@Z@4HA 00000001800594b0 f    CIL library: CIL module
 0001:000584b0       ?dtor$3@?0??setCustomListValueToCombobox@FarEditorSet@@AEAAXPEAVFileTypeImpl@@PEAXVDString@@@Z@4HA 00000001800594b0 f    CIL library: CIL module
 0001:000584b0       ?dtor$3@?0??setYNListValueToCombobox@FarEditorSet@@AEAAXPEAVFileTypeImpl@@PEAXVDString@@@Z@4HA 00000001800594b0 f    CIL library: CIL module
 0001:000584c0       ?dtor$8@?0??setYNListValueToCombobox@FarEditorSet@@AEAAXPEAVFileTypeImpl@@PEAXVDString@@@Z@4HA 00000001800594c0 f    CIL library: CIL module
 0001:000584c0       ?dtor$8@?0??setTFListValueToCombobox@FarEditorSet@@AEAAXPEAVFileTypeImpl@@PEAXVDString@@@Z@4HA 00000001800594c0 f    CIL library: CIL module
 0001:000584c0       ?dtor$8@?0??setCustomListValueToCombobox@FarEditorSet@@AEAAXPEAVFileTypeImpl@@PEAXVDString@@@Z@4HA 00000001800594c0 f    CIL library: CIL module
 0001:000584d0       ?dtor$1@?0??setCrossValueListToCombobox@FarEditorSet@@AEAAXPEAVFileTypeImpl@@PEAX@Z@4HA 00000001800594d0 f    CIL library: CIL module
 0001:000584d0       ?dtor$1@?0??setCrossPosValueListToCombobox@FarEditorSet@@AEAAXPEAVFileTypeImpl@@PEAX@Z@4HA 00000001800594d0 f    CIL library: CIL module
 0001:000584e0       ?dtor$3@?0??setCrossValueListToCombobox@FarEditorSet@@AEAAXPEAVFileTypeImpl@@PEAX@Z@4HA 00000001800594e0 f    CIL library: CIL module
 0001:000584e0       ?dtor$3@?0??setCrossPosValueListToCombobox@FarEditorSet@@AEAAXPEAVFileTypeImpl@@PEAX@Z@4HA 00000001800594e0 f    CIL library: CIL module
 0001:000584f0       ?dtor$2@?0??setCrossPosValueListToCombobox@FarEditorSet@@AEAAXPEAVFileTypeImpl@@PEAX@Z@4HA 00000001800594f0 f    CIL library: CIL module
 0001:000584f0       ?dtor$2@?0??setCrossValueListToCombobox@FarEditorSet@@AEAAXPEAVFileTypeImpl@@PEAX@Z@4HA 00000001800594f0 f    CIL library: CIL module
 0001:00058500       ?dtor$1@?0??SetBgEditor@FarEditorSet@@QEAA_NXZ@4HA 0000000180059500 f    CIL library: CIL module
 0001:00058510       ?dtor$0@?0??SetBgEditor@FarEditorSet@@QEAA_NXZ@4HA 0000000180059510 f    CIL library: CIL module
 0001:00058520       ?dtor$4@?0??SetBgEditor@FarEditorSet@@QEAA_NXZ@4HA 0000000180059520 f    CIL library: CIL module
 0001:00058530       ?dtor$0@?0??ReadSettings@FarEditorSet@@QEAAXXZ@4HA 0000000180059530 f    CIL library: CIL module
 0001:00058540       ?dtor$1@?0??ReadSettings@FarEditorSet@@QEAAXXZ@4HA 0000000180059540 f    CIL library: CIL module
 0001:00058550       ?dtor$2@?0??ReadSettings@FarEditorSet@@QEAAXXZ@4HA 0000000180059550 f    CIL library: CIL module
 0001:00058560       ?dtor$3@?0??ReadSettings@FarEditorSet@@QEAAXXZ@4HA 0000000180059560 f    CIL library: CIL module
 0001:00058570       ?dtor$8@?0??ReadSettings@FarEditorSet@@QEAAXXZ@4HA 0000000180059570 f    CIL library: CIL module
 0001:00058580       ?dtor$10@?0??ReadSettings@FarEditorSet@@QEAAXXZ@4HA 0000000180059580 f    CIL library: CIL module
 0001:00058590       ?dtor$9@?0??ReadSettings@FarEditorSet@@QEAAXXZ@4HA 0000000180059590 f    CIL library: CIL module
 0001:000585a0       ?dtor$14@?0??ReadSettings@FarEditorSet@@QEAAXXZ@4HA 00000001800595a0 f    CIL library: CIL module
 0001:000585b0       ?dtor$4@?0??ReadSettings@FarEditorSet@@QEAAXXZ@4HA 00000001800595b0 f    CIL library: CIL module
 0001:000585c0       ?dtor$20@?0??ReadSettings@FarEditorSet@@QEAAXXZ@4HA 00000001800595c0 f    CIL library: CIL module
 0001:000585d0       ?dtor$5@?0??ReadSettings@FarEditorSet@@QEAAXXZ@4HA 00000001800595d0 f    CIL library: CIL module
 0001:000585e0       ?dtor$6@?0??ReadSettings@FarEditorSet@@QEAAXXZ@4HA 00000001800595e0 f    CIL library: CIL module
 0001:000585f0       ?dtor$2@?0??locateFunction@FarEditor@@QEAAXXZ@4HA 00000001800595f0 f    CIL library: CIL module
 0001:00058600       ?dtor$0@?0??locateFunction@FarEditor@@QEAAXXZ@4HA 0000000180059600 f    CIL library: CIL module
 0001:00058610       ?dtor$3@?0??locateFunction@FarEditor@@QEAAXXZ@4HA 0000000180059610 f    CIL library: CIL module
 0001:00058620       ?dtor$4@?0??locateFunction@FarEditor@@QEAAXXZ@4HA 0000000180059620 f    CIL library: CIL module
 0001:00058630       ?dtor$6@?0??locateFunction@FarEditor@@QEAAXXZ@4HA 0000000180059630 f    CIL library: CIL module
 0001:00058640       ?dtor$5@?0??locateFunction@FarEditor@@QEAAXXZ@4HA 0000000180059640 f    CIL library: CIL module
 0001:00058650       ?dtor$1@?0??locateFunction@FarEditor@@QEAAXXZ@4HA 0000000180059650 f    CIL library: CIL module
 0001:00058660       ?dtor$10@?0??locateFunction@FarEditor@@QEAAXXZ@4HA 0000000180059660 f    CIL library: CIL module
 0001:00058670       ?dtor$11@?0??locateFunction@FarEditor@@QEAAXXZ@4HA 0000000180059670 f    CIL library: CIL module
 0001:00058680       ?dtor$12@?0??locateFunction@FarEditor@@QEAAXXZ@4HA 0000000180059680 f    CIL library: CIL module
 0001:00058690       ?dtor$0@?0??consumePI@DocumentBuilder@@AEAAXPEAVNode@@@Z@4HA 0000000180059690 f    CIL library: CIL module
 0001:000586a0       ?dtor$1@?0??consumePI@DocumentBuilder@@AEAAXPEAVNode@@@Z@4HA 00000001800596a0 f    CIL library: CIL module
 0001:000586b0       ?dtor$2@?0??consumePI@DocumentBuilder@@AEAAXPEAVNode@@@Z@4HA 00000001800596b0 f    CIL library: CIL module
 0001:000586c0       ?dtor$2@?0??consumeQoutedValue@DocumentBuilder@@AEAAPEAVString@@XZ@4HA 00000001800596c0 f    CIL library: CIL module
 0001:000586c0       ?dtor$2@?0??consumeAttributeValue@DocumentBuilder@@AEAAPEAVString@@XZ@4HA 00000001800596c0 f    CIL library: CIL module
 0001:000586d0       ?dtor$0@?0??consumeQoutedValue@DocumentBuilder@@AEAAPEAVString@@XZ@4HA 00000001800596d0 f    CIL library: CIL module
 0001:000586d0       ?dtor$0@?0??consumeAttributeValue@DocumentBuilder@@AEAAPEAVString@@XZ@4HA 00000001800596d0 f    CIL library: CIL module
 0001:000586e0       ?dtor$6@?0??consumeQoutedValue@DocumentBuilder@@AEAAPEAVString@@XZ@4HA 00000001800596e0 f    CIL library: CIL module
 0001:000586e0       ?dtor$6@?0??consumeAttributeValue@DocumentBuilder@@AEAAPEAVString@@XZ@4HA 00000001800596e0 f    CIL library: CIL module
 0001:000586f0       ?dtor$5@?0??consumeQoutedValue@DocumentBuilder@@AEAAPEAVString@@XZ@4HA 00000001800596f0 f    CIL library: CIL module
 0001:000586f0       ?dtor$5@?0??consumeAttributeValue@DocumentBuilder@@AEAAPEAVString@@XZ@4HA 00000001800596f0 f    CIL library: CIL module
 0001:00058700       ?dtor$1@?0??consumeQoutedValue@DocumentBuilder@@AEAAPEAVString@@XZ@4HA 0000000180059700 f    CIL library: CIL module
 0001:00058700       ?dtor$1@?0??consumeAttributeValue@DocumentBuilder@@AEAAPEAVString@@XZ@4HA 0000000180059700 f    CIL library: CIL module
 0001:00058710       ?dtor$10@?0??replaceEntity@@YAPEAVString@@PEBV1@@Z@4HA 0000000180059710 f    CIL library: CIL module
 0001:00058720       ?dtor$0@?0??replaceEntity@@YAPEAVString@@PEBV1@@Z@4HA 0000000180059720 f    CIL library: CIL module
 0001:00058730       ?dtor$13@?0??replaceEntity@@YAPEAVString@@PEBV1@@Z@4HA 0000000180059730 f    CIL library: CIL module
 0001:00058740       ?dtor$1@?0??replaceEntity@@YAPEAVString@@PEBV1@@Z@4HA 0000000180059740 f    CIL library: CIL module
 0001:00058750       ?dtor$16@?0??replaceEntity@@YAPEAVString@@PEBV1@@Z@4HA 0000000180059750 f    CIL library: CIL module
 0001:00058760       ?dtor$17@?0??replaceEntity@@YAPEAVString@@PEBV1@@Z@4HA 0000000180059760 f    CIL library: CIL module
 0001:00058770       ?dtor$18@?0??replaceEntity@@YAPEAVString@@PEBV1@@Z@4HA 0000000180059770 f    CIL library: CIL module
 0001:00058780       ?dtor$2@?0??replaceEntity@@YAPEAVString@@PEBV1@@Z@4HA 0000000180059780 f    CIL library: CIL module
 0001:00058790       ?dtor$21@?0??replaceEntity@@YAPEAVString@@PEBV1@@Z@4HA 0000000180059790 f    CIL library: CIL module
 0001:000587a0       ?dtor$3@?0??replaceEntity@@YAPEAVString@@PEBV1@@Z@4HA 00000001800597a0 f    CIL library: CIL module
 0001:000587b0       ?dtor$24@?0??replaceEntity@@YAPEAVString@@PEBV1@@Z@4HA 00000001800597b0 f    CIL library: CIL module
 0001:000587c0       ?dtor$25@?0??replaceEntity@@YAPEAVString@@PEBV1@@Z@4HA 00000001800597c0 f    CIL library: CIL module
 0001:000587d0       ?dtor$26@?0??replaceEntity@@YAPEAVString@@PEBV1@@Z@4HA 00000001800597d0 f    CIL library: CIL module
 0001:000587e0       ?dtor$4@?0??replaceEntity@@YAPEAVString@@PEBV1@@Z@4HA 00000001800597e0 f    CIL library: CIL module
 0001:000587f0       ?dtor$29@?0??replaceEntity@@YAPEAVString@@PEBV1@@Z@4HA 00000001800597f0 f    CIL library: CIL module
 0001:00058800       ?dtor$5@?0??replaceEntity@@YAPEAVString@@PEBV1@@Z@4HA 0000000180059800 f    CIL library: CIL module
 0001:00058810       ?dtor$32@?0??replaceEntity@@YAPEAVString@@PEBV1@@Z@4HA 0000000180059810 f    CIL library: CIL module
 0001:00058820       ?dtor$33@?0??replaceEntity@@YAPEAVString@@PEBV1@@Z@4HA 0000000180059820 f    CIL library: CIL module
 0001:00058830       ?dtor$34@?0??replaceEntity@@YAPEAVString@@PEBV1@@Z@4HA 0000000180059830 f    CIL library: CIL module
 0001:00058840       ?dtor$6@?0??replaceEntity@@YAPEAVString@@PEBV1@@Z@4HA 0000000180059840 f    CIL library: CIL module
 0001:00058850       ?dtor$37@?0??replaceEntity@@YAPEAVString@@PEBV1@@Z@4HA 0000000180059850 f    CIL library: CIL module
 0001:00058860       ?dtor$7@?0??replaceEntity@@YAPEAVString@@PEBV1@@Z@4HA 0000000180059860 f    CIL library: CIL module
 0001:00058870       ?dtor$40@?0??replaceEntity@@YAPEAVString@@PEBV1@@Z@4HA 0000000180059870 f    CIL library: CIL module
 0001:00058880       ?dtor$41@?0??replaceEntity@@YAPEAVString@@PEBV1@@Z@4HA 0000000180059880 f    CIL library: CIL module
 0001:00058890       ?dtor$42@?0??replaceEntity@@YAPEAVString@@PEBV1@@Z@4HA 0000000180059890 f    CIL library: CIL module
 0001:000588a0       ?dtor$8@?0??replaceEntity@@YAPEAVString@@PEBV1@@Z@4HA 00000001800598a0 f    CIL library: CIL module
 0001:000588b0       ?dtor$45@?0??replaceEntity@@YAPEAVString@@PEBV1@@Z@4HA 00000001800598b0 f    CIL library: CIL module
 0001:000588c0       ?dtor$9@?0??replaceEntity@@YAPEAVString@@PEBV1@@Z@4HA 00000001800598c0 f    CIL library: CIL module
 0001:000588d0       ?dtor$48@?0??replaceEntity@@YAPEAVString@@PEBV1@@Z@4HA 00000001800598d0 f    CIL library: CIL module
 0001:000588e0       ?dtor$49@?0??replaceEntity@@YAPEAVString@@PEBV1@@Z@4HA 00000001800598e0 f    CIL library: CIL module
 0001:000588f0       ?dtor$0@?0???0JARInputSource@@IEAA@PEBVString@@PEAV0@_N@Z@4HA 00000001800598f0 f    CIL library: CIL module
 0001:00058900       ?dtor$1@?0???0JARInputSource@@IEAA@PEBVString@@PEAV0@_N@Z@4HA 0000000180059900 f    CIL library: CIL module
 0001:00058910       ?dtor$2@?0???0JARInputSource@@IEAA@PEBVString@@PEAV0@_N@Z@4HA 0000000180059910 f    CIL library: CIL module
 0001:00058920       ?dtor$7@?0???0JARInputSource@@IEAA@PEBVString@@PEAV0@_N@Z@4HA 0000000180059920 f    CIL library: CIL module
 0001:00058930       ?dtor$3@?0???0JARInputSource@@IEAA@PEBVString@@PEAV0@_N@Z@4HA 0000000180059930 f    CIL library: CIL module
 0001:00058940       ?dtor$10@?0???0JARInputSource@@IEAA@PEBVString@@PEAV0@_N@Z@4HA 0000000180059940 f    CIL library: CIL module
 0001:00058950       ?dtor$4@?0???0JARInputSource@@IEAA@PEBVString@@PEAV0@_N@Z@4HA 0000000180059950 f    CIL library: CIL module
 0001:00058960       ?dtor$11@?0???0JARInputSource@@IEAA@PEBVString@@PEAV0@_N@Z@4HA 0000000180059960 f    CIL library: CIL module
 0001:00058970       ?dtor$13@?0???0JARInputSource@@IEAA@PEBVString@@PEAV0@_N@Z@4HA 0000000180059970 f    CIL library: CIL module
 0001:00058980       ?dtor$12@?0???0JARInputSource@@IEAA@PEBVString@@PEAV0@_N@Z@4HA 0000000180059980 f    CIL library: CIL module
 0001:00058990       ?dtor$18@?0???0JARInputSource@@IEAA@PEBVString@@PEAV0@_N@Z@4HA 0000000180059990 f    CIL library: CIL module
 0001:000589a0       ?dtor$7@?0??newInstance@InputSource@@SAPEAV1@PEBVString@@PEAV1@@Z@4HA 00000001800599a0 f    CIL library: CIL module
 0001:000589b0       ?dtor$0@?0??newInstance@InputSource@@SAPEAV1@PEBVString@@PEAV1@@Z@4HA 00000001800599b0 f    CIL library: CIL module
 0001:000589c0       ?dtor$11@?0??newInstance@InputSource@@SAPEAV1@PEBVString@@PEAV1@@Z@4HA 00000001800599c0 f    CIL library: CIL module
 0001:000589d0       ?dtor$1@?0??newInstance@InputSource@@SAPEAV1@PEBVString@@PEAV1@@Z@4HA 00000001800599d0 f    CIL library: CIL module
 0001:000589e0       ?dtor$14@?0??newInstance@InputSource@@SAPEAV1@PEBVString@@PEAV1@@Z@4HA 00000001800599e0 f    CIL library: CIL module
 0001:000589f0       ?dtor$2@?0??newInstance@InputSource@@SAPEAV1@PEBVString@@PEAV1@@Z@4HA 00000001800599f0 f    CIL library: CIL module
 0001:00058a00       ?dtor$15@?0??newInstance@InputSource@@SAPEAV1@PEBVString@@PEAV1@@Z@4HA 0000000180059a00 f    CIL library: CIL module
 0001:00058a10       ?dtor$3@?0??newInstance@InputSource@@SAPEAV1@PEBVString@@PEAV1@@Z@4HA 0000000180059a10 f    CIL library: CIL module
 0001:00058a20       ?dtor$18@?0??newInstance@InputSource@@SAPEAV1@PEBVString@@PEAV1@@Z@4HA 0000000180059a20 f    CIL library: CIL module
 0001:00058a30       ?dtor$4@?0??newInstance@InputSource@@SAPEAV1@PEBVString@@PEAV1@@Z@4HA 0000000180059a30 f    CIL library: CIL module
 0001:00058a40       ?dtor$19@?0??newInstance@InputSource@@SAPEAV1@PEBVString@@PEAV1@@Z@4HA 0000000180059a40 f    CIL library: CIL module
 0001:00058a50       ?dtor$5@?0??newInstance@InputSource@@SAPEAV1@PEBVString@@PEAV1@@Z@4HA 0000000180059a50 f    CIL library: CIL module
 0001:00058a60       ?dtor$6@?0??newInstance@InputSource@@SAPEAV1@PEBVString@@PEAV1@@Z@4HA 0000000180059a60 f    CIL library: CIL module
 0001:00058a70       ?dtor$0@?0??createRelative@HTTPInputSource@@MEAAPEAVInputSource@@PEBVString@@@Z@4HA 0000000180059a70 f    CIL library: CIL module
 0001:00058a70       ?dtor$0@?0??createRelative@FileInputSource@@MEAAPEAVInputSource@@PEBVString@@@Z@4HA 0000000180059a70 f    CIL library: CIL module
 0001:00058a70       ?dtor$0@?0??consumeElement@DocumentBuilder@@AEAAXPEAVNode@@@Z@4HA 0000000180059a70 f    CIL library: CIL module
 0001:00058a70       ?dtor$0@?0??leaveScheme@LineRegionsSupport@@UEAAXHPEAVString@@HHPEBVRegion@@PEBVScheme@@@Z@4HA 0000000180059a70 f    CIL library: CIL module
 0001:00058a70       ?dtor$0@?0??getCurlyContent@UnicodeTools@@SAPEAVDString@@AEBVString@@H@Z@4HA 0000000180059a70 f    CIL library: CIL module
 0001:00058a70       ?dtor$0@?0??createRelative@JARInputSource@@MEAAPEAVInputSource@@PEBVString@@@Z@4HA 0000000180059a70 f    CIL library: CIL module
 0001:00058a70       ?dtor$0@?0??getInputSource@SharedInputSource@@SAPEAV1@PEBVString@@PEAVInputSource@@@Z@4HA 0000000180059a70 f    CIL library: CIL module
 0001:00058a70       ?dtor$0@?0??consumeContent@DocumentBuilder@@AEAAXPEAVNode@@@Z@4HA 0000000180059a70 f    CIL library: CIL module
 0001:00058a70       ?dtor$0@?0??getPairMatch@BaseEditor@@AEAAPEAVPairMatch@@HH@Z@4HA 0000000180059a70 f    CIL library: CIL module
 0001:00058a80       ?dtor$2@?0??setRELow@CRegExp@@AEAA?AW4EError@@AEBVString@@@Z@4HA 0000000180059a80 f    CIL library: CIL module
 0001:00058a80       ?dtor$0@?0??getEscapedChar@UnicodeTools@@SA_WAEBVString@@HAEAH@Z@4HA 0000000180059a80 f    CIL library: CIL module
 0001:00058a90       ?dtor$1@?0??getEscapedChar@UnicodeTools@@SA_WAEBVString@@HAEAH@Z@4HA 0000000180059a90 f    CIL library: CIL module
 0001:00058a90       ?dtor$12@?0??setRELow@CRegExp@@AEAA?AW4EError@@AEBVString@@@Z@4HA 0000000180059a90 f    CIL library: CIL module
 0001:00058aa0       ?dtor$0@?0??createCharClass@CharacterClass@@SAPEAV1@AEBVString@@HPEAH@Z@4HA 0000000180059aa0 f    CIL library: CIL module
 0001:00058ab0       ?dtor$1@?0??createCharClass@CharacterClass@@SAPEAV1@AEBVString@@HPEAH@Z@4HA 0000000180059ab0 f    CIL library: CIL module
 0001:00058ac0       ?dtor$2@?0??createCharClass@CharacterClass@@SAPEAV1@AEBVString@@HPEAH@Z@4HA 0000000180059ac0 f    CIL library: CIL module
 0001:00058ad0       ?dtor$3@?0??loadRegions@HRCParserImpl@@IEAAXPEAVSchemeNode@@PEAVElement@@_N@Z@4HA 0000000180059ad0 f    CIL library: CIL module
 0001:00058ad0       ?dtor$3@?0??serialize@ProcessingInstruction@@UEAAXPEAVWriter@@FF@Z@4HA 0000000180059ad0 f    CIL library: CIL module
 0001:00058ad0       ?dtor$3@?0??loadBlockRegions@HRCParserImpl@@IEAAXPEAVSchemeNode@@PEAVElement@@@Z@4HA 0000000180059ad0 f    CIL library: CIL module
 0001:00058ad0       ?dtor$3@?0??serialize@Document@@UEAAXPEAVWriter@@FF@Z@4HA 0000000180059ad0 f    CIL library: CIL module
 0001:00058ae0       ?dtor$0@?0??serialize@Document@@UEAAXPEAVWriter@@FF@Z@4HA 0000000180059ae0 f    CIL library: CIL module
 0001:00058ae0       ?dtor$0@?0??serialize@ProcessingInstruction@@UEAAXPEAVWriter@@FF@Z@4HA 0000000180059ae0 f    CIL library: CIL module
 0001:00058ae0       ?dtor$0@?0??loadRegions@HRCParserImpl@@IEAAXPEAVSchemeNode@@PEAVElement@@_N@Z@4HA 0000000180059ae0 f    CIL library: CIL module
 0001:00058ae0       ?dtor$0@?0??loadBlockRegions@HRCParserImpl@@IEAAXPEAVSchemeNode@@PEAVElement@@@Z@4HA 0000000180059ae0 f    CIL library: CIL module
 0001:00058af0       ?dtor$6@?0??loadBlockRegions@HRCParserImpl@@IEAAXPEAVSchemeNode@@PEAVElement@@@Z@4HA 0000000180059af0 f    CIL library: CIL module
 0001:00058af0       ?dtor$6@?0??serialize@ProcessingInstruction@@UEAAXPEAVWriter@@FF@Z@4HA 0000000180059af0 f    CIL library: CIL module
 0001:00058af0       ?dtor$6@?0??serialize@Document@@UEAAXPEAVWriter@@FF@Z@4HA 0000000180059af0 f    CIL library: CIL module
 0001:00058af0       ?dtor$6@?0??loadRegions@HRCParserImpl@@IEAAXPEAVSchemeNode@@PEAVElement@@_N@Z@4HA 0000000180059af0 f    CIL library: CIL module
 0001:00058b00       ?dtor$7@?0??serialize@Document@@UEAAXPEAVWriter@@FF@Z@4HA 0000000180059b00 f    CIL library: CIL module
 0001:00058b00       ?dtor$7@?0??loadRegions@HRCParserImpl@@IEAAXPEAVSchemeNode@@PEAVElement@@_N@Z@4HA 0000000180059b00 f    CIL library: CIL module
 0001:00058b00       ?dtor$7@?0??loadBlockRegions@HRCParserImpl@@IEAAXPEAVSchemeNode@@PEAVElement@@@Z@4HA 0000000180059b00 f    CIL library: CIL module
 0001:00058b00       ?dtor$7@?0??serialize@ProcessingInstruction@@UEAAXPEAVWriter@@FF@Z@4HA 0000000180059b00 f    CIL library: CIL module
 0001:00058b10       ?dtor$1@?0??loadRegions@HRCParserImpl@@IEAAXPEAVSchemeNode@@PEAVElement@@_N@Z@4HA 0000000180059b10 f    CIL library: CIL module
 0001:00058b10       ?dtor$1@?0??serialize@Document@@UEAAXPEAVWriter@@FF@Z@4HA 0000000180059b10 f    CIL library: CIL module
 0001:00058b10       ?dtor$1@?0??serialize@ProcessingInstruction@@UEAAXPEAVWriter@@FF@Z@4HA 0000000180059b10 f    CIL library: CIL module
 0001:00058b10       ?dtor$1@?0??loadBlockRegions@HRCParserImpl@@IEAAXPEAVSchemeNode@@PEAVElement@@@Z@4HA 0000000180059b10 f    CIL library: CIL module
 0001:00058b20       ?dtor$10@?0??serialize@ProcessingInstruction@@UEAAXPEAVWriter@@FF@Z@4HA 0000000180059b20 f    CIL library: CIL module
 0001:00058b20       ?dtor$10@?0??serialize@Document@@UEAAXPEAVWriter@@FF@Z@4HA 0000000180059b20 f    CIL library: CIL module
 0001:00058b20       ?dtor$10@?0??loadBlockRegions@HRCParserImpl@@IEAAXPEAVSchemeNode@@PEAVElement@@@Z@4HA 0000000180059b20 f    CIL library: CIL module
 0001:00058b20       ?dtor$10@?0??loadRegions@HRCParserImpl@@IEAAXPEAVSchemeNode@@PEAVElement@@_N@Z@4HA 0000000180059b20 f    CIL library: CIL module
 0001:00058b30       ?dtor$11@?0??loadBlockRegions@HRCParserImpl@@IEAAXPEAVSchemeNode@@PEAVElement@@@Z@4HA 0000000180059b30 f    CIL library: CIL module
 0001:00058b30       ?dtor$11@?0??serialize@ProcessingInstruction@@UEAAXPEAVWriter@@FF@Z@4HA 0000000180059b30 f    CIL library: CIL module
 0001:00058b30       ?dtor$11@?0??serialize@Document@@UEAAXPEAVWriter@@FF@Z@4HA 0000000180059b30 f    CIL library: CIL module
 0001:00058b30       ?dtor$11@?0??loadRegions@HRCParserImpl@@IEAAXPEAVSchemeNode@@PEAVElement@@_N@Z@4HA 0000000180059b30 f    CIL library: CIL module
 0001:00058b40       ?dtor$2@?0??serialize@ProcessingInstruction@@UEAAXPEAVWriter@@FF@Z@4HA 0000000180059b40 f    CIL library: CIL module
 0001:00058b40       ?dtor$2@?0??serialize@Document@@UEAAXPEAVWriter@@FF@Z@4HA 0000000180059b40 f    CIL library: CIL module
 0001:00058b40       ?dtor$2@?0??loadRegions@HRCParserImpl@@IEAAXPEAVSchemeNode@@PEAVElement@@_N@Z@4HA 0000000180059b40 f    CIL library: CIL module
 0001:00058b40       ?dtor$2@?0??loadBlockRegions@HRCParserImpl@@IEAAXPEAVSchemeNode@@PEAVElement@@@Z@4HA 0000000180059b40 f    CIL library: CIL module
 0001:00058b50       ?dtor$14@?0??serialize@ProcessingInstruction@@UEAAXPEAVWriter@@FF@Z@4HA 0000000180059b50 f    CIL library: CIL module
 0001:00058b50       ?dtor$14@?0??serialize@Document@@UEAAXPEAVWriter@@FF@Z@4HA 0000000180059b50 f    CIL library: CIL module
 0001:00058b50       ?dtor$14@?0??loadBlockRegions@HRCParserImpl@@IEAAXPEAVSchemeNode@@PEAVElement@@@Z@4HA 0000000180059b50 f    CIL library: CIL module
 0001:00058b50       ?dtor$14@?0??loadRegions@HRCParserImpl@@IEAAXPEAVSchemeNode@@PEAVElement@@_N@Z@4HA 0000000180059b50 f    CIL library: CIL module
 0001:00058b60       ?dtor$0@?0???1FileTypeImpl@@MEAA@XZ@4HA 0000000180059b60 f    CIL library: CIL module
 0001:00058b70       ?dtor$1@?0???1FileTypeImpl@@MEAA@XZ@4HA 0000000180059b70 f    CIL library: CIL module
 0001:00058b80       ?dtor$2@?0???1FileTypeImpl@@MEAA@XZ@4HA 0000000180059b80 f    CIL library: CIL module
 0001:00058b90       ?dtor$3@?0???1FileTypeImpl@@MEAA@XZ@4HA 0000000180059b90 f    CIL library: CIL module
 0001:00058bb0       ?dtor$4@?0???1FileTypeImpl@@MEAA@XZ@4HA 0000000180059bb0 f    CIL library: CIL module
 0001:00058bd0       ?dtor$5@?0???1FileTypeImpl@@MEAA@XZ@4HA 0000000180059bd0 f    CIL library: CIL module
 0001:00058bf0       ?dtor$6@?0???1FileTypeImpl@@MEAA@XZ@4HA 0000000180059bf0 f    CIL library: CIL module
 0001:00058c10       ?dtor$7@?0???1FileTypeImpl@@MEAA@XZ@4HA 0000000180059c10 f    CIL library: CIL module
 0001:00058c20       ?dtor$9@?0???1FileTypeImpl@@MEAA@XZ@4HA 0000000180059c20 f    CIL library: CIL module
 0001:00058c30       ?dtor$11@?0???1FileTypeImpl@@MEAA@XZ@4HA 0000000180059c30 f    CIL library: CIL module
 0001:00058c40       ?dtor$0@?0???0FileErrorHandler@@QEAA@PEBVString@@H_N@Z@4HA 0000000180059c40 f    CIL library: CIL module
 0001:00058c50       ?dtor$1@?0???0FileErrorHandler@@QEAA@PEBVString@@H_N@Z@4HA 0000000180059c50 f    CIL library: CIL module
 0001:00058c60       ?dtor$2@?0???0FileErrorHandler@@QEAA@PEBVString@@H_N@Z@4HA 0000000180059c60 f    CIL library: CIL module
 0001:00058c70       ?dtor$6@?0???0FileErrorHandler@@QEAA@PEBVString@@H_N@Z@4HA 0000000180059c70 f    CIL library: CIL module
 0001:00058c80       ?dtor$3@?0???0FileErrorHandler@@QEAA@PEBVString@@H_N@Z@4HA 0000000180059c80 f    CIL library: CIL module
 0001:00058c90       ?dtor$0@?0??loadFile@TextLinesStore@@QEAAXPEBVString@@0_N@Z@4HA 0000000180059c90 f    CIL library: CIL module
 0001:00058ca0       ?dtor$1@?0??loadFile@TextLinesStore@@QEAAXPEBVString@@0_N@Z@4HA 0000000180059ca0 f    CIL library: CIL module
 0001:00058cb0       ?dtor$4@?0??loadFile@TextLinesStore@@QEAAXPEBVString@@0_N@Z@4HA 0000000180059cb0 f    CIL library: CIL module
 0001:00058cc0       ?dtor$6@?0??loadFile@TextLinesStore@@QEAAXPEBVString@@0_N@Z@4HA 0000000180059cc0 f    CIL library: CIL module
 0001:00058cd0       ?dtor$5@?0??loadFile@TextLinesStore@@QEAAXPEBVString@@0_N@Z@4HA 0000000180059cd0 f    CIL library: CIL module
 0001:00058ce0       ?catch$0@?0??loadFile@TextLinesStore@@QEAAXPEBVString@@0_N@Z@4HA 0000000180059ce0 f    CIL library: CIL module
 0001:00058ced       __catch$?loadFile@TextLinesStore@@QEAAXPEBVString@@0_N@Z$0 0000000180059ced f    CIL library: CIL module
 0001:00058d30       ?dtor$2@?0??loadFile@TextLinesStore@@QEAAXPEBVString@@0_N@Z@4HA 0000000180059d30 f    CIL library: CIL module
 0001:00058d40       ?dtor$3@?0??loadFile@TextLinesStore@@QEAAXPEBVString@@0_N@Z@4HA 0000000180059d40 f    CIL library: CIL module
 0001:00058d50       ?dtor$11@?0??loadFile@TextLinesStore@@QEAAXPEBVString@@0_N@Z@4HA 0000000180059d50 f    CIL library: CIL module
 0001:00058d60       ?dtor$12@?0??loadFile@TextLinesStore@@QEAAXPEBVString@@0_N@Z@4HA 0000000180059d60 f    CIL library: CIL module
 0001:00058d70       ?dtor$1@?0??view@TextConsoleViewer@@QEAAXXZ@4HA 0000000180059d70 f    CIL library: CIL module
 0001:00058d80       ?dtor$3@?0??view@TextConsoleViewer@@QEAAXXZ@4HA 0000000180059d80 f    CIL library: CIL module
 0001:00058d90       ?dtor$2@?0??view@TextConsoleViewer@@QEAAXXZ@4HA 0000000180059d90 f    CIL library: CIL module
 0001:00058da0       ?dtor$0@?0??view@TextConsoleViewer@@QEAAXXZ@4HA 0000000180059da0 f    CIL library: CIL module
 0001:00058db0       ?dtor$7@?0??view@TextConsoleViewer@@QEAAXXZ@4HA 0000000180059db0 f    CIL library: CIL module
 0001:00058dc0       ?dtor$10@?0??view@TextConsoleViewer@@QEAAXXZ@4HA 0000000180059dc0 f    CIL library: CIL module
 0001:00058dd0       ?dtor$9@?0??view@TextConsoleViewer@@QEAAXXZ@4HA 0000000180059dd0 f    CIL library: CIL module
 0001:00058de0       ?dtor$14@?0??view@TextConsoleViewer@@QEAAXXZ@4HA 0000000180059de0 f    CIL library: CIL module
 0001:00058df0       ?dtor$20@?0??view@TextConsoleViewer@@QEAAXXZ@4HA 0000000180059df0 f    CIL library: CIL module
 0001:00058e00       ?dtor$19@?0??view@TextConsoleViewer@@QEAAXXZ@4HA 0000000180059e00 f    CIL library: CIL module
 0001:00058e10       ?dtor$25@?0??view@TextConsoleViewer@@QEAAXXZ@4HA 0000000180059e10 f    CIL library: CIL module
 0001:00058e20       ?dtor$24@?0??view@TextConsoleViewer@@QEAAXXZ@4HA 0000000180059e20 f    CIL library: CIL module
 0001:00058e30       ?dtor$29@?0??view@TextConsoleViewer@@QEAAXXZ@4HA 0000000180059e30 f    CIL library: CIL module
 0001:00058e40       ?dtor$9@?0??createStyledMapper@ParserFactory@@QEAAPEAVStyledHRDMapper@@PEBVString@@0@Z@4HA 0000000180059e40 f    CIL library: CIL module
 0001:00058e50       ?dtor$0@?0??createStyledMapper@ParserFactory@@QEAAPEAVStyledHRDMapper@@PEBVString@@0@Z@4HA 0000000180059e50 f    CIL library: CIL module
 0001:00058e60       ?dtor$12@?0??createStyledMapper@ParserFactory@@QEAAPEAVStyledHRDMapper@@PEBVString@@0@Z@4HA 0000000180059e60 f    CIL library: CIL module
 0001:00058e70       ?dtor$1@?0??createStyledMapper@ParserFactory@@QEAAPEAVStyledHRDMapper@@PEBVString@@0@Z@4HA 0000000180059e70 f    CIL library: CIL module
 0001:00058e80       ?dtor$15@?0??createStyledMapper@ParserFactory@@QEAAPEAVStyledHRDMapper@@PEBVString@@0@Z@4HA 0000000180059e80 f    CIL library: CIL module
 0001:00058e90       ?dtor$2@?0??createStyledMapper@ParserFactory@@QEAAPEAVStyledHRDMapper@@PEBVString@@0@Z@4HA 0000000180059e90 f    CIL library: CIL module
 0001:00058ec0       ?dtor$18@?0??createStyledMapper@ParserFactory@@QEAAPEAVStyledHRDMapper@@PEBVString@@0@Z@4HA 0000000180059ec0 f    CIL library: CIL module
 0001:00058ed0       ?dtor$3@?0??createStyledMapper@ParserFactory@@QEAAPEAVStyledHRDMapper@@PEBVString@@0@Z@4HA 0000000180059ed0 f    CIL library: CIL module
 0001:00058f00       ?dtor$21@?0??createStyledMapper@ParserFactory@@QEAAPEAVStyledHRDMapper@@PEBVString@@0@Z@4HA 0000000180059f00 f    CIL library: CIL module
 0001:00058f10       ?dtor$22@?0??createStyledMapper@ParserFactory@@QEAAPEAVStyledHRDMapper@@PEBVString@@0@Z@4HA 0000000180059f10 f    CIL library: CIL module
 0001:00058f20       ?dtor$23@?0??createStyledMapper@ParserFactory@@QEAAPEAVStyledHRDMapper@@PEBVString@@0@Z@4HA 0000000180059f20 f    CIL library: CIL module
 0001:00058f30       ?dtor$4@?0??createStyledMapper@ParserFactory@@QEAAPEAVStyledHRDMapper@@PEBVString@@0@Z@4HA 0000000180059f30 f    CIL library: CIL module
 0001:00058f40       ?dtor$26@?0??createStyledMapper@ParserFactory@@QEAAPEAVStyledHRDMapper@@PEBVString@@0@Z@4HA 0000000180059f40 f    CIL library: CIL module
 0001:00058f50       ?dtor$5@?0??createStyledMapper@ParserFactory@@QEAAPEAVStyledHRDMapper@@PEBVString@@0@Z@4HA 0000000180059f50 f    CIL library: CIL module
 0001:00058f60       ?dtor$6@?0??createStyledMapper@ParserFactory@@QEAAPEAVStyledHRDMapper@@PEBVString@@0@Z@4HA 0000000180059f60 f    CIL library: CIL module
 0001:00058f70       ?dtor$30@?0??createStyledMapper@ParserFactory@@QEAAPEAVStyledHRDMapper@@PEBVString@@0@Z@4HA 0000000180059f70 f    CIL library: CIL module
 0001:00058f80       ?dtor$32@?0??createStyledMapper@ParserFactory@@QEAAPEAVStyledHRDMapper@@PEBVString@@0@Z@4HA 0000000180059f80 f    CIL library: CIL module
 0001:00058f90       ?catch$0@?0??createStyledMapper@ParserFactory@@QEAAPEAVStyledHRDMapper@@PEBVString@@0@Z@4HA 0000000180059f90 f    CIL library: CIL module
 0001:00058f9f       __catch$?createStyledMapper@ParserFactory@@QEAAPEAVStyledHRDMapper@@PEBVString@@0@Z$0 0000000180059f9f f    CIL library: CIL module
 0001:00059120       ?dtor$34@?0??createStyledMapper@ParserFactory@@QEAAPEAVStyledHRDMapper@@PEBVString@@0@Z@4HA 000000018005a120 f    CIL library: CIL module
 0001:00059130       ?dtor$7@?0??createStyledMapper@ParserFactory@@QEAAPEAVStyledHRDMapper@@PEBVString@@0@Z@4HA 000000018005a130 f    CIL library: CIL module
 0001:00059140       ?dtor$37@?0??createStyledMapper@ParserFactory@@QEAAPEAVStyledHRDMapper@@PEBVString@@0@Z@4HA 000000018005a140 f    CIL library: CIL module
 0001:00059150       ?dtor$38@?0??createStyledMapper@ParserFactory@@QEAAPEAVStyledHRDMapper@@PEBVString@@0@Z@4HA 000000018005a150 f    CIL library: CIL module
 0001:00059160       ?dtor$8@?0??createStyledMapper@ParserFactory@@QEAAPEAVStyledHRDMapper@@PEBVString@@0@Z@4HA 000000018005a160 f    CIL library: CIL module
 0001:00059170       ?dtor$0@?0??getHRCParser@ParserFactory@@QEAAPEAVHRCParser@@XZ@4HA 000000018005a170 f    CIL library: CIL module
 0001:00059180       ?dtor$13@?0??getHRCParser@ParserFactory@@QEAAPEAVHRCParser@@XZ@4HA 000000018005a180 f    CIL library: CIL module
 0001:00059190       ?dtor$15@?0??getHRCParser@ParserFactory@@QEAAPEAVHRCParser@@XZ@4HA 000000018005a190 f    CIL library: CIL module
 0001:000591a0       ?dtor$17@?0??getHRCParser@ParserFactory@@QEAAPEAVHRCParser@@XZ@4HA 000000018005a1a0 f    CIL library: CIL module
 0001:000591b0       ?dtor$1@?0??getHRCParser@ParserFactory@@QEAAPEAVHRCParser@@XZ@4HA 000000018005a1b0 f    CIL library: CIL module
 0001:000591c0       ?dtor$20@?0??getHRCParser@ParserFactory@@QEAAPEAVHRCParser@@XZ@4HA 000000018005a1c0 f    CIL library: CIL module
 0001:000591d0       ?dtor$2@?0??getHRCParser@ParserFactory@@QEAAPEAVHRCParser@@XZ@4HA 000000018005a1d0 f    CIL library: CIL module
 0001:000591e0       ?dtor$21@?0??getHRCParser@ParserFactory@@QEAAPEAVHRCParser@@XZ@4HA 000000018005a1e0 f    CIL library: CIL module
 0001:000591f0       ?dtor$23@?0??getHRCParser@ParserFactory@@QEAAPEAVHRCParser@@XZ@4HA 000000018005a1f0 f    CIL library: CIL module
 0001:00059200       ?dtor$22@?0??getHRCParser@ParserFactory@@QEAAPEAVHRCParser@@XZ@4HA 000000018005a200 f    CIL library: CIL module
 0001:00059210       ?dtor$27@?0??getHRCParser@ParserFactory@@QEAAPEAVHRCParser@@XZ@4HA 000000018005a210 f    CIL library: CIL module
 0001:00059220       ?dtor$3@?0??getHRCParser@ParserFactory@@QEAAPEAVHRCParser@@XZ@4HA 000000018005a220 f    CIL library: CIL module
 0001:00059230       ?dtor$30@?0??getHRCParser@ParserFactory@@QEAAPEAVHRCParser@@XZ@4HA 000000018005a230 f    CIL library: CIL module
 0001:00059240       ?dtor$4@?0??getHRCParser@ParserFactory@@QEAAPEAVHRCParser@@XZ@4HA 000000018005a240 f    CIL library: CIL module
 0001:00059250       ?dtor$31@?0??getHRCParser@ParserFactory@@QEAAPEAVHRCParser@@XZ@4HA 000000018005a250 f    CIL library: CIL module
 0001:00059260       ?dtor$33@?0??getHRCParser@ParserFactory@@QEAAPEAVHRCParser@@XZ@4HA 000000018005a260 f    CIL library: CIL module
 0001:00059270       ?dtor$32@?0??getHRCParser@ParserFactory@@QEAAPEAVHRCParser@@XZ@4HA 000000018005a270 f    CIL library: CIL module
 0001:00059280       ?dtor$37@?0??getHRCParser@ParserFactory@@QEAAPEAVHRCParser@@XZ@4HA 000000018005a280 f    CIL library: CIL module
 0001:00059290       ?dtor$5@?0??getHRCParser@ParserFactory@@QEAAPEAVHRCParser@@XZ@4HA 000000018005a290 f    CIL library: CIL module
 0001:000592a0       ?dtor$40@?0??getHRCParser@ParserFactory@@QEAAPEAVHRCParser@@XZ@4HA 000000018005a2a0 f    CIL library: CIL module
 0001:000592b0       ?dtor$6@?0??getHRCParser@ParserFactory@@QEAAPEAVHRCParser@@XZ@4HA 000000018005a2b0 f    CIL library: CIL module
 0001:000592c0       ?dtor$41@?0??getHRCParser@ParserFactory@@QEAAPEAVHRCParser@@XZ@4HA 000000018005a2c0 f    CIL library: CIL module
 0001:000592d0       ?dtor$43@?0??getHRCParser@ParserFactory@@QEAAPEAVHRCParser@@XZ@4HA 000000018005a2d0 f    CIL library: CIL module
 0001:000592e0       ?dtor$42@?0??getHRCParser@ParserFactory@@QEAAPEAVHRCParser@@XZ@4HA 000000018005a2e0 f    CIL library: CIL module
 0001:000592f0       ?dtor$7@?0??getHRCParser@ParserFactory@@QEAAPEAVHRCParser@@XZ@4HA 000000018005a2f0 f    CIL library: CIL module
 0001:00059300       ?dtor$47@?0??getHRCParser@ParserFactory@@QEAAPEAVHRCParser@@XZ@4HA 000000018005a300 f    CIL library: CIL module
 0001:00059310       ?dtor$49@?0??getHRCParser@ParserFactory@@QEAAPEAVHRCParser@@XZ@4HA 000000018005a310 f    CIL library: CIL module
 0001:00059320       ?dtor$48@?0??getHRCParser@ParserFactory@@QEAAPEAVHRCParser@@XZ@4HA 000000018005a320 f    CIL library: CIL module
 0001:00059330       ?dtor$54@?0??getHRCParser@ParserFactory@@QEAAPEAVHRCParser@@XZ@4HA 000000018005a330 f    CIL library: CIL module
 0001:00059340       ?dtor$56@?0??getHRCParser@ParserFactory@@QEAAPEAVHRCParser@@XZ@4HA 000000018005a340 f    CIL library: CIL module
 0001:00059350       ?dtor$55@?0??getHRCParser@ParserFactory@@QEAAPEAVHRCParser@@XZ@4HA 000000018005a350 f    CIL library: CIL module
 0001:00059360       ?dtor$8@?0??getHRCParser@ParserFactory@@QEAAPEAVHRCParser@@XZ@4HA 000000018005a360 f    CIL library: CIL module
 0001:00059370       ?dtor$61@?0??getHRCParser@ParserFactory@@QEAAPEAVHRCParser@@XZ@4HA 000000018005a370 f    CIL library: CIL module
 0001:00059380       ?dtor$62@?0??getHRCParser@ParserFactory@@QEAAPEAVHRCParser@@XZ@4HA 000000018005a380 f    CIL library: CIL module
 0001:00059390       ?dtor$64@?0??getHRCParser@ParserFactory@@QEAAPEAVHRCParser@@XZ@4HA 000000018005a390 f    CIL library: CIL module
 0001:000593a0       ?dtor$63@?0??getHRCParser@ParserFactory@@QEAAPEAVHRCParser@@XZ@4HA 000000018005a3a0 f    CIL library: CIL module
 0001:000593b0       ?dtor$70@?0??getHRCParser@ParserFactory@@QEAAPEAVHRCParser@@XZ@4HA 000000018005a3b0 f    CIL library: CIL module
 0001:000593c0       ?dtor$9@?0??getHRCParser@ParserFactory@@QEAAPEAVHRCParser@@XZ@4HA 000000018005a3c0 f    CIL library: CIL module
 0001:000593d0       ?dtor$72@?0??getHRCParser@ParserFactory@@QEAAPEAVHRCParser@@XZ@4HA 000000018005a3d0 f    CIL library: CIL module
 0001:000593e0       ?dtor$74@?0??getHRCParser@ParserFactory@@QEAAPEAVHRCParser@@XZ@4HA 000000018005a3e0 f    CIL library: CIL module
 0001:000593f0       ?dtor$73@?0??getHRCParser@ParserFactory@@QEAAPEAVHRCParser@@XZ@4HA 000000018005a3f0 f    CIL library: CIL module
 0001:00059400       ?dtor$10@?0??getHRCParser@ParserFactory@@QEAAPEAVHRCParser@@XZ@4HA 000000018005a400 f    CIL library: CIL module
 0001:00059410       ?dtor$79@?0??getHRCParser@ParserFactory@@QEAAPEAVHRCParser@@XZ@4HA 000000018005a410 f    CIL library: CIL module
 0001:00059420       ?dtor$80@?0??getHRCParser@ParserFactory@@QEAAPEAVHRCParser@@XZ@4HA 000000018005a420 f    CIL library: CIL module
 0001:00059430       ?catch$0@?0??getHRCParser@ParserFactory@@QEAAPEAVHRCParser@@XZ@4HA 000000018005a430 f    CIL library: CIL module
 0001:00059440       __catch$?getHRCParser@ParserFactory@@QEAAPEAVHRCParser@@XZ$0 000000018005a440 f    CIL library: CIL module
 0001:00059530       ?dtor$11@?0??getHRCParser@ParserFactory@@QEAAPEAVHRCParser@@XZ@4HA 000000018005a530 f    CIL library: CIL module
 0001:00059540       ?dtor$82@?0??getHRCParser@ParserFactory@@QEAAPEAVHRCParser@@XZ@4HA 000000018005a540 f    CIL library: CIL module
 0001:00059550       ?dtor$83@?0??getHRCParser@ParserFactory@@QEAAPEAVHRCParser@@XZ@4HA 000000018005a550 f    CIL library: CIL module
 0001:00059560       ?catch$1@?0??getHRCParser@ParserFactory@@QEAAPEAVHRCParser@@XZ@4HA 000000018005a560 f    CIL library: CIL module
 0001:0005956f       __catch$?getHRCParser@ParserFactory@@QEAAPEAVHRCParser@@XZ$2 000000018005a56f f    CIL library: CIL module
 0001:00059680       ?dtor$85@?0??getHRCParser@ParserFactory@@QEAAPEAVHRCParser@@XZ@4HA 000000018005a680 f    CIL library: CIL module
 0001:00059690       ?dtor$12@?0??getHRCParser@ParserFactory@@QEAAPEAVHRCParser@@XZ@4HA 000000018005a690 f    CIL library: CIL module
 0001:000596a0       ?dtor$88@?0??getHRCParser@ParserFactory@@QEAAPEAVHRCParser@@XZ@4HA 000000018005a6a0 f    CIL library: CIL module
 0001:000596b0       ?dtor$0@?0??searchPath@ParserFactory@@AEAAPEAVString@@XZ@4HA 000000018005a6b0 f    CIL library: CIL module
 0001:000596c0       ?dtor$17@?0??searchPath@ParserFactory@@AEAAPEAVString@@XZ@4HA 000000018005a6c0 f    CIL library: CIL module
 0001:000596d0       ?dtor$1@?0??searchPath@ParserFactory@@AEAAPEAVString@@XZ@4HA 000000018005a6d0 f    CIL library: CIL module
 0001:000596e0       ?dtor$19@?0??searchPath@ParserFactory@@AEAAPEAVString@@XZ@4HA 000000018005a6e0 f    CIL library: CIL module
 0001:000596f0       ?dtor$21@?0??searchPath@ParserFactory@@AEAAPEAVString@@XZ@4HA 000000018005a6f0 f    CIL library: CIL module
 0001:00059700       ?dtor$20@?0??searchPath@ParserFactory@@AEAAPEAVString@@XZ@4HA 000000018005a700 f    CIL library: CIL module
 0001:00059710       ?dtor$2@?0??searchPath@ParserFactory@@AEAAPEAVString@@XZ@4HA 000000018005a710 f    CIL library: CIL module
 0001:00059720       ?dtor$3@?0??searchPath@ParserFactory@@AEAAPEAVString@@XZ@4HA 000000018005a720 f    CIL library: CIL module
 0001:00059730       ?dtor$25@?0??searchPath@ParserFactory@@AEAAPEAVString@@XZ@4HA 000000018005a730 f    CIL library: CIL module
 0001:00059740       ?dtor$27@?0??searchPath@ParserFactory@@AEAAPEAVString@@XZ@4HA 000000018005a740 f    CIL library: CIL module
 0001:00059750       ?dtor$26@?0??searchPath@ParserFactory@@AEAAPEAVString@@XZ@4HA 000000018005a750 f    CIL library: CIL module
 0001:00059760       ?dtor$4@?0??searchPath@ParserFactory@@AEAAPEAVString@@XZ@4HA 000000018005a760 f    CIL library: CIL module
 0001:00059790       ?dtor$32@?0??searchPath@ParserFactory@@AEAAPEAVString@@XZ@4HA 000000018005a790 f    CIL library: CIL module
 0001:000597a0       ?dtor$34@?0??searchPath@ParserFactory@@AEAAPEAVString@@XZ@4HA 000000018005a7a0 f    CIL library: CIL module
 0001:000597b0       ?dtor$33@?0??searchPath@ParserFactory@@AEAAPEAVString@@XZ@4HA 000000018005a7b0 f    CIL library: CIL module
 0001:000597c0       ?dtor$38@?0??searchPath@ParserFactory@@AEAAPEAVString@@XZ@4HA 000000018005a7c0 f    CIL library: CIL module
 0001:000597d0       ?dtor$5@?0??searchPath@ParserFactory@@AEAAPEAVString@@XZ@4HA 000000018005a7d0 f    CIL library: CIL module
 0001:000597e0       ?dtor$41@?0??searchPath@ParserFactory@@AEAAPEAVString@@XZ@4HA 000000018005a7e0 f    CIL library: CIL module
 0001:000597f0       ?dtor$42@?0??searchPath@ParserFactory@@AEAAPEAVString@@XZ@4HA 000000018005a7f0 f    CIL library: CIL module
 0001:00059800       ?dtor$6@?0??searchPath@ParserFactory@@AEAAPEAVString@@XZ@4HA 000000018005a800 f    CIL library: CIL module
 0001:00059810       ?dtor$7@?0??searchPath@ParserFactory@@AEAAPEAVString@@XZ@4HA 000000018005a810 f    CIL library: CIL module
 0001:00059820       ?dtor$43@?0??searchPath@ParserFactory@@AEAAPEAVString@@XZ@4HA 000000018005a820 f    CIL library: CIL module
 0001:00059830       ?dtor$8@?0??searchPath@ParserFactory@@AEAAPEAVString@@XZ@4HA 000000018005a830 f    CIL library: CIL module
 0001:00059840       ?dtor$9@?0??searchPath@ParserFactory@@AEAAPEAVString@@XZ@4HA 000000018005a840 f    CIL library: CIL module
 0001:00059850       ?dtor$47@?0??searchPath@ParserFactory@@AEAAPEAVString@@XZ@4HA 000000018005a850 f    CIL library: CIL module
 0001:00059860       ?dtor$48@?0??searchPath@ParserFactory@@AEAAPEAVString@@XZ@4HA 000000018005a860 f    CIL library: CIL module
 0001:00059870       ?dtor$10@?0??searchPath@ParserFactory@@AEAAPEAVString@@XZ@4HA 000000018005a870 f    CIL library: CIL module
 0001:00059880       ?dtor$49@?0??searchPath@ParserFactory@@AEAAPEAVString@@XZ@4HA 000000018005a880 f    CIL library: CIL module
 0001:00059890       ?dtor$51@?0??searchPath@ParserFactory@@AEAAPEAVString@@XZ@4HA 000000018005a890 f    CIL library: CIL module
 0001:000598a0       ?dtor$53@?0??searchPath@ParserFactory@@AEAAPEAVString@@XZ@4HA 000000018005a8a0 f    CIL library: CIL module
 0001:000598b0       ?dtor$52@?0??searchPath@ParserFactory@@AEAAPEAVString@@XZ@4HA 000000018005a8b0 f    CIL library: CIL module
 0001:000598c0       ?catch$0@?0??searchPath@ParserFactory@@AEAAPEAVString@@XZ@4HA 000000018005a8c0 f    CIL library: CIL module
 0001:000598cd       __catch$?searchPath@ParserFactory@@AEAAPEAVString@@XZ$0 000000018005a8cd f    CIL library: CIL module
 0001:000598e0       ?dtor$11@?0??searchPath@ParserFactory@@AEAAPEAVString@@XZ@4HA 000000018005a8e0 f    CIL library: CIL module
 0001:000598f0       ?dtor$57@?0??searchPath@ParserFactory@@AEAAPEAVString@@XZ@4HA 000000018005a8f0 f    CIL library: CIL module
 0001:00059900       ?dtor$12@?0??searchPath@ParserFactory@@AEAAPEAVString@@XZ@4HA 000000018005a900 f    CIL library: CIL module
 0001:00059910       ?dtor$60@?0??searchPath@ParserFactory@@AEAAPEAVString@@XZ@4HA 000000018005a910 f    CIL library: CIL module
 0001:00059920       ?dtor$13@?0??searchPath@ParserFactory@@AEAAPEAVString@@XZ@4HA 000000018005a920 f    CIL library: CIL module
 0001:00059930       ?dtor$61@?0??searchPath@ParserFactory@@AEAAPEAVString@@XZ@4HA 000000018005a930 f    CIL library: CIL module
 0001:00059940       ?dtor$63@?0??searchPath@ParserFactory@@AEAAPEAVString@@XZ@4HA 000000018005a940 f    CIL library: CIL module
 0001:00059950       ?dtor$65@?0??searchPath@ParserFactory@@AEAAPEAVString@@XZ@4HA 000000018005a950 f    CIL library: CIL module
 0001:00059960       ?dtor$64@?0??searchPath@ParserFactory@@AEAAPEAVString@@XZ@4HA 000000018005a960 f    CIL library: CIL module
 0001:00059970       ?catch$1@?0??searchPath@ParserFactory@@AEAAPEAVString@@XZ@4HA 000000018005a970 f    CIL library: CIL module
 0001:0005997d       __catch$?searchPath@ParserFactory@@AEAAPEAVString@@XZ$2 000000018005a97d f    CIL library: CIL module
 0001:00059990       ?dtor$69@?0??searchPath@ParserFactory@@AEAAPEAVString@@XZ@4HA 000000018005a990 f    CIL library: CIL module
 0001:000599a0       ?dtor$14@?0??searchPath@ParserFactory@@AEAAPEAVString@@XZ@4HA 000000018005a9a0 f    CIL library: CIL module
 0001:000599b0       ?dtor$71@?0??searchPath@ParserFactory@@AEAAPEAVString@@XZ@4HA 000000018005a9b0 f    CIL library: CIL module
 0001:000599c0       ?dtor$73@?0??searchPath@ParserFactory@@AEAAPEAVString@@XZ@4HA 000000018005a9c0 f    CIL library: CIL module
 0001:000599d0       ?dtor$72@?0??searchPath@ParserFactory@@AEAAPEAVString@@XZ@4HA 000000018005a9d0 f    CIL library: CIL module
 0001:000599e0       ?catch$2@?0??searchPath@ParserFactory@@AEAAPEAVString@@XZ@4HA 000000018005a9e0 f    CIL library: CIL module
 0001:000599ed       __catch$?searchPath@ParserFactory@@AEAAPEAVString@@XZ$4 000000018005a9ed f    CIL library: CIL module
 0001:00059a20       ?dtor$77@?0??searchPath@ParserFactory@@AEAAPEAVString@@XZ@4HA 000000018005aa20 f    CIL library: CIL module
 0001:00059a30       ?dtor$15@?0??searchPath@ParserFactory@@AEAAPEAVString@@XZ@4HA 000000018005aa30 f    CIL library: CIL module
 0001:00059a40       ?dtor$80@?0??searchPath@ParserFactory@@AEAAPEAVString@@XZ@4HA 000000018005aa40 f    CIL library: CIL module
 0001:00059a50       ?dtor$81@?0??searchPath@ParserFactory@@AEAAPEAVString@@XZ@4HA 000000018005aa50 f    CIL library: CIL module
 0001:00059a60       ?dtor$16@?0??searchPath@ParserFactory@@AEAAPEAVString@@XZ@4HA 000000018005aa60 f    CIL library: CIL module
 0001:00059a70       ?dtor$85@?0??searchPath@ParserFactory@@AEAAPEAVString@@XZ@4HA 000000018005aa70 f    CIL library: CIL module
 0001:00059a80       ?dtor$86@?0??searchPath@ParserFactory@@AEAAPEAVString@@XZ@4HA 000000018005aa80 f    CIL library: CIL module
 0001:00059a90       ?dtor$87@?0??searchPath@ParserFactory@@AEAAPEAVString@@XZ@4HA 000000018005aa90 f    CIL library: CIL module
 0001:00059aa0       ?dtor$5@?0??readProfileFromRegistry@FarHrcSettings@@AEAAXPEAUHKEY__@@@Z@4HA 000000018005aaa0 f    CIL library: CIL module
 0001:00059ab0       ?dtor$0@?0??readProfileFromRegistry@FarHrcSettings@@AEAAXPEAUHKEY__@@@Z@4HA 000000018005aab0 f    CIL library: CIL module
 0001:00059ac0       ?dtor$11@?0??readProfileFromRegistry@FarHrcSettings@@AEAAXPEAUHKEY__@@@Z@4HA 000000018005aac0 f    CIL library: CIL module
 0001:00059ad0       ?dtor$12@?0??readProfileFromRegistry@FarHrcSettings@@AEAAXPEAUHKEY__@@@Z@4HA 000000018005aad0 f    CIL library: CIL module
 0001:00059ae0       ?dtor$14@?0??readProfileFromRegistry@FarHrcSettings@@AEAAXPEAUHKEY__@@@Z@4HA 000000018005aae0 f    CIL library: CIL module
 0001:00059af0       ?dtor$13@?0??readProfileFromRegistry@FarHrcSettings@@AEAAXPEAUHKEY__@@@Z@4HA 000000018005aaf0 f    CIL library: CIL module
 0001:00059b00       ?dtor$21@?0??readProfileFromRegistry@FarHrcSettings@@AEAAXPEAUHKEY__@@@Z@4HA 000000018005ab00 f    CIL library: CIL module
 0001:00059b10       ?dtor$20@?0??readProfileFromRegistry@FarHrcSettings@@AEAAXPEAUHKEY__@@@Z@4HA 000000018005ab10 f    CIL library: CIL module
 0001:00059b20       ?dtor$25@?0??readProfileFromRegistry@FarHrcSettings@@AEAAXPEAUHKEY__@@@Z@4HA 000000018005ab20 f    CIL library: CIL module
 0001:00059b30       ?dtor$1@?0??readProfileFromRegistry@FarHrcSettings@@AEAAXPEAUHKEY__@@@Z@4HA 000000018005ab30 f    CIL library: CIL module
 0001:00059b40       ?dtor$26@?0??readProfileFromRegistry@FarHrcSettings@@AEAAXPEAUHKEY__@@@Z@4HA 000000018005ab40 f    CIL library: CIL module
 0001:00059b50       ?dtor$27@?0??readProfileFromRegistry@FarHrcSettings@@AEAAXPEAUHKEY__@@@Z@4HA 000000018005ab50 f    CIL library: CIL module
 0001:00059b60       ?dtor$29@?0??readProfileFromRegistry@FarHrcSettings@@AEAAXPEAUHKEY__@@@Z@4HA 000000018005ab60 f    CIL library: CIL module
 0001:00059b70       ?dtor$28@?0??readProfileFromRegistry@FarHrcSettings@@AEAAXPEAUHKEY__@@@Z@4HA 000000018005ab70 f    CIL library: CIL module
 0001:00059b80       ?dtor$35@?0??readProfileFromRegistry@FarHrcSettings@@AEAAXPEAUHKEY__@@@Z@4HA 000000018005ab80 f    CIL library: CIL module
 0001:00059b90       ?dtor$2@?0??readProfileFromRegistry@FarHrcSettings@@AEAAXPEAUHKEY__@@@Z@4HA 000000018005ab90 f    CIL library: CIL module
 0001:00059ba0       ?dtor$36@?0??readProfileFromRegistry@FarHrcSettings@@AEAAXPEAUHKEY__@@@Z@4HA 000000018005aba0 f    CIL library: CIL module
 0001:00059bb0       ?dtor$3@?0??readProfileFromRegistry@FarHrcSettings@@AEAAXPEAUHKEY__@@@Z@4HA 000000018005abb0 f    CIL library: CIL module
 0001:00059bc0       ?dtor$37@?0??readProfileFromRegistry@FarHrcSettings@@AEAAXPEAUHKEY__@@@Z@4HA 000000018005abc0 f    CIL library: CIL module
 0001:00059bd0       ?dtor$39@?0??readProfileFromRegistry@FarHrcSettings@@AEAAXPEAUHKEY__@@@Z@4HA 000000018005abd0 f    CIL library: CIL module
 0001:00059be0       ?dtor$38@?0??readProfileFromRegistry@FarHrcSettings@@AEAAXPEAUHKEY__@@@Z@4HA 000000018005abe0 f    CIL library: CIL module
 0001:00059bf0       ?dtor$46@?0??readProfileFromRegistry@FarHrcSettings@@AEAAXPEAUHKEY__@@@Z@4HA 000000018005abf0 f    CIL library: CIL module
 0001:00059c00       ?dtor$45@?0??readProfileFromRegistry@FarHrcSettings@@AEAAXPEAUHKEY__@@@Z@4HA 000000018005ac00 f    CIL library: CIL module
 0001:00059c10       ?dtor$50@?0??readProfileFromRegistry@FarHrcSettings@@AEAAXPEAUHKEY__@@@Z@4HA 000000018005ac10 f    CIL library: CIL module
 0001:00059c20       ?dtor$4@?0??readProfileFromRegistry@FarHrcSettings@@AEAAXPEAUHKEY__@@@Z@4HA 000000018005ac20 f    CIL library: CIL module
 0001:00059c30       ?dtor$51@?0??readProfileFromRegistry@FarHrcSettings@@AEAAXPEAUHKEY__@@@Z@4HA 000000018005ac30 f    CIL library: CIL module
 0001:00059c40       ?dtor$52@?0??readProfileFromRegistry@FarHrcSettings@@AEAAXPEAUHKEY__@@@Z@4HA 000000018005ac40 f    CIL library: CIL module
 0001:00059c50       ?dtor$8@?0??UpdatePrototype@FarHrcSettings@@AEAAXPEAVElement@@_N@Z@4HA 000000018005ac50 f    CIL library: CIL module
 0001:00059c60       ?dtor$0@?0??UpdatePrototype@FarHrcSettings@@AEAAXPEAVElement@@_N@Z@4HA 000000018005ac60 f    CIL library: CIL module
 0001:00059c70       ?dtor$11@?0??UpdatePrototype@FarHrcSettings@@AEAAXPEAVElement@@_N@Z@4HA 000000018005ac70 f    CIL library: CIL module
 0001:00059c80       ?dtor$12@?0??UpdatePrototype@FarHrcSettings@@AEAAXPEAVElement@@_N@Z@4HA 000000018005ac80 f    CIL library: CIL module
 0001:00059c90       ?dtor$1@?0??UpdatePrototype@FarHrcSettings@@AEAAXPEAVElement@@_N@Z@4HA 000000018005ac90 f    CIL library: CIL module
 0001:00059ca0       ?dtor$15@?0??UpdatePrototype@FarHrcSettings@@AEAAXPEAVElement@@_N@Z@4HA 000000018005aca0 f    CIL library: CIL module
 0001:00059cb0       ?dtor$16@?0??UpdatePrototype@FarHrcSettings@@AEAAXPEAVElement@@_N@Z@4HA 000000018005acb0 f    CIL library: CIL module
 0001:00059cc0       ?dtor$2@?0??UpdatePrototype@FarHrcSettings@@AEAAXPEAVElement@@_N@Z@4HA 000000018005acc0 f    CIL library: CIL module
 0001:00059cd0       ?dtor$19@?0??UpdatePrototype@FarHrcSettings@@AEAAXPEAVElement@@_N@Z@4HA 000000018005acd0 f    CIL library: CIL module
 0001:00059ce0       ?dtor$20@?0??UpdatePrototype@FarHrcSettings@@AEAAXPEAVElement@@_N@Z@4HA 000000018005ace0 f    CIL library: CIL module
 0001:00059cf0       ?dtor$3@?0??UpdatePrototype@FarHrcSettings@@AEAAXPEAVElement@@_N@Z@4HA 000000018005acf0 f    CIL library: CIL module
 0001:00059d00       ?dtor$23@?0??UpdatePrototype@FarHrcSettings@@AEAAXPEAVElement@@_N@Z@4HA 000000018005ad00 f    CIL library: CIL module
 0001:00059d10       ?dtor$24@?0??UpdatePrototype@FarHrcSettings@@AEAAXPEAVElement@@_N@Z@4HA 000000018005ad10 f    CIL library: CIL module
 0001:00059d20       ?dtor$26@?0??UpdatePrototype@FarHrcSettings@@AEAAXPEAVElement@@_N@Z@4HA 000000018005ad20 f    CIL library: CIL module
 0001:00059d30       ?dtor$25@?0??UpdatePrototype@FarHrcSettings@@AEAAXPEAVElement@@_N@Z@4HA 000000018005ad30 f    CIL library: CIL module
 0001:00059d40       ?dtor$4@?0??UpdatePrototype@FarHrcSettings@@AEAAXPEAVElement@@_N@Z@4HA 000000018005ad40 f    CIL library: CIL module
 0001:00059d50       ?dtor$30@?0??UpdatePrototype@FarHrcSettings@@AEAAXPEAVElement@@_N@Z@4HA 000000018005ad50 f    CIL library: CIL module
 0001:00059d60       ?dtor$31@?0??UpdatePrototype@FarHrcSettings@@AEAAXPEAVElement@@_N@Z@4HA 000000018005ad60 f    CIL library: CIL module
 0001:00059d70       ?dtor$33@?0??UpdatePrototype@FarHrcSettings@@AEAAXPEAVElement@@_N@Z@4HA 000000018005ad70 f    CIL library: CIL module
 0001:00059d80       ?dtor$32@?0??UpdatePrototype@FarHrcSettings@@AEAAXPEAVElement@@_N@Z@4HA 000000018005ad80 f    CIL library: CIL module
 0001:00059d90       ?dtor$5@?0??UpdatePrototype@FarHrcSettings@@AEAAXPEAVElement@@_N@Z@4HA 000000018005ad90 f    CIL library: CIL module
 0001:00059da0       ?dtor$37@?0??UpdatePrototype@FarHrcSettings@@AEAAXPEAVElement@@_N@Z@4HA 000000018005ada0 f    CIL library: CIL module
 0001:00059db0       ?dtor$45@?0??UpdatePrototype@FarHrcSettings@@AEAAXPEAVElement@@_N@Z@4HA 000000018005adb0 f    CIL library: CIL module
 0001:00059dc0       ?dtor$47@?0??UpdatePrototype@FarHrcSettings@@AEAAXPEAVElement@@_N@Z@4HA 000000018005adc0 f    CIL library: CIL module
 0001:00059dd0       ?dtor$46@?0??UpdatePrototype@FarHrcSettings@@AEAAXPEAVElement@@_N@Z@4HA 000000018005add0 f    CIL library: CIL module
 0001:00059de0       ?dtor$7@?0??UpdatePrototype@FarHrcSettings@@AEAAXPEAVElement@@_N@Z@4HA 000000018005ade0 f    CIL library: CIL module
 0001:00059df0       ?dtor$51@?0??UpdatePrototype@FarHrcSettings@@AEAAXPEAVElement@@_N@Z@4HA 000000018005adf0 f    CIL library: CIL module
 0001:00059e00       ?dtor$4@?0??OnChangeParam@FarEditorSet@@QEAAXPEAXH@Z@4HA 000000018005ae00 f    CIL library: CIL module
 0001:00059e10       ?dtor$0@?0??OnChangeParam@FarEditorSet@@QEAAXPEAXH@Z@4HA 000000018005ae10 f    CIL library: CIL module
 0001:00059e20       ?dtor$10@?0??OnChangeParam@FarEditorSet@@QEAAXPEAXH@Z@4HA 000000018005ae20 f    CIL library: CIL module
 0001:00059e30       ?dtor$16@?0??OnChangeParam@FarEditorSet@@QEAAXPEAXH@Z@4HA 000000018005ae30 f    CIL library: CIL module
 0001:00059e40       ?dtor$22@?0??OnChangeParam@FarEditorSet@@QEAAXPEAXH@Z@4HA 000000018005ae40 f    CIL library: CIL module
 0001:00059e50       ?dtor$28@?0??OnChangeParam@FarEditorSet@@QEAAXPEAXH@Z@4HA 000000018005ae50 f    CIL library: CIL module
 0001:00059e60       ?catch$0@?0??LoadUserHrc@FarEditorSet@@QEAAXPEBVString@@PEAVParserFactory@@@Z@4HA 000000018005ae60 f    CIL library: CIL module
 0001:00059e6d       __catch$?LoadUserHrc@FarEditorSet@@QEAAXPEBVString@@PEAVParserFactory@@@Z$0 000000018005ae6d f    CIL library: CIL module
 0001:00059ea0       ?dtor$2@?0??editorEvent@FarEditor@@QEAAHHPEAX@Z@4HA 000000018005aea0 f    CIL library: CIL module
 0001:00059eb0       ?dtor$0@?0??editorEvent@FarEditor@@QEAAHHPEAX@Z@4HA 000000018005aeb0 f    CIL library: CIL module
 0001:00059ec0       ?dtor$1@?0??editorEvent@FarEditor@@QEAAHHPEAX@Z@4HA 000000018005aec0 f    CIL library: CIL module
 0001:00059ed0       ?dtor$2@?0??reloadTypeSettings@FarEditor@@AEAAXXZ@4HA 000000018005aed0 f    CIL library: CIL module
 0001:00059ee0       ?dtor$0@?0??reloadTypeSettings@FarEditor@@AEAAXXZ@4HA 000000018005aee0 f    CIL library: CIL module
 0001:00059ef0       ?dtor$5@?0??reloadTypeSettings@FarEditor@@AEAAXXZ@4HA 000000018005aef0 f    CIL library: CIL module
 0001:00059f00       ?dtor$6@?0??reloadTypeSettings@FarEditor@@AEAAXXZ@4HA 000000018005af00 f    CIL library: CIL module
 0001:00059f10       ?dtor$1@?0??reloadTypeSettings@FarEditor@@AEAAXXZ@4HA 000000018005af10 f    CIL library: CIL module
 0001:00059f20       ?dtor$1@?0??setStructs@CRegExp@@AEAA?AW4EError@@AEAPEAVSRegInfo@@AEBVString@@AEAH@Z@4HA 000000018005af20 f    CIL library: CIL module
 0001:00059f30       ?dtor$10@?0??setStructs@CRegExp@@AEAA?AW4EError@@AEAPEAVSRegInfo@@AEBVString@@AEAH@Z@4HA 000000018005af30 f    CIL library: CIL module
 0001:00059f40       ?dtor$2@?0??setStructs@CRegExp@@AEAA?AW4EError@@AEAPEAVSRegInfo@@AEBVString@@AEAH@Z@4HA 000000018005af40 f    CIL library: CIL module
 0001:00059f50       ?dtor$11@?0??setStructs@CRegExp@@AEAA?AW4EError@@AEAPEAVSRegInfo@@AEBVString@@AEAH@Z@4HA 000000018005af50 f    CIL library: CIL module
 0001:00059f60       ?dtor$3@?0??setStructs@CRegExp@@AEAA?AW4EError@@AEAPEAVSRegInfo@@AEBVString@@AEAH@Z@4HA 000000018005af60 f    CIL library: CIL module
 0001:00059f70       ?dtor$12@?0??setStructs@CRegExp@@AEAA?AW4EError@@AEAPEAVSRegInfo@@AEBVString@@AEAH@Z@4HA 000000018005af70 f    CIL library: CIL module
 0001:00059f80       ?dtor$14@?0??setStructs@CRegExp@@AEAA?AW4EError@@AEAPEAVSRegInfo@@AEBVString@@AEAH@Z@4HA 000000018005af80 f    CIL library: CIL module
 0001:00059f90       ?dtor$13@?0??setStructs@CRegExp@@AEAA?AW4EError@@AEAPEAVSRegInfo@@AEBVString@@AEAH@Z@4HA 000000018005af90 f    CIL library: CIL module
 0001:00059fa0       ?dtor$5@?0??setStructs@CRegExp@@AEAA?AW4EError@@AEAPEAVSRegInfo@@AEBVString@@AEAH@Z@4HA 000000018005afa0 f    CIL library: CIL module
 0001:00059fb0       ?dtor$27@?0??setStructs@CRegExp@@AEAA?AW4EError@@AEAPEAVSRegInfo@@AEBVString@@AEAH@Z@4HA 000000018005afb0 f    CIL library: CIL module
 0001:00059fc0       ?dtor$6@?0??setStructs@CRegExp@@AEAA?AW4EError@@AEAPEAVSRegInfo@@AEBVString@@AEAH@Z@4HA 000000018005afc0 f    CIL library: CIL module
 0001:00059fd0       ?dtor$31@?0??setStructs@CRegExp@@AEAA?AW4EError@@AEAPEAVSRegInfo@@AEBVString@@AEAH@Z@4HA 000000018005afd0 f    CIL library: CIL module
 0001:00059fe0       ?dtor$33@?0??setStructs@CRegExp@@AEAA?AW4EError@@AEAPEAVSRegInfo@@AEBVString@@AEAH@Z@4HA 000000018005afe0 f    CIL library: CIL module
 0001:00059ff0       ?dtor$32@?0??setStructs@CRegExp@@AEAA?AW4EError@@AEAPEAVSRegInfo@@AEBVString@@AEAH@Z@4HA 000000018005aff0 f    CIL library: CIL module
 0001:0005a000       ?dtor$7@?0??setStructs@CRegExp@@AEAA?AW4EError@@AEAPEAVSRegInfo@@AEBVString@@AEAH@Z@4HA 000000018005b000 f    CIL library: CIL module
 0001:0005a030       ?dtor$37@?0??setStructs@CRegExp@@AEAA?AW4EError@@AEAPEAVSRegInfo@@AEBVString@@AEAH@Z@4HA 000000018005b030 f    CIL library: CIL module
 0001:0005a040       ?dtor$39@?0??setStructs@CRegExp@@AEAA?AW4EError@@AEAPEAVSRegInfo@@AEBVString@@AEAH@Z@4HA 000000018005b040 f    CIL library: CIL module
 0001:0005a050       ?dtor$38@?0??setStructs@CRegExp@@AEAA?AW4EError@@AEAPEAVSRegInfo@@AEBVString@@AEAH@Z@4HA 000000018005b050 f    CIL library: CIL module
 0001:0005a060       ?dtor$43@?0??setStructs@CRegExp@@AEAA?AW4EError@@AEAPEAVSRegInfo@@AEBVString@@AEAH@Z@4HA 000000018005b060 f    CIL library: CIL module
 0001:0005a070       ?dtor$8@?0??serialize@Element@@UEAAXPEAVWriter@@FF@Z@4HA 000000018005b070 f    CIL library: CIL module
 0001:0005a080       ?dtor$0@?0??serialize@Element@@UEAAXPEAVWriter@@FF@Z@4HA 000000018005b080 f    CIL library: CIL module
 0001:0005a090       ?dtor$11@?0??serialize@Element@@UEAAXPEAVWriter@@FF@Z@4HA 000000018005b090 f    CIL library: CIL module
 0001:0005a0a0       ?dtor$1@?0??serialize@Element@@UEAAXPEAVWriter@@FF@Z@4HA 000000018005b0a0 f    CIL library: CIL module
 0001:0005a0b0       ?dtor$14@?0??serialize@Element@@UEAAXPEAVWriter@@FF@Z@4HA 000000018005b0b0 f    CIL library: CIL module
 0001:0005a0c0       ?dtor$2@?0??serialize@Element@@UEAAXPEAVWriter@@FF@Z@4HA 000000018005b0c0 f    CIL library: CIL module
 0001:0005a0d0       ?dtor$17@?0??serialize@Element@@UEAAXPEAVWriter@@FF@Z@4HA 000000018005b0d0 f    CIL library: CIL module
 0001:0005a0e0       ?dtor$3@?0??serialize@Element@@UEAAXPEAVWriter@@FF@Z@4HA 000000018005b0e0 f    CIL library: CIL module
 0001:0005a0f0       ?dtor$20@?0??serialize@Element@@UEAAXPEAVWriter@@FF@Z@4HA 000000018005b0f0 f    CIL library: CIL module
 0001:0005a100       ?dtor$21@?0??serialize@Element@@UEAAXPEAVWriter@@FF@Z@4HA 000000018005b100 f    CIL library: CIL module
 0001:0005a110       ?dtor$23@?0??serialize@Element@@UEAAXPEAVWriter@@FF@Z@4HA 000000018005b110 f    CIL library: CIL module
 0001:0005a120       ?dtor$4@?0??serialize@Element@@UEAAXPEAVWriter@@FF@Z@4HA 000000018005b120 f    CIL library: CIL module
 0001:0005a130       ?dtor$26@?0??serialize@Element@@UEAAXPEAVWriter@@FF@Z@4HA 000000018005b130 f    CIL library: CIL module
 0001:0005a140       ?dtor$27@?0??serialize@Element@@UEAAXPEAVWriter@@FF@Z@4HA 000000018005b140 f    CIL library: CIL module
 0001:0005a150       ?dtor$29@?0??serialize@Element@@UEAAXPEAVWriter@@FF@Z@4HA 000000018005b150 f    CIL library: CIL module
 0001:0005a160       ?dtor$5@?0??serialize@Element@@UEAAXPEAVWriter@@FF@Z@4HA 000000018005b160 f    CIL library: CIL module
 0001:0005a170       ?dtor$32@?0??serialize@Element@@UEAAXPEAVWriter@@FF@Z@4HA 000000018005b170 f    CIL library: CIL module
 0001:0005a180       ?dtor$33@?0??serialize@Element@@UEAAXPEAVWriter@@FF@Z@4HA 000000018005b180 f    CIL library: CIL module
 0001:0005a190       ?dtor$6@?0??serialize@Element@@UEAAXPEAVWriter@@FF@Z@4HA 000000018005b190 f    CIL library: CIL module
 0001:0005a1a0       ?dtor$36@?0??serialize@Element@@UEAAXPEAVWriter@@FF@Z@4HA 000000018005b1a0 f    CIL library: CIL module
 0001:0005a1b0       ?dtor$37@?0??serialize@Element@@UEAAXPEAVWriter@@FF@Z@4HA 000000018005b1b0 f    CIL library: CIL module
 0001:0005a1c0       ?dtor$7@?0??serialize@Element@@UEAAXPEAVWriter@@FF@Z@4HA 000000018005b1c0 f    CIL library: CIL module
 0001:0005a1d0       ?dtor$40@?0??serialize@Element@@UEAAXPEAVWriter@@FF@Z@4HA 000000018005b1d0 f    CIL library: CIL module
 0001:0005a1e0       ?dtor$41@?0??serialize@Element@@UEAAXPEAVWriter@@FF@Z@4HA 000000018005b1e0 f    CIL library: CIL module
 0001:0005a1f0       ?dtor$42@?0??serialize@Element@@UEAAXPEAVWriter@@FF@Z@4HA 000000018005b1f0 f    CIL library: CIL module
 0001:0005a200       ?dtor$43@?0??serialize@Element@@UEAAXPEAVWriter@@FF@Z@4HA 000000018005b200 f    CIL library: CIL module
 0001:0005a210       ?dtor$1@?0??get@DocumentBuilder@@AEAA_WXZ@4HA 000000018005b210 f    CIL library: CIL module
 0001:0005a210       ?dtor$1@?0??consumeDocument@DocumentBuilder@@AEAAXXZ@4HA 000000018005b210 f    CIL library: CIL module
 0001:0005a220       ?dtor$0@?0??consumeDocument@DocumentBuilder@@AEAAXXZ@4HA 000000018005b220 f    CIL library: CIL module
 0001:0005a220       ?dtor$0@?0??get@DocumentBuilder@@AEAA_WXZ@4HA 000000018005b220 f    CIL library: CIL module
 0001:0005a230       ?dtor$12@?0??get@DocumentBuilder@@AEAA_WXZ@4HA 000000018005b230 f    CIL library: CIL module
 0001:0005a230       ?dtor$5@?0??consumeDocument@DocumentBuilder@@AEAAXXZ@4HA 000000018005b230 f    CIL library: CIL module
 0001:0005a240       ?dtor$4@?0??consumeDocument@DocumentBuilder@@AEAAXXZ@4HA 000000018005b240 f    CIL library: CIL module
 0001:0005a240       ?dtor$11@?0??get@DocumentBuilder@@AEAA_WXZ@4HA 000000018005b240 f    CIL library: CIL module
 0001:0005a250       ?dtor$0@?0??parse@DocumentBuilder@@QEAAPEAVDocument@@PEBEHPEBD@Z@4HA 000000018005b250 f    CIL library: CIL module
 0001:0005a260       ?dtor$12@?0??parse@DocumentBuilder@@QEAAPEAVDocument@@PEBEHPEBD@Z@4HA 000000018005b260 f    CIL library: CIL module
 0001:0005a270       ?dtor$1@?0??parse@DocumentBuilder@@QEAAPEAVDocument@@PEBEHPEBD@Z@4HA 000000018005b270 f    CIL library: CIL module
 0001:0005a280       ?dtor$15@?0??parse@DocumentBuilder@@QEAAPEAVDocument@@PEBEHPEBD@Z@4HA 000000018005b280 f    CIL library: CIL module
 0001:0005a290       ?dtor$2@?0??parse@DocumentBuilder@@QEAAPEAVDocument@@PEBEHPEBD@Z@4HA 000000018005b290 f    CIL library: CIL module
 0001:0005a2a0       ?dtor$16@?0??parse@DocumentBuilder@@QEAAPEAVDocument@@PEBEHPEBD@Z@4HA 000000018005b2a0 f    CIL library: CIL module
 0001:0005a2b0       ?dtor$3@?0??parse@DocumentBuilder@@QEAAPEAVDocument@@PEBEHPEBD@Z@4HA 000000018005b2b0 f    CIL library: CIL module
 0001:0005a2c0       ?dtor$19@?0??parse@DocumentBuilder@@QEAAPEAVDocument@@PEBEHPEBD@Z@4HA 000000018005b2c0 f    CIL library: CIL module
 0001:0005a2d0       ?dtor$4@?0??parse@DocumentBuilder@@QEAAPEAVDocument@@PEBEHPEBD@Z@4HA 000000018005b2d0 f    CIL library: CIL module
 0001:0005a2e0       ?dtor$20@?0??parse@DocumentBuilder@@QEAAPEAVDocument@@PEBEHPEBD@Z@4HA 000000018005b2e0 f    CIL library: CIL module
 0001:0005a2f0       ?dtor$5@?0??parse@DocumentBuilder@@QEAAPEAVDocument@@PEBEHPEBD@Z@4HA 000000018005b2f0 f    CIL library: CIL module
 0001:0005a300       ?dtor$23@?0??parse@DocumentBuilder@@QEAAPEAVDocument@@PEBEHPEBD@Z@4HA 000000018005b300 f    CIL library: CIL module
 0001:0005a310       ?dtor$6@?0??parse@DocumentBuilder@@QEAAPEAVDocument@@PEBEHPEBD@Z@4HA 000000018005b310 f    CIL library: CIL module
 0001:0005a320       ?dtor$24@?0??parse@DocumentBuilder@@QEAAPEAVDocument@@PEBEHPEBD@Z@4HA 000000018005b320 f    CIL library: CIL module
 0001:0005a330       ?dtor$7@?0??parse@DocumentBuilder@@QEAAPEAVDocument@@PEBEHPEBD@Z@4HA 000000018005b330 f    CIL library: CIL module
 0001:0005a340       ?dtor$27@?0??parse@DocumentBuilder@@QEAAPEAVDocument@@PEBEHPEBD@Z@4HA 000000018005b340 f    CIL library: CIL module
 0001:0005a350       ?dtor$8@?0??parse@DocumentBuilder@@QEAAPEAVDocument@@PEBEHPEBD@Z@4HA 000000018005b350 f    CIL library: CIL module
 0001:0005a360       ?dtor$28@?0??parse@DocumentBuilder@@QEAAPEAVDocument@@PEBEHPEBD@Z@4HA 000000018005b360 f    CIL library: CIL module
 0001:0005a370       ?dtor$9@?0??parse@DocumentBuilder@@QEAAPEAVDocument@@PEBEHPEBD@Z@4HA 000000018005b370 f    CIL library: CIL module
 0001:0005a380       ?dtor$31@?0??parse@DocumentBuilder@@QEAAPEAVDocument@@PEBEHPEBD@Z@4HA 000000018005b380 f    CIL library: CIL module
 0001:0005a390       ?dtor$32@?0??parse@DocumentBuilder@@QEAAPEAVDocument@@PEBEHPEBD@Z@4HA 000000018005b390 f    CIL library: CIL module
 0001:0005a3a0       ?dtor$10@?0??parse@DocumentBuilder@@QEAAPEAVDocument@@PEBEHPEBD@Z@4HA 000000018005b3a0 f    CIL library: CIL module
 0001:0005a3b0       ?dtor$36@?0??parse@DocumentBuilder@@QEAAPEAVDocument@@PEBEHPEBD@Z@4HA 000000018005b3b0 f    CIL library: CIL module
 0001:0005a3c0       ?dtor$11@?0??parse@DocumentBuilder@@QEAAPEAVDocument@@PEBEHPEBD@Z@4HA 000000018005b3c0 f    CIL library: CIL module
 0001:0005a3d0       ?dtor$37@?0??parse@DocumentBuilder@@QEAAPEAVDocument@@PEBEHPEBD@Z@4HA 000000018005b3d0 f    CIL library: CIL module
 0001:0005a3e0       ?catch$0@?0??parse@DocumentBuilder@@QEAAPEAVDocument@@PEBEHPEBD@Z@4HA 000000018005b3e0 f    CIL library: CIL module
 0001:0005a3ee       __catch$?parse@DocumentBuilder@@QEAAPEAVDocument@@PEBEHPEBD@Z$0 000000018005b3ee f    CIL library: CIL module
 0001:0005a440       ?catch$0@?0??parse@DocumentBuilder@@QEAAPEAVDocument@@PEAVInputSource@@PEBD@Z@4HA 000000018005b440 f    CIL library: CIL module
 0001:0005a44d       __catch$?parse@DocumentBuilder@@QEAAPEAVDocument@@PEAVInputSource@@PEBD@Z$0 000000018005b44d f    CIL library: CIL module
 0001:0005a4a0       ?dtor$3@?0??searchRE@TextParserImpl@@AEAAHPEAVSchemeImpl@@HHH@Z@4HA 000000018005b4a0 f    CIL library: CIL module
 0001:0005a4b0       ?dtor$0@?0??searchRE@TextParserImpl@@AEAAHPEAVSchemeImpl@@HHH@Z@4HA 000000018005b4b0 f    CIL library: CIL module
 0001:0005a4c0       ?dtor$5@?0??searchRE@TextParserImpl@@AEAAHPEAVSchemeImpl@@HHH@Z@4HA 000000018005b4c0 f    CIL library: CIL module
 0001:0005a4d0       ?dtor$7@?0??searchRE@TextParserImpl@@AEAAHPEAVSchemeImpl@@HHH@Z@4HA 000000018005b4d0 f    CIL library: CIL module
 0001:0005a4e0       ?dtor$6@?0??searchRE@TextParserImpl@@AEAAHPEAVSchemeImpl@@HHH@Z@4HA 000000018005b4e0 f    CIL library: CIL module
 0001:0005a4f0       ?dtor$0@?0???0BaseEditor@@QEAA@PEAVParserFactory@@PEAVLineSource@@@Z@4HA 000000018005b4f0 f    CIL library: CIL module
 0001:0005a500       ?dtor$1@?0???0BaseEditor@@QEAA@PEAVParserFactory@@PEAVLineSource@@@Z@4HA 000000018005b500 f    CIL library: CIL module
 0001:0005a520       ?dtor$2@?0???0BaseEditor@@QEAA@PEAVParserFactory@@PEAVLineSource@@@Z@4HA 000000018005b520 f    CIL library: CIL module
 0001:0005a540       ?dtor$9@?0???0BaseEditor@@QEAA@PEAVParserFactory@@PEAVLineSource@@@Z@4HA 000000018005b540 f    CIL library: CIL module
 0001:0005a550       ?dtor$3@?0???0BaseEditor@@QEAA@PEAVParserFactory@@PEAVLineSource@@@Z@4HA 000000018005b550 f    CIL library: CIL module
 0001:0005a560       ?dtor$13@?0???0BaseEditor@@QEAA@PEAVParserFactory@@PEAVLineSource@@@Z@4HA 000000018005b560 f    CIL library: CIL module
 0001:0005a570       ?dtor$14@?0???0BaseEditor@@QEAA@PEAVParserFactory@@PEAVLineSource@@@Z@4HA 000000018005b570 f    CIL library: CIL module
 0001:0005a580       ?dtor$4@?0???0BaseEditor@@QEAA@PEAVParserFactory@@PEAVLineSource@@@Z@4HA 000000018005b580 f    CIL library: CIL module
 0001:0005a590       ?dtor$17@?0???0BaseEditor@@QEAA@PEAVParserFactory@@PEAVLineSource@@@Z@4HA 000000018005b590 f    CIL library: CIL module
 0001:0005a5a0       ?dtor$18@?0???0BaseEditor@@QEAA@PEAVParserFactory@@PEAVLineSource@@@Z@4HA 000000018005b5a0 f    CIL library: CIL module
 0001:0005a5b0       ?dtor$5@?0???0BaseEditor@@QEAA@PEAVParserFactory@@PEAVLineSource@@@Z@4HA 000000018005b5b0 f    CIL library: CIL module
 0001:0005a5c0       ?dtor$21@?0???0BaseEditor@@QEAA@PEAVParserFactory@@PEAVLineSource@@@Z@4HA 000000018005b5c0 f    CIL library: CIL module
 0001:0005a5d0       ?dtor$22@?0???0BaseEditor@@QEAA@PEAVParserFactory@@PEAVLineSource@@@Z@4HA 000000018005b5d0 f    CIL library: CIL module
 0001:0005a5e0       ?dtor$6@?0???0BaseEditor@@QEAA@PEAVParserFactory@@PEAVLineSource@@@Z@4HA 000000018005b5e0 f    CIL library: CIL module
 0001:0005a5f0       ?dtor$25@?0???0BaseEditor@@QEAA@PEAVParserFactory@@PEAVLineSource@@@Z@4HA 000000018005b5f0 f    CIL library: CIL module
 0001:0005a600       ?dtor$26@?0???0BaseEditor@@QEAA@PEAVParserFactory@@PEAVLineSource@@@Z@4HA 000000018005b600 f    CIL library: CIL module
 0001:0005a610       ?dtor$7@?0???0BaseEditor@@QEAA@PEAVParserFactory@@PEAVLineSource@@@Z@4HA 000000018005b610 f    CIL library: CIL module
 0001:0005a620       ?dtor$29@?0???0BaseEditor@@QEAA@PEAVParserFactory@@PEAVLineSource@@@Z@4HA 000000018005b620 f    CIL library: CIL module
 0001:0005a630       ?dtor$30@?0???0BaseEditor@@QEAA@PEAVParserFactory@@PEAVLineSource@@@Z@4HA 000000018005b630 f    CIL library: CIL module
 0001:0005a640       ?dtor$8@?0???0BaseEditor@@QEAA@PEAVParserFactory@@PEAVLineSource@@@Z@4HA 000000018005b640 f    CIL library: CIL module
 0001:0005a650       ?dtor$33@?0???0BaseEditor@@QEAA@PEAVParserFactory@@PEAVLineSource@@@Z@4HA 000000018005b650 f    CIL library: CIL module
 0001:0005a660       ?dtor$7@?0??loadRegionMappings@StyledHRDMapper@@UEAAXPEAVInputSource@@@Z@4HA 000000018005b660 f    CIL library: CIL module
 0001:0005a670       ?dtor$0@?0??loadRegionMappings@StyledHRDMapper@@UEAAXPEAVInputSource@@@Z@4HA 000000018005b670 f    CIL library: CIL module
 0001:0005a680       ?dtor$12@?0??loadRegionMappings@StyledHRDMapper@@UEAAXPEAVInputSource@@@Z@4HA 000000018005b680 f    CIL library: CIL module
 0001:0005a690       ?dtor$1@?0??loadRegionMappings@StyledHRDMapper@@UEAAXPEAVInputSource@@@Z@4HA 000000018005b690 f    CIL library: CIL module
 0001:0005a6a0       ?dtor$16@?0??loadRegionMappings@StyledHRDMapper@@UEAAXPEAVInputSource@@@Z@4HA 000000018005b6a0 f    CIL library: CIL module
 0001:0005a6b0       ?dtor$2@?0??loadRegionMappings@StyledHRDMapper@@UEAAXPEAVInputSource@@@Z@4HA 000000018005b6b0 f    CIL library: CIL module
 0001:0005a6c0       ?dtor$19@?0??loadRegionMappings@StyledHRDMapper@@UEAAXPEAVInputSource@@@Z@4HA 000000018005b6c0 f    CIL library: CIL module
 0001:0005a6d0       ?dtor$20@?0??loadRegionMappings@StyledHRDMapper@@UEAAXPEAVInputSource@@@Z@4HA 000000018005b6d0 f    CIL library: CIL module
 0001:0005a6e0       ?dtor$3@?0??loadRegionMappings@StyledHRDMapper@@UEAAXPEAVInputSource@@@Z@4HA 000000018005b6e0 f    CIL library: CIL module
 0001:0005a6f0       ?dtor$23@?0??loadRegionMappings@StyledHRDMapper@@UEAAXPEAVInputSource@@@Z@4HA 000000018005b6f0 f    CIL library: CIL module
 0001:0005a700       ?dtor$24@?0??loadRegionMappings@StyledHRDMapper@@UEAAXPEAVInputSource@@@Z@4HA 000000018005b700 f    CIL library: CIL module
 0001:0005a710       ?dtor$4@?0??loadRegionMappings@StyledHRDMapper@@UEAAXPEAVInputSource@@@Z@4HA 000000018005b710 f    CIL library: CIL module
 0001:0005a720       ?dtor$27@?0??loadRegionMappings@StyledHRDMapper@@UEAAXPEAVInputSource@@@Z@4HA 000000018005b720 f    CIL library: CIL module
 0001:0005a730       ?dtor$28@?0??loadRegionMappings@StyledHRDMapper@@UEAAXPEAVInputSource@@@Z@4HA 000000018005b730 f    CIL library: CIL module
 0001:0005a740       ?dtor$5@?0??loadRegionMappings@StyledHRDMapper@@UEAAXPEAVInputSource@@@Z@4HA 000000018005b740 f    CIL library: CIL module
 0001:0005a750       ?dtor$31@?0??loadRegionMappings@StyledHRDMapper@@UEAAXPEAVInputSource@@@Z@4HA 000000018005b750 f    CIL library: CIL module
 0001:0005a760       ?dtor$32@?0??loadRegionMappings@StyledHRDMapper@@UEAAXPEAVInputSource@@@Z@4HA 000000018005b760 f    CIL library: CIL module
 0001:0005a770       ?dtor$33@?0??loadRegionMappings@StyledHRDMapper@@UEAAXPEAVInputSource@@@Z@4HA 000000018005b770 f    CIL library: CIL module
 0001:0005a780       ?dtor$35@?0??loadRegionMappings@StyledHRDMapper@@UEAAXPEAVInputSource@@@Z@4HA 000000018005b780 f    CIL library: CIL module
 0001:0005a790       ?dtor$7@?0??init@ParserFactory@@AEAAXXZ@4HA 000000018005b790 f    CIL library: CIL module
 0001:0005a7a0       ?dtor$0@?0??init@ParserFactory@@AEAAXXZ@4HA 000000018005b7a0 f    CIL library: CIL module
 0001:0005a7b0       ?catch$1@?0??init@ParserFactory@@AEAAXXZ@4HA 000000018005b7b0 f    CIL library: CIL module
 0001:0005a7bd       __catch$?init@ParserFactory@@AEAAXXZ$0 000000018005b7bd f    CIL library: CIL module
 0001:0005a7f0       ?dtor$12@?0??init@ParserFactory@@AEAAXXZ@4HA 000000018005b7f0 f    CIL library: CIL module
 0001:0005a800       ?dtor$1@?0??init@ParserFactory@@AEAAXXZ@4HA 000000018005b800 f    CIL library: CIL module
 0001:0005a810       ?dtor$16@?0??init@ParserFactory@@AEAAXXZ@4HA 000000018005b810 f    CIL library: CIL module
 0001:0005a820       ?dtor$2@?0??init@ParserFactory@@AEAAXXZ@4HA 000000018005b820 f    CIL library: CIL module
 0001:0005a830       ?dtor$19@?0??init@ParserFactory@@AEAAXXZ@4HA 000000018005b830 f    CIL library: CIL module
 0001:0005a840       ?dtor$3@?0??init@ParserFactory@@AEAAXXZ@4HA 000000018005b840 f    CIL library: CIL module
 0001:0005a850       ?catch$0@?0??init@ParserFactory@@AEAAXXZ@4HA 000000018005b850 f    CIL library: CIL module
 0001:0005a85d       __catch$?init@ParserFactory@@AEAAXXZ$2 000000018005b85d f    CIL library: CIL module
 0001:0005a880       ?dtor$5@?0??init@ParserFactory@@AEAAXXZ@4HA 000000018005b880 f    CIL library: CIL module
 0001:0005a890       ?dtor$20@?0??init@ParserFactory@@AEAAXXZ@4HA 000000018005b890 f    CIL library: CIL module
 0001:0005a8a0       ?dtor$6@?0??init@ParserFactory@@AEAAXXZ@4HA 000000018005b8a0 f    CIL library: CIL module
 0001:0005a8d0       ?dtor$23@?0??init@ParserFactory@@AEAAXXZ@4HA 000000018005b8d0 f    CIL library: CIL module
 0001:0005a8e0       ?dtor$25@?0??init@ParserFactory@@AEAAXXZ@4HA 000000018005b8e0 f    CIL library: CIL module
 0001:0005a8f0       ?dtor$24@?0??init@ParserFactory@@AEAAXXZ@4HA 000000018005b8f0 f    CIL library: CIL module
 0001:0005a900       ?dtor$29@?0??init@ParserFactory@@AEAAXXZ@4HA 000000018005b900 f    CIL library: CIL module
 0001:0005a910       ?dtor$2@?0??readXML@FarHrcSettings@@QEAAXPEAVString@@_N@Z@4HA 000000018005b910 f    CIL library: CIL module
 0001:0005a920       ?dtor$0@?0??readXML@FarHrcSettings@@QEAAXPEAVString@@_N@Z@4HA 000000018005b920 f    CIL library: CIL module
 0001:0005a930       ?dtor$7@?0??readXML@FarHrcSettings@@QEAAXPEAVString@@_N@Z@4HA 000000018005b930 f    CIL library: CIL module
 0001:0005a940       ?dtor$1@?0??readXML@FarHrcSettings@@QEAAXPEAVString@@_N@Z@4HA 000000018005b940 f    CIL library: CIL module
 0001:0005a950       ?dtor$11@?0??readXML@FarHrcSettings@@QEAAXPEAVString@@_N@Z@4HA 000000018005b950 f    CIL library: CIL module
 0001:0005a960       ?dtor$12@?0??readXML@FarHrcSettings@@QEAAXPEAVString@@_N@Z@4HA 000000018005b960 f    CIL library: CIL module
 0001:0005a970       ?dtor$14@?0??readXML@FarHrcSettings@@QEAAXPEAVString@@_N@Z@4HA 000000018005b970 f    CIL library: CIL module
 0001:0005a980       ?dtor$0@?0??readProfile@FarHrcSettings@@QEAAXXZ@4HA 000000018005b980 f    CIL library: CIL module
 0001:0005a990       ?dtor$3@?0??readProfile@FarHrcSettings@@QEAAXXZ@4HA 000000018005b990 f    CIL library: CIL module
 0001:0005a9a0       ?dtor$5@?0??readProfile@FarHrcSettings@@QEAAXXZ@4HA 000000018005b9a0 f    CIL library: CIL module
 0001:0005a9b0       ?dtor$4@?0??readProfile@FarHrcSettings@@QEAAXXZ@4HA 000000018005b9b0 f    CIL library: CIL module
 0001:0005a9c0       ?dtor$9@?0??readProfile@FarHrcSettings@@QEAAXXZ@4HA 000000018005b9c0 f    CIL library: CIL module
 0001:0005a9d0       ?dtor$1@?0??readProfile@FarHrcSettings@@QEAAXXZ@4HA 000000018005b9d0 f    CIL library: CIL module
 0001:0005a9e0       ?dtor$15@?0??readProfile@FarHrcSettings@@QEAAXXZ@4HA 000000018005b9e0 f    CIL library: CIL module
 0001:0005a9f0       ?dtor$2@?0??LoadUserHrd@FarEditorSet@@QEAAXPEBVString@@PEAVParserFactory@@@Z@4HA 000000018005b9f0 f    CIL library: CIL module
 0001:0005aa00       ?dtor$0@?0??LoadUserHrd@FarEditorSet@@QEAAXPEBVString@@PEAVParserFactory@@@Z@4HA 000000018005ba00 f    CIL library: CIL module
 0001:0005aa10       ?dtor$7@?0??LoadUserHrd@FarEditorSet@@QEAAXPEBVString@@PEAVParserFactory@@@Z@4HA 000000018005ba10 f    CIL library: CIL module
 0001:0005aa20       ?dtor$1@?0??LoadUserHrd@FarEditorSet@@QEAAXPEBVString@@PEAVParserFactory@@@Z@4HA 000000018005ba20 f    CIL library: CIL module
 0001:0005aa30       ?dtor$0@?0??chooseType@FarEditorSet@@AEAAXXZ@4HA 000000018005ba30 f    CIL library: CIL module
 0001:0005aa40       ?dtor$2@?0??chooseType@FarEditorSet@@AEAAXXZ@4HA 000000018005ba40 f    CIL library: CIL module
 0001:0005aa50       ?dtor$1@?0??chooseType@FarEditorSet@@AEAAXXZ@4HA 000000018005ba50 f    CIL library: CIL module
 0001:0005aa60       ?dtor$8@?0??chooseType@FarEditorSet@@AEAAXXZ@4HA 000000018005ba60 f    CIL library: CIL module
 0001:0005aa70       ?dtor$4@?0??viewFile@FarEditorSet@@QEAAXAEBVString@@@Z@4HA 000000018005ba70 f    CIL library: CIL module
 0001:0005aa80       ?dtor$0@?0??viewFile@FarEditorSet@@QEAAXAEBVString@@@Z@4HA 000000018005ba80 f    CIL library: CIL module
 0001:0005aa90       ?dtor$8@?0??viewFile@FarEditorSet@@QEAAXAEBVString@@@Z@4HA 000000018005ba90 f    CIL library: CIL module
 0001:0005aaa0       ?dtor$1@?0??viewFile@FarEditorSet@@QEAAXAEBVString@@@Z@4HA 000000018005baa0 f    CIL library: CIL module
 0001:0005aab0       ?dtor$2@?0??viewFile@FarEditorSet@@QEAAXAEBVString@@@Z@4HA 000000018005bab0 f    CIL library: CIL module
 0001:0005aac0       ?catch$0@?0??viewFile@FarEditorSet@@QEAAXAEBVString@@@Z@4HA 000000018005bac0 f    CIL library: CIL module
 0001:0005aacf       __catch$?viewFile@FarEditorSet@@QEAAXAEBVString@@@Z$0 000000018005bacf f    CIL library: CIL module
 0001:0005ab30       ?dtor$10@?0??viewFile@FarEditorSet@@QEAAXAEBVString@@@Z@4HA 000000018005bb30 f    CIL library: CIL module
 0001:0005ab40       ?dtor$3@?0??viewFile@FarEditorSet@@QEAAXAEBVString@@@Z@4HA 000000018005bb40 f    CIL library: CIL module
 0001:0005ab50       ?dtor$13@?0??viewFile@FarEditorSet@@QEAAXAEBVString@@@Z@4HA 000000018005bb50 f    CIL library: CIL module
 0001:0005ab60       ?dtor$14@?0??viewFile@FarEditorSet@@QEAAXAEBVString@@@Z@4HA 000000018005bb60 f    CIL library: CIL module
 0001:0005ab70       ?dtor$15@?0??viewFile@FarEditorSet@@QEAAXAEBVString@@@Z@4HA 000000018005bb70 f    CIL library: CIL module
 0001:0005ab80       ?catch$1@?0??viewFile@FarEditorSet@@QEAAXAEBVString@@@Z@4HA 000000018005bb80 f    CIL library: CIL module
 0001:0005ab8d       __catch$?viewFile@FarEditorSet@@QEAAXAEBVString@@@Z$2 000000018005bb8d f    CIL library: CIL module
 0001:0005ac30       ?dtor$0@?0???0FarEditor@@QEAA@PEAUPluginStartupInfo@@PEAVParserFactory@@@Z@4HA 000000018005bc30 f    CIL library: CIL module
 0001:0005ac40       ?dtor$1@?0???0FarEditor@@QEAA@PEAUPluginStartupInfo@@PEAVParserFactory@@@Z@4HA 000000018005bc40 f    CIL library: CIL module
 0001:0005ac50       ?dtor$6@?0???0FarEditor@@QEAA@PEAUPluginStartupInfo@@PEAVParserFactory@@@Z@4HA 000000018005bc50 f    CIL library: CIL module
 0001:0005ac60       ?dtor$2@?0???0FarEditor@@QEAA@PEAUPluginStartupInfo@@PEAVParserFactory@@@Z@4HA 000000018005bc60 f    CIL library: CIL module
 0001:0005ac70       ?dtor$9@?0???0FarEditor@@QEAA@PEAUPluginStartupInfo@@PEAVParserFactory@@@Z@4HA 000000018005bc70 f    CIL library: CIL module
 0001:0005ac80       ?dtor$10@?0???0FarEditor@@QEAA@PEAUPluginStartupInfo@@PEAVParserFactory@@@Z@4HA 000000018005bc80 f    CIL library: CIL module
 0001:0005ac90       ?dtor$3@?0???0FarEditor@@QEAA@PEAUPluginStartupInfo@@PEAVParserFactory@@@Z@4HA 000000018005bc90 f    CIL library: CIL module
 0001:0005aca0       ?dtor$13@?0???0FarEditor@@QEAA@PEAUPluginStartupInfo@@PEAVParserFactory@@@Z@4HA 000000018005bca0 f    CIL library: CIL module
 0001:0005acb0       ?dtor$4@?0???0FarEditor@@QEAA@PEAUPluginStartupInfo@@PEAVParserFactory@@@Z@4HA 000000018005bcb0 f    CIL library: CIL module
 0001:0005acc0       ?dtor$5@?0???0FarEditor@@QEAA@PEAUPluginStartupInfo@@PEAVParserFactory@@@Z@4HA 000000018005bcc0 f    CIL library: CIL module
 0001:0005acd0       ?dtor$0@?0??colorize@TextParserImpl@@AEAA_NPEAVCRegExp@@_N@Z@4HA 000000018005bcd0 f    CIL library: CIL module
 0001:0005ace0       ?dtor$1@?0??colorize@TextParserImpl@@AEAA_NPEAVCRegExp@@_N@Z@4HA 000000018005bce0 f    CIL library: CIL module
 0001:0005acf0       ?dtor$0@?0??addSchemeNodes@HRCParserImpl@@IEAAXPEAVSchemeImpl@@PEAVNode@@@Z@4HA 000000018005bcf0 f    CIL library: CIL module
 0001:0005ad00       ?dtor$44@?0??addSchemeNodes@HRCParserImpl@@IEAAXPEAVSchemeImpl@@PEAVNode@@@Z@4HA 000000018005bd00 f    CIL library: CIL module
 0001:0005ad10       ?dtor$1@?0??addSchemeNodes@HRCParserImpl@@IEAAXPEAVSchemeImpl@@PEAVNode@@@Z@4HA 000000018005bd10 f    CIL library: CIL module
 0001:0005ad20       ?dtor$47@?0??addSchemeNodes@HRCParserImpl@@IEAAXPEAVSchemeImpl@@PEAVNode@@@Z@4HA 000000018005bd20 f    CIL library: CIL module
 0001:0005ad30       ?dtor$2@?0??addSchemeNodes@HRCParserImpl@@IEAAXPEAVSchemeImpl@@PEAVNode@@@Z@4HA 000000018005bd30 f    CIL library: CIL module
 0001:0005ad40       ?dtor$49@?0??addSchemeNodes@HRCParserImpl@@IEAAXPEAVSchemeImpl@@PEAVNode@@@Z@4HA 000000018005bd40 f    CIL library: CIL module
 0001:0005ad50       ?dtor$3@?0??addSchemeNodes@HRCParserImpl@@IEAAXPEAVSchemeImpl@@PEAVNode@@@Z@4HA 000000018005bd50 f    CIL library: CIL module
 0001:0005ad60       ?dtor$50@?0??addSchemeNodes@HRCParserImpl@@IEAAXPEAVSchemeImpl@@PEAVNode@@@Z@4HA 000000018005bd60 f    CIL library: CIL module
 0001:0005ad70       ?dtor$52@?0??addSchemeNodes@HRCParserImpl@@IEAAXPEAVSchemeImpl@@PEAVNode@@@Z@4HA 000000018005bd70 f    CIL library: CIL module
 0001:0005ad80       ?dtor$51@?0??addSchemeNodes@HRCParserImpl@@IEAAXPEAVSchemeImpl@@PEAVNode@@@Z@4HA 000000018005bd80 f    CIL library: CIL module
 0001:0005ad90       ?dtor$56@?0??addSchemeNodes@HRCParserImpl@@IEAAXPEAVSchemeImpl@@PEAVNode@@@Z@4HA 000000018005bd90 f    CIL library: CIL module
 0001:0005ada0       ?dtor$4@?0??addSchemeNodes@HRCParserImpl@@IEAAXPEAVSchemeImpl@@PEAVNode@@@Z@4HA 000000018005bda0 f    CIL library: CIL module
 0001:0005adb0       ?dtor$59@?0??addSchemeNodes@HRCParserImpl@@IEAAXPEAVSchemeImpl@@PEAVNode@@@Z@4HA 000000018005bdb0 f    CIL library: CIL module
 0001:0005adc0       ?dtor$60@?0??addSchemeNodes@HRCParserImpl@@IEAAXPEAVSchemeImpl@@PEAVNode@@@Z@4HA 000000018005bdc0 f    CIL library: CIL module
 0001:0005add0       ?dtor$5@?0??addSchemeNodes@HRCParserImpl@@IEAAXPEAVSchemeImpl@@PEAVNode@@@Z@4HA 000000018005bdd0 f    CIL library: CIL module
 0001:0005ade0       ?dtor$63@?0??addSchemeNodes@HRCParserImpl@@IEAAXPEAVSchemeImpl@@PEAVNode@@@Z@4HA 000000018005bde0 f    CIL library: CIL module
 0001:0005adf0       ?dtor$6@?0??addSchemeNodes@HRCParserImpl@@IEAAXPEAVSchemeImpl@@PEAVNode@@@Z@4HA 000000018005bdf0 f    CIL library: CIL module
 0001:0005ae00       ?dtor$65@?0??addSchemeNodes@HRCParserImpl@@IEAAXPEAVSchemeImpl@@PEAVNode@@@Z@4HA 000000018005be00 f    CIL library: CIL module
 0001:0005ae10       ?dtor$7@?0??addSchemeNodes@HRCParserImpl@@IEAAXPEAVSchemeImpl@@PEAVNode@@@Z@4HA 000000018005be10 f    CIL library: CIL module
 0001:0005ae20       ?dtor$66@?0??addSchemeNodes@HRCParserImpl@@IEAAXPEAVSchemeImpl@@PEAVNode@@@Z@4HA 000000018005be20 f    CIL library: CIL module
 0001:0005ae30       ?dtor$8@?0??addSchemeNodes@HRCParserImpl@@IEAAXPEAVSchemeImpl@@PEAVNode@@@Z@4HA 000000018005be30 f    CIL library: CIL module
 0001:0005ae40       ?dtor$69@?0??addSchemeNodes@HRCParserImpl@@IEAAXPEAVSchemeImpl@@PEAVNode@@@Z@4HA 000000018005be40 f    CIL library: CIL module
 0001:0005ae50       ?dtor$9@?0??addSchemeNodes@HRCParserImpl@@IEAAXPEAVSchemeImpl@@PEAVNode@@@Z@4HA 000000018005be50 f    CIL library: CIL module
 0001:0005ae60       ?dtor$71@?0??addSchemeNodes@HRCParserImpl@@IEAAXPEAVSchemeImpl@@PEAVNode@@@Z@4HA 000000018005be60 f    CIL library: CIL module
 0001:0005ae70       ?dtor$72@?0??addSchemeNodes@HRCParserImpl@@IEAAXPEAVSchemeImpl@@PEAVNode@@@Z@4HA 000000018005be70 f    CIL library: CIL module
 0001:0005ae80       ?dtor$10@?0??addSchemeNodes@HRCParserImpl@@IEAAXPEAVSchemeImpl@@PEAVNode@@@Z@4HA 000000018005be80 f    CIL library: CIL module
 0001:0005ae90       ?dtor$75@?0??addSchemeNodes@HRCParserImpl@@IEAAXPEAVSchemeImpl@@PEAVNode@@@Z@4HA 000000018005be90 f    CIL library: CIL module
 0001:0005aea0       ?dtor$11@?0??addSchemeNodes@HRCParserImpl@@IEAAXPEAVSchemeImpl@@PEAVNode@@@Z@4HA 000000018005bea0 f    CIL library: CIL module
 0001:0005aeb0       ?dtor$78@?0??addSchemeNodes@HRCParserImpl@@IEAAXPEAVSchemeImpl@@PEAVNode@@@Z@4HA 000000018005beb0 f    CIL library: CIL module
 0001:0005aec0       ?dtor$79@?0??addSchemeNodes@HRCParserImpl@@IEAAXPEAVSchemeImpl@@PEAVNode@@@Z@4HA 000000018005bec0 f    CIL library: CIL module
 0001:0005aed0       ?dtor$12@?0??addSchemeNodes@HRCParserImpl@@IEAAXPEAVSchemeImpl@@PEAVNode@@@Z@4HA 000000018005bed0 f    CIL library: CIL module
 0001:0005aee0       ?dtor$13@?0??addSchemeNodes@HRCParserImpl@@IEAAXPEAVSchemeImpl@@PEAVNode@@@Z@4HA 000000018005bee0 f    CIL library: CIL module
 0001:0005aef0       ?dtor$81@?0??addSchemeNodes@HRCParserImpl@@IEAAXPEAVSchemeImpl@@PEAVNode@@@Z@4HA 000000018005bef0 f    CIL library: CIL module
 0001:0005af00       ?dtor$82@?0??addSchemeNodes@HRCParserImpl@@IEAAXPEAVSchemeImpl@@PEAVNode@@@Z@4HA 000000018005bf00 f    CIL library: CIL module
 0001:0005af10       ?dtor$14@?0??addSchemeNodes@HRCParserImpl@@IEAAXPEAVSchemeImpl@@PEAVNode@@@Z@4HA 000000018005bf10 f    CIL library: CIL module
 0001:0005af20       ?dtor$85@?0??addSchemeNodes@HRCParserImpl@@IEAAXPEAVSchemeImpl@@PEAVNode@@@Z@4HA 000000018005bf20 f    CIL library: CIL module
 0001:0005af30       ?dtor$86@?0??addSchemeNodes@HRCParserImpl@@IEAAXPEAVSchemeImpl@@PEAVNode@@@Z@4HA 000000018005bf30 f    CIL library: CIL module
 0001:0005af40       ?dtor$15@?0??addSchemeNodes@HRCParserImpl@@IEAAXPEAVSchemeImpl@@PEAVNode@@@Z@4HA 000000018005bf40 f    CIL library: CIL module
 0001:0005af50       ?dtor$89@?0??addSchemeNodes@HRCParserImpl@@IEAAXPEAVSchemeImpl@@PEAVNode@@@Z@4HA 000000018005bf50 f    CIL library: CIL module
 0001:0005af60       ?dtor$90@?0??addSchemeNodes@HRCParserImpl@@IEAAXPEAVSchemeImpl@@PEAVNode@@@Z@4HA 000000018005bf60 f    CIL library: CIL module
 0001:0005af70       ?dtor$16@?0??addSchemeNodes@HRCParserImpl@@IEAAXPEAVSchemeImpl@@PEAVNode@@@Z@4HA 000000018005bf70 f    CIL library: CIL module
 0001:0005afa0       ?dtor$93@?0??addSchemeNodes@HRCParserImpl@@IEAAXPEAVSchemeImpl@@PEAVNode@@@Z@4HA 000000018005bfa0 f    CIL library: CIL module
 0001:0005afb0       ?dtor$17@?0??addSchemeNodes@HRCParserImpl@@IEAAXPEAVSchemeImpl@@PEAVNode@@@Z@4HA 000000018005bfb0 f    CIL library: CIL module
 0001:0005afc0       ?dtor$95@?0??addSchemeNodes@HRCParserImpl@@IEAAXPEAVSchemeImpl@@PEAVNode@@@Z@4HA 000000018005bfc0 f    CIL library: CIL module
 0001:0005afd0       ?dtor$18@?0??addSchemeNodes@HRCParserImpl@@IEAAXPEAVSchemeImpl@@PEAVNode@@@Z@4HA 000000018005bfd0 f    CIL library: CIL module
 0001:0005afe0       ?dtor$97@?0??addSchemeNodes@HRCParserImpl@@IEAAXPEAVSchemeImpl@@PEAVNode@@@Z@4HA 000000018005bfe0 f    CIL library: CIL module
 0001:0005aff0       ?dtor$98@?0??addSchemeNodes@HRCParserImpl@@IEAAXPEAVSchemeImpl@@PEAVNode@@@Z@4HA 000000018005bff0 f    CIL library: CIL module
 0001:0005b000       ?dtor$19@?0??addSchemeNodes@HRCParserImpl@@IEAAXPEAVSchemeImpl@@PEAVNode@@@Z@4HA 000000018005c000 f    CIL library: CIL module
 0001:0005b010       ?dtor$101@?0??addSchemeNodes@HRCParserImpl@@IEAAXPEAVSchemeImpl@@PEAVNode@@@Z@4HA 000000018005c010 f    CIL library: CIL module
 0001:0005b020       ?dtor$20@?0??addSchemeNodes@HRCParserImpl@@IEAAXPEAVSchemeImpl@@PEAVNode@@@Z@4HA 000000018005c020 f    CIL library: CIL module
 0001:0005b030       ?dtor$103@?0??addSchemeNodes@HRCParserImpl@@IEAAXPEAVSchemeImpl@@PEAVNode@@@Z@4HA 000000018005c030 f    CIL library: CIL module
 0001:0005b040       ?dtor$21@?0??addSchemeNodes@HRCParserImpl@@IEAAXPEAVSchemeImpl@@PEAVNode@@@Z@4HA 000000018005c040 f    CIL library: CIL module
 0001:0005b050       ?dtor$104@?0??addSchemeNodes@HRCParserImpl@@IEAAXPEAVSchemeImpl@@PEAVNode@@@Z@4HA 000000018005c050 f    CIL library: CIL module
 0001:0005b060       ?dtor$106@?0??addSchemeNodes@HRCParserImpl@@IEAAXPEAVSchemeImpl@@PEAVNode@@@Z@4HA 000000018005c060 f    CIL library: CIL module
 0001:0005b070       ?dtor$105@?0??addSchemeNodes@HRCParserImpl@@IEAAXPEAVSchemeImpl@@PEAVNode@@@Z@4HA 000000018005c070 f    CIL library: CIL module
 0001:0005b080       ?dtor$110@?0??addSchemeNodes@HRCParserImpl@@IEAAXPEAVSchemeImpl@@PEAVNode@@@Z@4HA 000000018005c080 f    CIL library: CIL module
 0001:0005b090       ?dtor$22@?0??addSchemeNodes@HRCParserImpl@@IEAAXPEAVSchemeImpl@@PEAVNode@@@Z@4HA 000000018005c090 f    CIL library: CIL module
 0001:0005b0a0       ?dtor$113@?0??addSchemeNodes@HRCParserImpl@@IEAAXPEAVSchemeImpl@@PEAVNode@@@Z@4HA 000000018005c0a0 f    CIL library: CIL module
 0001:0005b0b0       ?dtor$23@?0??addSchemeNodes@HRCParserImpl@@IEAAXPEAVSchemeImpl@@PEAVNode@@@Z@4HA 000000018005c0b0 f    CIL library: CIL module
 0001:0005b0c0       ?dtor$116@?0??addSchemeNodes@HRCParserImpl@@IEAAXPEAVSchemeImpl@@PEAVNode@@@Z@4HA 000000018005c0c0 f    CIL library: CIL module
 0001:0005b0d0       ?dtor$117@?0??addSchemeNodes@HRCParserImpl@@IEAAXPEAVSchemeImpl@@PEAVNode@@@Z@4HA 000000018005c0d0 f    CIL library: CIL module
 0001:0005b0e0       ?dtor$118@?0??addSchemeNodes@HRCParserImpl@@IEAAXPEAVSchemeImpl@@PEAVNode@@@Z@4HA 000000018005c0e0 f    CIL library: CIL module
 0001:0005b0f0       ?dtor$24@?0??addSchemeNodes@HRCParserImpl@@IEAAXPEAVSchemeImpl@@PEAVNode@@@Z@4HA 000000018005c0f0 f    CIL library: CIL module
 0001:0005b100       ?dtor$121@?0??addSchemeNodes@HRCParserImpl@@IEAAXPEAVSchemeImpl@@PEAVNode@@@Z@4HA 000000018005c100 f    CIL library: CIL module
 0001:0005b110       ?dtor$25@?0??addSchemeNodes@HRCParserImpl@@IEAAXPEAVSchemeImpl@@PEAVNode@@@Z@4HA 000000018005c110 f    CIL library: CIL module
 0001:0005b120       ?dtor$124@?0??addSchemeNodes@HRCParserImpl@@IEAAXPEAVSchemeImpl@@PEAVNode@@@Z@4HA 000000018005c120 f    CIL library: CIL module
 0001:0005b130       ?dtor$125@?0??addSchemeNodes@HRCParserImpl@@IEAAXPEAVSchemeImpl@@PEAVNode@@@Z@4HA 000000018005c130 f    CIL library: CIL module
 0001:0005b140       ?dtor$126@?0??addSchemeNodes@HRCParserImpl@@IEAAXPEAVSchemeImpl@@PEAVNode@@@Z@4HA 000000018005c140 f    CIL library: CIL module
 0001:0005b150       ?dtor$26@?0??addSchemeNodes@HRCParserImpl@@IEAAXPEAVSchemeImpl@@PEAVNode@@@Z@4HA 000000018005c150 f    CIL library: CIL module
 0001:0005b160       ?dtor$129@?0??addSchemeNodes@HRCParserImpl@@IEAAXPEAVSchemeImpl@@PEAVNode@@@Z@4HA 000000018005c160 f    CIL library: CIL module
 0001:0005b170       ?dtor$27@?0??addSchemeNodes@HRCParserImpl@@IEAAXPEAVSchemeImpl@@PEAVNode@@@Z@4HA 000000018005c170 f    CIL library: CIL module
 0001:0005b180       ?dtor$132@?0??addSchemeNodes@HRCParserImpl@@IEAAXPEAVSchemeImpl@@PEAVNode@@@Z@4HA 000000018005c180 f    CIL library: CIL module
 0001:0005b190       ?dtor$133@?0??addSchemeNodes@HRCParserImpl@@IEAAXPEAVSchemeImpl@@PEAVNode@@@Z@4HA 000000018005c190 f    CIL library: CIL module
 0001:0005b1a0       ?dtor$28@?0??addSchemeNodes@HRCParserImpl@@IEAAXPEAVSchemeImpl@@PEAVNode@@@Z@4HA 000000018005c1a0 f    CIL library: CIL module
 0001:0005b1b0       ?dtor$29@?0??addSchemeNodes@HRCParserImpl@@IEAAXPEAVSchemeImpl@@PEAVNode@@@Z@4HA 000000018005c1b0 f    CIL library: CIL module
 0001:0005b1c0       ?dtor$135@?0??addSchemeNodes@HRCParserImpl@@IEAAXPEAVSchemeImpl@@PEAVNode@@@Z@4HA 000000018005c1c0 f    CIL library: CIL module
 0001:0005b1d0       ?dtor$31@?0??addSchemeNodes@HRCParserImpl@@IEAAXPEAVSchemeImpl@@PEAVNode@@@Z@4HA 000000018005c1d0 f    CIL library: CIL module
 0001:0005b1e0       ?dtor$137@?0??addSchemeNodes@HRCParserImpl@@IEAAXPEAVSchemeImpl@@PEAVNode@@@Z@4HA 000000018005c1e0 f    CIL library: CIL module
 0001:0005b1f0       ?dtor$138@?0??addSchemeNodes@HRCParserImpl@@IEAAXPEAVSchemeImpl@@PEAVNode@@@Z@4HA 000000018005c1f0 f    CIL library: CIL module
 0001:0005b200       ?dtor$32@?0??addSchemeNodes@HRCParserImpl@@IEAAXPEAVSchemeImpl@@PEAVNode@@@Z@4HA 000000018005c200 f    CIL library: CIL module
 0001:0005b210       ?dtor$141@?0??addSchemeNodes@HRCParserImpl@@IEAAXPEAVSchemeImpl@@PEAVNode@@@Z@4HA 000000018005c210 f    CIL library: CIL module
 0001:0005b220       ?dtor$33@?0??addSchemeNodes@HRCParserImpl@@IEAAXPEAVSchemeImpl@@PEAVNode@@@Z@4HA 000000018005c220 f    CIL library: CIL module
 0001:0005b230       ?dtor$144@?0??addSchemeNodes@HRCParserImpl@@IEAAXPEAVSchemeImpl@@PEAVNode@@@Z@4HA 000000018005c230 f    CIL library: CIL module
 0001:0005b240       ?dtor$34@?0??addSchemeNodes@HRCParserImpl@@IEAAXPEAVSchemeImpl@@PEAVNode@@@Z@4HA 000000018005c240 f    CIL library: CIL module
 0001:0005b250       ?dtor$146@?0??addSchemeNodes@HRCParserImpl@@IEAAXPEAVSchemeImpl@@PEAVNode@@@Z@4HA 000000018005c250 f    CIL library: CIL module
 0001:0005b260       ?dtor$35@?0??addSchemeNodes@HRCParserImpl@@IEAAXPEAVSchemeImpl@@PEAVNode@@@Z@4HA 000000018005c260 f    CIL library: CIL module
 0001:0005b270       ?dtor$148@?0??addSchemeNodes@HRCParserImpl@@IEAAXPEAVSchemeImpl@@PEAVNode@@@Z@4HA 000000018005c270 f    CIL library: CIL module
 0001:0005b280       ?dtor$36@?0??addSchemeNodes@HRCParserImpl@@IEAAXPEAVSchemeImpl@@PEAVNode@@@Z@4HA 000000018005c280 f    CIL library: CIL module
 0001:0005b290       ?dtor$150@?0??addSchemeNodes@HRCParserImpl@@IEAAXPEAVSchemeImpl@@PEAVNode@@@Z@4HA 000000018005c290 f    CIL library: CIL module
 0001:0005b2a0       ?dtor$37@?0??addSchemeNodes@HRCParserImpl@@IEAAXPEAVSchemeImpl@@PEAVNode@@@Z@4HA 000000018005c2a0 f    CIL library: CIL module
 0001:0005b2b0       ?dtor$38@?0??addSchemeNodes@HRCParserImpl@@IEAAXPEAVSchemeImpl@@PEAVNode@@@Z@4HA 000000018005c2b0 f    CIL library: CIL module
 0001:0005b2c0       ?dtor$39@?0??addSchemeNodes@HRCParserImpl@@IEAAXPEAVSchemeImpl@@PEAVNode@@@Z@4HA 000000018005c2c0 f    CIL library: CIL module
 0001:0005b2d0       ?dtor$155@?0??addSchemeNodes@HRCParserImpl@@IEAAXPEAVSchemeImpl@@PEAVNode@@@Z@4HA 000000018005c2d0 f    CIL library: CIL module
 0001:0005b2e0       ?dtor$40@?0??addSchemeNodes@HRCParserImpl@@IEAAXPEAVSchemeImpl@@PEAVNode@@@Z@4HA 000000018005c2e0 f    CIL library: CIL module
 0001:0005b310       ?dtor$157@?0??addSchemeNodes@HRCParserImpl@@IEAAXPEAVSchemeImpl@@PEAVNode@@@Z@4HA 000000018005c310 f    CIL library: CIL module
 0001:0005b320       ?dtor$158@?0??addSchemeNodes@HRCParserImpl@@IEAAXPEAVSchemeImpl@@PEAVNode@@@Z@4HA 000000018005c320 f    CIL library: CIL module
 0001:0005b330       ?dtor$41@?0??addSchemeNodes@HRCParserImpl@@IEAAXPEAVSchemeImpl@@PEAVNode@@@Z@4HA 000000018005c330 f    CIL library: CIL module
 0001:0005b340       ?dtor$160@?0??addSchemeNodes@HRCParserImpl@@IEAAXPEAVSchemeImpl@@PEAVNode@@@Z@4HA 000000018005c340 f    CIL library: CIL module
 0001:0005b350       ?dtor$161@?0??addSchemeNodes@HRCParserImpl@@IEAAXPEAVSchemeImpl@@PEAVNode@@@Z@4HA 000000018005c350 f    CIL library: CIL module
 0001:0005b360       ?dtor$42@?0??addSchemeNodes@HRCParserImpl@@IEAAXPEAVSchemeImpl@@PEAVNode@@@Z@4HA 000000018005c360 f    CIL library: CIL module
 0001:0005b370       ?dtor$43@?0??addSchemeNodes@HRCParserImpl@@IEAAXPEAVSchemeImpl@@PEAVNode@@@Z@4HA 000000018005c370 f    CIL library: CIL module
 0001:0005b380       ?dtor$163@?0??addSchemeNodes@HRCParserImpl@@IEAAXPEAVSchemeImpl@@PEAVNode@@@Z@4HA 000000018005c380 f    CIL library: CIL module
 0001:0005b390       ?dtor$8@?0??addScheme@HRCParserImpl@@IEAAXPEAVElement@@@Z@4HA 000000018005c390 f    CIL library: CIL module
 0001:0005b3a0       ?dtor$0@?0??addScheme@HRCParserImpl@@IEAAXPEAVElement@@@Z@4HA 000000018005c3a0 f    CIL library: CIL module
 0001:0005b3b0       ?dtor$11@?0??addScheme@HRCParserImpl@@IEAAXPEAVElement@@@Z@4HA 000000018005c3b0 f    CIL library: CIL module
 0001:0005b3c0       ?dtor$1@?0??addScheme@HRCParserImpl@@IEAAXPEAVElement@@@Z@4HA 000000018005c3c0 f    CIL library: CIL module
 0001:0005b3d0       ?dtor$13@?0??addScheme@HRCParserImpl@@IEAAXPEAVElement@@@Z@4HA 000000018005c3d0 f    CIL library: CIL module
 0001:0005b3e0       ?dtor$2@?0??addScheme@HRCParserImpl@@IEAAXPEAVElement@@@Z@4HA 000000018005c3e0 f    CIL library: CIL module
 0001:0005b3f0       ?dtor$15@?0??addScheme@HRCParserImpl@@IEAAXPEAVElement@@@Z@4HA 000000018005c3f0 f    CIL library: CIL module
 0001:0005b400       ?dtor$3@?0??addScheme@HRCParserImpl@@IEAAXPEAVElement@@@Z@4HA 000000018005c400 f    CIL library: CIL module
 0001:0005b410       ?dtor$16@?0??addScheme@HRCParserImpl@@IEAAXPEAVElement@@@Z@4HA 000000018005c410 f    CIL library: CIL module
 0001:0005b420       ?dtor$4@?0??addScheme@HRCParserImpl@@IEAAXPEAVElement@@@Z@4HA 000000018005c420 f    CIL library: CIL module
 0001:0005b430       ?dtor$19@?0??addScheme@HRCParserImpl@@IEAAXPEAVElement@@@Z@4HA 000000018005c430 f    CIL library: CIL module
 0001:0005b440       ?dtor$20@?0??addScheme@HRCParserImpl@@IEAAXPEAVElement@@@Z@4HA 000000018005c440 f    CIL library: CIL module
 0001:0005b450       ?dtor$5@?0??addScheme@HRCParserImpl@@IEAAXPEAVElement@@@Z@4HA 000000018005c450 f    CIL library: CIL module
 0001:0005b460       ?dtor$23@?0??addScheme@HRCParserImpl@@IEAAXPEAVElement@@@Z@4HA 000000018005c460 f    CIL library: CIL module
 0001:0005b470       ?dtor$24@?0??addScheme@HRCParserImpl@@IEAAXPEAVElement@@@Z@4HA 000000018005c470 f    CIL library: CIL module
 0001:0005b480       ?dtor$6@?0??addScheme@HRCParserImpl@@IEAAXPEAVElement@@@Z@4HA 000000018005c480 f    CIL library: CIL module
 0001:0005b4b0       ?dtor$27@?0??addScheme@HRCParserImpl@@IEAAXPEAVElement@@@Z@4HA 000000018005c4b0 f    CIL library: CIL module
 0001:0005b4c0       ?dtor$7@?0??addScheme@HRCParserImpl@@IEAAXPEAVElement@@@Z@4HA 000000018005c4c0 f    CIL library: CIL module
 0001:0005b4f0       ?dtor$30@?0??addScheme@HRCParserImpl@@IEAAXPEAVElement@@@Z@4HA 000000018005c4f0 f    CIL library: CIL module
 0001:0005b500       ?dtor$31@?0??addScheme@HRCParserImpl@@IEAAXPEAVElement@@@Z@4HA 000000018005c500 f    CIL library: CIL module
 0001:0005b510       ?dtor$17@?0??addType@HRCParserImpl@@IEAAXPEAVElement@@@Z@4HA 000000018005c510 f    CIL library: CIL module
 0001:0005b520       ?dtor$0@?0??addType@HRCParserImpl@@IEAAXPEAVElement@@@Z@4HA 000000018005c520 f    CIL library: CIL module
 0001:0005b530       ?dtor$20@?0??addType@HRCParserImpl@@IEAAXPEAVElement@@@Z@4HA 000000018005c530 f    CIL library: CIL module
 0001:0005b540       ?dtor$21@?0??addType@HRCParserImpl@@IEAAXPEAVElement@@@Z@4HA 000000018005c540 f    CIL library: CIL module
 0001:0005b550       ?dtor$1@?0??addType@HRCParserImpl@@IEAAXPEAVElement@@@Z@4HA 000000018005c550 f    CIL library: CIL module
 0001:0005b560       ?dtor$24@?0??addType@HRCParserImpl@@IEAAXPEAVElement@@@Z@4HA 000000018005c560 f    CIL library: CIL module
 0001:0005b570       ?dtor$2@?0??addType@HRCParserImpl@@IEAAXPEAVElement@@@Z@4HA 000000018005c570 f    CIL library: CIL module
 0001:0005b580       ?dtor$26@?0??addType@HRCParserImpl@@IEAAXPEAVElement@@@Z@4HA 000000018005c580 f    CIL library: CIL module
 0001:0005b590       ?dtor$3@?0??addType@HRCParserImpl@@IEAAXPEAVElement@@@Z@4HA 000000018005c590 f    CIL library: CIL module
 0001:0005b5a0       ?dtor$28@?0??addType@HRCParserImpl@@IEAAXPEAVElement@@@Z@4HA 000000018005c5a0 f    CIL library: CIL module
 0001:0005b5b0       ?dtor$29@?0??addType@HRCParserImpl@@IEAAXPEAVElement@@@Z@4HA 000000018005c5b0 f    CIL library: CIL module
 0001:0005b5c0       ?dtor$4@?0??addType@HRCParserImpl@@IEAAXPEAVElement@@@Z@4HA 000000018005c5c0 f    CIL library: CIL module
 0001:0005b5d0       ?dtor$32@?0??addType@HRCParserImpl@@IEAAXPEAVElement@@@Z@4HA 000000018005c5d0 f    CIL library: CIL module
 0001:0005b5e0       ?dtor$33@?0??addType@HRCParserImpl@@IEAAXPEAVElement@@@Z@4HA 000000018005c5e0 f    CIL library: CIL module
 0001:0005b5f0       ?dtor$5@?0??addType@HRCParserImpl@@IEAAXPEAVElement@@@Z@4HA 000000018005c5f0 f    CIL library: CIL module
 0001:0005b600       ?dtor$36@?0??addType@HRCParserImpl@@IEAAXPEAVElement@@@Z@4HA 000000018005c600 f    CIL library: CIL module
 0001:0005b610       ?dtor$37@?0??addType@HRCParserImpl@@IEAAXPEAVElement@@@Z@4HA 000000018005c610 f    CIL library: CIL module
 0001:0005b620       ?dtor$6@?0??addType@HRCParserImpl@@IEAAXPEAVElement@@@Z@4HA 000000018005c620 f    CIL library: CIL module
 0001:0005b630       ?dtor$40@?0??addType@HRCParserImpl@@IEAAXPEAVElement@@@Z@4HA 000000018005c630 f    CIL library: CIL module
 0001:0005b640       ?dtor$41@?0??addType@HRCParserImpl@@IEAAXPEAVElement@@@Z@4HA 000000018005c640 f    CIL library: CIL module
 0001:0005b650       ?dtor$7@?0??addType@HRCParserImpl@@IEAAXPEAVElement@@@Z@4HA 000000018005c650 f    CIL library: CIL module
 0001:0005b660       ?dtor$44@?0??addType@HRCParserImpl@@IEAAXPEAVElement@@@Z@4HA 000000018005c660 f    CIL library: CIL module
 0001:0005b670       ?dtor$8@?0??addType@HRCParserImpl@@IEAAXPEAVElement@@@Z@4HA 000000018005c670 f    CIL library: CIL module
 0001:0005b680       ?dtor$46@?0??addType@HRCParserImpl@@IEAAXPEAVElement@@@Z@4HA 000000018005c680 f    CIL library: CIL module
 0001:0005b690       ?dtor$9@?0??addType@HRCParserImpl@@IEAAXPEAVElement@@@Z@4HA 000000018005c690 f    CIL library: CIL module
 0001:0005b6a0       ?dtor$47@?0??addType@HRCParserImpl@@IEAAXPEAVElement@@@Z@4HA 000000018005c6a0 f    CIL library: CIL module
 0001:0005b6b0       ?dtor$10@?0??addType@HRCParserImpl@@IEAAXPEAVElement@@@Z@4HA 000000018005c6b0 f    CIL library: CIL module
 0001:0005b6c0       ?dtor$50@?0??addType@HRCParserImpl@@IEAAXPEAVElement@@@Z@4HA 000000018005c6c0 f    CIL library: CIL module
 0001:0005b6d0       ?dtor$51@?0??addType@HRCParserImpl@@IEAAXPEAVElement@@@Z@4HA 000000018005c6d0 f    CIL library: CIL module
 0001:0005b6e0       ?dtor$11@?0??addType@HRCParserImpl@@IEAAXPEAVElement@@@Z@4HA 000000018005c6e0 f    CIL library: CIL module
 0001:0005b6f0       ?dtor$54@?0??addType@HRCParserImpl@@IEAAXPEAVElement@@@Z@4HA 000000018005c6f0 f    CIL library: CIL module
 0001:0005b700       ?dtor$55@?0??addType@HRCParserImpl@@IEAAXPEAVElement@@@Z@4HA 000000018005c700 f    CIL library: CIL module
 0001:0005b710       ?dtor$12@?0??addType@HRCParserImpl@@IEAAXPEAVElement@@@Z@4HA 000000018005c710 f    CIL library: CIL module
 0001:0005b720       ?dtor$58@?0??addType@HRCParserImpl@@IEAAXPEAVElement@@@Z@4HA 000000018005c720 f    CIL library: CIL module
 0001:0005b730       ?dtor$59@?0??addType@HRCParserImpl@@IEAAXPEAVElement@@@Z@4HA 000000018005c730 f    CIL library: CIL module
 0001:0005b740       ?dtor$13@?0??addType@HRCParserImpl@@IEAAXPEAVElement@@@Z@4HA 000000018005c740 f    CIL library: CIL module
 0001:0005b750       ?dtor$62@?0??addType@HRCParserImpl@@IEAAXPEAVElement@@@Z@4HA 000000018005c750 f    CIL library: CIL module
 0001:0005b760       ?dtor$14@?0??addType@HRCParserImpl@@IEAAXPEAVElement@@@Z@4HA 000000018005c760 f    CIL library: CIL module
 0001:0005b770       ?dtor$64@?0??addType@HRCParserImpl@@IEAAXPEAVElement@@@Z@4HA 000000018005c770 f    CIL library: CIL module
 0001:0005b780       ?dtor$15@?0??addType@HRCParserImpl@@IEAAXPEAVElement@@@Z@4HA 000000018005c780 f    CIL library: CIL module
 0001:0005b790       ?dtor$65@?0??addType@HRCParserImpl@@IEAAXPEAVElement@@@Z@4HA 000000018005c790 f    CIL library: CIL module
 0001:0005b7a0       ?dtor$67@?0??addType@HRCParserImpl@@IEAAXPEAVElement@@@Z@4HA 000000018005c7a0 f    CIL library: CIL module
 0001:0005b7b0       ?dtor$66@?0??addType@HRCParserImpl@@IEAAXPEAVElement@@@Z@4HA 000000018005c7b0 f    CIL library: CIL module
 0001:0005b7c0       ?dtor$16@?0??addType@HRCParserImpl@@IEAAXPEAVElement@@@Z@4HA 000000018005c7c0 f    CIL library: CIL module
 0001:0005b7d0       ?dtor$72@?0??addType@HRCParserImpl@@IEAAXPEAVElement@@@Z@4HA 000000018005c7d0 f    CIL library: CIL module
 0001:0005b7e0       ?dtor$23@?0??addPrototype@HRCParserImpl@@IEAAXPEAVElement@@@Z@4HA 000000018005c7e0 f    CIL library: CIL module
 0001:0005b7f0       ?dtor$0@?0??addPrototype@HRCParserImpl@@IEAAXPEAVElement@@@Z@4HA 000000018005c7f0 f    CIL library: CIL module
 0001:0005b800       ?dtor$26@?0??addPrototype@HRCParserImpl@@IEAAXPEAVElement@@@Z@4HA 000000018005c800 f    CIL library: CIL module
 0001:0005b810       ?dtor$27@?0??addPrototype@HRCParserImpl@@IEAAXPEAVElement@@@Z@4HA 000000018005c810 f    CIL library: CIL module
 0001:0005b820       ?dtor$1@?0??addPrototype@HRCParserImpl@@IEAAXPEAVElement@@@Z@4HA 000000018005c820 f    CIL library: CIL module
 0001:0005b830       ?dtor$30@?0??addPrototype@HRCParserImpl@@IEAAXPEAVElement@@@Z@4HA 000000018005c830 f    CIL library: CIL module
 0001:0005b840       ?dtor$31@?0??addPrototype@HRCParserImpl@@IEAAXPEAVElement@@@Z@4HA 000000018005c840 f    CIL library: CIL module
 0001:0005b850       ?dtor$2@?0??addPrototype@HRCParserImpl@@IEAAXPEAVElement@@@Z@4HA 000000018005c850 f    CIL library: CIL module
 0001:0005b860       ?dtor$34@?0??addPrototype@HRCParserImpl@@IEAAXPEAVElement@@@Z@4HA 000000018005c860 f    CIL library: CIL module
 0001:0005b870       ?dtor$35@?0??addPrototype@HRCParserImpl@@IEAAXPEAVElement@@@Z@4HA 000000018005c870 f    CIL library: CIL module
 0001:0005b880       ?dtor$3@?0??addPrototype@HRCParserImpl@@IEAAXPEAVElement@@@Z@4HA 000000018005c880 f    CIL library: CIL module
 0001:0005b890       ?dtor$38@?0??addPrototype@HRCParserImpl@@IEAAXPEAVElement@@@Z@4HA 000000018005c890 f    CIL library: CIL module
 0001:0005b8a0       ?dtor$4@?0??addPrototype@HRCParserImpl@@IEAAXPEAVElement@@@Z@4HA 000000018005c8a0 f    CIL library: CIL module
 0001:0005b8b0       ?dtor$40@?0??addPrototype@HRCParserImpl@@IEAAXPEAVElement@@@Z@4HA 000000018005c8b0 f    CIL library: CIL module
 0001:0005b8c0       ?dtor$5@?0??addPrototype@HRCParserImpl@@IEAAXPEAVElement@@@Z@4HA 000000018005c8c0 f    CIL library: CIL module
 0001:0005b8d0       ?dtor$6@?0??addPrototype@HRCParserImpl@@IEAAXPEAVElement@@@Z@4HA 000000018005c8d0 f    CIL library: CIL module
 0001:0005b8e0       ?dtor$41@?0??addPrototype@HRCParserImpl@@IEAAXPEAVElement@@@Z@4HA 000000018005c8e0 f    CIL library: CIL module
 0001:0005b8f0       ?dtor$43@?0??addPrototype@HRCParserImpl@@IEAAXPEAVElement@@@Z@4HA 000000018005c8f0 f    CIL library: CIL module
 0001:0005b900       ?dtor$42@?0??addPrototype@HRCParserImpl@@IEAAXPEAVElement@@@Z@4HA 000000018005c900 f    CIL library: CIL module
 0001:0005b910       ?dtor$7@?0??addPrototype@HRCParserImpl@@IEAAXPEAVElement@@@Z@4HA 000000018005c910 f    CIL library: CIL module
 0001:0005b920       ?dtor$47@?0??addPrototype@HRCParserImpl@@IEAAXPEAVElement@@@Z@4HA 000000018005c920 f    CIL library: CIL module
 0001:0005b930       ?dtor$49@?0??addPrototype@HRCParserImpl@@IEAAXPEAVElement@@@Z@4HA 000000018005c930 f    CIL library: CIL module
 0001:0005b940       ?dtor$48@?0??addPrototype@HRCParserImpl@@IEAAXPEAVElement@@@Z@4HA 000000018005c940 f    CIL library: CIL module
 0001:0005b950       ?dtor$8@?0??addPrototype@HRCParserImpl@@IEAAXPEAVElement@@@Z@4HA 000000018005c950 f    CIL library: CIL module
 0001:0005b960       ?dtor$53@?0??addPrototype@HRCParserImpl@@IEAAXPEAVElement@@@Z@4HA 000000018005c960 f    CIL library: CIL module
 0001:0005b970       ?dtor$55@?0??addPrototype@HRCParserImpl@@IEAAXPEAVElement@@@Z@4HA 000000018005c970 f    CIL library: CIL module
 0001:0005b980       ?dtor$54@?0??addPrototype@HRCParserImpl@@IEAAXPEAVElement@@@Z@4HA 000000018005c980 f    CIL library: CIL module
 0001:0005b990       ?dtor$59@?0??addPrototype@HRCParserImpl@@IEAAXPEAVElement@@@Z@4HA 000000018005c990 f    CIL library: CIL module
 0001:0005b9a0       ?dtor$9@?0??addPrototype@HRCParserImpl@@IEAAXPEAVElement@@@Z@4HA 000000018005c9a0 f    CIL library: CIL module
 0001:0005b9b0       ?dtor$62@?0??addPrototype@HRCParserImpl@@IEAAXPEAVElement@@@Z@4HA 000000018005c9b0 f    CIL library: CIL module
 0001:0005b9c0       ?dtor$10@?0??addPrototype@HRCParserImpl@@IEAAXPEAVElement@@@Z@4HA 000000018005c9c0 f    CIL library: CIL module
 0001:0005b9d0       ?dtor$64@?0??addPrototype@HRCParserImpl@@IEAAXPEAVElement@@@Z@4HA 000000018005c9d0 f    CIL library: CIL module
 0001:0005b9e0       ?dtor$11@?0??addPrototype@HRCParserImpl@@IEAAXPEAVElement@@@Z@4HA 000000018005c9e0 f    CIL library: CIL module
 0001:0005b9f0       ?dtor$66@?0??addPrototype@HRCParserImpl@@IEAAXPEAVElement@@@Z@4HA 000000018005c9f0 f    CIL library: CIL module
 0001:0005ba00       ?dtor$12@?0??addPrototype@HRCParserImpl@@IEAAXPEAVElement@@@Z@4HA 000000018005ca00 f    CIL library: CIL module
 0001:0005ba10       ?dtor$13@?0??addPrototype@HRCParserImpl@@IEAAXPEAVElement@@@Z@4HA 000000018005ca10 f    CIL library: CIL module
 0001:0005ba20       ?dtor$68@?0??addPrototype@HRCParserImpl@@IEAAXPEAVElement@@@Z@4HA 000000018005ca20 f    CIL library: CIL module
 0001:0005ba30       ?dtor$69@?0??addPrototype@HRCParserImpl@@IEAAXPEAVElement@@@Z@4HA 000000018005ca30 f    CIL library: CIL module
 0001:0005ba40       ?dtor$14@?0??addPrototype@HRCParserImpl@@IEAAXPEAVElement@@@Z@4HA 000000018005ca40 f    CIL library: CIL module
 0001:0005ba50       ?dtor$72@?0??addPrototype@HRCParserImpl@@IEAAXPEAVElement@@@Z@4HA 000000018005ca50 f    CIL library: CIL module
 0001:0005ba60       ?dtor$73@?0??addPrototype@HRCParserImpl@@IEAAXPEAVElement@@@Z@4HA 000000018005ca60 f    CIL library: CIL module
 0001:0005ba70       ?dtor$16@?0??addPrototype@HRCParserImpl@@IEAAXPEAVElement@@@Z@4HA 000000018005ca70 f    CIL library: CIL module
 0001:0005ba80       ?dtor$76@?0??addPrototype@HRCParserImpl@@IEAAXPEAVElement@@@Z@4HA 000000018005ca80 f    CIL library: CIL module
 0001:0005ba90       ?dtor$77@?0??addPrototype@HRCParserImpl@@IEAAXPEAVElement@@@Z@4HA 000000018005ca90 f    CIL library: CIL module
 0001:0005baa0       ?dtor$17@?0??addPrototype@HRCParserImpl@@IEAAXPEAVElement@@@Z@4HA 000000018005caa0 f    CIL library: CIL module
 0001:0005bab0       ?dtor$80@?0??addPrototype@HRCParserImpl@@IEAAXPEAVElement@@@Z@4HA 000000018005cab0 f    CIL library: CIL module
 0001:0005bac0       ?dtor$81@?0??addPrototype@HRCParserImpl@@IEAAXPEAVElement@@@Z@4HA 000000018005cac0 f    CIL library: CIL module
 0001:0005bad0       ?dtor$18@?0??addPrototype@HRCParserImpl@@IEAAXPEAVElement@@@Z@4HA 000000018005cad0 f    CIL library: CIL module
 0001:0005bae0       ?dtor$84@?0??addPrototype@HRCParserImpl@@IEAAXPEAVElement@@@Z@4HA 000000018005cae0 f    CIL library: CIL module
 0001:0005baf0       ?dtor$19@?0??addPrototype@HRCParserImpl@@IEAAXPEAVElement@@@Z@4HA 000000018005caf0 f    CIL library: CIL module
 0001:0005bb00       ?dtor$86@?0??addPrototype@HRCParserImpl@@IEAAXPEAVElement@@@Z@4HA 000000018005cb00 f    CIL library: CIL module
 0001:0005bb10       ?dtor$20@?0??addPrototype@HRCParserImpl@@IEAAXPEAVElement@@@Z@4HA 000000018005cb10 f    CIL library: CIL module
 0001:0005bb20       ?dtor$87@?0??addPrototype@HRCParserImpl@@IEAAXPEAVElement@@@Z@4HA 000000018005cb20 f    CIL library: CIL module
 0001:0005bb30       ?dtor$89@?0??addPrototype@HRCParserImpl@@IEAAXPEAVElement@@@Z@4HA 000000018005cb30 f    CIL library: CIL module
 0001:0005bb40       ?dtor$88@?0??addPrototype@HRCParserImpl@@IEAAXPEAVElement@@@Z@4HA 000000018005cb40 f    CIL library: CIL module
 0001:0005bb50       ?dtor$21@?0??addPrototype@HRCParserImpl@@IEAAXPEAVElement@@@Z@4HA 000000018005cb50 f    CIL library: CIL module
 0001:0005bb60       ?dtor$93@?0??addPrototype@HRCParserImpl@@IEAAXPEAVElement@@@Z@4HA 000000018005cb60 f    CIL library: CIL module
 0001:0005bb70       ?dtor$95@?0??addPrototype@HRCParserImpl@@IEAAXPEAVElement@@@Z@4HA 000000018005cb70 f    CIL library: CIL module
 0001:0005bb80       ?dtor$94@?0??addPrototype@HRCParserImpl@@IEAAXPEAVElement@@@Z@4HA 000000018005cb80 f    CIL library: CIL module
 0001:0005bb90       ?dtor$22@?0??addPrototype@HRCParserImpl@@IEAAXPEAVElement@@@Z@4HA 000000018005cb90 f    CIL library: CIL module
 0001:0005bba0       ?dtor$99@?0??addPrototype@HRCParserImpl@@IEAAXPEAVElement@@@Z@4HA 000000018005cba0 f    CIL library: CIL module
 0001:0005bbb0       ?dtor$101@?0??addPrototype@HRCParserImpl@@IEAAXPEAVElement@@@Z@4HA 000000018005cbb0 f    CIL library: CIL module
 0001:0005bbc0       ?dtor$100@?0??addPrototype@HRCParserImpl@@IEAAXPEAVElement@@@Z@4HA 000000018005cbc0 f    CIL library: CIL module
 0001:0005bbd0       ?dtor$3@?0??parseHRC@HRCParserImpl@@IEAAXPEAVInputSource@@@Z@4HA 000000018005cbd0 f    CIL library: CIL module
 0001:0005bbe0       ?dtor$0@?0??parseHRC@HRCParserImpl@@IEAAXPEAVInputSource@@@Z@4HA 000000018005cbe0 f    CIL library: CIL module
 0001:0005bbf0       ?dtor$1@?0??parseHRC@HRCParserImpl@@IEAAXPEAVInputSource@@@Z@4HA 000000018005cbf0 f    CIL library: CIL module
 0001:0005bc00       ?dtor$7@?0??parseHRC@HRCParserImpl@@IEAAXPEAVInputSource@@@Z@4HA 000000018005cc00 f    CIL library: CIL module
 0001:0005bc10       ?dtor$2@?0??parseHRC@HRCParserImpl@@IEAAXPEAVInputSource@@@Z@4HA 000000018005cc10 f    CIL library: CIL module
 0001:0005bc40       ?dtor$10@?0??parseHRC@HRCParserImpl@@IEAAXPEAVInputSource@@@Z@4HA 000000018005cc40 f    CIL library: CIL module
 0001:0005bc50       ?dtor$12@?0??parseHRC@HRCParserImpl@@IEAAXPEAVInputSource@@@Z@4HA 000000018005cc50 f    CIL library: CIL module
 0001:0005bc60       ?dtor$11@?0??parseHRC@HRCParserImpl@@IEAAXPEAVInputSource@@@Z@4HA 000000018005cc60 f    CIL library: CIL module
 0001:0005bc70       ?dtor$16@?0??parseHRC@HRCParserImpl@@IEAAXPEAVInputSource@@@Z@4HA 000000018005cc70 f    CIL library: CIL module
 0001:0005bc80       ?dtor$0@?0??loadSource@HRCParserImpl@@UEAAXPEAVInputSource@@@Z@4HA 000000018005cc80 f    CIL library: CIL module
 0001:0005bc90       ?dtor$2@?0??loadSource@HRCParserImpl@@UEAAXPEAVInputSource@@@Z@4HA 000000018005cc90 f    CIL library: CIL module
 0001:0005bca0       ?catch$0@?0??loadSource@HRCParserImpl@@UEAAXPEAVInputSource@@@Z@4HA 000000018005cca0 f    CIL library: CIL module
 0001:0005bcad       __catch$?loadSource@HRCParserImpl@@UEAAXPEAVInputSource@@@Z$0 000000018005ccad f    CIL library: CIL module
 0001:0005bce0       ?dtor$0@?0???0ParserFactory@@QEAA@PEBVString@@@Z@4HA 000000018005cce0 f    CIL library: CIL module
 0001:0005bcf0       ?dtor$1@?0???0ParserFactory@@QEAA@PEBVString@@@Z@4HA 000000018005ccf0 f    CIL library: CIL module
 0001:0005bd00       ?dtor$2@?0???0ParserFactory@@QEAA@PEBVString@@@Z@4HA 000000018005cd00 f    CIL library: CIL module
 0001:0005bd10       ?dtor$3@?0???0ParserFactory@@QEAA@PEBVString@@@Z@4HA 000000018005cd10 f    CIL library: CIL module
 0001:0005bd20       ?dtor$6@?0???0ParserFactory@@QEAA@PEBVString@@@Z@4HA 000000018005cd20 f    CIL library: CIL module
 0001:0005bd30       ?dtor$8@?0???0ParserFactory@@QEAA@PEBVString@@@Z@4HA 000000018005cd30 f    CIL library: CIL module
 0001:0005bd40       ?dtor$7@?0???0ParserFactory@@QEAA@PEBVString@@@Z@4HA 000000018005cd40 f    CIL library: CIL module
 0001:0005bd50       ?dtor$4@?0??ReloadBase@FarEditorSet@@AEAAXXZ@4HA 000000018005cd50 f    CIL library: CIL module
 0001:0005bd60       ?dtor$6@?0??ReloadBase@FarEditorSet@@AEAAXXZ@4HA 000000018005cd60 f    CIL library: CIL module
 0001:0005bd70       ?dtor$5@?0??ReloadBase@FarEditorSet@@AEAAXXZ@4HA 000000018005cd70 f    CIL library: CIL module
 0001:0005bd80       ?dtor$0@?0??ReloadBase@FarEditorSet@@AEAAXXZ@4HA 000000018005cd80 f    CIL library: CIL module
 0001:0005bd90       ?dtor$10@?0??ReloadBase@FarEditorSet@@AEAAXXZ@4HA 000000018005cd90 f    CIL library: CIL module
 0001:0005bda0       ?dtor$11@?0??ReloadBase@FarEditorSet@@AEAAXXZ@4HA 000000018005cda0 f    CIL library: CIL module
 0001:0005bdb0       ?dtor$13@?0??ReloadBase@FarEditorSet@@AEAAXXZ@4HA 000000018005cdb0 f    CIL library: CIL module
 0001:0005bdc0       ?dtor$12@?0??ReloadBase@FarEditorSet@@AEAAXXZ@4HA 000000018005cdc0 f    CIL library: CIL module
 0001:0005bdd0       ?dtor$1@?0??ReloadBase@FarEditorSet@@AEAAXXZ@4HA 000000018005cdd0 f    CIL library: CIL module
 0001:0005bde0       ?dtor$17@?0??ReloadBase@FarEditorSet@@AEAAXXZ@4HA 000000018005cde0 f    CIL library: CIL module
 0001:0005bdf0       ?dtor$2@?0??ReloadBase@FarEditorSet@@AEAAXXZ@4HA 000000018005cdf0 f    CIL library: CIL module
 0001:0005be00       ?dtor$18@?0??ReloadBase@FarEditorSet@@AEAAXXZ@4HA 000000018005ce00 f    CIL library: CIL module
 0001:0005be10       ?dtor$3@?0??ReloadBase@FarEditorSet@@AEAAXXZ@4HA 000000018005ce10 f    CIL library: CIL module
 0001:0005be20       ?dtor$21@?0??ReloadBase@FarEditorSet@@AEAAXXZ@4HA 000000018005ce20 f    CIL library: CIL module
 0001:0005be30       ?catch$0@?0??ReloadBase@FarEditorSet@@AEAAXXZ@4HA 000000018005ce30 f    CIL library: CIL module
 0001:0005be3f       __catch$?ReloadBase@FarEditorSet@@AEAAXXZ$0 000000018005ce3f f    CIL library: CIL module
 0001:0005bea0       ?catch$1@?0??ReloadBase@FarEditorSet@@AEAAXXZ@4HA 000000018005cea0 f    CIL library: CIL module
 0001:0005beb2       __catch$?ReloadBase@FarEditorSet@@AEAAXXZ$2 000000018005ceb2 f    CIL library: CIL module
 0001:0005bfa0       ?dtor$0@?0??TestLoadBase@FarEditorSet@@QEAA_NPEB_W00H@Z@4HA 000000018005cfa0 f    CIL library: CIL module
 0001:0005bfb0       ?dtor$6@?0??TestLoadBase@FarEditorSet@@QEAA_NPEB_W00H@Z@4HA 000000018005cfb0 f    CIL library: CIL module
 0001:0005bfc0       ?dtor$8@?0??TestLoadBase@FarEditorSet@@QEAA_NPEB_W00H@Z@4HA 000000018005cfc0 f    CIL library: CIL module
 0001:0005bfd0       ?dtor$7@?0??TestLoadBase@FarEditorSet@@QEAA_NPEB_W00H@Z@4HA 000000018005cfd0 f    CIL library: CIL module
 0001:0005bfe0       ?dtor$12@?0??TestLoadBase@FarEditorSet@@QEAA_NPEB_W00H@Z@4HA 000000018005cfe0 f    CIL library: CIL module
 0001:0005bff0       ?dtor$1@?0??TestLoadBase@FarEditorSet@@QEAA_NPEB_W00H@Z@4HA 000000018005cff0 f    CIL library: CIL module
 0001:0005c000       ?dtor$18@?0??TestLoadBase@FarEditorSet@@QEAA_NPEB_W00H@Z@4HA 000000018005d000 f    CIL library: CIL module
 0001:0005c010       ?dtor$2@?0??TestLoadBase@FarEditorSet@@QEAA_NPEB_W00H@Z@4HA 000000018005d010 f    CIL library: CIL module
 0001:0005c020       ?catch$0@?0??TestLoadBase@FarEditorSet@@QEAA_NPEB_W00H@Z@4HA 000000018005d020 f    CIL library: CIL module
 0001:0005c02f       __catch$?TestLoadBase@FarEditorSet@@QEAA_NPEB_W00H@Z$0 000000018005d02f f    CIL library: CIL module
 0001:0005c080       ?catch$1@?0??TestLoadBase@FarEditorSet@@QEAA_NPEB_W00H@Z@4HA 000000018005d080 f    CIL library: CIL module
 0001:0005c08f       __catch$?TestLoadBase@FarEditorSet@@QEAA_NPEB_W00H@Z$2 000000018005d08f f    CIL library: CIL module
 0001:0005c0e0       ?dtor$19@?0??TestLoadBase@FarEditorSet@@QEAA_NPEB_W00H@Z@4HA 000000018005d0e0 f    CIL library: CIL module
 0001:0005c0f0       ?dtor$3@?0??TestLoadBase@FarEditorSet@@QEAA_NPEB_W00H@Z@4HA 000000018005d0f0 f    CIL library: CIL module
 0001:0005c100       ?dtor$20@?0??TestLoadBase@FarEditorSet@@QEAA_NPEB_W00H@Z@4HA 000000018005d100 f    CIL library: CIL module
 0001:0005c110       ?dtor$4@?0??TestLoadBase@FarEditorSet@@QEAA_NPEB_W00H@Z@4HA 000000018005d110 f    CIL library: CIL module
 0001:0005c120       ?dtor$23@?0??TestLoadBase@FarEditorSet@@QEAA_NPEB_W00H@Z@4HA 000000018005d120 f    CIL library: CIL module
 0001:0005c130       ?dtor$25@?0??TestLoadBase@FarEditorSet@@QEAA_NPEB_W00H@Z@4HA 000000018005d130 f    CIL library: CIL module
 0001:0005c140       ?catch$2@?0??TestLoadBase@FarEditorSet@@QEAA_NPEB_W00H@Z@4HA 000000018005d140 f    CIL library: CIL module
 0001:0005c150       __catch$?TestLoadBase@FarEditorSet@@QEAA_NPEB_W00H@Z$4 000000018005d150 f    CIL library: CIL module
 0001:0005c260       ?dtor$0@?0??SettingDialogProc@@YA_JPEAXHH_J@Z@4HA 000000018005d260 f    CIL library: CIL module
 0001:0005c270       ?dtor$8@?0??SettingDialogProc@@YA_JPEAXHH_J@Z@4HA 000000018005d270 f    CIL library: CIL module
 0001:0005c280       ?dtor$10@?0??SettingDialogProc@@YA_JPEAXHH_J@Z@4HA 000000018005d280 f    CIL library: CIL module
 0001:0005c290       ?dtor$9@?0??SettingDialogProc@@YA_JPEAXHH_J@Z@4HA 000000018005d290 f    CIL library: CIL module
 0001:0005c2a0       ?dtor$3@?0??SettingDialogProc@@YA_JPEAXHH_J@Z@4HA 000000018005d2a0 f    CIL library: CIL module
 0001:0005c2b0       ?dtor$14@?0??SettingDialogProc@@YA_JPEAXHH_J@Z@4HA 000000018005d2b0 f    CIL library: CIL module
 0001:0005c2c0       ?dtor$16@?0??SettingDialogProc@@YA_JPEAXHH_J@Z@4HA 000000018005d2c0 f    CIL library: CIL module
 0001:0005c2d0       ?dtor$15@?0??SettingDialogProc@@YA_JPEAXHH_J@Z@4HA 000000018005d2d0 f    CIL library: CIL module
 0001:0005c2e0       ?dtor$20@?0??SettingDialogProc@@YA_JPEAXHH_J@Z@4HA 000000018005d2e0 f    CIL library: CIL module
 0001:0005c2f0       ?dtor$6@?0??SettingDialogProc@@YA_JPEAXHH_J@Z@4HA 000000018005d2f0 f    CIL library: CIL module
 0001:0005c320       ?dtor$26@?0??SettingDialogProc@@YA_JPEAXHH_J@Z@4HA 000000018005d320 f    CIL library: CIL module
 0001:0005c330       ?dtor$7@?0??SettingDialogProc@@YA_JPEAXHH_J@Z@4HA 000000018005d330 f    CIL library: CIL module
 0001:0005c360       ?dtor$32@?0??SettingDialogProc@@YA_JPEAXHH_J@Z@4HA 000000018005d360 f    CIL library: CIL module
 0001:0005c370       ?dtor$33@?0??SettingDialogProc@@YA_JPEAXHH_J@Z@4HA 000000018005d370 f    CIL library: CIL module
 0001:0005c380       ?dtor$0@?0???0FarEditorSet@@QEAA@XZ@4HA 000000018005d380 f    CIL library: CIL module
 0001:0005c390       ?dtor$1@?0???0FarEditorSet@@QEAA@XZ@4HA 000000018005d390 f    CIL library: CIL module
 0001:0005c3a0       ?dtor$2@?0???0FarEditorSet@@QEAA@XZ@4HA 000000018005d3a0 f    CIL library: CIL module
 0001:0005c3c0       ?dtor$0@?0??addCurrentEditor@FarEditorSet@@AEAAPEAVFarEditor@@XZ@4HA 000000018005d3c0 f    CIL library: CIL module
 0001:0005c3d0       ?dtor$1@?0??addCurrentEditor@FarEditorSet@@AEAAPEAVFarEditor@@XZ@4HA 000000018005d3d0 f    CIL library: CIL module
 0001:0005c3e0       ?dtor$2@?0??addCurrentEditor@FarEditorSet@@AEAAPEAVFarEditor@@XZ@4HA 000000018005d3e0 f    CIL library: CIL module
 0001:0005c3f0       ?dtor$0@?0??editorEvent@FarEditorSet@@QEAAHHPEAX@Z@4HA 000000018005d3f0 f    CIL library: CIL module
 0001:0005c400       ?dtor$3@?0??editorEvent@FarEditorSet@@QEAAHHPEAX@Z@4HA 000000018005d400 f    CIL library: CIL module
 0001:0005c410       ?dtor$1@?0??editorEvent@FarEditorSet@@QEAAHHPEAX@Z@4HA 000000018005d410 f    CIL library: CIL module
 0001:0005c420       ?dtor$4@?0??editorEvent@FarEditorSet@@QEAAHHPEAX@Z@4HA 000000018005d420 f    CIL library: CIL module
 0001:0005c430       ?catch$0@?0??editorEvent@FarEditorSet@@QEAAHHPEAX@Z@4HA 000000018005d430 f    CIL library: CIL module
 0001:0005c442       __catch$?editorEvent@FarEditorSet@@QEAAHHPEAX@Z$0 000000018005d442 f    CIL library: CIL module
 0001:0005c590       ?dtor$2@?0??editorEvent@FarEditorSet@@QEAAHHPEAX@Z@4HA 000000018005d590 f    CIL library: CIL module
 0001:0005c5a0       ?dtor$6@?0??editorEvent@FarEditorSet@@QEAAHHPEAX@Z@4HA 000000018005d5a0 f    CIL library: CIL module
 0001:0005c5b0       ?dtor$0@?0??configure@FarEditorSet@@QEAAX_N@Z@4HA 000000018005d5b0 f    CIL library: CIL module
 0001:0005c5c0       ?dtor$14@?0??configure@FarEditorSet@@QEAAX_N@Z@4HA 000000018005d5c0 f    CIL library: CIL module
 0001:0005c5d0       ?dtor$16@?0??configure@FarEditorSet@@QEAAX_N@Z@4HA 000000018005d5d0 f    CIL library: CIL module
 0001:0005c5e0       ?dtor$15@?0??configure@FarEditorSet@@QEAAX_N@Z@4HA 000000018005d5e0 f    CIL library: CIL module
 0001:0005c5f0       ?dtor$2@?0??configure@FarEditorSet@@QEAAX_N@Z@4HA 000000018005d5f0 f    CIL library: CIL module
 0001:0005c600       ?dtor$20@?0??configure@FarEditorSet@@QEAAX_N@Z@4HA 000000018005d600 f    CIL library: CIL module
 0001:0005c610       ?dtor$22@?0??configure@FarEditorSet@@QEAAX_N@Z@4HA 000000018005d610 f    CIL library: CIL module
 0001:0005c620       ?dtor$21@?0??configure@FarEditorSet@@QEAAX_N@Z@4HA 000000018005d620 f    CIL library: CIL module
 0001:0005c630       ?dtor$26@?0??configure@FarEditorSet@@QEAAX_N@Z@4HA 000000018005d630 f    CIL library: CIL module
 0001:0005c640       ?dtor$4@?0??configure@FarEditorSet@@QEAAX_N@Z@4HA 000000018005d640 f    CIL library: CIL module
 0001:0005c670       ?dtor$32@?0??configure@FarEditorSet@@QEAAX_N@Z@4HA 000000018005d670 f    CIL library: CIL module
 0001:0005c680       ?dtor$5@?0??configure@FarEditorSet@@QEAAX_N@Z@4HA 000000018005d680 f    CIL library: CIL module
 0001:0005c6b0       ?dtor$38@?0??configure@FarEditorSet@@QEAAX_N@Z@4HA 000000018005d6b0 f    CIL library: CIL module
 0001:0005c6c0       ?dtor$6@?0??configure@FarEditorSet@@QEAAX_N@Z@4HA 000000018005d6c0 f    CIL library: CIL module
 0001:0005c6f0       ?dtor$44@?0??configure@FarEditorSet@@QEAAX_N@Z@4HA 000000018005d6f0 f    CIL library: CIL module
 0001:0005c700       ?dtor$45@?0??configure@FarEditorSet@@QEAAX_N@Z@4HA 000000018005d700 f    CIL library: CIL module
 0001:0005c710       ?dtor$46@?0??configure@FarEditorSet@@QEAAX_N@Z@4HA 000000018005d710 f    CIL library: CIL module
 0001:0005c720       ?dtor$7@?0??configure@FarEditorSet@@QEAAX_N@Z@4HA 000000018005d720 f    CIL library: CIL module
 0001:0005c730       ?dtor$47@?0??configure@FarEditorSet@@QEAAX_N@Z@4HA 000000018005d730 f    CIL library: CIL module
 0001:0005c740       ?dtor$8@?0??configure@FarEditorSet@@QEAAX_N@Z@4HA 000000018005d740 f    CIL library: CIL module
 0001:0005c770       ?dtor$53@?0??configure@FarEditorSet@@QEAAX_N@Z@4HA 000000018005d770 f    CIL library: CIL module
 0001:0005c780       ?dtor$55@?0??configure@FarEditorSet@@QEAAX_N@Z@4HA 000000018005d780 f    CIL library: CIL module
 0001:0005c790       ?dtor$54@?0??configure@FarEditorSet@@QEAAX_N@Z@4HA 000000018005d790 f    CIL library: CIL module
 0001:0005c7a0       ?dtor$59@?0??configure@FarEditorSet@@QEAAX_N@Z@4HA 000000018005d7a0 f    CIL library: CIL module
 0001:0005c7b0       ?dtor$9@?0??configure@FarEditorSet@@QEAAX_N@Z@4HA 000000018005d7b0 f    CIL library: CIL module
 0001:0005c7c0       ?dtor$60@?0??configure@FarEditorSet@@QEAAX_N@Z@4HA 000000018005d7c0 f    CIL library: CIL module
 0001:0005c7d0       ?dtor$10@?0??configure@FarEditorSet@@QEAAX_N@Z@4HA 000000018005d7d0 f    CIL library: CIL module
 0001:0005c800       ?dtor$66@?0??configure@FarEditorSet@@QEAAX_N@Z@4HA 000000018005d800 f    CIL library: CIL module
 0001:0005c810       ?dtor$68@?0??configure@FarEditorSet@@QEAAX_N@Z@4HA 000000018005d810 f    CIL library: CIL module
 0001:0005c820       ?dtor$67@?0??configure@FarEditorSet@@QEAAX_N@Z@4HA 000000018005d820 f    CIL library: CIL module
 0001:0005c830       ?dtor$72@?0??configure@FarEditorSet@@QEAAX_N@Z@4HA 000000018005d830 f    CIL library: CIL module
 0001:0005c840       ?dtor$11@?0??configure@FarEditorSet@@QEAAX_N@Z@4HA 000000018005d840 f    CIL library: CIL module
 0001:0005c850       ?dtor$73@?0??configure@FarEditorSet@@QEAAX_N@Z@4HA 000000018005d850 f    CIL library: CIL module
 0001:0005c860       ?dtor$12@?0??configure@FarEditorSet@@QEAAX_N@Z@4HA 000000018005d860 f    CIL library: CIL module
 0001:0005c890       ?dtor$79@?0??configure@FarEditorSet@@QEAAX_N@Z@4HA 000000018005d890 f    CIL library: CIL module
 0001:0005c8a0       ?dtor$81@?0??configure@FarEditorSet@@QEAAX_N@Z@4HA 000000018005d8a0 f    CIL library: CIL module
 0001:0005c8b0       ?dtor$80@?0??configure@FarEditorSet@@QEAAX_N@Z@4HA 000000018005d8b0 f    CIL library: CIL module
 0001:0005c8c0       ?dtor$85@?0??configure@FarEditorSet@@QEAAX_N@Z@4HA 000000018005d8c0 f    CIL library: CIL module
 0001:0005c8d0       ?catch$0@?0??configure@FarEditorSet@@QEAAX_N@Z@4HA 000000018005d8d0 f    CIL library: CIL module
 0001:0005c8e2       __catch$?configure@FarEditorSet@@QEAAX_N@Z$0 000000018005d8e2 f    CIL library: CIL module
 0001:0005ca40       ?dtor$13@?0??configure@FarEditorSet@@QEAAX_N@Z@4HA 000000018005da40 f    CIL library: CIL module
 0001:0005ca50       ?dtor$87@?0??configure@FarEditorSet@@QEAAX_N@Z@4HA 000000018005da50 f    CIL library: CIL module
 0001:0005ca60       ?dtor$2@?0??openMenu@FarEditorSet@@QEAAXXZ@4HA 000000018005da60 f    CIL library: CIL module
 0001:0005ca70       ?dtor$0@?0??openMenu@FarEditorSet@@QEAAXXZ@4HA 000000018005da70 f    CIL library: CIL module
 0001:0005ca80       ?catch$0@?0??openMenu@FarEditorSet@@QEAAXXZ@4HA 000000018005da80 f    CIL library: CIL module
 0001:0005ca92       __catch$?openMenu@FarEditorSet@@QEAAXXZ$0 000000018005da92 f    CIL library: CIL module
 0001:0005cbf0       ?dtor$1@?0??openMenu@FarEditorSet@@QEAAXXZ@4HA 000000018005dbf0 f    CIL library: CIL module
 0001:0005cc00       ?dtor$7@?0??openMenu@FarEditorSet@@QEAAXXZ@4HA 000000018005dc00 f    CIL library: CIL module
 0001:0005cc10       ?dtor$0@?0???__FDShowCross@@YAXXZ@4HA 000000018005dc10 f    CIL library: CIL module
 0001:0005cc10       ?dtor$0@?0???__EDShowCross@@YAXXZ@4HA 000000018005dc10 f    CIL library: CIL module
 0001:0005cc20       ?dtor$0@?0???__EDVertical@@YAXXZ@4HA 000000018005dc20 f    CIL library: CIL module
 0001:0005cc20       ?dtor$0@?0???__FDVertical@@YAXXZ@4HA 000000018005dc20 f    CIL library: CIL module
 0001:0005cc30       ?dtor$0@?0???__FDHorizontal@@YAXXZ@4HA 000000018005dc30 f    CIL library: CIL module
 0001:0005cc30       ?dtor$0@?0???__EDHorizontal@@YAXXZ@4HA 000000018005dc30 f    CIL library: CIL module
 0001:0005cc40       ?dtor$0@?0???__EDBoth@@YAXXZ@4HA 000000018005dc40 f    CIL library: CIL module
 0001:0005cc40       ?dtor$0@?0???__FDBoth@@YAXXZ@4HA 000000018005dc40 f    CIL library: CIL module
 0001:0005cc50       ?dtor$0@?0???__FDCrossZorder@@YAXXZ@4HA 000000018005dc50 f    CIL library: CIL module
 0001:0005cc50       ?dtor$0@?0???__EDCrossZorder@@YAXXZ@4HA 000000018005dc50 f    CIL library: CIL module
 0001:0005cc60       ?dtor$0@?0???__EDBottom@@YAXXZ@4HA 000000018005dc60 f    CIL library: CIL module
 0001:0005cc60       ?dtor$0@?0???__FDBottom@@YAXXZ@4HA 000000018005dc60 f    CIL library: CIL module
 0001:0005cc70       ?dtor$0@?0???__FDTop@@YAXXZ@4HA 000000018005dc70 f    CIL library: CIL module
 0001:0005cc70       ?dtor$0@?0???__EDTop@@YAXXZ@4HA 000000018005dc70 f    CIL library: CIL module
 0001:0005cc80       ?dtor$0@?0???__EDNo@@YAXXZ@4HA 000000018005dc80 f    CIL library: CIL module
 0001:0005cc80       ?dtor$0@?0???__FDNo@@YAXXZ@4HA 000000018005dc80 f    CIL library: CIL module
 0001:0005cc90       ?dtor$0@?0???__FDTrue@@YAXXZ@4HA 000000018005dc90 f    CIL library: CIL module
 0001:0005cc90       ?dtor$0@?0???__EDTrue@@YAXXZ@4HA 000000018005dc90 f    CIL library: CIL module
 0001:0005cca0       ?dtor$0@?0???__EDFalse@@YAXXZ@4HA 000000018005dca0 f    CIL library: CIL module
 0001:0005cca0       ?dtor$0@?0???__FDFalse@@YAXXZ@4HA 000000018005dca0 f    CIL library: CIL module
 0001:0005ccb0       ?dtor$0@?0???__EDBackparse@@YAXXZ@4HA 000000018005dcb0 f    CIL library: CIL module
 0001:0005ccb0       ?dtor$0@?0???__FDBackparse@@YAXXZ@4HA 000000018005dcb0 f    CIL library: CIL module
 0001:0005ccc0       ?dtor$0@?0???__FDMaxLen@@YAXXZ@4HA 000000018005dcc0 f    CIL library: CIL module
 0001:0005ccc0       ?dtor$0@?0???__EDMaxLen@@YAXXZ@4HA 000000018005dcc0 f    CIL library: CIL module
 0001:0005ccd0       ?dtor$0@?0???__EDDefFore@@YAXXZ@4HA 000000018005dcd0 f    CIL library: CIL module
 0001:0005ccd0       ?dtor$0@?0???__FDDefFore@@YAXXZ@4HA 000000018005dcd0 f    CIL library: CIL module
 0001:0005cce0       ?dtor$0@?0???__FDDefBack@@YAXXZ@4HA 000000018005dce0 f    CIL library: CIL module
 0001:0005cce0       ?dtor$0@?0???__EDDefBack@@YAXXZ@4HA 000000018005dce0 f    CIL library: CIL module
 0001:0005ccf0       ?dtor$0@?0???__EDFullback@@YAXXZ@4HA 000000018005dcf0 f    CIL library: CIL module
 0001:0005ccf0       ?dtor$0@?0???__FDFullback@@YAXXZ@4HA 000000018005dcf0 f    CIL library: CIL module
 0001:0005cd00       ?dtor$0@?0???__FDHotkey@@YAXXZ@4HA 000000018005dd00 f    CIL library: CIL module
 0001:0005cd00       ?dtor$0@?0???__EDHotkey@@YAXXZ@4HA 000000018005dd00 f    CIL library: CIL module
 0001:0005cd10       ?dtor$0@?0???__FDFavorite@@YAXXZ@4HA 000000018005dd10 f    CIL library: CIL module
 0001:0005cd10       ?dtor$0@?0???__EDFavorite@@YAXXZ@4HA 000000018005dd10 f    CIL library: CIL module
 0001:0005cd20       ?dtor$0@?0???__EDShowCross@@YAXXZ@4HA 000000018005dd20 f    CIL library: CIL module
 0001:0005cd20       ?dtor$0@?0???__FDShowCross@@YAXXZ@4HA 000000018005dd20 f    CIL library: CIL module
 0001:0005cd30       ?dtor$0@?0???__EDNone@@YAXXZ@4HA 000000018005dd30 f    CIL library: CIL module
 0001:0005cd30       ?dtor$0@?0???__FDNone@@YAXXZ@4HA 000000018005dd30 f    CIL library: CIL module
 0001:0005cd40       ?dtor$0@?0???__FDVertical@@YAXXZ@4HA 000000018005dd40 f    CIL library: CIL module
 0001:0005cd40       ?dtor$0@?0???__EDVertical@@YAXXZ@4HA 000000018005dd40 f    CIL library: CIL module
 0001:0005cd50       ?dtor$0@?0???__FDHorizontal@@YAXXZ@4HA 000000018005dd50 f    CIL library: CIL module
 0001:0005cd50       ?dtor$0@?0???__EDHorizontal@@YAXXZ@4HA 000000018005dd50 f    CIL library: CIL module
 0001:0005cd60       ?dtor$0@?0???__EDBoth@@YAXXZ@4HA 000000018005dd60 f    CIL library: CIL module
 0001:0005cd60       ?dtor$0@?0???__FDBoth@@YAXXZ@4HA 000000018005dd60 f    CIL library: CIL module
 0001:0005cd70       ?dtor$0@?0???__EDCrossZorder@@YAXXZ@4HA 000000018005dd70 f    CIL library: CIL module
 0001:0005cd70       ?dtor$0@?0???__FDCrossZorder@@YAXXZ@4HA 000000018005dd70 f    CIL library: CIL module
 0001:0005cd80       ?dtor$0@?0???__EDBottom@@YAXXZ@4HA 000000018005dd80 f    CIL library: CIL module
 0001:0005cd80       ?dtor$0@?0???__FDBottom@@YAXXZ@4HA 000000018005dd80 f    CIL library: CIL module
 0001:0005cd90       ?dtor$0@?0???__EDTop@@YAXXZ@4HA 000000018005dd90 f    CIL library: CIL module
 0001:0005cd90       ?dtor$0@?0???__FDTop@@YAXXZ@4HA 000000018005dd90 f    CIL library: CIL module
 0001:0005cda0       ?dtor$0@?0???__EDYes@@YAXXZ@4HA 000000018005dda0 f    CIL library: CIL module
 0001:0005cda0       ?dtor$0@?0???__FDYes@@YAXXZ@4HA 000000018005dda0 f    CIL library: CIL module
 0001:0005cdb0       ?dtor$0@?0???__EDNo@@YAXXZ@4HA 000000018005ddb0 f    CIL library: CIL module
 0001:0005cdb0       ?dtor$0@?0???__FDNo@@YAXXZ@4HA 000000018005ddb0 f    CIL library: CIL module
 0001:0005cdc0       ?dtor$0@?0???__FDTrue@@YAXXZ@4HA 000000018005ddc0 f    CIL library: CIL module
 0001:0005cdc0       ?dtor$0@?0???__EDTrue@@YAXXZ@4HA 000000018005ddc0 f    CIL library: CIL module
 0001:0005cdd0       ?dtor$0@?0???__EDFalse@@YAXXZ@4HA 000000018005ddd0 f    CIL library: CIL module
 0001:0005cdd0       ?dtor$0@?0???__FDFalse@@YAXXZ@4HA 000000018005ddd0 f    CIL library: CIL module
 0001:0005cde0       ?dtor$0@?0???__FDBackparse@@YAXXZ@4HA 000000018005dde0 f    CIL library: CIL module
 0001:0005cde0       ?dtor$0@?0???__EDBackparse@@YAXXZ@4HA 000000018005dde0 f    CIL library: CIL module
 0001:0005cdf0       ?dtor$0@?0???__FDMaxLen@@YAXXZ@4HA 000000018005ddf0 f    CIL library: CIL module
 0001:0005cdf0       ?dtor$0@?0???__EDMaxLen@@YAXXZ@4HA 000000018005ddf0 f    CIL library: CIL module
 0001:0005ce00       ?dtor$0@?0???__FDDefFore@@YAXXZ@4HA 000000018005de00 f    CIL library: CIL module
 0001:0005ce00       ?dtor$0@?0???__EDDefFore@@YAXXZ@4HA 000000018005de00 f    CIL library: CIL module
 0001:0005ce10       ?dtor$0@?0???__EDDefBack@@YAXXZ@4HA 000000018005de10 f    CIL library: CIL module
 0001:0005ce10       ?dtor$0@?0???__FDDefBack@@YAXXZ@4HA 000000018005de10 f    CIL library: CIL module
 0001:0005ce20       ?dtor$0@?0???__FDFullback@@YAXXZ@4HA 000000018005de20 f    CIL library: CIL module
 0001:0005ce20       ?dtor$0@?0???__EDFullback@@YAXXZ@4HA 000000018005de20 f    CIL library: CIL module
 0001:0005ce30       ?dtor$0@?0???__EDHotkey@@YAXXZ@4HA 000000018005de30 f    CIL library: CIL module
 0001:0005ce30       ?dtor$0@?0???__FDHotkey@@YAXXZ@4HA 000000018005de30 f    CIL library: CIL module
 0001:0005ce40       ?dtor$0@?0???__FDFavorite@@YAXXZ@4HA 000000018005de40 f    CIL library: CIL module
 0001:0005ce40       ?dtor$0@?0???__EDFavorite@@YAXXZ@4HA 000000018005de40 f    CIL library: CIL module
 0001:0005ce50       ?dtor$0@?0???__EDShowCross@@YAXXZ@4HA 000000018005de50 f    CIL library: CIL module
 0001:0005ce50       ?dtor$0@?0???__FDShowCross@@YAXXZ@4HA 000000018005de50 f    CIL library: CIL module
 0001:0005ce60       ?dtor$0@?0???__EDNone@@YAXXZ@4HA 000000018005de60 f    CIL library: CIL module
 0001:0005ce60       ?dtor$0@?0???__FDNone@@YAXXZ@4HA 000000018005de60 f    CIL library: CIL module
 0001:0005ce70       ?dtor$0@?0???__EDVertical@@YAXXZ@4HA 000000018005de70 f    CIL library: CIL module
 0001:0005ce70       ?dtor$0@?0???__FDVertical@@YAXXZ@4HA 000000018005de70 f    CIL library: CIL module
 0001:0005ce80       ?dtor$0@?0???__FDHorizontal@@YAXXZ@4HA 000000018005de80 f    CIL library: CIL module
 0001:0005ce80       ?dtor$0@?0???__EDHorizontal@@YAXXZ@4HA 000000018005de80 f    CIL library: CIL module
 0001:0005ce90       ?dtor$0@?0???__FDBoth@@YAXXZ@4HA 000000018005de90 f    CIL library: CIL module
 0001:0005ce90       ?dtor$0@?0???__EDBoth@@YAXXZ@4HA 000000018005de90 f    CIL library: CIL module
 0001:0005cea0       ?dtor$0@?0???__FDCrossZorder@@YAXXZ@4HA 000000018005dea0 f    CIL library: CIL module
 0001:0005cea0       ?dtor$0@?0???__EDCrossZorder@@YAXXZ@4HA 000000018005dea0 f    CIL library: CIL module
 0001:0005ceb0       ?dtor$0@?0???__EDBottom@@YAXXZ@4HA 000000018005deb0 f    CIL library: CIL module
 0001:0005ceb0       ?dtor$0@?0???__FDBottom@@YAXXZ@4HA 000000018005deb0 f    CIL library: CIL module
 0001:0005cec0       ?dtor$0@?0???__FDTop@@YAXXZ@4HA 000000018005dec0 f    CIL library: CIL module
 0001:0005cec0       ?dtor$0@?0???__EDTop@@YAXXZ@4HA 000000018005dec0 f    CIL library: CIL module
 0001:0005ced0       ?dtor$0@?0???__FDShowCross@@YAXXZ@4HA 000000018005ded0 f    CIL library: CIL module
 0001:0005ced0       ?dtor$0@?0???__EDShowCross@@YAXXZ@4HA 000000018005ded0 f    CIL library: CIL module
 0001:0005cee0       ?dtor$0@?0???__EDAutodetect@@YAXXZ@4HA 000000018005dee0 f    CIL library: CIL module
 0001:0005cee0       ?dtor$0@?0???__FDAutodetect@@YAXXZ@4HA 000000018005dee0 f    CIL library: CIL module
 0001:0005cef0       ?dtor$0@?0???__FDdefault@@YAXXZ@4HA 000000018005def0 f    CIL library: CIL module
 0001:0005cef0       ?dtor$0@?0???__EDdefault@@YAXXZ@4HA 000000018005def0 f    CIL library: CIL module
 0001:0005cf00       ?dtor$0@?0???__FDRgb@@YAXXZ@4HA 000000018005df00 f    CIL library: CIL module
 0001:0005cf00       ?dtor$0@?0???__EDRgb@@YAXXZ@4HA 000000018005df00 f    CIL library: CIL module
 0001:0005cf10       ?dtor$0@?0???__FDConsole@@YAXXZ@4HA 000000018005df10 f    CIL library: CIL module
 0001:0005cf10       ?dtor$0@?0???__EDConsole@@YAXXZ@4HA 000000018005df10 f    CIL library: CIL module
 0001:0005cf20       ?dtor$0@?0???__EDFavorite@@YAXXZ@4HA 000000018005df20 f    CIL library: CIL module
 0001:0005cf20       ?dtor$0@?0???__FDFavorite@@YAXXZ@4HA 000000018005df20 f    CIL library: CIL module
 0001:0005cf30       ?dtor$0@?0???__EDHotkey@@YAXXZ@4HA 000000018005df30 f    CIL library: CIL module
 0001:0005cf30       ?dtor$0@?0???__FDHotkey@@YAXXZ@4HA 000000018005df30 f    CIL library: CIL module
 0001:0005cf40       ?dtor$0@?0???__EDFullback@@YAXXZ@4HA 000000018005df40 f    CIL library: CIL module
 0001:0005cf40       ?dtor$0@?0???__FDFullback@@YAXXZ@4HA 000000018005df40 f    CIL library: CIL module
 0001:0005cf50       ?dtor$0@?0???__EDDefBack@@YAXXZ@4HA 000000018005df50 f    CIL library: CIL module
 0001:0005cf50       ?dtor$0@?0???__FDDefBack@@YAXXZ@4HA 000000018005df50 f    CIL library: CIL module
 0001:0005cf60       ?dtor$0@?0???__EDDefFore@@YAXXZ@4HA 000000018005df60 f    CIL library: CIL module
 0001:0005cf60       ?dtor$0@?0???__FDDefFore@@YAXXZ@4HA 000000018005df60 f    CIL library: CIL module
 0001:0005cf70       ?dtor$0@?0???__FDMaxLen@@YAXXZ@4HA 000000018005df70 f    CIL library: CIL module
 0001:0005cf70       ?dtor$0@?0???__EDMaxLen@@YAXXZ@4HA 000000018005df70 f    CIL library: CIL module
 0001:0005cf80       ?dtor$0@?0???__FDBackparse@@YAXXZ@4HA 000000018005df80 f    CIL library: CIL module
 0001:0005cf80       ?dtor$0@?0???__EDBackparse@@YAXXZ@4HA 000000018005df80 f    CIL library: CIL module
 0001:0005cf90       ?dtor$0@?0???__FDFalse@@YAXXZ@4HA 000000018005df90 f    CIL library: CIL module
 0001:0005cf90       ?dtor$0@?0???__EDFalse@@YAXXZ@4HA 000000018005df90 f    CIL library: CIL module
 0001:0005cfa0       ?dtor$0@?0???__EDTrue@@YAXXZ@4HA 000000018005dfa0 f    CIL library: CIL module
 0001:0005cfa0       ?dtor$0@?0???__FDTrue@@YAXXZ@4HA 000000018005dfa0 f    CIL library: CIL module
 0001:0005cfb0       ?dtor$0@?0???__FDNo@@YAXXZ@4HA 000000018005dfb0 f    CIL library: CIL module
 0001:0005cfb0       ?dtor$0@?0???__EDNo@@YAXXZ@4HA 000000018005dfb0 f    CIL library: CIL module
 0001:0005cfc0       ?dtor$0@?0???__FDYes@@YAXXZ@4HA 000000018005dfc0 f    CIL library: CIL module
 0001:0005cfc0       ?dtor$0@?0???__EDYes@@YAXXZ@4HA 000000018005dfc0 f    CIL library: CIL module
 0001:0005cfd0       ?dtor$0@?0???__FDTop@@YAXXZ@4HA 000000018005dfd0 f    CIL library: CIL module
 0001:0005cfd0       ?dtor$0@?0???__EDTop@@YAXXZ@4HA 000000018005dfd0 f    CIL library: CIL module
 0001:0005cfe0       ?dtor$0@?0???__EDBottom@@YAXXZ@4HA 000000018005dfe0 f    CIL library: CIL module
 0001:0005cfe0       ?dtor$0@?0???__FDBottom@@YAXXZ@4HA 000000018005dfe0 f    CIL library: CIL module
 0001:0005cff0       ?dtor$0@?0???__FDCrossZorder@@YAXXZ@4HA 000000018005dff0 f    CIL library: CIL module
 0001:0005cff0       ?dtor$0@?0???__EDCrossZorder@@YAXXZ@4HA 000000018005dff0 f    CIL library: CIL module
 0001:0005d000       ?dtor$0@?0???__FDBoth@@YAXXZ@4HA 000000018005e000 f    CIL library: CIL module
 0001:0005d000       ?dtor$0@?0???__EDBoth@@YAXXZ@4HA 000000018005e000 f    CIL library: CIL module
