 Far

 Timestamp is 4f9848ab (Wed Apr 25 22:55:39 2012)

 Preferred load address is 00400000

 Start         Length     Name                   Class
 0001:00000000 0013fd24H .text                   CODE
 0001:0013fd30 000009b8H .text$yc                CODE
 0001:001406f0 00000c4eH .text$yd                CODE
 0002:00000000 000005a0H .idata$5                DATA
 0002:000005a0 00000004H .CRT$XCA                DATA
 0002:000005a4 00000004H .CRT$XCC                DATA
 0002:000005a8 000000c4H .CRT$XCU                DATA
 0002:0000066c 00000004H .CRT$XCZ                DATA
 0002:00000670 00000004H .CRT$XIA                DATA
 0002:00000674 00000014H .CRT$XIC                DATA
 0002:00000688 00000004H .CRT$XIY                DATA
 0002:0000068c 00000004H .CRT$XIZ                DATA
 0002:00000690 00000004H .CRT$XLA                DATA
 0002:00000694 00000004H .CRT$XLY                DATA
 0002:00000698 00000004H .CRT$XLZ                DATA
 0002:0000069c 00000004H .CRT$XPA                DATA
 0002:000006a0 00000004H .CRT$XPX                DATA
 0002:000006a4 00000004H .CRT$XPXA               DATA
 0002:000006a8 00000004H .CRT$XPZ                DATA
 0002:000006ac 00000004H .CRT$XTA                DATA
 0002:000006b0 00000004H .CRT$XTZ                DATA
 0002:000006c0 00019130H .rdata                  DATA
 0002:000197f0 00000018H .rdata$T                DATA
 0002:00019808 00000057H .rdata$debug            DATA
 0002:00019860 00000010H .rdata$sxdata           DATA
 0002:00019870 00000004H .rtc$IAA                DATA
 0002:00019874 00000004H .rtc$IZZ                DATA
 0002:00019878 00000004H .rtc$TAA                DATA
 0002:0001987c 00000004H .rtc$TZZ                DATA
 0002:00019880 00000d5cH .xdata$x                DATA
 0002:0001a5dc 000000c8H .idata$2                DATA
 0002:0001a6a4 00000014H .idata$3                DATA
 0002:0001a6b8 000005a0H .idata$4                DATA
 0002:0001ac58 00001b0eH .idata$6                DATA
 0002:0001c766 00000000H .edata                  DATA
 0003:00000000 00010c80H .data                   DATA
 0003:00010c80 00041c68H .bss                    DATA
 0004:00000000 00000001H .tls                    DATA
 0004:00000004 00000004H .tls$                   DATA
 0004:00000008 00000001H .tls$ZZZ                DATA
 0005:00000000 00000370H .rsrc$01                DATA
 0005:00000370 00009978H .rsrc$02                DATA

  Address         Publics by Value              Rva+Base       Lib:Object

 0000:00000000       __except_list              00000000     <absolute>
 0000:00000004       ___safe_se_handler_count   00000004     <absolute>
 0000:0000002c       __tls_array                0000002c     <absolute>
 0000:00000000       ___ImageBase               00400000     <linker-defined>
 0001:00000000       ??0CachedRead@@QAE@AAVFile@@K@Z 00401000 f   cache.obj
 0001:00000070       ??1CachedRead@@QAE@XZ      00401070 f   cache.obj
 0001:00000080       ?Clear@CachedRead@@QAEXXZ  00401080 f   cache.obj
 0001:00000090       ?Unread@CachedRead@@QAE_NK@Z 00401090 f   cache.obj
 0001:000000d0       ??0CachedWrite@@QAE@AAVFile@@@Z 004010d0 f   cache.obj
 0001:00000100       ?Flush@CachedWrite@@QAE_NXZ 00401100 f   cache.obj
 0001:00000160       ??$Min@K@@YAABKABK0@Z      00401160 f i cache.obj
 0001:00000180       ?GetPointer@File@@QAE_JXZ  00401180 f i cache.obj
 0001:00000190       ?Opened@File@@QBE_NXZ      00401190 f i cache.obj
 0001:000001a0       ?AdjustAlignment@CachedRead@@QAE_NXZ 004011a0 f   cache.obj
 0001:00000250       ?FillBuffer@CachedRead@@QAE_NXZ 00401250 f   cache.obj
 0001:000003a0       ??1CachedWrite@@QAE@XZ     004013a0 f   cache.obj
 0001:000003c0       ?Write@CachedWrite@@QAE_NPBXK@Z 004013c0 f   cache.obj
 0001:00000450       ?Read@CachedRead@@QAE_NPAXKPAK@Z 00401450 f   cache.obj
 0001:000007c0       ?GetDeviceTypeByCaps@@YAIW4CDROM_DeviceCapabilities@@@Z 004017c0 f   cddrv.obj
 0001:00000850       ?IsDriveTypeCDROM@@YA_NI@Z 00401850 f   cddrv.obj
 0001:00000870       ?strstr@@YAPADPADPBD@Z     00401870 f i cddrv.obj
 0001:00000880       ?StrLength@@YAHPB_W@Z      00401880 f i cddrv.obj
 0001:000008a0       ?FreeData@UnicodeStringData@@AAEXPA_W@Z 004018a0 f i cddrv.obj
 0001:000008b0       ?GetData@UnicodeStringData@@QAEPA_WXZ 004018b0 f i cddrv.obj
 0001:000008c0       ?GetLength@UnicodeStringData@@QBEIXZ 004018c0 f i cddrv.obj
 0001:000008d0       ??1UnicodeStringData@@QAE@XZ 004018d0 f i cddrv.obj
 0001:000008e0       ??_GUnicodeStringData@@QAEPAXI@Z 004018e0 f i cddrv.obj
 0001:00000910       ??0UnicodeString@@QAE@XZ   00401910 f i cddrv.obj
 0001:00000920       ??0UnicodeString@@QAE@ABV0@@Z 00401920 f i cddrv.obj
 0001:00000940       ?GetLength@UnicodeString@@QBEIXZ 00401940 f i cddrv.obj
 0001:00000950       ?Replace@UnicodeString@@QAEAAV1@IIPB_W@Z 00401950 f i cddrv.obj
 0001:00000990       ?Insert@UnicodeString@@QAEAAV1@IPB_WI@Z 00401990 f i cddrv.obj
 0001:000009b0       ?Insert@UnicodeString@@QAEAAV1@IPB_W@Z 004019b0 f i cddrv.obj
 0001:000009f0       ?Copy@UnicodeString@@QAEAAV1@PB_WI@Z 004019f0 f i cddrv.obj
 0001:00000a10       ?Copy@UnicodeString@@QAEAAV1@PB_W@Z 00401a10 f i cddrv.obj
 0001:00000a50       ??BUnicodeString@@QBEPB_WXZ 00401a50 f i cddrv.obj
 0001:00000a60       ??4UnicodeString@@QAEABV0@PB_W@Z 00401a60 f i cddrv.obj
 0001:00000aa0       ?Equal@UnicodeString@@QBE_NIPB_W@Z 00401aa0 f i cddrv.obj
 0001:00000ca0       ?GetDeviceCapabilities@@YA?AW4CDROM_DeviceCapabilities@@AAVFile@@@Z 00401ca0 f   cddrv.obj
 0001:00000cc0       ?DecRef@UnicodeStringData@@QAEXXZ 00401cc0 f i cddrv.obj
 0001:00000ce0       ??1UnicodeString@@QAE@XZ   00401ce0 f i cddrv.obj
 0001:00000d00       ?FAR_GetDriveType@@YAIPB_WPAW4CDROM_DeviceCapabilities@@K@Z 00401d00 f   cddrv.obj
 0001:00000f10       ?Free@CFileMask@@QAEXXZ    00401f10 f   CFileMask.obj
 0001:00000f30       ?Set@CFileMask@@QAE_NPB_WK@Z 00401f30 f   CFileMask.obj
 0001:00001050       ?IsEmpty@CFileMask@@QAE_NXZ 00402050 f   CFileMask.obj
 0001:00001060       ?Compare@CFileMask@@QAE_NPB_W@Z 00402060 f   CFileMask.obj
 0001:00001080       ??0NonCopyable@@IAE@XZ     00402080 f i CFileMask.obj
 0001:00001090       ??1NonCopyable@@IAE@XZ     00402090 f i CFileMask.obj
 0001:000010a0       ??0CFileMask@@QAE@XZ       004020a0 f   CFileMask.obj
 0001:000010b0       ?SetMode@KeyMacro@@QAEXH@Z 004020b0 f i chgmmode.obj
 0001:000010c0       ?GetMode@KeyMacro@@QAEHXZ  004020c0 f i chgmmode.obj
 0001:000010d0       ??0ChangeMacroMode@@QAE@H@Z 004020d0 f   chgmmode.obj
 0001:00001100       ??1ChangeMacroMode@@QAE@XZ 00402100 f   chgmmode.obj
 0001:00001110       ??0ChangePriority@@QAE@H@Z 00402110 f   chgprior.obj
 0001:00001140       ??1ChangePriority@@QAE@XZ  00402140 f   chgprior.obj
 0001:00001160       ??0Clipboard@@QAE@XZ       00402160 f i clipboard.obj
 0001:00001170       ??1Clipboard@@QAE@XZ       00402170 f i clipboard.obj
 0001:00001180       ?SetUseInternalClipboardState@Clipboard@@SA_N_N@Z 00402180 f   clipboard.obj
 0001:00001190       ?GetUseInternalClipboardState@Clipboard@@SA_NXZ 00402190 f   clipboard.obj
 0001:000011a0       ?Open@Clipboard@@QAEHXZ    004021a0 f   clipboard.obj
 0001:000011e0       ?Close@Clipboard@@QAEHXZ   004021e0 f   clipboard.obj
 0001:00001210       ?Empty@Clipboard@@QAEHXZ   00402210 f   clipboard.obj
 0001:00001270       ?GetData@Clipboard@@AAEPAXI@Z 00402270 f   clipboard.obj
 0001:000012c0       ?SetData@Clipboard@@AAEPAXIPAX@Z 004022c0 f   clipboard.obj
 0001:00001370       ?IsFormatAvailable@Clipboard@@AAEHI@Z 00402370 f   clipboard.obj
 0001:000013b0       ?CopyHDROP@Clipboard@@QAE_NPAXI@Z 004023b0 f   clipboard.obj
 0001:00001440       _wmemset                   00402440 f i clipboard.obj
 0001:00001480       ?EmptyInternalClipboard@@YAHXZ 00402480 f   clipboard.obj
 0001:000014f0       ?StrCmp@@YAHPB_W0@Z        004024f0 f i clipboard.obj
 0001:00001510       ?IsEmpty@UnicodeString@@QBE_NXZ 00402510 f i clipboard.obj
 0001:00001530       ?Append@UnicodeString@@QAEAAV1@PB_WI@Z 00402530 f i clipboard.obj
 0001:00001550       ?Append@UnicodeString@@QAEAAV1@PB_W@Z 00402550 f i clipboard.obj
 0001:00001590       ??YUnicodeString@@QAEABV0@PBD@Z 00402590 f i clipboard.obj
 0001:000015a0       ??YUnicodeString@@QAEABV0@PB_W@Z 004025a0 f i clipboard.obj
 0001:000015e0       ?RegisterFormat@Clipboard@@AAEIPB_W@Z 004025e0 f   clipboard.obj
 0001:00001650       ?Copy@Clipboard@@QAE_NPB_W@Z 00402650 f   clipboard.obj
 0001:000016d0       ?CopyFormat@Clipboard@@QAE_NPB_W0@Z 004026d0 f   clipboard.obj
 0001:00001770       ?PasteEx@Clipboard@@QAEPA_WH@Z 00402770 f   clipboard.obj
 0001:00001800       ?PasteFormat@Clipboard@@QAEPA_WPB_W@Z 00402800 f   clipboard.obj
 0001:00001930       ?CopyToClipboard@@YGHPB_W@Z 00402930 f   clipboard.obj
 0001:000019a0       ?CopyFormatToClipboard@@YAHPB_W0@Z 004029a0 f   clipboard.obj
 0001:00001a20       ?PasteFromClipboardEx@@YAPA_WH@Z 00402a20 f   clipboard.obj
 0001:00001a90       ?PasteFormatFromClipboard@@YAPA_WPB_W@Z 00402a90 f   clipboard.obj
 0001:00001b00       ?Paste@Clipboard@@QAEPA_WXZ 00402b00 f   clipboard.obj
 0001:00001d30       ?PasteFromClipboard@@YGPA_WXZ 00402d30 f   clipboard.obj
 0001:00001da0       ??1BitFlags@@QAE@XZ        00402da0 f i cmdline.obj
 0001:00001db0       ?Check@BitFlags@@QBEHK@Z   00402db0 f i cmdline.obj
 0001:00001dc0       ?Change@BitFlags@@QAEKKH@Z 00402dc0 f i cmdline.obj
 0001:00001de0       ?IsVisible@ScreenObject@@QAEHXZ 00402de0 f i cmdline.obj
 0001:00001df0       ?SetDelRemovesBlocks@Edit@@QAEXH@Z 00402df0 f i cmdline.obj
 0001:00001e10       ?SetPersistentBlocks@Edit@@QAEXH@Z 00402e10 f i cmdline.obj
 0001:00001e30       ?SetCurPos@Edit@@QAEXH@Z   00402e30 f i cmdline.obj
 0001:00001e40       ?GetCurPos@Edit@@QAEHXZ    00402e40 f i cmdline.obj
 0001:00001e50       ?SetLeftPos@Edit@@QAEXH@Z  00402e50 f i cmdline.obj
 0001:00001e60       ?SetEditBeyondEnd@Edit@@QAEXH@Z 00402e60 f i cmdline.obj
 0001:00001e80       ?RevertAC@EditControl@@QAEXXZ 00402e80 f i cmdline.obj
 0001:00001ea0       ?ResetPosition@History@@QAEXXZ 00402ea0 f i cmdline.obj
 0001:00001eb0       ?GetMode@Panel@@QAEHXZ     00402eb0 f i cmdline.obj
 0001:00001ec0       ?GetType@Panel@@QAEHXZ     00402ec0 f i cmdline.obj
 0001:00001ed0       ?IsSlash@@YAH_W@Z          00402ed0 f i cmdline.obj
 0001:00001ef0       ??1EditControl@@UAE@XZ     00402ef0 f i cmdline.obj
 0001:00001f00       ??_GSaveScreen@@QAEPAXI@Z  00402f00 f i cmdline.obj
 0001:00001f20       ?SetPersistentBlocks@CommandLine@@QAEXH@Z 00402f20 f   cmdline.obj
 0001:00001f40       ?SetDelRemovesBlocks@CommandLine@@QAEXH@Z 00402f40 f   cmdline.obj
 0001:00001f60       ?SetAutoComplete@CommandLine@@QAEXH@Z 00402f60 f   cmdline.obj
 0001:00001f80       ?SetCurPos@CommandLine@@QAEXHH@Z 00402f80 f   cmdline.obj
 0001:00001fa0       ?VMProcess@CommandLine@@UAE_JHPAX_J@Z 00402fa0 f   cmdline.obj
 0001:00002030       ?Upper@@YA_W_W@Z           00403030 f i cmdline.obj
 0001:00002050       ?StrCmpI@@YAHPB_W0@Z       00403050 f i cmdline.obj
 0001:00002070       ?SetString@CommandLine@@QAEXPB_WH@Z 00403070 f   cmdline.obj
 0001:000020b0       ?ExecString@CommandLine@@QAEXPB_W_N11111@Z 004030b0 f   cmdline.obj
 0001:00002140       ?InsertString@CommandLine@@QAEXPB_W@Z 00403140 f   cmdline.obj
 0001:00002170       ?ProcessMouse@CommandLine@@UAEHPAU_MOUSE_EVENT_RECORD@@@Z 00403170 f   cmdline.obj
 0001:000021b0       ?At@UnicodeString@@QBE_WI@Z 004031b0 f i cmdline.obj
 0001:000021c0       ?Append@UnicodeString@@QAEAAV1@_W@Z 004031c0 f i cmdline.obj
 0001:000021e0       ?CPtr@UnicodeString@@QBEPB_WXZ 004031e0 f i cmdline.obj
 0001:000021f0       ?SaveBackground@CommandLine@@QAEXHHHH@Z 004031f0 f   cmdline.obj
 0001:00002250       ??4UnicodeString@@QAEABV0@ABV0@@Z 00403250 f i cmdline.obj
 0001:00002260       ?SaveBackground@CommandLine@@QAEXXZ 00403260 f   cmdline.obj
 0001:00002270       ?ShowBackground@CommandLine@@QAEXXZ 00403270 f   cmdline.obj
 0001:00002290       ?CorrectRealScreenCoord@CommandLine@@QAEXXZ 00403290 f   cmdline.obj
 0001:000022a0       ?ResizeConsole@CommandLine@@UAEXXZ 004032a0 f   cmdline.obj
 0001:000022d0       ??YUnicodeString@@QAEABV0@_W@Z 004032d0 f i cmdline.obj
 0001:000022f0       ?size@?$TStack@UPushPopRecord@@@@QBEKXZ 004032f0 f i cmdline.obj
 0001:00002300       ?SetCurDir@CommandLine@@QAEHPB_W@Z 00403300 f   cmdline.obj
 0001:000023a0       ?GetCurDir@CommandLine@@QAEHAAVUnicodeString@@@Z 004033a0 f   cmdline.obj
 0001:000023c0       ?Append@UnicodeString@@QAEAAV1@ABV1@@Z 004033c0 f i cmdline.obj
 0001:000023e0       ?ShowViewEditHistory@CommandLine@@QAEXXZ 004033e0 f   cmdline.obj
 0001:00002640       ??YUnicodeString@@QAEABV0@ABV0@@Z 00403640 f i cmdline.obj
 0001:00002660       ??0?$TStack@UPushPopRecord@@@@QAE@XZ 00403660 f i cmdline.obj
 0001:00002670       ??1PushPopRecord@@QAE@XZ   00403670 f i cmdline.obj
 0001:00002690       ?ProcessKey@CommandLine@@UAEHH@Z 00403690 f   cmdline.obj
 0001:00003150       ?GetPrompt@CommandLine@@AAEXAAVUnicodeString@@@Z 00404150 f   cmdline.obj
 0001:000035e0       ??1OneItem@?$TStack@UPushPopRecord@@@@QAE@XZ 004045e0 f i cmdline.obj
 0001:00003600       ?DisplayObject@CommandLine@@EAEXXZ 00404600 f   cmdline.obj
 0001:000036f0       ??_GOneItem@?$TStack@UPushPopRecord@@@@QAEPAXI@Z 004046f0 f i cmdline.obj
 0001:00003730       ?Free@?$TStack@UPushPopRecord@@@@QAEXXZ 00404730 f i cmdline.obj
 0001:00003780       ??1?$TStack@UPushPopRecord@@@@QAE@XZ 00404780 f i cmdline.obj
 0001:00003790       ??0CommandLine@@QAE@XZ     00404790 f   cmdline.obj
 0001:00003850       ?ShowConsoleTitle@ScreenObject@@UAEXXZ 00404850 f i cmdline.obj
 0001:00003860       ??1CommandLine@@UAE@XZ     00404860 f   cmdline.obj
 0001:000038e0       ??_ECommandLine@@UAEPAXI@Z 004048e0 f i cmdline.obj
 0001:000038e0       ??_GCommandLine@@UAEPAXI@Z 004048e0 f i cmdline.obj
 0001:00003900       ?IsStandardCodePage@@YA_NI@Z 00404900 f i codepage.obj
 0001:00003950       ??0BitFlags@@QAE@XZ        00404950 f i codepage.obj
 0001:00003960       ?Set@BitFlags@@QAEKK@Z     00404960 f i codepage.obj
 0001:00003970       ?wcschr@@YAPA_WPA_W_W@Z    00404970 f i codepage.obj
 0001:00003980       _wmemcpy                   00404980 f i codepage.obj
 0001:00003990       ?Clear@MenuItemEx@@QAEXXZ  00404990 f i codepage.obj
 0001:000039d0       ?SetFlags@VMenu@@QAEXK@Z   004049d0 f i codepage.obj
 0001:000039e0       ?GetItemCount@VMenu@@QAEHXZ 004049e0 f i codepage.obj
 0001:000039f0       ?GetSelectPos@VMenu@@QAEHXZ 004049f0 f i codepage.obj
 0001:00003a00       ?GetMenuItemCodePage@@YAIH@Z 00404a00 f i codepage.obj
 0001:00003a20       ?GetListItemCodePage@@YAIH@Z 00404a20 f i codepage.obj
 0001:00003a40       ?IsPositionStandard@@YA_NI@Z 00404a40 f i codepage.obj
 0001:00003a80       ?IsPositionFavorite@@YA_NI@Z 00404a80 f i codepage.obj
 0001:00003aa0       ?IsPositionNormal@@YA_NI@Z 00404aa0 f i codepage.obj
 0001:00003ae0       ?GetItemsCount@@YAHXZ      00404ae0 f   codepage.obj
 0001:00003b20       ?GetCodePageInsertPosition@@YAHIHH@Z 00404b20 f   codepage.obj
 0001:00003b80       ?GetCodePageInfo@@YA_NIAAU_cpinfoexW@@@Z 00404b80 f   codepage.obj
 0001:00003bd0       ??_H@YGXPAXIHP6EPAX0@Z@Z   00404bd0 f i codepage.obj
 0001:00003c10       ??_I@YGXPAXIHP6EX0@Z@Z     00404c10 f i codepage.obj
 0001:00003c50       ??0?$ManipulatorTemplate@I$0A@@fmt@@QAE@I@Z 00404c50 f i codepage.obj
 0001:00003c60       ??$Min@I@@YAABIABI0@Z      00404c60 f i codepage.obj
 0001:00003c80       ?Remove@UnicodeString@@QAEAAV1@II@Z 00404c80 f i codepage.obj
 0001:00003ca0       ?LShift@UnicodeString@@QAEAAV1@II@Z 00404ca0 f i codepage.obj
 0001:00003cc0       ??8UnicodeString@@QBE_NPB_W@Z 00404cc0 f i codepage.obj
 0001:00003d00       ??1BaseFormat@@UAE@XZ      00404d00 f i codepage.obj
 0001:00003d10       ??_EBaseFormat@@UAEPAXI@Z  00404d10 f i codepage.obj
 0001:00003d10       ??_GBaseFormat@@UAEPAXI@Z  00404d10 f i codepage.obj
 0001:00003d30       ?FormatCodePageString@@YAXIPB_WAAVFormatString@@_N@Z 00404d30 f   codepage.obj
 0001:00003da0       ??0UnicodeString@@QAE@PB_W@Z 00404da0 f i codepage.obj
 0001:00003df0       ??0FormatString@@QAE@XZ    00404df0 f i codepage.obj
 0001:00003e10       ??1FormatString@@UAE@XZ    00404e10 f i codepage.obj
 0001:00003e40       ??0MenuItemEx@@QAE@XZ      00404e40 f i codepage.obj
 0001:00003e50       ??1MenuItemEx@@QAE@XZ      00404e50 f i codepage.obj
 0001:00003e70       ??_GFormatString@@UAEPAXI@Z 00404e70 f i codepage.obj
 0001:00003e70       ??_EFormatString@@UAEPAXI@Z 00404e70 f i codepage.obj
 0001:00003eb0       ?AddSeparator@@YAXPB_WH@Z  00404eb0 f   codepage.obj
 0001:00004000       ?ProcessSelected@@YAX_N@Z  00405000 f   codepage.obj
 0001:00004380       ?FormatCodePageName@@YAPA_WIPA_WIAA_N@Z 00405380 f   codepage.obj
 0001:00004560       ?EditDialogProc@@YGJPAXHHJ@Z 00405560 f   codepage.obj
 0001:00004790       ??0DialogItemEx@@QAE@XZ    00405790 f i codepage.obj
 0001:000047c0       ??1DialogItemEx@@QAE@XZ    004057c0 f i codepage.obj
 0001:00004820       ?AddCodePage@@YAXPB_WIH_N11@Z 00405820 f   codepage.obj
 0001:00004aa0       ?AddStandardCodePage@@YAXPB_WIH_N@Z 00405aa0 f   codepage.obj
 0001:00004b60       ?EnumCodePagesProc@@YGHPB_W@Z 00405b60 f   codepage.obj
 0001:00004d70       ?AddCodePages@@YAXK@Z      00405d70 f   codepage.obj
 0001:00004ec0       ?FillCodePagesVMenu@@YAX_N000@Z 00405ec0 f   codepage.obj
 0001:00005050       ?FormatCodePageName@@YAPA_WIPA_WI@Z 00406050 f   codepage.obj
 0001:00005070       ?EditCodePageName@@YAXXZ   00406070 f   codepage.obj
 0001:000053a0       ?SelectCodePage@@YAII_N000@Z 004063a0 f   codepage.obj
 0001:000057d0       ?FillCodePagesList@@YAIPAXII_N1@Z 004067d0 f   codepage.obj
 0001:00005930       ?IsCodePageSupported@@YA_NI@Z 00406930 f   codepage.obj
 0001:00005980       ?Indent@DialogItemEx@@QAEXH@Z 00406980 f i config.obj
 0001:00005990       ?GetViewMode@Panel@@QAEHXZ 00406990 f i config.obj
 0001:000059a0       ?GetSortMode@Panel@@QAEHXZ 004069a0 f i config.obj
 0001:000059b0       ?GetNumericSort@Panel@@QAEHXZ 004069b0 f i config.obj
 0001:000059c0       ?GetCaseSensitiveSort@Panel@@QAEHXZ 004069c0 f i config.obj
 0001:000059d0       ?GetDirectoriesFirst@Panel@@QAEHXZ 004069d0 f i config.obj
 0001:000059e0       ?GetSortOrder@Panel@@QAEHXZ 004069e0 f i config.obj
 0001:000059f0       ?GetSortGroups@Panel@@QAEHXZ 004069f0 f i config.obj
 0001:00005a00       ?GetShowShortNamesMode@Panel@@QAEHXZ 00406a00 f i config.obj
 0001:00005a10       ?GetFocus@Panel@@QAEHXZ    00406a10 f i config.obj
 0001:00005a20       ?StartColumns@?$DialogBuilderBase@UDialogItemEx@@@@QAEXXZ 00406a20 f i config.obj
 0001:00005a30       ?ColumnBreak@?$DialogBuilderBase@UDialogItemEx@@@@QAEXXZ 00406a30 f i config.obj
 0001:00005a50       ?AddEmptyLine@?$DialogBuilderBase@UDialogItemEx@@@@QAEXXZ 00406a50 f i config.obj
 0001:00005a60       ?SetNextY@?$DialogBuilderBase@UDialogItemEx@@@@IAEXPAUDialogItemEx@@@Z 00406a60 f i config.obj
 0001:00005a80       ?ItemWidth@?$DialogBuilderBase@UDialogItemEx@@@@IAEHABUDialogItemEx@@@Z 00406a80 f i config.obj
 0001:00005ae0       ?UpdateSecondColumnPosition@?$DialogBuilderBase@UDialogItemEx@@@@IAEXXZ 00406ae0 f i config.obj
 0001:00005b40       ?SetLastItemBinding@?$DialogBuilderBase@UDialogItemEx@@@@IAEXPAU?$DialogItemBinding@UDialogItemEx@@@@@Z 00406b40 f i config.obj
 0001:00005b60       ?GetItemID@?$DialogBuilderBase@UDialogItemEx@@@@IAEHPAUDialogItemEx@@@Z 00406b60 f i config.obj
 0001:00005b90       ?FindBinding@?$DialogBuilderBase@UDialogItemEx@@@@IAEPAU?$DialogItemBinding@UDialogItemEx@@@@PAUDialogItemEx@@@Z 00406b90 f i config.obj
 0001:00005bd0       ?SaveValues@?$DialogBuilderBase@UDialogItemEx@@@@IAEXXZ 00406bd0 f i config.obj
 0001:00005c20       ?MaxTextWidth@?$DialogBuilderBase@UDialogItemEx@@@@IAEHXZ 00406c20 f i config.obj
 0001:00005cd0       ??_GUserDefinedListItem@@QAEPAXI@Z 00406cd0 f i config.obj
 0001:00005cf0       ??4DialogItemEx@@QAEABU0@ABU0@@Z 00406cf0 f i config.obj
 0001:00005d90       ?SetFolderInfoFiles@@YAXXZ 00406d90 f   config.obj
 0001:00005e80       ?SaveConfig@@YAXH@Z        00406e80 f   config.obj
 0001:00006180       ?EndColumns@?$DialogBuilderBase@UDialogItemEx@@@@QAEXXZ 00407180 f i config.obj
 0001:00006230       ?UpdateBorderSize@?$DialogBuilderBase@UDialogItemEx@@@@IAEXXZ 00407230 f i config.obj
 0001:00006260       ?Free@?$TArray@VUserDefinedListItem@@@@QAEXXZ 00407260 f i config.obj
 0001:000062c0       ??0EditorOptions@@QAE@XZ   004072c0 f i config.obj
 0001:000062d0       ??1EditorOptions@@QAE@XZ   004072d0 f i config.obj
 0001:000062f0       ??0FindFileOptions@@QAE@XZ 004072f0 f i config.obj
 0001:00006310       ??1FindFileOptions@@QAE@XZ 00407310 f i config.obj
 0001:00006370       ??0DizOptions@@QAE@XZ      00407370 f i config.obj
 0001:00006380       ??1DizOptions@@QAE@XZ      00407380 f i config.obj
 0001:000063a0       ??0CodeXLAT@@QAE@XZ        004073a0 f i config.obj
 0001:000063f0       ??1CodeXLAT@@QAE@XZ        004073f0 f i config.obj
 0001:00006490       ??0LoadPluginsOptions@@QAE@XZ 00407490 f i config.obj
 0001:000064b0       ??1LoadPluginsOptions@@QAE@XZ 004074b0 f i config.obj
 0001:000064f0       ??0CommandLineOptions@@QAE@XZ 004074f0 f i config.obj
 0001:00006500       ??1CommandLineOptions@@QAE@XZ 00407500 f i config.obj
 0001:00006520       ??0MacroOptions@@QAE@XZ    00407520 f i config.obj
 0001:00006540       ??1MacroOptions@@QAE@XZ    00407540 f i config.obj
 0001:00006580       ??0InfoPanelOptions@@QAE@XZ 00407580 f i config.obj
 0001:00006590       ??1InfoPanelOptions@@QAE@XZ 00407590 f i config.obj
 0001:000065b0       ??1Options@@QAE@XZ         004075b0 f i config.obj
 0001:00006850       ??1?$TArray@VUserDefinedListItem@@@@QAE@XZ 00407850 f i config.obj
 0001:00006860       ?ShowDialog@?$DialogBuilderBase@UDialogItemEx@@@@QAE_NXZ 00407860 f i config.obj
 0001:000068b0       ??_EDialogItemEx@@QAEPAXI@Z 004078b0 f i config.obj
 0001:00006970       ?ReallocDialogItems@?$DialogBuilderBase@UDialogItemEx@@@@IAEXXZ 00407970 f i config.obj
 0001:00006aa0       ??1UserDefinedList@@QAE@XZ 00407aa0 f i config.obj
 0001:00006ab0       ?ReadConfig@@YAXXZ         00407ab0 f   config.obj
 0001:00007290       ?AddDialogItem@?$DialogBuilderBase@UDialogItemEx@@@@IAEPAUDialogItemEx@@HPB_W@Z 00408290 f i config.obj
 0001:000072e0       ?AddText@?$DialogBuilderBase@UDialogItemEx@@@@QAEPAUDialogItemEx@@H@Z 004082e0 f i config.obj
 0001:00007350       ?AddCheckbox@?$DialogBuilderBase@UDialogItemEx@@@@QAEPAUDialogItemEx@@HPAHH@Z 00408350 f i config.obj
 0001:00007400       ?AddRadioButtons@?$DialogBuilderBase@UDialogItemEx@@@@QAEXPAHHQAH@Z 00408400 f i config.obj
 0001:00007530       ?AddTextBefore@?$DialogBuilderBase@UDialogItemEx@@@@QAEPAUDialogItemEx@@PAU2@H@Z 00408530 f i config.obj
 0001:00007610       ?AddTextAfter@?$DialogBuilderBase@UDialogItemEx@@@@QAEPAUDialogItemEx@@PAU2@H@Z 00408610 f i config.obj
 0001:000076d0       ?AddSeparator@?$DialogBuilderBase@UDialogItemEx@@@@QAEXH@Z 004086d0 f i config.obj
 0001:00007750       ?AddOKCancel@?$DialogBuilderBase@UDialogItemEx@@@@QAEXHH@Z 00408750 f i config.obj
 0001:00007880       ?AddOKCancel@DialogBuilder@@QAEXXZ 00408880 f i config.obj
 0001:00007890       ?SystemSettings@@YAXXZ     00408890 f   config.obj
 0001:00007b10       ?PanelSettings@@YAXXZ      00408b10 f   config.obj
 0001:00007de0       ?InterfaceSettings@@YAXXZ  00408de0 f   config.obj
 0001:00008020       ?AutoCompleteSettings@@YAXXZ 00409020 f   config.obj
 0001:00008110       ?InfoPanelSettings@@YAXXZ  00409110 f   config.obj
 0001:00008330       ?DialogSettings@@YAXXZ     00409330 f   config.obj
 0001:00008440       ?VMenuSettings@@YAXXZ      00409440 f   config.obj
 0001:00008570       ?CmdlineSettings@@YAXXZ    00409570 f   config.obj
 0001:000086c0       ?SetConfirmations@@YAXXZ   004096c0 f   config.obj
 0001:00008850       ?PluginsManagerSettings@@YAXXZ 00409850 f   config.obj
 0001:00008a30       ?SetDizConfig@@YAXXZ       00409a30 f   config.obj
 0001:00008ca0       ?ViewerConfig@@YAXAAUViewerOptions@@_N@Z 00409ca0 f   config.obj
 0001:00008ea0       ?EditorConfig@@YAXAAUEditorOptions@@_N@Z 00409ea0 f   config.obj
 0001:00009180       ?Allocate@console@@QAE_NXZ 0040a180 f   console.obj
 0001:00009190       ?Free@console@@QAE_NXZ     0040a190 f   console.obj
 0001:000091a0       ?GetInputHandle@console@@QAEPAXXZ 0040a1a0 f   console.obj
 0001:000091b0       ?GetOutputHandle@console@@QAEPAXXZ 0040a1b0 f   console.obj
 0001:000091c0       ?GetErrorHandle@console@@QAEPAXXZ 0040a1c0 f   console.obj
 0001:000091d0       ?GetWindow@console@@QAEPAUHWND__@@XZ 0040a1d0 f   console.obj
 0001:000091e0       ?GetSize@console@@QAE_NAAU_COORD@@@Z 0040a1e0 f   console.obj
 0001:00009250       ?GetWindowRect@console@@QAE_NAAU_SMALL_RECT@@@Z 0040a250 f   console.obj
 0001:000092a0       ?SetWindowRect@console@@QAE_NABU_SMALL_RECT@@@Z 0040a2a0 f   console.obj
 0001:000092c0       ?GetWorkingRect@console@@QAE_NAAU_SMALL_RECT@@@Z 0040a2c0 f   console.obj
 0001:00009320       ?SetTitle@console@@QAE_NPB_W@Z 0040a320 f   console.obj
 0001:00009340       ?GetKeyboardLayoutNameW@console@@QAE_NAAVUnicodeString@@@Z 0040a340 f   console.obj
 0001:000093a0       ?GetInputCodepage@console@@QAEIXZ 0040a3a0 f   console.obj
 0001:000093b0       ?SetInputCodepage@console@@QAE_NI@Z 0040a3b0 f   console.obj
 0001:000093d0       ?GetOutputCodepage@console@@QAEIXZ 0040a3d0 f   console.obj
 0001:000093e0       ?SetOutputCodepage@console@@QAE_NI@Z 0040a3e0 f   console.obj
 0001:00009400       ?SetControlHandler@console@@QAE_NP6GHK@Z_N@Z 0040a400 f   console.obj
 0001:00009420       ?GetMode@console@@QAE_NPAXAAK@Z 0040a420 f   console.obj
 0001:00009440       ?SetMode@console@@QAE_NPAXK@Z 0040a440 f   console.obj
 0001:00009460       ?Write@console@@QAE_NPB_WK@Z 0040a460 f   console.obj
 0001:00009490       ?GetTextAttributes@console@@QAE_NAAG@Z 0040a490 f   console.obj
 0001:000094d0       ?SetTextAttributes@console@@QAE_NG@Z 0040a4d0 f   console.obj
 0001:000094f0       ?GetCursorInfo@console@@QAE_NAAU_CONSOLE_CURSOR_INFO@@@Z 0040a4f0 f   console.obj
 0001:00009510       ?SetCursorInfo@console@@QAE_NABU_CONSOLE_CURSOR_INFO@@@Z 0040a510 f   console.obj
 0001:00009530       ?FlushInputBuffer@console@@QAE_NXZ 0040a530 f   console.obj
 0001:00009550       ?GetNumberOfInputEvents@console@@QAE_NAAK@Z 0040a550 f   console.obj
 0001:00009570       ?GetAlias@console@@QAEKPB_WPA_WK0@Z 0040a570 f   console.obj
 0001:00009580       ?GetDisplayMode@console@@QAE_NAAK@Z 0040a580 f   console.obj
 0001:000095a0       ?GetLargestWindowSize@console@@QAE?AU_COORD@@XZ 0040a5a0 f   console.obj
 0001:000095c0       ?SetActiveScreenBuffer@console@@QAE_NPAX@Z 0040a5c0 f   console.obj
 0001:000095e0       ?ScrollWindow@console@@QAE_NHH@Z 0040a5e0 f   console.obj
 0001:00009710       ?ScrollScreenBuffer@console@@QAE_NH@Z 0040a710 f   console.obj
 0001:000097b0       ?ResetPosition@console@@QAE_NXZ 0040a7b0 f   console.obj
 0001:00009820       ?GetDelta@console@@AAEHXZ  0040a820 f   console.obj
 0001:00009850       ??$Max@F@@YAABFABF0@Z      0040a850 f i console.obj
 0001:00009870       ??$Max@H@@YAABHABH0@Z      0040a870 f i console.obj
 0001:00009890       ??$Min@F@@YAABFABF0@Z      0040a890 f i console.obj
 0001:000098b0       ?SetSize@console@@QAE_NU_COORD@@@Z 0040a8b0 f   console.obj
 0001:000099a0       ?GetTitle@console@@QAE_NAAVUnicodeString@@@Z 0040a9a0 f   console.obj
 0001:00009a20       ?PeekInput@console@@QAE_NAAU_INPUT_RECORD@@KAAK@Z 0040aa20 f   console.obj
 0001:00009b00       ?ReadInput@console@@QAE_NAAU_INPUT_RECORD@@KAAK@Z 0040ab00 f   console.obj
 0001:00009be0       ?WriteInput@console@@QAE_NAAU_INPUT_RECORD@@KAAK@Z 0040abe0 f   console.obj
 0001:00009c50       ?ReadOutput@console@@QAE_NAAU_CHAR_INFO@@U_COORD@@1AAU_SMALL_RECT@@@Z 0040ac50 f   console.obj
 0001:00009df0       ?WriteOutput@console@@QAE_NABU_CHAR_INFO@@U_COORD@@1AAU_SMALL_RECT@@@Z 0040adf0 f   console.obj
 0001:00009f90       ?GetCursorPosition@console@@QAE_NAAU_COORD@@@Z 0040af90 f   console.obj
 0001:0000a000       ?SetCursorPosition@console@@QAE_NU_COORD@@@Z 0040b000 f   console.obj
 0001:0000a0b0       ?ClearExtraRegions@console@@QAE_NG@Z 0040b0b0 f   console.obj
 0001:0000a1a0       ?IsExecuting@KeyMacro@@QAEHXZ 0040b1a0 f i constitle.obj
 0001:0000a1b0       ?IsDsableOutput@KeyMacro@@QAEHXZ 0040b1b0 f i constitle.obj
 0001:0000a1c0       ??0CriticalSection@@QAE@XZ 0040b1c0 f i constitle.obj
 0001:0000a1d0       ??1CriticalSection@@QAE@XZ 0040b1d0 f i constitle.obj
 0001:0000a1e0       ?Enter@CriticalSection@@QAEXXZ 0040b1e0 f i constitle.obj
 0001:0000a1f0       ?Leave@CriticalSection@@QAEXXZ 0040b1f0 f i constitle.obj
 0001:0000a200       ?Unlock@CriticalSectionLock@@AAEXXZ 0040b200 f i constitle.obj
 0001:0000a210       ??0CriticalSectionLock@@QAE@AAVCriticalSection@@@Z 0040b210 f i constitle.obj
 0001:0000a230       ??1CriticalSectionLock@@QAE@XZ 0040b230 f i constitle.obj
 0001:0000a410       ?SetFarTitle@ConsoleTitle@@SAXPB_W_N@Z 0040b410 f   constitle.obj
 0001:0000a5c0       ??0ConsoleTitle@@QAE@PB_W@Z 0040b5c0 f   constitle.obj
 0001:0000a610       ??1ConsoleTitle@@QAE@XZ    0040b610 f   constitle.obj
 0001:0000a6a0       ?Set@ConsoleTitle@@QAAXPB_WZZ 0040b6a0 f   constitle.obj
 0001:0000a700       ?GetExitCode@Frame@@QAEHXZ 0040b700 f i copy.obj
 0001:0000a710       ?SetDynamicallyBorn@Frame@@QAEXH@Z 0040b710 f i copy.obj
 0001:0000a720       ?GetBottomFrame@Manager@@QAEPAVFrame@@XZ 0040b720 f i copy.obj
 0001:0000a730       ?EnterModalEV@Manager@@QAEXXZ 0040b730 f i copy.obj
 0001:0000a740       ?ExitModalEV@Manager@@QAEXXZ 0040b740 f i copy.obj
 0001:0000a750       ?SetDialogMode@Dialog@@QAEXK@Z 0040b750 f i copy.obj
 0001:0000a760       ??_GFindFile@@QAEPAXI@Z    0040b760 f i copy.obj
 0001:0000a780       ?IsDirSearchDone@ScanTree@@QAEHXZ 0040b780 f i copy.obj
 0001:0000a790       ?InsideJunction@ScanTree@@QAEHXZ 0040b790 f i copy.obj
 0001:0000a7a0       ??0wakeful@@QAE@XZ         0040b7a0 f i copy.obj
 0001:0000a7c0       ??1wakeful@@QAE@XZ         0040b7c0 f i copy.obj
 0001:0000a7d0       ?Cancelled@CopyProgress@@QAE_NXZ 0040b7d0 f i copy.obj
 0001:0000a830       ?Timer@CopyProgress@@AAE_NXZ 0040b830 f   copy.obj
 0001:0000a870       ?Flush@CopyProgress@@AAEXXZ 0040b870 f   copy.obj
 0001:0000a990       ?CreateScanBackground@CopyProgress@@AAEXXZ 0040b990 f   copy.obj
 0001:0000aa50       ?GetParentFolder@@YAAAVUnicodeString@@PB_WAAV1@@Z 0040ba50 f   copy.obj
 0001:0000aa70       ?StrCmpNNI@@YAHPB_WH0H@Z   0040ba70 f i copy.obj
 0001:0000aaa0       ?StrCmpNI@@YAHPB_W0H@Z     0040baa0 f i copy.obj
 0001:0000aad0       ?IsAlpha@@YAH_W@Z          0040bad0 f i copy.obj
 0001:0000aae0       ?CheckAndUpdateConsole@@YAHH@Z 0040bae0 f   copy.obj
 0001:0000ab90       ?Clear@FAR_FIND_DATA_EX@@QAEXXZ 0040bb90 f i copy.obj
 0001:0000abe0       ??_GFileFilter@@QAEPAXI@Z  0040bbe0 f i copy.obj
 0001:0000ac00       ?CheckStreams@ShellCopy@@AAE?AW4COPY_CODES@@PB_W0@Z 0040bc00 f   copy.obj
 0001:0000ac10       ?DeleteAfterMove@ShellCopy@@AAEHPB_WK@Z 0040bc10 f   copy.obj
 0001:0000ae10       ?SetDestDizPath@ShellCopy@@AAEXPB_W@Z 0040be10 f   copy.obj
 0001:0000aed0       ?CheckUpdatePanel@ShellCopy@@AAEXXZ 0040bed0 f   copy.obj
 0001:0000aee0       ??0?$ManipulatorTemplate@I$0PPPPPPPP@@fmt@@QAE@I@Z 0040bee0 f i copy.obj
 0001:0000aef0       ?getSize@?$TArray@VUserDefinedListItem@@@@QBEIXZ 0040bef0 f i copy.obj
 0001:0000af00       ??$Min@_K@@YAAB_KAB_K0@Z   0040bf00 f i copy.obj
 0001:0000af20       ??$Min@_J@@YAAB_JAB_J0@Z   0040bf20 f i copy.obj
 0001:0000af40       ??$Min@H@@YAABHABH0@Z      0040bf40 f i copy.obj
 0001:0000af60       ?GetTotal@UserDefinedList@@QBEIXZ 0040bf60 f i copy.obj
 0001:0000af70       ??BNTPath@@QBEPB_WXZ       0040bf70 f i copy.obj
 0001:0000af80       ?SetScanName@CopyProgress@@QAEXPB_W@Z 0040bf80 f   copy.obj
 0001:0000b010       ?DrawNames@CopyProgress@@AAEXXZ 0040c010 f   copy.obj
 0001:0000b0a0       ?CheckNulOrCon@@YA_NPB_W@Z 0040c0a0 f   copy.obj
 0001:0000b120       ??1CopyDlgParam@@QAE@XZ    0040c120 f i copy.obj
 0001:0000b140       ??0FAR_FIND_DATA_EX@@QAE@XZ 0040c140 f i copy.obj
 0001:0000b160       ??1FAR_FIND_DATA_EX@@QAE@XZ 0040c160 f i copy.obj
 0001:0000b1a0       ??1CopyProgress@@QAE@XZ    0040c1a0 f i copy.obj
 0001:0000b240       ??0FAR_FIND_DATA_EX@@QAE@ABU0@@Z 0040c240 f i copy.obj
 0001:0000b2e0       ??1NTPath@@QAE@XZ          0040c2e0 f i copy.obj
 0001:0000b300       ?SetSecurity@ShellCopy@@AAEHPB_WABU_SECURITY_ATTRIBUTES@@@Z 0040c300 f   copy.obj
 0001:0000b3c0       ?ShellCopySecuryMsg@@YAHPB_W@Z 0040c3c0 f   copy.obj
 0001:0000b5a0       ?ShellSetAttr@ShellCopy@@AAE_NPB_WK@Z 0040c5a0 f   copy.obj
 0001:0000b790       ??1ScanTreeData@@QAE@XZ    0040c790 f i copy.obj
 0001:0000b7d0       ??0CopyProgress@@QAE@_N00@Z 0040c7d0 f   copy.obj
 0001:0000b880       ?CreateBackground@CopyProgress@@QAEXXZ 0040c880 f   copy.obj
 0001:0000bc30       ?SetProgress@CopyProgress@@AAEX_N_K1@Z 0040cc30 f   copy.obj
 0001:0000c1b0       ?CmpFullNames@@YAHPB_W0@Z  0040d1b0 f   copy.obj
 0001:0000c2a0       ?CmpFullPath@@YAHPB_W0@Z   0040d2a0 f   copy.obj
 0001:0000c5b0       ?PR_ShellCopyMsg@@YAXXZ    0040d5b0 f   copy.obj
 0001:0000c5e0       ??_GCopyProgress@@QAEPAXI@Z 0040d5e0 f i copy.obj
 0001:0000c600       ?WarnDlgProc@@YGJPAXHHJ@Z  0040d600 f   copy.obj
 0001:0000c8b0       ?AskOverwrite@ShellCopy@@AAEHABUFAR_FIND_DATA_EX@@PB_W1KHHHAAHAAVUnicodeString@@2@Z 0040d8b0 f   copy.obj
 0001:0000db00       ?GetSecurity@ShellCopy@@AAEHPB_WAAU_SECURITY_ATTRIBUTES@@@Z 0040eb00 f   copy.obj
 0001:0000dbf0       ?CalcTotalSize@ShellCopy@@AAE_NXZ 0040ebf0 f   copy.obj
 0001:0000df90       ??_GScanTreeData@@QAEPAXI@Z 0040ef90 f i copy.obj
 0001:0000dfe0       ?SetProgressValue@CopyProgress@@QAEX_K0@Z 0040efe0 f i copy.obj
 0001:0000e000       ?SetTotalProgressValue@CopyProgress@@QAEX_K0@Z 0040f000 f i copy.obj
 0001:0000e020       ?SetNames@CopyProgress@@QAEXPB_W0@Z 0040f020 f   copy.obj
 0001:0000e1b0       ?CopyDlgProc@@YGJPAXHHJ@Z  0040f1b0 f   copy.obj
 0001:0000e770       ??1ShellCopy@@QAE@XZ       0040f770 f   copy.obj
 0001:0000e9f0       ?Free@?$TPointerArray@UScanTreeData@@@@QAEXXZ 0040f9f0 f i copy.obj
 0001:0000ea70       ?ShellSystemCopy@ShellCopy@@AAEHPB_W0ABUFAR_FIND_DATA_EX@@@Z 0040fa70 f   copy.obj
 0001:0000eb50       ??1?$TPointerArray@UScanTreeData@@@@QAE@XZ 0040fb50 f i copy.obj
 0001:0000eb60       ??1ScanTree@@QAE@XZ        0040fb60 f i copy.obj
 0001:0000ebb0       ?ShellCopyFile@ShellCopy@@AAEHPB_WABUFAR_FIND_DATA_EX@@AAVUnicodeString@@AAKH@Z 0040fbb0 f   copy.obj
 0001:0000ff60       ?SetRecursiveSecurity@ShellCopy@@AAEHPB_WABU_SECURITY_ATTRIBUTES@@@Z 00410f60 f   copy.obj
 0001:000100c0       ?ShellCopyOneFile@ShellCopy@@AAE?AW4COPY_CODES@@PB_WABUFAR_FIND_DATA_EX@@AAVUnicodeString@@HH@Z 004110c0 f   copy.obj
 0001:00011a90       ?CopyFileTree@ShellCopy@@AAE?AW4COPY_CODES@@PB_W@Z 00412a90 f   copy.obj
 0001:00012b30       ??0ShellCopy@@QAE@PAVPanel@@HHHHAAHPB_W_N@Z 00413b30 f   copy.obj
 0001:00015390       ??0ControlObject@@QAE@XZ   00416390 f   ctrlobj.obj
 0001:00015530       ?CreateFilePanels@ControlObject@@QAEXXZ 00416530 f   ctrlobj.obj
 0001:00015560       ??_GHistory@@QAEPAXI@Z     00416560 f i ctrlobj.obj
 0001:00015580       ??_GHighlightFiles@@QAEPAXI@Z 00416580 f i ctrlobj.obj
 0001:000155a0       ??_GFilePositionCache@@QAEPAXI@Z 004165a0 f i ctrlobj.obj
 0001:000155c0       ??_GManager@@QAEPAXI@Z     004165c0 f i ctrlobj.obj
 0001:000155e0       ?Cp@ControlObject@@QAEPAVFilePanels@@XZ 004165e0 f   ctrlobj.obj
 0001:000155f0       ??0UnicodeString@@QAE@PBDI@Z 004165f0 f i ctrlobj.obj
 0001:00015610       ??1ControlObject@@QAE@XZ   00416610 f   ctrlobj.obj
 0001:000157d0       ?ShowCopyright@ControlObject@@SAXK@Z 004167d0 f   ctrlobj.obj
 0001:000159b0       ?Init@ControlObject@@QAEXXZ 004169b0 f   ctrlobj.obj
 0001:00015bf0       _wmemmove                  00416bf0 f i cvtname.obj
 0001:00015c00       ?StrCmpNN@@YAHPB_WH0H@Z    00416c00 f i cvtname.obj
 0001:00015c30       ?StrCmpN@@YAHPB_W0H@Z      00416c30 f i cvtname.obj
 0001:00015c60       ?Equal@UnicodeString@@QBE_NIPB_WI@Z 00416c60 f i cvtname.obj
 0001:00015c80       ?Point2Root@@YA?AW4PATH_PFX_TYPE@@PB_WAAI@Z 00416c80 f   cvtname.obj
 0001:00015dc0       ?MixToFullPath@@YAXAAVUnicodeString@@@Z 00416dc0 f   cvtname.obj
 0001:00015fb0       ??0UnicodeString@@QAE@PB_WI@Z 00416fb0 f i cvtname.obj
 0001:00015fe0       ?Replace@UnicodeString@@QAEAAV1@IIABV1@@Z 00416fe0 f i cvtname.obj
 0001:00016000       ?MixToFullPath@@YA_NPB_WAAVUnicodeString@@0@Z 00417000 f   cvtname.obj
 0001:00016210       ?ConvertNameToFull@@YAXPB_WAAVUnicodeString@@@Z 00417210 f   cvtname.obj
 0001:000162d0       ?TryConvertVolumeGuidToDrivePath@@YA?AVUnicodeString@@ABV1@@Z 004172d0 f   cvtname.obj
 0001:00016580       ?ConvertNameToReal@@YAXPB_WAAVUnicodeString@@@Z 00417580 f   cvtname.obj
 0001:000167d0       ?ConvertNameToShort@@YAXPB_WAAVUnicodeString@@@Z 004177d0 f   cvtname.obj
 0001:000168d0       ?ConvertNameToLong@@YAXPB_WAAVUnicodeString@@@Z 004178d0 f   cvtname.obj
 0001:000169e0       ?ConvertNameToUNC@@YAXAAVUnicodeString@@@Z 004179e0 f   cvtname.obj
 0001:00016be0       ?PrepareDiskPath@@YAAAVUnicodeString@@AAV1@_N@Z 00417be0 f   cvtname.obj
 0001:00016f90       ?IsLanguageLoaded@Language@@QBE_NXZ 00417f90 f i datetime.obj
 0001:00016fa0       ?ConvertYearToFull@@YAKK@Z 00417fa0 f   datetime.obj
 0001:00017000       ?GetDateFormatW@@YAHXZ     00418000 f   datetime.obj
 0001:00017030       ?GetDateSeparator@@YA_WXZ  00418030 f   datetime.obj
 0001:00017060       ?GetTimeSeparator@@YA_WXZ  00418060 f   datetime.obj
 0001:00017270       ?FileTimeDifference@@YA_JPBU_FILETIME@@0@Z 00418270 f   datetime.obj
 0001:00017290       ?FileTimeToUI64@@YA_KPBU_FILETIME@@@Z 00418290 f   datetime.obj
 0001:000172a0       ??0?$ManipulatorTemplate@_W$0CA@@fmt@@QAE@_W@Z 004182a0 f i datetime.obj
 0001:000172b0       ?PrepareStrFTime@@YAXXZ    004182b0 f   datetime.obj
 0001:000176f0       ?StrFTime@@YGIAAVUnicodeString@@PB_WPBUtm@@@Z 004186f0 f   datetime.obj
 0001:00017d00       ?MkStrFTime@@YAIAAVUnicodeString@@PB_W@Z 00418d00 f   datetime.obj
 0001:00017d50       ?GetFileDateAndTime@@YAXPB_WPAGIH@Z 00418d50 f   datetime.obj
 0001:00017e20       ?StrToDateTime@@YAXPB_W0AAU_FILETIME@@HHH_N@Z 00418e20 f   datetime.obj
 0001:00018040       ?ConvertRelativeDate@@YAXABU_FILETIME@@AAVUnicodeString@@1@Z 00419040 f   datetime.obj
 0001:000182d0       ?ConvertDate@@YAXABU_FILETIME@@AAVUnicodeString@@1HHHHH@Z 004192d0 f   datetime.obj
 0001:000187a0       ?GetCurrentFrame@Manager@@QAEPAVFrame@@XZ 004197a0 f i delete.obj
 0001:000187b0       ??_GConsoleTitle@@QAEPAXI@Z 004197b0 f i delete.obj
 0001:00018900       ?SHErrorToWinError@@YAKK@Z 00419900 f   delete.obj
 0001:000189f0       ?MoveToRecycleBinInternal@@YA_NPB_W@Z 004199f0 f   delete.obj
 0001:00018e00       ?DeleteFileWithFolder@@YAHPB_W@Z 00419e00 f   delete.obj
 0001:00019500       ?DeleteDirTree@@YAXPB_W@Z  0041a500 f   delete.obj
 0001:00019990       ?ShellDelete@@YAXPAVPanel@@H@Z 0041a990 f   delete.obj
 0001:0001ab40       ?Clear@BitFlags@@QAEKK@Z   0041bb40 f i dialog.obj
 0001:0001ab50       ?ClearAll@BitFlags@@QAEXXZ 0041bb50 f i dialog.obj
 0001:0001ab60       ?SetRestoreScreenMode@ScreenObject@@QAEXH@Z 0041bb60 f i dialog.obj
 0001:0001ab80       ?ManagerStarted@Manager@@QAEHXZ 0041bb80 f i dialog.obj
 0001:0001ab90       ?ClearFlags@VMenu@@QAEXK@Z 0041bb90 f i dialog.obj
 0001:0001aba0       ?CheckFlags@VMenu@@QBEHK@Z 0041bba0 f i dialog.obj
 0001:0001abc0       ?ChangeFlags@VMenu@@QAEKKH@Z 0041bbc0 f i dialog.obj
 0001:0001abf0       ?SetVDialogItemID@VMenu@@QAEXH@Z 0041bbf0 f i dialog.obj
 0001:0001ac00       ??0DlgUserControl@@QAE@XZ  0041bc00 f i dialog.obj
 0001:0001ac20       ??1DlgUserControl@@QAE@XZ  0041bc20 f i dialog.obj
 0001:0001ac30       ?Clear@DialogItemEx@@QAEXXZ 0041bc30 f i dialog.obj
 0001:0001ac90       ?AddAutomation@DialogItemEx@@QAE_NHW4FarDialogItemFlags@@00000@Z 0041bc90 f i dialog.obj
 0001:0001ad10       ?SetDropDownOpened@Dialog@@AAEXH@Z 0041bd10 f i dialog.obj
 0001:0001ad20       ?GetDropDownOpened@Dialog@@AAE?CHXZ 0041bd20 f i dialog.obj
 0001:0001ad30       ?CheckDialogMode@Dialog@@QAE_NK@Z 0041bd30 f i dialog.obj
 0001:0001ad40       ?SetCallbackState@EditControl@@QAEX_N@Z 0041bd40 f i dialog.obj
 0001:0001ad50       ?SetCallbackState@DlgEdit@@QAEX_N@Z 0041bd50 f i dialog.obj
 0001:0001ad60       ?AutoComplete@DlgEdit@@QAEX_N0@Z 0041bd60 f i dialog.obj
 0001:0001ad70       ?EnableAC@DlgEdit@@QAEXXZ  0041bd70 f i dialog.obj
 0001:0001ad80       ?DisableAC@DlgEdit@@QAEXXZ 0041bd80 f i dialog.obj
 0001:0001ad90       ?RevertAC@DlgEdit@@QAEXXZ  0041bd90 f i dialog.obj
 0001:0001ae10       ?ItemHasDropDownArrow@Dialog@@AAE_NPBUDialogItemEx@@@Z 0041be10 f   dialog.obj
 0001:0001ae60       ??_GDlgUserControl@@QAEPAXI@Z 0041be60 f i dialog.obj
 0001:0001ae80       ?ProcessKey@Dialog@@AAEXHI@Z 0041be80 f   dialog.obj
 0001:0001aeb0       ?SelectOnEntry@Dialog@@AAEXIH@Z 0041beb0 f   dialog.obj
 0001:0001af20       ?SetDialogData@Dialog@@QAEXJ@Z 0041bf20 f   dialog.obj
 0001:0001af30       ??_GTaskBarError@@QAEPAXI@Z 0041bf30 f i dialog.obj
 0001:0001af50       ?GetMacroMode@Dialog@@UAEHXZ 0041bf50 f   dialog.obj
 0001:0001af60       ?FastHide@Dialog@@UAEHXZ   0041bf60 f   dialog.obj
 0001:0001af70       ?DlgProc@Dialog@@QAGJPAXHHJ@Z 0041bf70 f   dialog.obj
 0001:0001b040       ?ProcessEvents@Dialog@@UAE_NXZ 0041c040 f   dialog.obj
 0001:0001b050       ?SetId@Dialog@@QAEXABU_GUID@@@Z 0041c050 f   dialog.obj
 0001:0001b090       ?GetPtrTitle@VMenu@@QAEPB_WXZ 0041c090 f i dialog.obj
 0001:0001b0a0       ?SetDialogStyle@VMenu@@QAEXH@Z 0041c0a0 f i dialog.obj
 0001:0001b0e0       ?IsKeyHighlighted@@YA_NPB_WHHH@Z 0041c0e0 f   dialog.obj
 0001:0001b1e0       ?DialogItemExToDialogItemEx@@YAXPAUDialogItemEx@@0@Z 0041c1e0 f   dialog.obj
 0001:0001b290       ?ConvertItemSmall@@YAXPAUFarDialogItem@@PAUDialogItemEx@@@Z 0041c290 f   dialog.obj
 0001:0001b340       ?ItemStringAndSize@@YAIPAUDialogItemEx@@AAVUnicodeString@@@Z 0041c340 f   dialog.obj
 0001:0001b3b0       ?DataToItemEx@@YAXPBUDialogDataEx@@PAUDialogItemEx@@H@Z 0041c3b0 f   dialog.obj
 0001:0001b590       ?CheckDialogCoord@Dialog@@AAEXXZ 0041c590 f   dialog.obj
 0001:0001b630       ?Show@Dialog@@UAEXXZ       0041c630 f   dialog.obj
 0001:0001b6b0       ?Hide@Dialog@@UAEXXZ       0041c6b0 f   dialog.obj
 0001:0001b6e0       ?GetDialogTitle@Dialog@@AAEPB_WXZ 0041c6e0 f   dialog.obj
 0001:0001b7b0       ?GetItemRect@Dialog@@AAEHIAAU_SMALL_RECT@@@Z 0041c7b0 f   dialog.obj
 0001:0001ba90       ?DeleteDialogObjects@Dialog@@AAEXXZ 0041ca90 f   dialog.obj
 0001:0001bc50       ?CtlColorDlgItem@Dialog@@AAEJHHHHK@Z 0041cc50 f   dialog.obj
 0001:0001c2c0       ?LenStrItem@Dialog@@AAEHHPB_W@Z 0041d2c0 f   dialog.obj
 0001:0001c340       ?ProcessRadioButton@Dialog@@AAEII@Z 0041d340 f   dialog.obj
 0001:0001c420       ?ChangeFocus@Dialog@@AAEIIHH@Z 0041d420 f   dialog.obj
 0001:0001c4e0       ?ChangeFocus2@Dialog@@AAEXI@Z 0041d4e0 f   dialog.obj
 0001:0001c780       ?SetAutomation@Dialog@@QAEHGGW4FarDialogItemFlags@@00000@Z 0041d780 f   dialog.obj
 0001:0001c800       ?SelectFromEditHistory@Dialog@@AAEHPAUDialogItemEx@@PAVDlgEdit@@PB_WAAVUnicodeString@@@Z 0041d800 f   dialog.obj
 0001:0001ca90       ?AddToEditHistory@Dialog@@AAEHPB_W0@Z 0041da90 f   dialog.obj
 0001:0001cbc0       ?CheckHighlights@Dialog@@AAEHGH@Z 0041dbc0 f   dialog.obj
 0001:0001ccf0       ?SetHelp@Dialog@@QAEXPB_W@Z 0041dcf0 f   dialog.obj
 0001:0001cd90       ?ShowHelp@Dialog@@QAEXXZ   0041dd90 f   dialog.obj
 0001:0001cdf0       ?ClearDone@Dialog@@QAEXXZ  0041ddf0 f   dialog.obj
 0001:0001ce20       ?SetExitCode@Dialog@@UAEXH@Z 0041de20 f   dialog.obj
 0001:0001ce50       ?GetTypeAndName@Dialog@@UAEHAAVUnicodeString@@0@Z 0041de50 f   dialog.obj
 0001:0001cf00       ?DefDlgProc@@YGJPAXHHJ@Z   0041df00 f   dialog.obj
 0001:0001d1c0       ?CallDlgProc@Dialog@@AAEJHHJ@Z 0041e1c0 f   dialog.obj
 0001:0001d200       ?SetPosition@Dialog@@UAEXHHHH@Z 0041e200 f   dialog.obj
 0001:0001d270       ?IsInited@Dialog@@QAEHXZ   0041e270 f   dialog.obj
 0001:0001d2a0       ?SetComboBoxPos@Dialog@@AAEXPAUDialogItemEx@@@Z 0041e2a0 f   dialog.obj
 0001:0001d3b0       ?ConvertItemEx@@YA_NW4CVTITEMFLAGS@@PAUFarDialogItem@@PAUDialogItemEx@@I@Z 0041e3b0 f   dialog.obj
 0001:0001d5f0       ?ConvertItemEx2@@YAIPAUFarDialogItem@@PAUDialogItemEx@@@Z 0041e5f0 f   dialog.obj
 0001:0001d680       ?Init@Dialog@@AAEXP6GJPAXHHJ@ZJ@Z 0041e680 f   dialog.obj
 0001:0001d740       ?ProcessCenterGroup@Dialog@@AAEXXZ 0041e740 f   dialog.obj
 0001:0001d9c0       ?ProcessLastHistory@Dialog@@AAEXPAUDialogItemEx@@H@Z 0041e9c0 f   dialog.obj
 0001:0001dad0       ?GetDialogObjectsData@Dialog@@QAEXXZ 0041ead0 f   dialog.obj
 0001:0001dc50       ?ShowDialog@Dialog@@AAEXI@Z 0041ec50 f   dialog.obj
 0001:0001ec40       ?VMProcess@Dialog@@UAE_JHPAX_J@Z 0041fc40 f   dialog.obj
 0001:0001f160       ?Do_ProcessFirstCtrl@Dialog@@AAEHXZ 00420160 f   dialog.obj
 0001:0001f230       ?Do_ProcessNextCtrl@Dialog@@AAEHHH@Z 00420230 f   dialog.obj
 0001:0001f390       ?Do_ProcessTab@Dialog@@AAEHH@Z 00420390 f   dialog.obj
 0001:0001f470       ?SelectFromComboBox@Dialog@@AAEHPAUDialogItemEx@@PAVDlgEdit@@PAVVMenu@@@Z 00420470 f   dialog.obj
 0001:0001f7c0       ?AdjustEditPos@Dialog@@QAEXHH@Z 004207c0 f   dialog.obj
 0001:0001f8e0       ?CloseDialog@Dialog@@QAEXXZ 004208e0 f   dialog.obj
 0001:0001f960       ??0Dialog@@QAE@PAUDialogItemEx@@IP6GJPAXHHJ@ZJ@Z 00420960 f   dialog.obj
 0001:0001fa90       ?GetCanLoseFocus@Frame@@UAEHH@Z 00420a90 f i dialog.obj
 0001:0001faa0       ?IsFileModified@Frame@@UBEHXZ 00420aa0 f i dialog.obj
 0001:0001fab0       ?OnCreate@Frame@@UAEXXZ    00420ab0 f i dialog.obj
 0001:0001fac0       ?Refresh@Frame@@UAEXXZ     00420ac0 f i dialog.obj
 0001:0001fad0       ?InitKeyBar@Frame@@UAEXXZ  00420ad0 f i dialog.obj
 0001:0001fae0       ?RedrawKeyBar@Frame@@UAEXXZ 00420ae0 f i dialog.obj
 0001:0001faf0       ?GetTitle@Frame@@UAEAAVUnicodeString@@AAV2@HH@Z 00420af0 f i dialog.obj
 0001:0001fb00       ?GetType@Dialog@@UAEHXZ    00420b00 f i dialog.obj
 0001:0001fb10       ?GetTypeName@Dialog@@UAEPB_WXZ 00420b10 f i dialog.obj
 0001:0001fb20       ??0Dialog@@QAE@PAUFarDialogItem@@IP6GJPAXHHJ@ZJ@Z 00420b20 f   dialog.obj
 0001:0001fc50       ??_GDialogItemEx@@QAEPAXI@Z 00420c50 f i dialog.obj
 0001:0001fc70       ?DisplayObject@Dialog@@EAEXXZ 00420c70 f   dialog.obj
 0001:0001fcc0       ?InitDialogObjects@Dialog@@AAEII@Z 00420cc0 f   dialog.obj
 0001:00020720       ?SetItemRect@Dialog@@AAEHIPAU_SMALL_RECT@@@Z 00421720 f   dialog.obj
 0001:000208b0       ?ProcessMoveDialog@Dialog@@AAEHK@Z 004218b0 f   dialog.obj
 0001:00020d00       ?ProcessOpenComboBox@Dialog@@AAEHHPAUDialogItemEx@@I@Z 00421d00 f   dialog.obj
 0001:00020e30       ?SendDlgMessage@@YGJPAXHHJ@Z 00421e30 f   dialog.obj
 0001:000230d0       ??1Dialog@@UAE@XZ          004240d0 f   dialog.obj
 0001:00023200       ?InitDialog@Dialog@@QAEXXZ 00424200 f   dialog.obj
 0001:000232f0       ?ProcessMouse@Dialog@@UAEHPAU_MOUSE_EVENT_RECORD@@@Z 004242f0 f   dialog.obj
 0001:00023e30       ?Do_ProcessSpace@Dialog@@AAEHXZ 00424e30 f   dialog.obj
 0001:00023f60       ?ProcessHighlighting@Dialog@@AAEHHIH@Z 00424f60 f   dialog.obj
 0001:000241f0       ?Process@Dialog@@QAEXXZ    004251f0 f   dialog.obj
 0001:00024300       ?ResizeConsole@Dialog@@UAEXXZ 00425300 f   dialog.obj
 0001:00024400       ??_GDialog@@UAEPAXI@Z      00425400 f i dialog.obj
 0001:00024400       ??_EDialog@@UAEPAXI@Z      00425400 f i dialog.obj
 0001:00024420       ?ProcessKey@Dialog@@UAEHH@Z 00425420 f   dialog.obj
 0001:000257e0       ?GetPluginDirInfo@@YAHPAXPB_WAAK2AA_K3@Z 004267e0 f   dirinfo.obj
 0001:000259b0       ?GetDirInfo@@YAHPB_W0AAK1AA_K221JPAVFileFilter@@K@Z 004269b0 f   dirinfo.obj
 0001:00026250       ??0GuardLastError@@QAE@XZ  00427250 f i dirmix.obj
 0001:00026260       ??1GuardLastError@@QAE@XZ  00427260 f i dirmix.obj
 0001:00026270       ?Get@GuardLastError@@QBEKXZ 00427270 f i dirmix.obj
 0001:00026280       ?FarChDir@@YAHPB_WH@Z      00427280 f   dirmix.obj
 0001:00026430       ?CreatePath@@YAXAAVUnicodeString@@@Z 00427430 f   dirmix.obj
 0001:00026580       ?TestFolder@@YAHPB_W@Z     00427580 f   dirmix.obj
 0001:00026800       ?CheckShortcutFolder@@YAHPAVUnicodeString@@HH@Z 00427800 f   dirmix.obj
 0001:00026a50       ?IsUnicodeOrUtfCodePage@@YA_NI@Z 00427a50 f i dizlist.obj
 0001:00026a80       ?Reset@DizList@@QAEXXZ     00427a80 f   dizlist.obj
 0001:00026af0       ?PR_ReadingMsg@DizList@@SAXXZ 00427af0 f   dizlist.obj
 0001:00026b20       ?IsSpace@@YAH_W@Z          00427b20 f i dizlist.obj
 0001:00026b40       ?IsSpaceOrEos@@YAH_W@Z     00427b40 f i dizlist.obj
 0001:00026b60       ?AddRecord@DizList@@AAE_NPB_W@Z 00427b60 f   dizlist.obj
 0001:00026e30       ?GetDizName@DizList@@QAEXAAVUnicodeString@@@Z 00427e30 f   dizlist.obj
 0001:00026e40       ??0DizList@@QAE@XZ         00427e40 f   dizlist.obj
 0001:00026e70       ??1DizList@@QAE@XZ         00427e70 f   dizlist.obj
 0001:00026eb0       ?Read@DizList@@QAEXPB_W0@Z 00427eb0 f   dizlist.obj
 0001:00027190       ?BuildIndex@DizList@@AAEXXZ 00428190 f   dizlist.obj
 0001:00027220       ?Flush@DizList@@QAE_NPB_W0@Z 00428220 f   dizlist.obj
 0001:00027600       ?GetDizPos@DizList@@AAEHPB_WPAH@Z 00428600 f   dizlist.obj
 0001:000276d0       ?GetDizPosEx@DizList@@AAEHPB_W0PAH@Z 004286d0 f   dizlist.obj
 0001:000277f0       ?DeleteDiz@DizList@@QAE_NPB_W0@Z 004287f0 f   dizlist.obj
 0001:00027870       ?AddDizText@DizList@@QAE_NPB_W00@Z 00428870 f   dizlist.obj
 0001:000279b0       ?CopyDiz@DizList@@QAE_NPB_W000PAV1@@Z 004289b0 f   dizlist.obj
 0001:00027a70       ?GetDizTextAddr@DizList@@QAEPB_WPB_W0_J@Z 00428a70 f   dizlist.obj
 0001:00027b90       ?GetMask@EditFieldIntBinding@@QAEPB_WXZ 00428b90 f i DlgBuilder.obj
 0001:00027ba0       ?GetLangString@DialogBuilder@@MAEPB_WH@Z 00428ba0 f   DlgBuilder.obj
 0001:00027bb0       ?LinkFlagsByID@DialogBuilder@@AAEXPAUDialogItemEx@@HW4FarDialogItemFlags@@@Z 00428bb0 f   DlgBuilder.obj
 0001:00027c00       ?DoShowDialog@DialogBuilder@@MAEHXZ 00428c00 f   DlgBuilder.obj
 0001:00027c70       ??0?$DialogBuilderBase@UDialogItemEx@@@@IAE@XZ 00428c70 f i DlgBuilder.obj
 0001:00027ca0       ?InitDialogItem@?$DialogBuilderBase@UDialogItemEx@@@@MAEXPAUDialogItemEx@@PB_W@Z 00428ca0 f i DlgBuilder.obj
 0001:00027cb0       ?TextWidth@?$DialogBuilderBase@UDialogItemEx@@@@MAEHABUDialogItemEx@@@Z 00428cb0 f i DlgBuilder.obj
 0001:00027cc0       ?GetLangString@?$DialogBuilderBase@UDialogItemEx@@@@MAEPB_WH@Z 00428cc0 f i DlgBuilder.obj
 0001:00027cd0       ?DoShowDialog@?$DialogBuilderBase@UDialogItemEx@@@@MAEHXZ 00428cd0 f i DlgBuilder.obj
 0001:00027ce0       ?CreateCheckBoxBinding@?$DialogBuilderBase@UDialogItemEx@@@@MAEPAU?$DialogItemBinding@UDialogItemEx@@@@PAHH@Z 00428ce0 f i DlgBuilder.obj
 0001:00027cf0       ?CreateRadioButtonBinding@?$DialogBuilderBase@UDialogItemEx@@@@MAEPAU?$DialogItemBinding@UDialogItemEx@@@@PAH@Z 00428cf0 f i DlgBuilder.obj
 0001:00027d00       ?AddIntEditField@?$DialogBuilderBase@UDialogItemEx@@@@UAEPAUDialogItemEx@@PAHH@Z 00428d00 f i DlgBuilder.obj
 0001:00027d10       ??0?$DialogItemBinding@UDialogItemEx@@@@QAE@XZ 00428d10 f i DlgBuilder.obj
 0001:00027d30       ?SaveValue@?$DialogItemBinding@UDialogItemEx@@@@UAEXPAUDialogItemEx@@H@Z 00428d30 f i DlgBuilder.obj
 0001:00027d40       ??0?$CheckBoxBinding@UDialogItemEx@@@@QAE@PAHH@Z 00428d40 f i DlgBuilder.obj
 0001:00027d70       ?SaveValue@?$CheckBoxBinding@UDialogItemEx@@@@UAEXPAUDialogItemEx@@H@Z 00428d70 f i DlgBuilder.obj
 0001:00027da0       ??0?$RadioButtonBinding@UDialogItemEx@@@@QAE@PAH@Z 00428da0 f i DlgBuilder.obj
 0001:00027dc0       ?SaveValue@?$RadioButtonBinding@UDialogItemEx@@@@UAEXPAUDialogItemEx@@H@Z 00428dc0 f i DlgBuilder.obj
 0001:00027de0       ??0?$ComboBoxBinding@UDialogItemEx@@@@QAE@PAHPAUFarList@@@Z 00428de0 f i DlgBuilder.obj
 0001:00027e10       ??1?$ComboBoxBinding@UDialogItemEx@@@@UAE@XZ 00428e10 f i DlgBuilder.obj
 0001:00027e40       ?SaveValue@?$ComboBoxBinding@UDialogItemEx@@@@UAEXPAUDialogItemEx@@H@Z 00428e40 f i DlgBuilder.obj
 0001:00027e60       ??_E?$ComboBoxBinding@UDialogItemEx@@@@UAEPAXI@Z 00428e60 f i DlgBuilder.obj
 0001:00027e60       ??_G?$ComboBoxBinding@UDialogItemEx@@@@UAEPAXI@Z 00428e60 f i DlgBuilder.obj
 0001:00027ea0       ??0EditFieldBinding@@QAE@PAVUnicodeString@@@Z 00428ea0 f i DlgBuilder.obj
 0001:00027ec0       ?SaveValue@EditFieldBinding@@UAEXPAUDialogItemEx@@H@Z 00428ec0 f i DlgBuilder.obj
 0001:00027ee0       ??0EditFieldIntBinding@@QAE@PAHH@Z 00428ee0 f i DlgBuilder.obj
 0001:00027f40       ?SaveValue@EditFieldIntBinding@@UAEXPAUDialogItemEx@@H@Z 00428f40 f i DlgBuilder.obj
 0001:00027f70       ?InitDialogItem@DialogBuilder@@MAEXPAUDialogItemEx@@PB_W@Z 00428f70 f   DlgBuilder.obj
 0001:00027fd0       ?TextWidth@DialogBuilder@@MAEHABUDialogItemEx@@@Z 00428fd0 f   DlgBuilder.obj
 0001:00027fe0       ?CreateCheckBoxBinding@DialogBuilder@@MAEPAU?$DialogItemBinding@UDialogItemEx@@@@PAHH@Z 00428fe0 f   DlgBuilder.obj
 0001:00028020       ?CreateRadioButtonBinding@DialogBuilder@@MAEPAU?$DialogItemBinding@UDialogItemEx@@@@PAH@Z 00429020 f   DlgBuilder.obj
 0001:00028050       ?LinkFlags@DialogBuilder@@QAEXPAUDialogItemEx@@0W4FarDialogItemFlags@@_N@Z 00429050 f   DlgBuilder.obj
 0001:000280e0       ?AddBorder@?$DialogBuilderBase@UDialogItemEx@@@@IAEXPB_W@Z 004290e0 f i DlgBuilder.obj
 0001:00028140       ??1?$DialogBuilderBase@UDialogItemEx@@@@MAE@XZ 00429140 f i DlgBuilder.obj
 0001:00028190       ??_G?$DialogBuilderBase@UDialogItemEx@@@@MAEPAXI@Z 00429190 f i DlgBuilder.obj
 0001:00028190       ??_E?$DialogBuilderBase@UDialogItemEx@@@@MAEPAXI@Z 00429190 f i DlgBuilder.obj
 0001:000281b0       ??0DialogBuilder@@QAE@HPB_W@Z 004291b0 f   DlgBuilder.obj
 0001:00028200       ??1DialogBuilder@@UAE@XZ   00429200 f   DlgBuilder.obj
 0001:00028210       ?AddEditField@DialogBuilder@@QAEPAUDialogItemEx@@PAVUnicodeString@@HPB_WH@Z 00429210 f   DlgBuilder.obj
 0001:00028300       ?AddIntEditField@DialogBuilder@@UAEPAUDialogItemEx@@PAHH@Z 00429300 f   DlgBuilder.obj
 0001:00028430       ?AddComboBox@DialogBuilder@@QAEPAUDialogItemEx@@PAHHPAUDialogBuilderListItem@@HK@Z 00429430 f   DlgBuilder.obj
 0001:00028580       ??_GDialogBuilder@@UAEPAXI@Z 00429580 f i DlgBuilder.obj
 0001:00028580       ??_EDialogBuilder@@UAEPAXI@Z 00429580 f i DlgBuilder.obj
 0001:000285b0       ?GetObjectColor@Edit@@QAEJXZ 004295b0 f i dlgedit.obj
 0001:000285c0       ?GetObjectColorUnChanged@Edit@@QAEHXZ 004295c0 f i dlgedit.obj
 0001:000285d0       ?GetDelRemovesBlocks@Edit@@QAEHXZ 004295d0 f i dlgedit.obj
 0001:000285e0       ?GetPersistentBlocks@Edit@@QAEHXZ 004295e0 f i dlgedit.obj
 0001:000285f0       ?SetClearFlag@Edit@@QAEXH@Z 004295f0 f i dlgedit.obj
 0001:00028610       ?GetClearFlag@Edit@@QAEHXZ 00429610 f i dlgedit.obj
 0001:00028620       ?GetLeftPos@Edit@@QAEHXZ   00429620 f i dlgedit.obj
 0001:00028630       ?SetPasswordMode@Edit@@QAEXH@Z 00429630 f i dlgedit.obj
 0001:00028650       ?SetMaxLength@Edit@@QAEXH@Z 00429650 f i dlgedit.obj
 0001:00028660       ?GetMaxLength@Edit@@QAEHXZ 00429660 f i dlgedit.obj
 0001:00028670       ?GetInputMask@Edit@@QAEPB_WXZ 00429670 f i dlgedit.obj
 0001:00028680       ?SetOvertypeMode@Edit@@QAEXH@Z 00429680 f i dlgedit.obj
 0001:000286a0       ?GetOvertypeMode@Edit@@QAEHXZ 004296a0 f i dlgedit.obj
 0001:000286b0       ?GetReadOnly@Edit@@QAEHXZ  004296b0 f i dlgedit.obj
 0001:000286c0       ?SetReadOnly@Edit@@QAEXH@Z 004296c0 f i dlgedit.obj
 0001:000286e0       ?SetDropDownBox@Edit@@QAEXH@Z 004296e0 f i dlgedit.obj
 0001:00028700       ?ProcessKey@DlgEdit@@UAEHH@Z 00429700 f   dlgedit.obj
 0001:00028710       ?ProcessMouse@DlgEdit@@UAEHPAU_MOUSE_EVENT_RECORD@@@Z 00429710 f   dlgedit.obj
 0001:00028720       ?DisplayObject@DlgEdit@@EAEXXZ 00429720 f   dlgedit.obj
 0001:00028730       ?SetPosition@DlgEdit@@UAEXHHHH@Z 00429730 f   dlgedit.obj
 0001:00028740       ?Show@DlgEdit@@UAEXXZ      00429740 f   dlgedit.obj
 0001:00028750       ?GetPosition@DlgEdit@@UAEXAAH000@Z 00429750 f   dlgedit.obj
 0001:00028760       ?SetDialogParent@DlgEdit@@QAEXK@Z 00429760 f   dlgedit.obj
 0001:00028770       ?SetDropDownBox@DlgEdit@@QAEXH@Z 00429770 f   dlgedit.obj
 0001:000287a0       ?GetMaxLength@DlgEdit@@QAEHXZ 004297a0 f   dlgedit.obj
 0001:000287b0       ?SetMaxLength@DlgEdit@@QAEXH@Z 004297b0 f   dlgedit.obj
 0001:000287d0       ?SetPasswordMode@DlgEdit@@QAEXH@Z 004297d0 f   dlgedit.obj
 0001:00028800       ?SetOvertypeMode@DlgEdit@@QAEXH@Z 00429800 f   dlgedit.obj
 0001:00028820       ?GetOvertypeMode@DlgEdit@@QAEHXZ 00429820 f   dlgedit.obj
 0001:00028830       ?SetInputMask@DlgEdit@@QAEXPB_W@Z 00429830 f   dlgedit.obj
 0001:00028850       ?GetInputMask@DlgEdit@@QAEPB_WXZ 00429850 f   dlgedit.obj
 0001:00028870       ?SetEditBeyondEnd@DlgEdit@@QAEXH@Z 00429870 f   dlgedit.obj
 0001:00028890       ?SetClearFlag@DlgEdit@@QAEXH@Z 00429890 f   dlgedit.obj
 0001:000288b0       ?GetClearFlag@DlgEdit@@QAEHXZ 004298b0 f   dlgedit.obj
 0001:000288c0       ?GetStringAddr@DlgEdit@@QAEPB_WXZ 004298c0 f   dlgedit.obj
 0001:000288d0       ?SetHiString@DlgEdit@@QAEXPB_W@Z 004298d0 f   dlgedit.obj
 0001:000288e0       ?SetString@DlgEdit@@QAEXPB_W@Z 004298e0 f   dlgedit.obj
 0001:00028900       ?InsertString@DlgEdit@@QAEXPB_W@Z 00429900 f   dlgedit.obj
 0001:00028910       ?GetString@DlgEdit@@QAEXPA_WHH@Z 00429910 f   dlgedit.obj
 0001:00028930       ?GetString@DlgEdit@@QAEXAAVUnicodeString@@H@Z 00429930 f   dlgedit.obj
 0001:00028940       ?SetCurPos@DlgEdit@@QAEXHH@Z 00429940 f   dlgedit.obj
 0001:00028950       ?GetCurPos@DlgEdit@@QAEHXZ 00429950 f   dlgedit.obj
 0001:00028960       ?GetCurRow@DlgEdit@@QAEHXZ 00429960 f   dlgedit.obj
 0001:00028970       ?GetTabCurPos@DlgEdit@@QAEHXZ 00429970 f   dlgedit.obj
 0001:00028980       ?SetTabCurPos@DlgEdit@@QAEXH@Z 00429980 f   dlgedit.obj
 0001:00028990       ?SetPersistentBlocks@DlgEdit@@QAEXH@Z 00429990 f   dlgedit.obj
 0001:000289b0       ?GetPersistentBlocks@DlgEdit@@QAEHXZ 004299b0 f   dlgedit.obj
 0001:000289c0       ?SetDelRemovesBlocks@DlgEdit@@QAEXH@Z 004299c0 f   dlgedit.obj
 0001:000289e0       ?GetDelRemovesBlocks@DlgEdit@@QAEHXZ 004299e0 f   dlgedit.obj
 0001:000289f0       ?SetObjectColor@DlgEdit@@QAEXHHH@Z 004299f0 f   dlgedit.obj
 0001:00028a00       ?GetObjectColor@DlgEdit@@QAEJXZ 00429a00 f   dlgedit.obj
 0001:00028a20       ?GetObjectColorUnChanged@DlgEdit@@QAEHXZ 00429a20 f   dlgedit.obj
 0001:00028a30       ?FastShow@DlgEdit@@QAEXXZ  00429a30 f   dlgedit.obj
 0001:00028a40       ?GetLeftPos@DlgEdit@@QAEHXZ 00429a40 f   dlgedit.obj
 0001:00028a50       ?SetLeftPos@DlgEdit@@QAEXHH@Z 00429a50 f   dlgedit.obj
 0001:00028a60       ?DeleteBlock@DlgEdit@@QAEXXZ 00429a60 f   dlgedit.obj
 0001:00028a70       ?GetLength@DlgEdit@@QAEHXZ 00429a70 f   dlgedit.obj
 0001:00028a80       ?Select@DlgEdit@@QAEXHH@Z  00429a80 f   dlgedit.obj
 0001:00028a90       ?GetSelection@DlgEdit@@QAEXAAH0@Z 00429a90 f   dlgedit.obj
 0001:00028aa0       ?Xlat@DlgEdit@@QAEX_N@Z    00429aa0 f   dlgedit.obj
 0001:00028ab0       ?GetStrSize@DlgEdit@@QAEHH@Z 00429ab0 f   dlgedit.obj
 0001:00028ac0       ?SetCursorType@DlgEdit@@QAEX_NK@Z 00429ac0 f   dlgedit.obj
 0001:00028ad0       ?GetCursorType@DlgEdit@@QAEXAA_NAAK@Z 00429ad0 f   dlgedit.obj
 0001:00028ae0       ?GetReadOnly@DlgEdit@@QAEHXZ 00429ae0 f   dlgedit.obj
 0001:00028af0       ?SetReadOnly@DlgEdit@@QAEXH@Z 00429af0 f   dlgedit.obj
 0001:00028b10       ?Flags@DlgEdit@@QAEAAVBitFlags@@XZ 00429b10 f   dlgedit.obj
 0001:00028b20       ?Hide@DlgEdit@@UAEXXZ      00429b20 f   dlgedit.obj
 0001:00028b30       ?Hide0@DlgEdit@@UAEXXZ     00429b30 f   dlgedit.obj
 0001:00028b40       ?ShowConsoleTitle@DlgEdit@@UAEXXZ 00429b40 f   dlgedit.obj
 0001:00028b50       ?SetScreenPosition@DlgEdit@@UAEXXZ 00429b50 f   dlgedit.obj
 0001:00028b60       ?ResizeConsole@DlgEdit@@UAEXXZ 00429b60 f   dlgedit.obj
 0001:00028b70       ?VMProcess@DlgEdit@@UAE_JHPAX_J@Z 00429b70 f   dlgedit.obj
 0001:00028ba0       ?DoEditChange@DlgEdit@@AAEXXZ 00429ba0 f   dlgedit.obj
 0001:00028bd0       ?HistoryGetSimilar@DlgEdit@@QAE_NAAVUnicodeString@@H_N@Z 00429bd0 f   dlgedit.obj
 0001:00028bf0       ?EditChange@DlgEdit@@CAXPAX@Z 00429bf0 f   dlgedit.obj
 0001:00028c20       ??0DlgEdit@@QAE@PAVDialog@@IW4DLGEDITTYPE@@@Z 00429c20 f   dlgedit.obj
 0001:00028dd0       ??1DlgEdit@@UAE@XZ         00429dd0 f   dlgedit.obj
 0001:00028e30       ??_EDlgEdit@@UAEPAXI@Z     00429e30 f i dlgedit.obj
 0001:00028e30       ??_GDlgEdit@@UAEPAXI@Z     00429e30 f i dlgedit.obj
 0001:00028e50       ??0CDList@@IAE@XZ          00429e50 f   DList.obj
 0001:00028e70       ?Clear@CDList@@QAEXXZ      00429e70 f   DList.obj
 0001:00028eb0       ?CSwap@CDList@@IAEXAAV1@@Z 00429eb0 f   DList.obj
 0001:00028f10       ?CInsertBefore@CDList@@IAEPAXPAX0@Z 00429f10 f   DList.obj
 0001:00028f50       ?CInsertAfter@CDList@@IAEPAXPAX0@Z 00429f50 f   DList.obj
 0001:00028fa0       ?CMoveBefore@CDList@@IAEXPAX0@Z 00429fa0 f   DList.obj
 0001:00028ff0       ?CMoveAfter@CDList@@IAEXPAX0@Z 00429ff0 f   DList.obj
 0001:00029050       ?CDelete@CDList@@IAEPAXPAX@Z 0042a050 f   DList.obj
 0001:00029090       ?FarGetLogicalDrives@@YGKXZ 0042a090 f   drivemix.obj
 0001:00029140       ?IsDriveTypeRemote@@YA_NI@Z 0042a140 f   drivemix.obj
 0001:00029160       ?CheckDisksProps@@YAHPB_W0H@Z 0042a160 f   drivemix.obj
 0001:00029720       ?IsLocalDrive@@YAHPB_W@Z   0042a720 f   drivemix.obj
 0001:00029860       ??0BitFlags@@QAE@K@Z       0042a860 f i edit.obj
 0001:00029870       ?Swap@BitFlags@@QAEKK@Z    0042a870 f i edit.obj
 0001:00029890       ?IsSelection@Edit@@QAEHXZ  0042a890 f i edit.obj
 0001:000298b0       ?SetWordDiv@Edit@@QAEXABVUnicodeString@@@Z 0042a8b0 f i edit.obj
 0001:000298c0       _wmemchr                   0042a8c0 f i edit.obj
 0001:000298f0       ?wmemchr@@YAPA_WPA_W_WI@Z  0042a8f0 f i edit.obj
 0001:00029920       ?IsWordDiv@@YA_NPB_W_W@Z   0042a920 f i edit.obj
 0001:00029940       ?GetBracketsCount@RegExp@@QBEHXZ 0042a940 f i edit.obj
 0001:00029950       ??0DisableCallback@@QAE@AA_N@Z 0042a950 f i edit.obj
 0001:00029970       ?Restore@DisableCallback@@QAEXXZ 0042a970 f i edit.obj
 0001:00029980       ??1DisableCallback@@QAE@XZ 0042a980 f i edit.obj
 0001:00029990       ??0Edit@@QAE@PAVScreenObject@@PAUCallback@0@_N@Z 0042a990 f   edit.obj
 0001:00029ad0       ?ResizeConsole@ScreenObject@@UAEXXZ 0042aad0 f i edit.obj
 0001:00029ae0       ??1Edit@@UAE@XZ            0042aae0 f   edit.obj
 0001:00029b30       ?SetCodePage@Edit@@QAEKI@Z 0042ab30 f   edit.obj
 0001:00029cb0       ?GetCodePage@Edit@@QAEIXZ  0042acb0 f   edit.obj
 0001:00029cc0       ?SetCursorType@Edit@@QAEX_NK@Z 0042acc0 f   edit.obj
 0001:00029cf0       ?GetCursorType@Edit@@QAEXAA_NAAK@Z 0042acf0 f   edit.obj
 0001:00029d10       ?RecurseProcessKey@Edit@@AAEHH@Z 0042ad10 f   edit.obj
 0001:00029d30       ?IsEol@@YAH_W@Z            0042ad30 f i edit.obj
 0001:00029d50       ?SetObjectColor@Edit@@QAEXHHH@Z 0042ad50 f   edit.obj
 0001:00029d70       ?GetString@Edit@@QAEXAAVUnicodeString@@@Z 0042ad70 f   edit.obj
 0001:00029db0       ?GetStringAddr@Edit@@QAEPB_WXZ 0042adb0 f   edit.obj
 0001:00029dc0       ?SetEOL@Edit@@QAEXPB_W@Z   0042adc0 f   edit.obj
 0001:00029e30       ?GetEOL@Edit@@QAEPB_WXZ    0042ae30 f   edit.obj
 0001:00029e40       ?GetBinaryString@Edit@@QAEXPAPB_W0AAH@Z 0042ae40 f   edit.obj
 0001:00029e80       ?GetSelString@Edit@@QAEHAAVUnicodeString@@@Z 0042ae80 f   edit.obj
 0001:00029ef0       ?GetLength@Edit@@QAEHXZ    0042aef0 f   edit.obj
 0001:00029f00       ?InsertTab@Edit@@QAEXXZ    0042af00 f   edit.obj
 0001:00029fd0       ?ReplaceTabs@Edit@@QAEXXZ  0042afd0 f   edit.obj
 0001:0002a0e0       ?TabPosToReal@Edit@@QAEHH@Z 0042b0e0 f   edit.obj
 0001:0002a140       ?Select@Edit@@QAEXHH@Z     0042b140 f   edit.obj
 0001:0002a180       ?AddSelect@Edit@@QAEXHH@Z  0042b180 f   edit.obj
 0001:0002a1e0       ?GetSelection@Edit@@QAEXAAH0@Z 0042b1e0 f   edit.obj
 0001:0002a210       ?GetRealSelection@Edit@@QAEXAAH0@Z 0042b210 f   edit.obj
 0001:0002a230       ?AddColor@Edit@@QAEXPAUColorItem@@@Z 0042b230 f   edit.obj
 0001:0002a280       ?DeleteColor@Edit@@QAEHH@Z 0042b280 f   edit.obj
 0001:0002a300       ?GetColor@Edit@@QAEHPAUColorItem@@H@Z 0042b300 f   edit.obj
 0001:0002a340       ?Xlat@Edit@@QAEX_N@Z       0042b340 f   edit.obj
 0001:0002a4e0       ?KeyMatchedMask@Edit@@AAEHH@Z 0042b4e0 f   edit.obj
 0001:0002a5d0       ?CheckCharMask@Edit@@AAEH_W@Z 0042b5d0 f   edit.obj
 0001:0002a600       ?SetDialogParent@Edit@@QAEXK@Z 0042b600 f   edit.obj
 0001:0002a660       ?Changed@Edit@@UAEX_N@Z    0042b660 f   edit.obj
 0001:0002a680       ??0EditControl@@QAE@PAVScreenObject@@PAUCallback@Edit@@_NPAVHistory@@PAUFarList@@K@Z 0042b680 f   edit.obj
 0001:0002a6f0       ?Show@EditControl@@UAEXXZ  0042b6f0 f   edit.obj
 0001:0002a720       ?EnableAC@EditControl@@QAEX_N@Z 0042b720 f   edit.obj
 0001:0002a760       ?DisableAC@EditControl@@QAEX_N@Z 0042b760 f   edit.obj
 0001:0002a7a0       ?Delete@?$DList@UHistoryRecord@@@@QAEPAUHistoryRecord@@PAU2@@Z 0042b7a0 f i edit.obj
 0001:0002a7b0       ?WordDiv@Edit@@AAEPB_WXZ   0042b7b0 f i edit.obj
 0001:0002a7c0       ?Delete@History@@QAEXPAUHistoryRecord@@@Z 0042b7c0 f i edit.obj
 0001:0002a7f0       ??_EEdit@@UAEPAXI@Z        0042b7f0 f i edit.obj
 0001:0002a7f0       ??_GEdit@@UAEPAXI@Z        0042b7f0 f i edit.obj
 0001:0002a850       ?GetNextCursorPos@Edit@@AAEHHH@Z 0042b850 f   edit.obj
 0001:0002a970       ?GetString@Edit@@QAEXPA_WH@Z 0042b970 f   edit.obj
 0001:0002a9d0       ?GetSelString@Edit@@QAEHPA_WH@Z 0042b9d0 f   edit.obj
 0001:0002aa40       ?RefreshStrByMask@Edit@@AAEXH@Z 0042ba40 f   edit.obj
 0001:0002ab20       ?Search@Edit@@QAEHABVUnicodeString@@AAV2@HHHHHPAH@Z 0042bb20 f   edit.obj
 0001:0002ae70       ?SetTabCurPos@Edit@@QAEXH@Z 0042be70 f   edit.obj
 0001:0002af10       ?RealPosToTab@Edit@@AAEHHHHPAH@Z 0042bf10 f   edit.obj
 0001:0002afe0       ?DeleteBlock@Edit@@AAEXXZ  0042bfe0 f   edit.obj
 0001:0002b0f0       ??_GEditControl@@UAEPAXI@Z 0042c0f0 f i edit.obj
 0001:0002b0f0       ??_EEditControl@@UAEPAXI@Z 0042c0f0 f i edit.obj
 0001:0002b150       ?SetMenuPos@EditControl@@AAEXAAVVMenu@@@Z 0042c150 f   edit.obj
 0001:0002b230       ?DisplayObject@Edit@@EAEXXZ 0042c230 f   edit.obj
 0001:0002b300       ?VMProcess@Edit@@UAE_JHPAX_J@Z 0042c300 f   edit.obj
 0001:0002b550       ?InsertKey@Edit@@AAEHH@Z   0042c550 f   edit.obj
 0001:0002b820       ?SetBinaryString@Edit@@QAEXPB_WH@Z 0042c820 f   edit.obj
 0001:0002ba00       ?InsertBinaryString@Edit@@QAEXPB_WH@Z 0042ca00 f   edit.obj
 0001:0002bc70       ?SetInputMask@Edit@@QAEXPB_W@Z 0042cc70 f   edit.obj
 0001:0002bcc0       ?ProcessMouse@Edit@@UAEHPAU_MOUSE_EVENT_RECORD@@@Z 0042ccc0 f   edit.obj
 0001:0002bdf0       ?RealPosToTab@Edit@@QAEHH@Z 0042cdf0 f   edit.obj
 0001:0002be10       ?ApplyColor@Edit@@AAEXXZ   0042ce10 f   edit.obj
 0001:0002bfd0       ?EnumFiles@@YAXAAVVMenu@@PB_W@Z 0042cfd0 f   edit.obj
 0001:0002c4d0       ?ProcessMouse@EditControl@@UAEHPAU_MOUSE_EVENT_RECORD@@@Z 0042d4d0 f   edit.obj
 0001:0002c5e0       ?ProcessCtrlQ@Edit@@AAEHXZ 0042d5e0 f   edit.obj
 0001:0002c640       ?SetHiString@Edit@@QAEXPB_W@Z 0042d640 f   edit.obj
 0001:0002c6d0       ?SetString@Edit@@QAEXPB_WH@Z 0042d6d0 f   edit.obj
 0001:0002c720       ?InsertString@Edit@@QAEXPB_W@Z 0042d720 f   edit.obj
 0001:0002c760       ?GetTabCurPos@Edit@@QAEHXZ 0042d760 f   edit.obj
 0001:0002c770       ?AutoCompleteProc@EditControl@@AAEH_N0AAH@Z 0042d770 f   edit.obj
 0001:0002d1e0       ?AutoComplete@EditControl@@QAEX_N0@Z 0042e1e0 f   edit.obj
 0001:0002d250       ?FastShow@Edit@@UAEXXZ     0042e250 f   edit.obj
 0001:0002d760       ?ProcessInsPath@Edit@@AAEHHHH@Z 0042e760 f   edit.obj
 0001:0002d940       ?ProcessInsPlainText@Edit@@AAEHPB_W@Z 0042e940 f   edit.obj
 0001:0002d9a0       ?Changed@EditControl@@UAEX_N@Z 0042e9a0 f   edit.obj
 0001:0002d9e0       ?ProcessKey@Edit@@UAEHH@Z  0042e9e0 f   edit.obj
 0001:0002f110       ?Count@CDList@@QBEIXZ      00430110 f i editor.obj
 0001:0002f120       ?Empty@CDList@@QBE_NXZ     00430120 f i editor.obj
 0001:0002f130       ??0EditorUndoData@@QAE@XZ  00430130 f i editor.obj
 0001:0002f160       ??1EditorUndoData@@QAE@XZ  00430160 f i editor.obj
 0001:0002f170       ?SetNeedCheckUnmark@EditorBlockGuard@Editor@@QAEX_N@Z 00430170 f i editor.obj
 0001:0002f180       ?SetAutoIndent@Editor@@QAEXH@Z 00430180 f i editor.obj
 0001:0002f190       ?SetCharCodeBase@Editor@@QAEXH@Z 00430190 f i editor.obj
 0001:0002f1c0       ?SetTabSize@Edit@@QAEXH@Z  004301c0 f i editor.obj
 0001:0002f1d0       ?SetShowWhiteSpace@Edit@@QAEXH@Z 004301d0 f i editor.obj
 0001:0002f1f0       ?SetConvertTabs@Edit@@QAEXH@Z 004301f0 f i editor.obj
 0001:0002f200       ?GetConvertTabs@Edit@@QAEHXZ 00430200 f i editor.obj
 0001:0002f210       ?SetEditorMode@Edit@@QAEXH@Z 00430210 f i editor.obj
 0001:0002f230       ?IsFullScreen@FileEditor@@QAE_NXZ 00430230 f i editor.obj
 0001:0002f240       ?CodepageChangedByUser@FileEditor@@QAEXXZ 00430240 f i editor.obj
 0001:0002f250       ?GetLockCount@ScreenBuf@@QAEHXZ 00430250 f i editor.obj
 0001:0002f260       ??0?$DList@UEditorUndoData@@@@QAE@XZ 00430260 f i editor.obj
 0001:0002f280       ?SetRawData@Editor@@QAEHPB_WHH@Z 00430280 f   editor.obj
 0001:0002f290       ?GetRawData@Editor@@QAEHPAPA_WAAHH@Z 00430290 f   editor.obj
 0001:0002f2a0       ?TextChanged@Editor@@AAEXH@Z 004302a0 f   editor.obj
 0001:0002f2d0       ?CheckLine@Editor@@AAE_NPAVEdit@@@Z 004302d0 f   editor.obj
 0001:0002f300       ?Contains@UnicodeString@@QBE_N_WI@Z 00430300 f i editor.obj
 0001:0002f330       ?CalcDistance@Editor@@AAEHPAVEdit@@0H@Z 00430330 f   editor.obj
 0001:0002f370       ?Down@Editor@@AAEXXZ       00430370 f   editor.obj
 0001:0002f3d0       ?ScrollDown@Editor@@AAEXXZ 004303d0 f   editor.obj
 0001:0002f440       ?Up@Editor@@AAEXXZ         00430440 f   editor.obj
 0001:0002f480       ?ScrollUp@Editor@@AAEXXZ   00430480 f   editor.obj
 0001:0002f4d0       ?Block2Text@Editor@@AAEPA_WPA_W@Z 004304d0 f   editor.obj
 0001:0002f660       ?UnmarkBlock@Editor@@AAEXXZ 00430660 f   editor.obj
 0001:0002f720       ?UnmarkEmptyBlock@Editor@@AAEXXZ 00430720 f   editor.obj
 0001:0002f7a0       ?UnmarkMacroBlock@Editor@@AAEXXZ 004307a0 f   editor.obj
 0001:0002f7c0       ?GoToLine@Editor@@AAEXH@Z  004307c0 f   editor.obj
 0001:0002f8e0       ?SelectAll@Editor@@AAEXXZ  004308e0 f   editor.obj
 0001:0002f930       ?SetStartPos@Editor@@QAEXHH@Z 00430930 f   editor.obj
 0001:0002f960       ?IsFileChanged@Editor@@QBEHXZ 00430960 f   editor.obj
 0001:0002f970       ?IsFileModified@Editor@@QBEHXZ 00430970 f   editor.obj
 0001:0002f980       ?GetCurPos@Editor@@QAEJ_N0@Z 00430980 f   editor.obj
 0001:0002faa0       ?VBlock2Text@Editor@@AAEPA_WPA_W@Z 00430aa0 f   editor.obj
 0001:0002fc80       ?SetBookmark@Editor@@AAEHK@Z 00430c80 f   editor.obj
 0001:0002fd20       ?GotoBookmark@Editor@@AAEHK@Z 00430d20 f   editor.obj
 0001:0002fde0       ?ClearStackBookmarks@Editor@@AAEHXZ 00430de0 f   editor.obj
 0001:0002fe60       ?DeleteStackBookmark@Editor@@AAEHPAUInternalEditorStackBookMark@@@Z 00430e60 f   editor.obj
 0001:0002fec0       ?RestoreStackBookmark@Editor@@AAEHXZ 00430ec0 f   editor.obj
 0001:0002ff70       ?AddStackBookmark@Editor@@AAEHH@Z 00430f70 f   editor.obj
 0001:00030050       ?PointerToFirstStackBookmark@Editor@@AAEPAUInternalEditorStackBookMark@@PAH@Z 00431050 f   editor.obj
 0001:00030080       ?PointerToLastStackBookmark@Editor@@AAEPAUInternalEditorStackBookMark@@PAH@Z 00431080 f   editor.obj
 0001:000300b0       ?PointerToStackBookmark@Editor@@AAEPAUInternalEditorStackBookMark@@H@Z 004310b0 f   editor.obj
 0001:000300f0       ?PrevStackBookmark@Editor@@AAEHXZ 004310f0 f   editor.obj
 0001:00030110       ?NextStackBookmark@Editor@@AAEHXZ 00431110 f   editor.obj
 0001:00030130       ?LastStackBookmark@Editor@@AAEHXZ 00431130 f   editor.obj
 0001:00030160       ?GotoStackBookmark@Editor@@AAEHH@Z 00431160 f   editor.obj
 0001:000301a0       ?PushStackBookMark@Editor@@AAEHXZ 004311a0 f   editor.obj
 0001:000301d0       ?PopStackBookMark@Editor@@AAEHXZ 004311d0 f   editor.obj
 0001:00030220       ?CurrentStackBookmarkIdx@Editor@@AAEHXZ 00431220 f   editor.obj
 0001:00030240       ?GetStackBookmark@Editor@@AAEHHPAUEditorBookMarks@@@Z 00431240 f   editor.obj
 0001:000302a0       ?GetStackBookmarks@Editor@@AAEHPAUEditorBookMarks@@@Z 004312a0 f   editor.obj
 0001:00030350       ?GetStringByNumber@Editor@@AAEPAVEdit@@H@Z 00431350 f   editor.obj
 0001:00030440       ?SetReplaceMode@Editor@@SAXH@Z 00431440 f   editor.obj
 0001:00030450       ?GetLineCurPos@Editor@@QAEHXZ 00431450 f   editor.obj
 0001:00030460       ?BeginVBlockMarking@Editor@@QAEXXZ 00431460 f   editor.obj
 0001:000304b0       ?AdjustVBlock@Editor@@QAEXH@Z 004314b0 f   editor.obj
 0001:00030530       ?SetTabSize@Editor@@QAEXH@Z 00431530 f   editor.obj
 0001:00030570       ?SetConvertTabs@Editor@@QAEXH@Z 00431570 f   editor.obj
 0001:000305a0       ?SetDelRemovesBlocks@Editor@@QAEXH@Z 004315a0 f   editor.obj
 0001:000305e0       ?SetShowWhiteSpace@Editor@@QAEXH@Z 004315e0 f   editor.obj
 0001:00030620       ?SetPersistentBlocks@Editor@@QAEXH@Z 00431620 f   editor.obj
 0001:00030660       ?SetCursorBeyondEOL@Editor@@QAEXH@Z 00431660 f   editor.obj
 0001:000306c0       ?GetSavePosMode@Editor@@QAEXAAH0@Z 004316c0 f   editor.obj
 0001:000306e0       ?SetSavePosMode@Editor@@QAEXHH@Z 004316e0 f   editor.obj
 0001:00030710       ?CreateString@Editor@@QAEPAVEdit@@PB_WH@Z 00431710 f   editor.obj
 0001:000307f0       ?InsertString@Editor@@QAEPAVEdit@@PB_WHPAV2@H@Z 004317f0 f   editor.obj
 0001:00030870       ?SetCacheParams@Editor@@QAEXPAUEditorCacheParams@@_N@Z 00431870 f   editor.obj
 0001:00030ab0       ?GetCacheParams@Editor@@QAEXPAUEditorCacheParams@@@Z 00431ab0 f   editor.obj
 0001:00030b50       ?SetCodePage@Editor@@QAE_NI@Z 00431b50 f   editor.obj
 0001:00030bb0       ?GetCodePage@Editor@@QAEIXZ 00431bb0 f   editor.obj
 0001:00030bc0       ?SetDialogParent@Editor@@QAEXK@Z 00431bc0 f   editor.obj
 0001:00030bd0       ?SetOvertypeMode@Editor@@QAEXH@Z 00431bd0 f   editor.obj
 0001:00030be0       ?GetOvertypeMode@Editor@@QAEHXZ 00431be0 f   editor.obj
 0001:00030bf0       ?SetEditBeyondEnd@Editor@@QAEXH@Z 00431bf0 f   editor.obj
 0001:00030c00       ?SetClearFlag@Editor@@QAEXH@Z 00431c00 f   editor.obj
 0001:00030c10       ?GetClearFlag@Editor@@QAEHXZ 00431c10 f   editor.obj
 0001:00030c20       ?GetCurCol@Editor@@QAEHXZ  00431c20 f   editor.obj
 0001:00030c30       ?SetCurPos@Editor@@QAEXHH@Z 00431c30 f   editor.obj
 0001:00030c60       ?SetCursorType@Editor@@QAEX_NK@Z 00431c60 f   editor.obj
 0001:00030c70       ?GetCursorType@Editor@@QAEXAA_NAAK@Z 00431c70 f   editor.obj
 0001:00030c80       ?SetObjectColor@Editor@@QAEXHHH@Z 00431c80 f   editor.obj
 0001:00030cb0       ?DrawScrollbar@Editor@@QAEXXZ 00431cb0 f   editor.obj
 0001:00030d30       ??1?$DList@UEditorUndoData@@@@UAE@XZ 00431d30 f i editor.obj
 0001:00030d40       ?Push@?$DList@UEditorUndoData@@@@QAEPAUEditorUndoData@@PBU2@@Z 00431d40 f i editor.obj
 0001:00030d50       ?Delete@?$DList@UEditorUndoData@@@@QAEPAUEditorUndoData@@PAU2@@Z 00431d50 f i editor.obj
 0001:00030d60       ??1TNode@?$DList@UEditorUndoData@@@@QAE@XZ 00431d60 f i editor.obj
 0001:00030d70       ?Node2Type@?$DList@UEditorUndoData@@@@AAEPAUEditorUndoData@@PAUNode@CDList@@@Z 00431d70 f i editor.obj
 0001:00030d90       ?Type2Node@?$DList@UEditorUndoData@@@@AAEPAUNode@CDList@@PBUEditorUndoData@@@Z 00431d90 f i editor.obj
 0001:00030db0       ??0TNode@?$DList@UEditorUndoData@@@@QAE@PAUEditorUndoData@@@Z 00431db0 f i editor.obj
 0001:00030df0       ??$Max@I@@YAABIABI0@Z      00431df0 f i editor.obj
 0001:00030e10       ?CopyTo@EditorOptions@@QAEXAAU1@@Z 00431e10 f i editor.obj
 0001:00030ed0       ?SetData@EditorUndoData@@QAEXHPB_W0HHH@Z 00431ed0 f i editor.obj
 0001:00030f90       ??0EditorBlockGuard@Editor@@QAE@AAV1@P81@AEXXZ@Z 00431f90 f i editor.obj
 0001:00030fb0       ??1EditorBlockGuard@Editor@@QAE@XZ 00431fb0 f i editor.obj
 0001:00030fc0       ?SetWordDiv@Editor@@QAEXPB_W@Z 00431fc0 f i editor.obj
 0001:00031010       ?GetWordDiv@Editor@@QAEPB_WXZ 00432010 f i editor.obj
 0001:00031020       ??_G?$DList@UEditorUndoData@@@@UAEPAXI@Z 00432020 f i editor.obj
 0001:00031020       ??_E?$DList@UEditorUndoData@@@@UAEPAXI@Z 00432020 f i editor.obj
 0001:00031050       ?FreeAllocatedData@Editor@@QAEX_N@Z 00432050 f   editor.obj
 0001:000310b0       ?KeepInitParameters@Editor@@QAEXXZ 004320b0 f   editor.obj
 0001:00031130       ?ShowEditor@Editor@@AAEXH@Z 00432130 f   editor.obj
 0001:00031480       ?BlockStart2NumLine@Editor@@AAEHPAH@Z 00432480 f   editor.obj
 0001:00031500       ?BlockEnd2NumLine@Editor@@AAEHPAH@Z 00432500 f   editor.obj
 0001:00031610       ?ProcessMouse@Editor@@UAEHPAU_MOUSE_EVENT_RECORD@@@Z 00432610 f   editor.obj
 0001:00031a10       ?GetRowCol@Editor@@QAEXPB_WPAH1@Z 00432a10 f   editor.obj
 0001:00031bb0       ?VCopy@Editor@@AAEXH@Z     00432bb0 f   editor.obj
 0001:00031c30       ?BackStackBookmark@Editor@@AAEHXZ 00432c30 f   editor.obj
 0001:00031ca0       ?AllocNode@?$DList@UEditorUndoData@@@@EAEPAUNode@CDList@@PAX@Z 00432ca0 f i editor.obj
 0001:00031cf0       ?First@?$DList@UEditorUndoData@@@@QAEPAUEditorUndoData@@XZ 00432cf0 f i editor.obj
 0001:00031d00       ?Last@?$DList@UEditorUndoData@@@@QAEPAUEditorUndoData@@XZ 00432d00 f i editor.obj
 0001:00031d20       ?Next@?$DList@UEditorUndoData@@@@QAEPAUEditorUndoData@@PBU2@@Z 00432d20 f i editor.obj
 0001:00031d50       ?Prev@?$DList@UEditorUndoData@@@@QAEPAUEditorUndoData@@PBU2@@Z 00432d50 f i editor.obj
 0001:00031d80       ??_GTNode@?$DList@UEditorUndoData@@@@QAEPAXI@Z 00432d80 f i editor.obj
 0001:00031db0       ??1Editor@@UAE@XZ          00432db0 f   editor.obj
 0001:00031e20       ?DisplayObject@Editor@@EAEXXZ 00432e20 f   editor.obj
 0001:00031e30       ?Copy@Editor@@AAEXH@Z      00432e30 f   editor.obj
 0001:00031ea0       ?AddUndoData@Editor@@AAEXHPB_W0HHH@Z 00432ea0 f   editor.obj
 0001:000320a0       ?DeleteVBlock@Editor@@AAEXXZ 004330a0 f   editor.obj
 0001:00032300       ?VPaste@Editor@@AAEXPA_W@Z 00433300 f   editor.obj
 0001:00032540       ?VBlockShift@Editor@@AAEXH@Z 00433540 f   editor.obj
 0001:00032860       ?Xlat@Editor@@QAEXXZ       00433860 f   editor.obj
 0001:00032b30       ?EditorShowMsg@Editor@@CAXPB_W00H@Z 00433b30 f   editor.obj
 0001:00032e10       ?PR_EditorShowMsg@Editor@@SAXXZ 00433e10 f   editor.obj
 0001:00032e40       ?DeleteNode@?$DList@UEditorUndoData@@@@EAEXPAUNode@CDList@@@Z 00433e40 f i editor.obj
 0001:00032e70       ??0Editor@@QAE@PAVScreenObject@@_N@Z 00433e70 f   editor.obj
 0001:00033050       ??_EEditor@@UAEPAXI@Z      00434050 f i editor.obj
 0001:00033050       ??_GEditor@@UAEPAXI@Z      00434050 f i editor.obj
 0001:00033070       ?DeleteString@Editor@@AAEXPAVEdit@@HHH@Z 00434070 f   editor.obj
 0001:00033440       ?InsertString@Editor@@AAEXXZ 00434440 f   editor.obj
 0001:00033bb0       ?Search@Editor@@AAEHH@Z    00434bb0 f   editor.obj
 0001:00034a20       ?Paste@Editor@@AAEXPB_W@Z  00435a20 f   editor.obj
 0001:00034cb0       ?DeleteBlock@Editor@@AAEXXZ 00435cb0 f   editor.obj
 0001:00035040       ?Undo@Editor@@AAEXH@Z      00436040 f   editor.obj
 0001:00035310       ?BlockLeft@Editor@@AAEXXZ  00436310 f   editor.obj
 0001:00035580       ?BlockRight@Editor@@AAEXXZ 00436580 f   editor.obj
 0001:00035780       ?EditorControl@Editor@@QAEHHPAX@Z 00436780 f   editor.obj
 0001:00036410       ?VMProcess@Editor@@UAE_JHPAX_J@Z 00437410 f   editor.obj
 0001:00036b40       ?GoToPosition@Editor@@AAEXXZ 00437b40 f   editor.obj
 0001:00036c90       ?ProcessKey@Editor@@UAEHH@Z 00437c90 f   editor.obj
 0001:00039a10       ?IsEjectableMedia@@YA_N_WIH@Z 0043aa10 f   eject.obj
 0001:00039b00       ?EjectVolume@@YAH_WK@Z     0043ab00 f   eject.obj
 0001:00039db0       ?ManagerIsDown@Manager@@QAEHXZ 0043adb0 f i elevation.obj
 0001:00039dc0       ??0Event@@QAE@_N0@Z        0043adc0 f i elevation.obj
 0001:00039df0       ??1Event@@QAE@XZ           0043adf0 f i elevation.obj
 0001:00039e00       ?Set@Event@@QBE_NXZ        0043ae00 f i elevation.obj
 0001:00039e10       ?Wait@Event@@QBE_NK@Z      0043ae10 f i elevation.obj
 0001:00039e30       ?Handle@Event@@QBEPAXXZ    0043ae30 f i elevation.obj
 0001:00039e40       ?Free@AutoObject@@QAEXXZ   0043ae40 f i elevation.obj
 0001:00039e60       ?Get@AutoObject@@QAEPAXXZ  0043ae60 f i elevation.obj
 0001:00039e70       ?GetStr@AutoObject@@QAEPB_WXZ 0043ae70 f i elevation.obj
 0001:00039e80       ?RawReadPipe@@YA_NPAX0K@Z  0043ae80 f   elevation.obj
 0001:00039ec0       ?RawWritePipe@@YA_NPAXPBXK@Z 0043aec0 f   elevation.obj
 0001:00039f00       ?ReadPipeInt@@YA_NPAXAAH@Z 0043af00 f   elevation.obj
 0001:00039f30       ?ReadPipeInt64@@YA_NPAXAA_J@Z 0043af30 f   elevation.obj
 0001:00039f60       ?WritePipeInt@@YA_NPAXH@Z  0043af60 f   elevation.obj
 0001:00039f90       ?WritePipeInt64@@YA_NPAX_J@Z 0043af90 f   elevation.obj
 0001:00039fc0       ?WritePipeData@@YA_NPAXPBXH@Z 0043afc0 f   elevation.obj
 0001:0003a030       ?ResetApprove@elevation@@QAEXXZ 0043b030 f   elevation.obj
 0001:0003a060       ?WriteData@elevation@@ABE_NPBXK@Z 0043b060 f   elevation.obj
 0001:0003a080       ?ReadInt@elevation@@ABE_NAAH@Z 0043b080 f   elevation.obj
 0001:0003a0b0       ?ReadInt64@elevation@@ABE_NAA_J@Z 0043b0b0 f   elevation.obj
 0001:0003a0e0       ?WriteInt@elevation@@ABE_NH@Z 0043b0e0 f   elevation.obj
 0001:0003a120       ?WriteInt64@elevation@@ABE_N_J@Z 0043b120 f   elevation.obj
 0001:0003a170       ?SendCommand@elevation@@ABE_NW4ADMIN_COMMAND@@@Z 0043b170 f   elevation.obj
 0001:0003a1b0       ?ReceiveLastError@elevation@@ABE_NXZ 0043b1b0 f   elevation.obj
 0001:0003a1f0       ?AdminApproveDlgProc@@YGJPAXHHJ@Z 0043b1f0 f   elevation.obj
 0001:0003a240       ??0AAData@@QAE@PAVEvent@@HPB_WAA_N22@Z 0043b240 f i elevation.obj
 0001:0003a270       ??_GEvent@@QAEPAXI@Z       0043b270 f i elevation.obj
 0001:0003a2a0       ?ElevationRequired@@YA_NW4ELEVATION_MODE@@@Z 0043b2a0 f   elevation.obj
 0001:0003a2f0       ?IsUserAdmin@@YA_NXZ       0043b2f0 f   elevation.obj
 0001:0003a370       ?AdminCopyProgressRoutine@@YGKT_LARGE_INTEGER@@000KKPAX11@Z 0043b370 f   elevation.obj
 0001:0003a550       ??0AutoObject@@QAE@XZ      0043b550 f i elevation.obj
 0001:0003a560       ?Allocate@AutoObject@@QAEPAXI@Z 0043b560 f i elevation.obj
 0001:0003a590       ??1AutoObject@@QAE@XZ      0043b590 f i elevation.obj
 0001:0003a5b0       ?ReadPipeData@@YA_NPAXAAVAutoObject@@@Z 0043b5b0 f   elevation.obj
 0001:0003a650       ??0DisableElevation@@QAE@XZ 0043b650 f   elevation.obj
 0001:0003a670       ??1DisableElevation@@QAE@XZ 0043b670 f   elevation.obj
 0001:0003a680       ?ReadData@elevation@@ABE_NAAVAutoObject@@@Z 0043b680 f   elevation.obj
 0001:0003a6a0       ?fCallbackRoutine@elevation@@QBEXP6GKT_LARGE_INTEGER@@000KKPAX11@Z@Z 0043b6a0 f   elevation.obj
 0001:0003a820       ?CreateDirectoryExHandler@@YAXXZ 0043b820 f   elevation.obj
 0001:0003a8f0       ?RemoveDirectoryHandler@@YAXXZ 0043b8f0 f   elevation.obj
 0001:0003a990       ?DeleteFileHandler@@YAXXZ  0043b990 f   elevation.obj
 0001:0003aa30       ?CopyFileExHandler@@YAXXZ  0043ba30 f   elevation.obj
 0001:0003ab70       ?MoveFileExHandler@@YAXXZ  0043bb70 f   elevation.obj
 0001:0003ac50       ?GetFileAttributesHandler@@YAXXZ 0043bc50 f   elevation.obj
 0001:0003acf0       ?SetFileAttributesHandler@@YAXXZ 0043bcf0 f   elevation.obj
 0001:0003adb0       ?CreateHardLinkHandler@@YAXXZ 0043bdb0 f   elevation.obj
 0001:0003ae80       ?CreateSymbolicLinkHandler@@YAXXZ 0043be80 f   elevation.obj
 0001:0003af60       ?MoveToRecycleBinHandler@@YAXXZ 0043bf60 f   elevation.obj
 0001:0003b040       ?SetOwnerHandler@@YAXXZ    0043c040 f   elevation.obj
 0001:0003b110       ?CreateFileHandler@@YAXXZ  0043c110 f   elevation.obj
 0001:0003b2a0       ?Process@@YA_NH@Z          0043c2a0 f   elevation.obj
 0001:0003b360       ??0elevation@@QAE@XZ       0043c360 f   elevation.obj
 0001:0003b3b0       ??1elevation@@QAE@XZ       0043c3b0 f   elevation.obj
 0001:0003b420       ?AdminMain@@YAHPB_WK_N@Z   0043c420 f   elevation.obj
 0001:0003b730       ?Initialize@elevation@@AAE_NXZ 0043c730 f   elevation.obj
 0001:0003bb70       ?AdminApproveDlgSync@@YAXPAX@Z 0043cb70 f   elevation.obj
 0001:0003bfc0       ?AdminApproveDlg@elevation@@AAE_NHPB_W@Z 0043cfc0 f   elevation.obj
 0001:0003c0f0       ?fCreateDirectoryEx@elevation@@QAE_NPB_W0PAU_SECURITY_ATTRIBUTES@@@Z 0043d0f0 f   elevation.obj
 0001:0003c250       ?fRemoveDirectory@elevation@@QAE_NPB_W@Z 0043d250 f   elevation.obj
 0001:0003c360       ?fDeleteFile@elevation@@QAE_NPB_W@Z 0043d360 f   elevation.obj
 0001:0003c470       ?fCopyFileEx@elevation@@QAE_NPB_W0P6GKT_LARGE_INTEGER@@111KKPAX22@Z2PAHK@Z 0043d470 f   elevation.obj
 0001:0003c640       ?fMoveFileEx@elevation@@QAE_NPB_W0K@Z 0043d640 f   elevation.obj
 0001:0003c7b0       ?fGetFileAttributes@elevation@@QAEKPB_W@Z 0043d7b0 f   elevation.obj
 0001:0003c8c0       ?fSetFileAttributes@elevation@@QAE_NPB_WK@Z 0043d8c0 f   elevation.obj
 0001:0003c9f0       ?fCreateHardLink@elevation@@QAE_NPB_W0PAU_SECURITY_ATTRIBUTES@@@Z 0043d9f0 f   elevation.obj
 0001:0003cb50       ?fCreateSymbolicLink@elevation@@QAE_NPB_W0K@Z 0043db50 f   elevation.obj
 0001:0003ccc0       ?fMoveToRecycleBin@elevation@@QAEHAAU_SHFILEOPSTRUCTW@@@Z 0043dcc0 f   elevation.obj
 0001:0003ce30       ?fSetOwner@elevation@@QAE_NPB_W0@Z 0043de30 f   elevation.obj
 0001:0003cf80       ?fCreateFile@elevation@@QAEPAXPB_WKKPAU_SECURITY_ATTRIBUTES@@KKPAX@Z 0043df80 f   elevation.obj
 0001:0003d110       ?wcspbrk@@YAPA_WPA_WPB_W@Z 0043e110 f i execute.obj
 0001:0003d120       ?SetLockCount@ScreenBuf@@QAEXH@Z 0043e120 f i execute.obj
 0001:0003d260       ?IsProperProgID@@YA_NPB_W@Z 0043e260 f   execute.obj
 0001:0003d2a0       ??_G?$FarQueue@K@@QAEPAXI@Z 0043e2a0 f i execute.obj
 0001:0003d2c0       ?Replace@UnicodeString@@QAEAAV1@II_W@Z 0043e2c0 f i execute.obj
 0001:0003d2e0       ?CheckCmdLineForHelp@CommandLine@@AAE_NPB_W@Z 0043e2e0 f   execute.obj
 0001:0003d330       ?CheckCmdLineForSet@CommandLine@@AAE_NABVUnicodeString@@@Z 0043e330 f   execute.obj
 0001:0003d370       ?Peek@?$TStack@UPushPopRecord@@@@QAEPAUPushPopRecord@@XZ 0043e370 f i execute.obj
 0001:0003d380       ??4PushPopRecord@@QAEABU0@ABU0@@Z 0043e380 f i execute.obj
 0001:0003d3a0       ?SearchExtHandlerFromList@@YA_NPAUHKEY__@@AAVUnicodeString@@@Z 0043e3a0 f   execute.obj
 0001:0003d4b0       ?PartCmdLine@@YAHABVUnicodeString@@AAV1@1@Z 0043e4b0 f   execute.obj
 0001:0003d5d0       ??0PushPopRecord@@QAE@XZ   0043e5d0 f i execute.obj
 0001:0003d5e0       ?ProcessOSAliases@@YA_NAAVUnicodeString@@@Z 0043e5e0 f   execute.obj
 0001:0003d810       ??0OneItem@?$TStack@UPushPopRecord@@@@QAE@XZ 0043e810 f i execute.obj
 0001:0003d820       ?GetShellType@@YA_NPB_WAAVUnicodeString@@W4ASSOCIATIONTYPE@@@Z 0043e820 f   execute.obj
 0001:0003dac0       ?RunAsSupported@@YA_NPB_W@Z 0043eac0 f   execute.obj
 0001:0003dba0       ?IntChDir@CommandLine@@AAEHPB_WH_N@Z 0043eba0 f   execute.obj
 0001:0003dfb0       ?Push@?$TStack@UPushPopRecord@@@@QAEPAUPushPopRecord@@ABU2@@Z 0043efb0 f i execute.obj
 0001:0003dff0       ?GetShellAction@@YAPB_WPB_WAAK1@Z 0043eff0 f   execute.obj
 0001:0003ed20       ?PrepareOSIfExist@@YAPB_WPB_W@Z 0043fd20 f   execute.obj
 0001:0003f230       ?IsBatchExtType@@YA_NPB_W@Z 00440230 f   execute.obj
 0001:0003f2d0       ?Pop@?$TStack@UPushPopRecord@@@@QAEPAUPushPopRecord@@AAU2@@Z 004402d0 f i execute.obj
 0001:0003f330       ?Execute@@YAHPB_W_N111111@Z 00440330 f   execute.obj
 0001:00040400       ?ProcessOSCommands@CommandLine@@AAEHPB_W_NAA_N@Z 00441400 f   execute.obj
 0001:00040de0       ?CmdExecute@CommandLine@@AAEHPB_W_N11111@Z 00441de0 f   execute.obj
 0001:00041100       ?WriteEvent@@YAHKPAU_EXCEPTION_POINTERS@@PAVPlugin@@PAXKKK@Z 00442100 f   farexcpt.obj
 0001:00041110       ?GetFunctionName@@YAPB_WH@Z 00442110 f   farexcpt.obj
 0001:00041270       ?ExcDlgProc@@YGJPAXHHJ@Z   00442270 f   farexcpt.obj
 0001:00041360       ?ExcDialog@@YA_NPB_W0PAX@Z 00442360 f   farexcpt.obj
 0001:00042240       ?xfilter@@YGKHPAU_EXCEPTION_POINTERS@@PAVPlugin@@K@Z 00443240 f   farexcpt.obj
 0001:000422c0       ?increment@?$FarQueue@K@@AAEXAAH@Z 004432c0 f i farqueue.obj
 0001:000422e0       ??1?$FarQueue@K@@QAE@XZ    004432e0 f i farqueue.obj
 0001:000422f0       ?Init@?$FarQueue@K@@QAEHH@Z 004432f0 f i farqueue.obj
 0001:00042350       ?isEmpty@?$FarQueue@K@@QBEHXZ 00443350 f i farqueue.obj
 0001:00042360       ?isFull@?$FarQueue@K@@QBEHXZ 00443360 f i farqueue.obj
 0001:00042370       ?Peek@?$FarQueue@K@@QBEKXZ 00443370 f i farqueue.obj
 0001:00042390       ?Get@?$FarQueue@K@@QAEKXZ  00443390 f i farqueue.obj
 0001:000423c0       ?Put@?$FarQueue@K@@QAEHABK@Z 004433c0 f i farqueue.obj
 0001:00042400       ??0?$FarQueue@K@@QAE@H@Z   00443400 f i farqueue.obj
 0001:00042420       ?InsufficientMemoryHandler@@YA_NXZ 00443420 f   farrtl.obj
 0001:000424d0       _xf_malloc                 004434d0 f   farrtl.obj
 0001:00042500       ?xf_expand@@YAPAXPAXI@Z    00443500 f   farrtl.obj
 0001:00042510       _xf_realloc                00443510 f   farrtl.obj
 0001:00042550       _xf_free                   00443550 f   farrtl.obj
 0001:00042560       ??2@YAPAXI@Z               00443560 f   farrtl.obj
 0001:00042590       ??_U@YAPAXI@Z              00443590 f   farrtl.obj
 0001:000425c0       ??3@YAXPAX@Z               004435c0 f   farrtl.obj
 0001:000425d0       ??_V@YAXPAX@Z              004435d0 f   farrtl.obj
 0001:000425e0       ?ftell64@@YA_JPAU_iobuf@@@Z 004435e0 f   farrtl.obj
 0001:000425f0       ?fseek64@@YAHPAU_iobuf@@_JH@Z 004435f0 f   farrtl.obj
 0001:00042610       ?filelen@@YAJPAU_iobuf@@@Z 00443610 f   farrtl.obj
 0001:00042650       ?filelen64@@YA_JPAU_iobuf@@@Z 00443650 f   farrtl.obj
 0001:00042690       _xf_strdup                 00443690 f   farrtl.obj
 0001:000426e0       _xf_wcsdup                 004436e0 f   farrtl.obj
 0001:00042740       _xstrncpy                  00443740 f   farrtl.obj
 0001:00042770       _xwcsncpy                  00443770 f   farrtl.obj
 0001:000427b0       _xstrncat                  004437b0 f   farrtl.obj
 0001:000427f0       _xwcsncat                  004437f0 f   farrtl.obj
 0001:00042900       _xf_realloc_nomove         00443900 f   farrtl.obj
 0001:00042970       _qsortex                   00443970 f   farrtl.obj
 0001:00042ca0       ?qsort_b@@YAXPAXIIP6AHPBX1@Z@Z 00443ca0 f   farrtl.obj
 0001:00042f30       ?qsort_m@@YAXPAXIIP6AHPBX1@Z@Z 00443f30 f   farrtl.obj
 0001:00043190       _far_qsort                 00444190 f   farrtl.obj
 0001:000431b0       ?GetOemPluginsCount@PluginManager@@QAEHXZ 004441b0 f i farwinapi.obj
 0001:000431c0       ?SyncPointer@File@@AAEXXZ  004441c0 f i farwinapi.obj
 0001:000431f0       ?Read@File@@QAE_NPAXKAAKPAU_OVERLAPPED@@@Z 004441f0 f   farwinapi.obj
 0001:00043260       ?Write@File@@QAE_NPBXKAAKPAU_OVERLAPPED@@@Z 00444260 f   farwinapi.obj
 0001:000432e0       ?SetEnd@File@@QAE_NXZ      004442e0 f   farwinapi.obj
 0001:00043320       ?FlushBuffers@File@@QAE_NXZ 00444320 f   farwinapi.obj
 0001:00043330       ?GetInformation@File@@QAE_NAAU_BY_HANDLE_FILE_INFORMATION@@@Z 00444330 f   farwinapi.obj
 0001:00043350       ?IoControl@File@@QAE_NKPAXK0KPAKPAU_OVERLAPPED@@@Z 00444350 f   farwinapi.obj
 0001:00043390       ?GetStorageDependencyInformation@File@@QAE_NW4_GET_STORAGE_DEPENDENCY_FLAG@@KPAU_STORAGE_DEPENDENCY_INFO@@PAK@Z 00444390 f   farwinapi.obj
 0001:000433e0       ?Close@File@@QAE_NXZ       004443e0 f   farwinapi.obj
 0001:00043410       ?GetLastNtStatus@@YAJXZ    00444410 f   farwinapi.obj
 0001:00043420       ?apiWNetGetConnection@@YAKPB_WAAVUnicodeString@@@Z 00444420 f   farwinapi.obj
 0001:00043480       ?apiGetVolumeInformation@@YAHPB_WPAVUnicodeString@@PAK221@Z 00444480 f   farwinapi.obj
 0001:00043510       ?apiFreeFindData@@YAXPAUFAR_FIND_DATA@@@Z 00444510 f   farwinapi.obj
 0001:00043530       ?apiGetFileSizeEx@@YA_NPAXAA_K@Z 00444530 f   farwinapi.obj
 0001:00043590       ?apiRegEnumKeyEx@@YAHPAUHKEY__@@KAAVUnicodeString@@PAU_FILETIME@@@Z 00444590 f   farwinapi.obj
 0001:000435f0       ?apiFindNextFileName@@YAHPAXAAVUnicodeString@@@Z 004445f0 f   farwinapi.obj
 0001:00043670       ?CreateSymbolicLinkInternal@@YA_NPB_W0K@Z 00444670 f   farwinapi.obj
 0001:000436c0       ?CreateHardLinkInternal@@YA_NPB_W0PAU_SECURITY_ATTRIBUTES@@@Z 004446c0 f   farwinapi.obj
 0001:00043710       ?apiFindNextStream@@YAHPAX0@Z 00444710 f   farwinapi.obj
 0001:000437b0       ?apiFindStreamClose@@YAHPAX@Z 004447b0 f   farwinapi.obj
 0001:000437f0       ?apiGetLogicalDriveStrings@@YA_NAAVUnicodeString@@@Z 004447f0 f   farwinapi.obj
 0001:00043850       ?apiSearchPath@@YA_NPB_W00AAVUnicodeString@@@Z 00444850 f   farwinapi.obj
 0001:000438b0       ?apiQueryDosDevice@@YA_NPB_WAAVUnicodeString@@@Z 004448b0 f   farwinapi.obj
 0001:00043930       ?apiEnableLowFragmentationHeap@@YAXXZ 00444930 f   farwinapi.obj
 0001:000439b0       ?GetFileTimeEx@@YA_NPAXPAU_FILETIME@@111@Z 004449b0 f   farwinapi.obj
 0001:00043a80       ?SetFileTimeEx@@YA_NPAXPBU_FILETIME@@111@Z 00444a80 f   farwinapi.obj
 0001:00043b50       ??8UnicodeString@@QBE_NABV0@@Z 00444b50 f i farwinapi.obj
 0001:00043b70       ??4FAR_FIND_DATA_EX@@QAEAAU0@ABU0@@Z 00444b70 f i farwinapi.obj
 0001:00043c00       ??0File@@QAE@XZ            00444c00 f   farwinapi.obj
 0001:00043c20       ??1File@@QAE@XZ            00444c20 f   farwinapi.obj
 0001:00043c50       ?GetTime@File@@QAE_NPAU_FILETIME@@000@Z 00444c50 f   farwinapi.obj
 0001:00043c80       ?SetTime@File@@QAE_NPBU_FILETIME@@000@Z 00444c80 f   farwinapi.obj
 0001:00043cb0       ?GetSize@File@@QAE_NAA_K@Z 00444cb0 f   farwinapi.obj
 0001:00043cd0       ?NtQueryDirectoryFile@File@@QAE_NPAXKW4_FILE_INFORMATION_CLASS@@_NPB_W2@Z 00444cd0 f   farwinapi.obj
 0001:00043d70       ?Eof@File@@QAE_NXZ         00444d70 f   farwinapi.obj
 0001:00043dc0       ?apiGetEnvironmentVariable@@YAKPB_WAAVUnicodeString@@@Z 00444dc0 f   farwinapi.obj
 0001:00043e50       ?apiGetTempPath@@YAKAAVUnicodeString@@@Z 00444e50 f   farwinapi.obj
 0001:00043ed0       ?apiGetModuleFileNameEx@@YAKPAXPAUHINSTANCE__@@AAVUnicodeString@@@Z 00444ed0 f   farwinapi.obj
 0001:00043f40       ?apiFindDataToDataEx@@YAXPBUFAR_FIND_DATA@@PAUFAR_FIND_DATA_EX@@@Z 00444f40 f   farwinapi.obj
 0001:00044010       ?apiFindDataExToData@@YAXPBUFAR_FIND_DATA_EX@@PAUFAR_FIND_DATA@@@Z 00445010 f   farwinapi.obj
 0001:00044080       ?Get@NTPath@@QBE?BVUnicodeString@@XZ 00445080 f i farwinapi.obj
 0001:000440a0       ??_GFile@@QAEPAXI@Z        004450a0 f i farwinapi.obj
 0001:000440e0       ?FindNextFileInternal@@YA_NPAXAAUFAR_FIND_DATA_EX@@@Z 004450e0 f   farwinapi.obj
 0001:00044240       ?FindCloseInternal@@YA_NPAX@Z 00445240 f   farwinapi.obj
 0001:000442a0       ??1FindFile@@QAE@XZ        004452a0 f   farwinapi.obj
 0001:000442f0       ?Get@FindFile@@QAE_NAAUFAR_FIND_DATA_EX@@@Z 004452f0 f   farwinapi.obj
 0001:00044390       ?SetPointer@File@@QAE_N_JPA_JK@Z 00445390 f   farwinapi.obj
 0001:00044430       ?apiDeleteFile@@YAHPB_W@Z  00445430 f   farwinapi.obj
 0001:000444e0       ?apiRemoveDirectory@@YAHPB_W@Z 004454e0 f   farwinapi.obj
 0001:00044590       ?apiCreateFile@@YAPAXPB_WKKPAU_SECURITY_ATTRIBUTES@@KKPAX_N@Z 00445590 f   farwinapi.obj
 0001:00044750       ?apiCopyFileEx@@YAHPB_W0P6GKT_LARGE_INTEGER@@111KKPAX22@Z2PAHK@Z 00445750 f   farwinapi.obj
 0001:000448a0       ?apiMoveFile@@YAHPB_W0@Z   004458a0 f   farwinapi.obj
 0001:000449d0       ?apiMoveFileEx@@YAHPB_W0K@Z 004459d0 f   farwinapi.obj
 0001:00044b00       ?apiGetModuleFileName@@YAKPAUHINSTANCE__@@AAVUnicodeString@@@Z 00445b00 f   farwinapi.obj
 0001:00044b20       ?apiExpandEnvironmentStrings@@YA_NPB_WAAVUnicodeString@@@Z 00445b20 f   farwinapi.obj
 0001:00044bf0       ?apiIsDiskInDrive@@YAHPB_W@Z 00445bf0 f   farwinapi.obj
 0001:00044cf0       ?apiGetFileTypeByName@@YAHPB_W@Z 00445cf0 f   farwinapi.obj
 0001:00044d30       ?apiGetDiskSize@@YAHPB_WPA_K11@Z 00445d30 f   farwinapi.obj
 0001:00044e30       ?apiFindFirstFileName@@YAPAXPB_WKAAVUnicodeString@@@Z 00445e30 f   farwinapi.obj
 0001:00044f40       ?apiCreateDirectoryEx@@YAHPB_W0PAU_SECURITY_ATTRIBUTES@@@Z 00445f40 f   farwinapi.obj
 0001:00045090       ?apiGetFileAttributes@@YAKPB_W@Z 00446090 f   farwinapi.obj
 0001:00045140       ?apiSetFileAttributes@@YAHPB_WK@Z 00446140 f   farwinapi.obj
 0001:00045200       ?apiCreateSymbolicLink@@YA_NPB_W0K@Z 00446200 f   farwinapi.obj
 0001:000452f0       ?apiGetCompressedFileSize@@YA_NPB_WAA_K@Z 004462f0 f   farwinapi.obj
 0001:00045370       ?apiCreateHardLink@@YAHPB_W0PAU_SECURITY_ATTRIBUTES@@@Z 00446370 f   farwinapi.obj
 0001:00045450       ?apiFindFirstStream@@YAPAXPB_WW4_STREAM_INFO_LEVELS@@PAXK@Z 00446450 f   farwinapi.obj
 0001:000455f0       ?internalNtQueryGetFinalPathNameByHandle@@YA_NPAXAAVUnicodeString@@@Z 004465f0 f   farwinapi.obj
 0001:000458f0       ?apiGetFinalPathNameByHandle@@YA_NPAXAAVUnicodeString@@@Z 004468f0 f   farwinapi.obj
 0001:00045a50       ?apiGetVolumeNameForVolumeMountPoint@@YA_NPB_WAAVUnicodeString@@@Z 00446a50 f   farwinapi.obj
 0001:00045b30       ?Open@File@@QAE_NPB_WKKPAU_SECURITY_ATTRIBUTES@@KKPAX_N@Z 00446b30 f   farwinapi.obj
 0001:00045b80       ?strCurrentDirectory@@YAAAVUnicodeString@@XZ 00446b80 f   farwinapi.obj
 0001:00045bb0       ?apiGetCurrentDirectory@@YAKAAVUnicodeString@@@Z 00446bb0 f   farwinapi.obj
 0001:00045c30       ?apiCreateDirectory@@YAHPB_WPAU_SECURITY_ATTRIBUTES@@@Z 00446c30 f   farwinapi.obj
 0001:00045c50       ?FindFirstFileInternal@@YAPAXPB_WAAUFAR_FIND_DATA_EX@@@Z 00446c50 f   farwinapi.obj
 0001:00045ed0       ??0FindFile@@QAE@PB_W_N@Z  00446ed0 f   farwinapi.obj
 0001:000460b0       ?apiGetFindDataEx@@YAHPB_WAAUFAR_FIND_DATA_EX@@_N@Z 004470b0 f   farwinapi.obj
 0001:00046240       ?apiSetCurrentDirectory@@YAHPB_W_N@Z 00447240 f   farwinapi.obj
 0001:000464c0       ?InitCurrentDirectory@@YAXXZ 004474c0 f   farwinapi.obj
 0001:00046570       ?ESetFileAttributes@@YAHPB_WKH@Z 00447570 f   fileattr.obj
 0001:00046780       ?ESetFileSparse@@YAHPB_W_NKH@Z 00447780 f   fileattr.obj
 0001:000468b0       ?ESetFileOwner@@YAHPB_W0H@Z 004478b0 f   fileattr.obj
 0001:00046990       ?ESetFileTime@@YAHPB_WPAU_FILETIME@@111KH@Z 00447990 f   fileattr.obj
 0001:00046ca0       ?ESetFileEncryption@@YAHPB_WHKHH@Z 00447ca0 f   fileattr.obj
 0001:00046dd0       ?ESetFileCompression@@YAHPB_WHKH@Z 00447dd0 f   fileattr.obj
 0001:00046f10       ?SetCanLoseFocus@Frame@@QAEXH@Z 00447f10 f i fileedit.obj
 0001:00046f20       ?GetDynamicallyBorn@Frame@@QAEHXZ 00447f20 f i fileedit.obj
 0001:00046f30       ?SetHostFileEditor@Editor@@QAEXPAVFileEditor@@@Z 00447f30 f i fileedit.obj
 0001:00046f40       ?PrepareResizedConsole@Editor@@QAEXXZ 00447f40 f i fileedit.obj
 0001:00046f50       ?SetAutoDetectCodePage@Editor@@QAEXH@Z 00447f50 f i fileedit.obj
 0001:00046f60       ?SetReadOnlyLock@Editor@@QAEXH@Z 00447f60 f i fileedit.obj
 0001:00046f70       ?SetShowScrollBar@Editor@@QAEXH@Z 00447f70 f i fileedit.obj
 0001:00046f80       ?SetSearchPickUpWord@Editor@@QAEXH@Z 00447f80 f i fileedit.obj
 0001:00046f90       ?Change@KeyBar@@QAEXPB_WH@Z 00447f90 f i fileedit.obj
 0001:00046fb0       ?IsUnicodeCodePage@@YA_NI@Z 00447fb0 f i fileedit.obj
 0001:00046fd0       ?IsRecording@KeyMacro@@QAEHXZ 00447fd0 f i fileedit.obj
 0001:00046fe0       ?GetLastInputRecord@Manager@@QAEPAU_INPUT_RECORD@@XZ 00447fe0 f i fileedit.obj
 0001:00046ff0       ?IsConversionValid@GetFileString@@QAE_NXZ 00447ff0 f i fileedit.obj
 0001:00047000       ?hndOpenEditor@@YGJPAXHHJ@Z 00448000 f   fileedit.obj
 0001:000470a0       ?hndSaveFileAs@@YGJPAXHHJ@Z 004480a0 f   fileedit.obj
 0001:00047210       ??_GNamesList@@QAEPAXI@Z   00448210 f i fileedit.obj
 0001:00047260       ?InitKeyBar@FileEditor@@EAEXXZ 00448260 f   fileedit.obj
 0001:000474e0       ?SetNamesList@FileEditor@@QAEXPAVNamesList@@@Z 004484e0 f   fileedit.obj
 0001:00047520       ?Show@FileEditor@@UAEXXZ   00448520 f   fileedit.obj
 0001:000475d0       ?DisplayObject@FileEditor@@EAEXXZ 004485d0 f   fileedit.obj
 0001:00047620       ?VMProcess@FileEditor@@UAE_JHPAX_J@Z 00448620 f   fileedit.obj
 0001:00047840       ?GetTypeAndName@FileEditor@@UAEHAAVUnicodeString@@0@Z 00448840 f   fileedit.obj
 0001:000478a0       ?SetScreenPosition@FileEditor@@EAEXXZ 004488a0 f   fileedit.obj
 0001:000478d0       ?OnDestroy@FileEditor@@EAEXXZ 004488d0 f   fileedit.obj
 0001:00047960       ?GetCanLoseFocus@FileEditor@@EAEHH@Z 00448960 f   fileedit.obj
 0001:00047980       ?SetLockEditor@FileEditor@@QAEXH@Z 00448980 f   fileedit.obj
 0001:000479a0       ?FastHide@FileEditor@@EAEHXZ 004489a0 f   fileedit.obj
 0001:000479b0       ?isTemporary@FileEditor@@AAEHXZ 004489b0 f   fileedit.obj
 0001:000479c0       ?ResizeConsole@FileEditor@@EAEXXZ 004489c0 f   fileedit.obj
 0001:000479d0       ?ProcessEditorInput@FileEditor@@AAEHPAU_INPUT_RECORD@@@Z 004489d0 f   fileedit.obj
 0001:000479f0       ?SetPluginTitle@FileEditor@@QAEXPB_W@Z 004489f0 f   fileedit.obj
 0001:00047a40       ?SetTitle@FileEditor@@AAEXPB_W@Z 00448a40 f   fileedit.obj
 0001:00047a90       ?ChangeEditKeyBar@FileEditor@@AAEXXZ 00448a90 f   fileedit.obj
 0001:00047af0       ?GetTitle@FileEditor@@EAEAAVUnicodeString@@AAV2@HH@Z 00448af0 f   fileedit.obj
 0001:00047b50       ?EditorGetFileAttributes@FileEditor@@AAEKPB_W@Z 00448b50 f   fileedit.obj
 0001:00047bd0       ?SetPluginData@FileEditor@@AAEXPB_W@Z 00448bd0 f   fileedit.obj
 0001:00047c20       ?SetDeleteOnClose@FileEditor@@AAEXH@Z 00448c20 f   fileedit.obj
 0001:00047c50       ?SetEditorOptions@FileEditor@@QAEXAAUEditorOptions@@@Z 00448c50 f   fileedit.obj
 0001:00047d20       ?OnChangeFocus@FileEditor@@EAEXH@Z 00448d20 f   fileedit.obj
 0001:00047d70       ?SetCodePage@FileEditor@@QAEXI@Z 00448d70 f   fileedit.obj
 0001:00047e00       ?AskOverwrite@FileEditor@@AAE_NABVUnicodeString@@@Z 00448e00 f   fileedit.obj
 0001:00047ea0       ?GetPluginData@FileEditor@@AAEPB_WXZ 00448ea0 f i fileedit.obj
 0001:00047eb0       ?SaveFile@FileEditor@@AAEHPB_WH_NHI1@Z 00448eb0 f   fileedit.obj
 0001:00048d80       ?ProcessMouse@FileEditor@@EAEHPAU_MOUSE_EVENT_RECORD@@@Z 00449d80 f   fileedit.obj
 0001:00048df0       ?ShowConsoleTitle@FileEditor@@EAEXXZ 00449df0 f   fileedit.obj
 0001:00048e70       ?SetFileName@FileEditor@@AAEHPB_W@Z 00449e70 f   fileedit.obj
 0001:00049030       ?UpdateFileList@FileEditor@@AAEHXZ 0044a030 f   fileedit.obj
 0001:00049180       ?GetEditorOptions@FileEditor@@QAEXAAUEditorOptions@@@Z 0044a180 f   fileedit.obj
 0001:00049190       ?LoadFromCache@FileEditor@@AAE_NPAUEditorCacheParams@@@Z 0044a190 f   fileedit.obj
 0001:000493a0       ?SaveToCache@FileEditor@@AAEXXZ 0044a3a0 f   fileedit.obj
 0001:00049550       ??1KeyBar@@UAE@XZ          0044a550 f i fileedit.obj
 0001:000495a0       ?VMProcess@ScreenObject@@UAE_JHPAX_J@Z 0044a5a0 f i fileedit.obj
 0001:000495b0       ??_GKeyBar@@UAEPAXI@Z      0044a5b0 f i fileedit.obj
 0001:000495b0       ??_EKeyBar@@UAEPAXI@Z      0044a5b0 f i fileedit.obj
 0001:000495d0       ?dlgSaveFileAs@@YA_NAAVUnicodeString@@AAHAAIAA_N@Z 0044a5d0 f   fileedit.obj
 0001:00049d60       ??1FileEditor@@UAE@XZ      0044ad60 f   fileedit.obj
 0001:00049f80       ?SetExitCode@Frame@@UAEXH@Z 0044af80 f i fileedit.obj
 0001:00049f90       ?GetMacroMode@Frame@@UAEHXZ 0044af90 f i fileedit.obj
 0001:00049fa0       ?ProcessEvents@Frame@@UAE_NXZ 0044afa0 f i fileedit.obj
 0001:00049fb0       ?IsFileModified@FileEditor@@UBEHXZ 0044afb0 f i fileedit.obj
 0001:00049fc0       ?GetTypeName@FileEditor@@EAEPB_WXZ 0044afc0 f i fileedit.obj
 0001:00049fd0       ?GetType@FileEditor@@EAEHXZ 0044afd0 f i fileedit.obj
 0001:00049fe0       ?ProcessQuitKey@FileEditor@@AAEHHH@Z 0044afe0 f   fileedit.obj
 0001:0004a1d0       ?LoadFile@FileEditor@@AAEHPB_WAAH@Z 0044b1d0 f   fileedit.obj
 0001:0004aa20       ?ShowStatus@FileEditor@@QAEXXZ 0044ba20 f   fileedit.obj
 0001:0004af80       ?dlgOpenEditor@@YA_NAAVUnicodeString@@AAI@Z 0044bf80 f   fileedit.obj
 0001:0004b410       ??_GFileEditor@@UAEPAXI@Z  0044c410 f i fileedit.obj
 0001:0004b410       ??_EFileEditor@@UAEPAXI@Z  0044c410 f i fileedit.obj
 0001:0004b430       ?Init@FileEditor@@AAEXPB_WI0KHH0HH@Z 0044c430 f   fileedit.obj
 0001:0004bb70       ?ReProcessKey@FileEditor@@AAEHHH@Z 0044cb70 f   fileedit.obj
 0001:0004c940       ?EditorControl@FileEditor@@QAEHHPAX@Z 0044d940 f   fileedit.obj
 0001:0004d060       ??0FileEditor@@QAE@PB_WIKHH0H@Z 0044e060 f   fileedit.obj
 0001:0004d130       ??0FileEditor@@QAE@PB_WIKHH0HHHHHH@Z 0044e130 f   fileedit.obj
 0001:0004d2a0       ?ProcessKey@FileEditor@@EAEHH@Z 0044e2a0 f   fileedit.obj
 0001:0004d2b0       ?SetFlags@FileFilterParams@@QAEXW4enumFileFilterFlagsType@@K@Z 0044e2b0 f i filefilter.obj
 0001:0004d2d0       ?ClearAllFlags@FileFilterParams@@QAEXXZ 0044e2d0 f i filefilter.obj
 0001:0004d300       ?GetFlags@FileFilterParams@@QBEKW4enumFileFilterFlagsType@@@Z 0044e300 f i filefilter.obj
 0001:0004d310       ?SetCheck@MenuItemEx@@QAEKH@Z 0044e310 f i filefilter.obj
 0001:0004d340       ?FastShow@VMenu@@QAEXXZ    0044e340 f i filefilter.obj
 0001:0004d350       ??1FileFilter@@QAE@XZ      0044e350 f   filefilter.obj
 0001:0004d360       ?GetHostPanel@FileFilter@@AAEPAVPanel@@XZ 0044e360 f   filefilter.obj
 0001:0004d3a0       ?GetFFFT@FileFilter@@AAE?AW4enumFileFilterFlagsType@@XZ 0044e3a0 f   filefilter.obj
 0001:0004d430       ?GetCheck@FileFilter@@AAEHPAVFileFilterParams@@@Z 0044e430 f   filefilter.obj
 0001:0004d480       ?UpdateCurrentTime@FileFilter@@QAEXXZ 0044e480 f   filefilter.obj
 0001:0004d4c0       ?IsAlphaNum@@YAH_W@Z       0044e4c0 f i filefilter.obj
 0001:0004d4d0       ?SwapPanelFlags@FileFilter@@CAXPAVFileFilterParams@@@Z 0044e4d0 f   filefilter.obj
 0001:0004d510       ?getItem@?$TPointerArray@VFileFilterParams@@@@QAEPAVFileFilterParams@@I@Z 0044e510 f i filefilter.obj
 0001:0004d530       ?swapItems@?$TPointerArray@VFileFilterParams@@@@QAE_NII@Z 0044e530 f i filefilter.obj
 0001:0004d570       ?getCount@?$TPointerArray@VFileFilterParams@@@@QBEIXZ 0044e570 f i filefilter.obj
 0001:0004d580       ?setSize@?$TPointerArray@VFileFilterParams@@@@AAE_NI@Z 0044e580 f i filefilter.obj
 0001:0004d630       ?setDelta@?$TPointerArray@VFileFilterParams@@@@QAEXI@Z 0044e630 f i filefilter.obj
 0001:0004d650       ??1CFileMask@@QAE@XZ       0044e650 f i filefilter.obj
 0001:0004d660       ?SetUpdateRequired@VMenu@@QAEXH@Z 0044e660 f i filefilter.obj
 0001:0004d690       ??0FileFilter@@QAE@PAVPanel@@W4FAR_FILE_FILTER_TYPE@@@Z 0044e690 f   filefilter.obj
 0001:0004d6e0       ?FileInFilter@FileFilter@@QAE_NABUFAR_FIND_DATA_EX@@PAW4enumFileInFilterType@@@Z 0044e6e0 f   filefilter.obj
 0001:0004d960       ?IsEnabledOnPanel@FileFilter@@QAE_NXZ 0044e960 f   filefilter.obj
 0001:0004d9e0       ?SwapFilter@FileFilter@@SAXXZ 0044e9e0 f   filefilter.obj
 0001:0004da80       ??0?$TPointerArray@VFileFilterParams@@@@QAE@I@Z 0044ea80 f i filefilter.obj
 0001:0004daa0       ??1<unnamed-type-FMask>@FileFilterParams@@QAE@XZ 0044eaa0 f i filefilter.obj
 0001:0004dad0       ??0MenuItemEx@@QAE@ABU0@@Z 0044ead0 f i filefilter.obj
 0001:0004db30       ?FileInFilter@FileFilter@@QAE_NABUFileListItem@@PAW4enumFileInFilterType@@@Z 0044eb30 f   filefilter.obj
 0001:0004dc30       ?FileInFilter@FileFilter@@QAE_NABUFAR_FIND_DATA@@PAW4enumFileInFilterType@@@Z 0044ec30 f   filefilter.obj
 0001:0004dcc0       ?SaveFilters@FileFilter@@SAXXZ 0044ecc0 f   filefilter.obj
 0001:0004e030       ?ParseAndAddMasks@FileFilter@@AAEHPAPA_WPB_WKAAHH@Z 0044f030 f   filefilter.obj
 0001:0004e1c0       ??1FileFilterParams@@QAE@XZ 0044f1c0 f i filefilter.obj
 0001:0004e210       ??_GFileFilterParams@@QAEPAXI@Z 0044f210 f i filefilter.obj
 0001:0004e270       ?Free@?$TPointerArray@VFileFilterParams@@@@QAEXXZ 0044f270 f i filefilter.obj
 0001:0004e300       ?insertItem@?$TPointerArray@VFileFilterParams@@@@QAEPAVFileFilterParams@@I@Z 0044f300 f i filefilter.obj
 0001:0004e390       ?deleteItem@?$TPointerArray@VFileFilterParams@@@@QAE_NI@Z 0044f390 f i filefilter.obj
 0001:0004e430       ?ProcessSelection@FileFilter@@AAEXPAVVMenu@@@Z 0044f430 f   filefilter.obj
 0001:0004e760       ?CloseFilter@FileFilter@@SAXXZ 0044f760 f   filefilter.obj
 0001:0004e780       ??1?$TPointerArray@VFileFilterParams@@@@QAE@XZ 0044f780 f i filefilter.obj
 0001:0004e790       ?addItem@?$TPointerArray@VFileFilterParams@@@@QAEPAVFileFilterParams@@XZ 0044f790 f i filefilter.obj
 0001:0004e7a0       ?FilterEdit@FileFilter@@QAE_NXZ 0044f7a0 f   filefilter.obj
 0001:0004faa0       ?InitFilter@FileFilter@@SAXXZ 00450aa0 f   filefilter.obj
 0001:0004ffe0       ?SetContinueProcessing@FileFilterParams@@QAEX_N@Z 00450fe0 f i filefilterparams.obj
 0001:0004fff0       ?GetSortGroup@FileFilterParams@@QBEHXZ 00450ff0 f i filefilterparams.obj
 0001:00050000       ?GetContinueProcessing@FileFilterParams@@QBE_NXZ 00451000 f i filefilterparams.obj
 0001:00050010       ?SetDate@FileFilterParams@@QAEX_NKU_FILETIME@@10@Z 00451010 f   filefilterparams.obj
 0001:00050050       ?SetSize@FileFilterParams@@QAEX_NPB_W1@Z 00451050 f   filefilterparams.obj
 0001:000500a0       ?SetAttr@FileFilterParams@@QAEX_NKK@Z 004510a0 f   filefilterparams.obj
 0001:000500d0       ?SetColors@FileFilterParams@@QAEXPAUHighlightDataColor@@@Z 004510d0 f   filefilterparams.obj
 0001:00050110       ?GetDate@FileFilterParams@@QBE_NPAKPAU_FILETIME@@1PA_N@Z 00451110 f   filefilterparams.obj
 0001:00050160       ?GetSize@FileFilterParams@@QBE_NPAPB_W0@Z 00451160 f   filefilterparams.obj
 0001:00050190       ?GetAttr@FileFilterParams@@QBE_NPAK0@Z 00451190 f   filefilterparams.obj
 0001:000501c0       ?GetColors@FileFilterParams@@QBEXPAUHighlightDataColor@@@Z 004511c0 f   filefilterparams.obj
 0001:00050200       ?GetMarkChar@FileFilterParams@@QBEHXZ 00451200 f   filefilterparams.obj
 0001:00050210       ?HighlightDlgUpdateUserControl@@YAXPAU_CHAR_INFO@@AAUHighlightDataColor@@@Z 00451210 f   filefilterparams.obj
 0001:00050310       ?FilterDlgRelativeDateItemsUpdate@@YAXPAX_N@Z 00451310 f   filefilterparams.obj
 0001:00050410       ?SetTitle@FileFilterParams@@QAEXPB_W@Z 00451410 f   filefilterparams.obj
 0001:00050450       ?GetTitle@FileFilterParams@@QBEPB_WXZ 00451450 f   filefilterparams.obj
 0001:00050460       ?GetMask@FileFilterParams@@QBE_NPAPB_W@Z 00451460 f   filefilterparams.obj
 0001:00050480       ?FileInFilter@FileFilterParams@@QAE_NABUFAR_FIND_DATA_EX@@_K@Z 00451480 f   filefilterparams.obj
 0001:000505f0       ?MenuString@@YAXAAVUnicodeString@@PAVFileFilterParams@@_NH2PB_W3@Z 004515f0 f   filefilterparams.obj
 0001:00050970       ??0<unnamed-type-FMask>@FileFilterParams@@QAE@XZ 00451970 f i filefilterparams.obj
 0001:00050990       ?FileInFilter@FileFilterParams@@QAE_NABUFAR_FIND_DATA@@_K@Z 00451990 f   filefilterparams.obj
 0001:00050a30       ?FileFilterConfigDlgProc@@YGJPAXHHJ@Z 00451a30 f   filefilterparams.obj
 0001:00051010       ?Add_PATHEXT@@YAAAVUnicodeString@@AAV1@@Z 00452010 f   filefilterparams.obj
 0001:000511d0       ?SetMask@FileFilterParams@@QAEX_NPB_W@Z 004521d0 f   filefilterparams.obj
 0001:000513f0       ?FileInFilter@FileFilterParams@@QAE_NABUFileListItem@@_K@Z 004523f0 f   filefilterparams.obj
 0001:00051500       ?FileFilterConfig@@YA_NPAVFileFilterParams@@_N@Z 00452500 f   filefilterparams.obj
 0001:00053e50       ??0FileFilterParams@@QAE@XZ 00454e50 f   filefilterparams.obj
 0001:00053f40       ??4FileFilterParams@@QAEABV0@ABV0@@Z 00454f40 f   filefilterparams.obj
 0001:00054080       ?SetVisible@ScreenObject@@QAEXH@Z 00455080 f i filelist.obj
 0001:000540a0       ?SetNumericSort@Panel@@QAEXH@Z 004550a0 f i filelist.obj
 0001:000540b0       ?ChangeNumericSort@Panel@@UAEXH@Z 004550b0 f i filelist.obj
 0001:000540c0       ?SetCaseSensitiveSort@Panel@@QAEXH@Z 004550c0 f i filelist.obj
 0001:000540d0       ?ChangeCaseSensitiveSort@Panel@@UAEXH@Z 004550d0 f i filelist.obj
 0001:000540e0       ?SetDirectoriesFirst@Panel@@QAEXH@Z 004550e0 f i filelist.obj
 0001:000540f0       ?ChangeDirectoriesFirst@Panel@@UAEXH@Z 004550f0 f i filelist.obj
 0001:00054100       ?SetSortOrder@Panel@@QAEXH@Z 00455100 f i filelist.obj
 0001:00054110       ?ChangeSortOrder@Panel@@UAEXH@Z 00455110 f i filelist.obj
 0001:00054120       ?SetCheck@MenuDataEx@@QAEKH@Z 00455120 f i filelist.obj
 0001:00054150       ?GetLength@CommandLine@@QAEHXZ 00455150 f i filelist.obj
 0001:00054160       ?LockUpdatePanel@CommandLine@@QAEXH@Z 00455160 f i filelist.obj
 0001:00054180       ?Set@KeyBar@@QAEXPBQB_WH@Z 00455180 f i filelist.obj
 0001:000541a0       ?SetShift@KeyBar@@QAEXPBQB_WH@Z 004551a0 f i filelist.obj
 0001:000541c0       ?SetAlt@KeyBar@@QAEXPBQB_WH@Z 004551c0 f i filelist.obj
 0001:000541e0       ?SetCtrl@KeyBar@@QAEXPBQB_WH@Z 004551e0 f i filelist.obj
 0001:00054200       ?SetCtrlShift@KeyBar@@QAEXPBQB_WH@Z 00455200 f i filelist.obj
 0001:00054220       ?SetAltShift@KeyBar@@QAEXPBQB_WH@Z 00455220 f i filelist.obj
 0001:00054240       ?SetCtrlAlt@KeyBar@@QAEXPAPB_WH@Z 00455240 f i filelist.obj
 0001:00054260       ?IsFileChanged@FileEditor@@QBEHXZ 00455260 f i filelist.obj
 0001:00054270       ??0?$DList@PAUPrevDataItem@@@@QAE@XZ 00455270 f i filelist.obj
 0001:00054290       ?NumStrCmpN@@YAHPB_WH0H@Z  00455290 f i filelist.obj
 0001:000542b0       ?NumStrCmpNI@@YAHPB_WH0H@Z 004552b0 f i filelist.obj
 0001:000542d0       ??0?$DList@PAUPluginsListItem@@@@QAE@XZ 004552d0 f i filelist.obj
 0001:000542f0       ?NumStrCmp@@YAHPB_W0@Z     004552f0 f i filelist.obj
 0001:00054310       ?NumStrCmpI@@YAHPB_W0@Z    00455310 f i filelist.obj
 0001:00054330       ?Up@FileList@@AAEXH@Z      00455330 f   filelist.obj
 0001:00054350       ?Down@FileList@@AAEXH@Z    00455350 f   filelist.obj
 0001:00054380       ?Scroll@FileList@@AAEXH@Z  00455380 f   filelist.obj
 0001:000543d0       ?CorrectPosition@FileList@@AAEXXZ 004553d0 f   filelist.obj
 0001:00054be0       ?SetFocus@FileList@@UAEXXZ 00455be0 f   filelist.obj
 0001:00054c00       ?SendKeyToPlugin@FileList@@UAEHK_N@Z 00455c00 f   filelist.obj
 0001:00054ca0       ?Select@FileList@@AAEXPAUFileListItem@@H@Z 00455ca0 f   filelist.obj
 0001:00054d20       ?MoveToMouse@FileList@@UAEXPAU_MOUSE_EVENT_RECORD@@@Z 00455d20 f   filelist.obj
 0001:00054e20       ?SetSortMode0@FileList@@QAEXH@Z 00455e20 f   filelist.obj
 0001:00054e50       ?ChangeNumericSort@FileList@@UAEXH@Z 00455e50 f   filelist.obj
 0001:00054e80       ?ChangeCaseSensitiveSort@FileList@@UAEXH@Z 00455e80 f   filelist.obj
 0001:00054eb0       ?ChangeDirectoriesFirst@FileList@@UAEXH@Z 00455eb0 f   filelist.obj
 0001:00054ee0       ?GoToFile@FileList@@UAEHJ@Z 00455ee0 f   filelist.obj
 0001:00054f10       ?GoToFile@FileList@@UAEHPB_WH@Z 00455f10 f   filelist.obj
 0001:00054f40       ?FindFile@FileList@@UAEJPB_WH@Z 00455f40 f   filelist.obj
 0001:00054ff0       ?FindFirst@FileList@@UAEJPB_W@Z 00455ff0 f   filelist.obj
 0001:00055010       ?FindNext@FileList@@UAEJHPB_W@Z 00456010 f   filelist.obj
 0001:00055090       ?IsSelected@FileList@@UAEHPB_W@Z 00456090 f   filelist.obj
 0001:000550e0       ?IsSelected@FileList@@UAEHJ@Z 004560e0 f   filelist.obj
 0001:00055100       ?FileInFilter@FileList@@UAE_NJ@Z 00456100 f   filelist.obj
 0001:00055150       ?GetSelCount@FileList@@EAEHXZ 00456150 f   filelist.obj
 0001:000551a0       ?GetRealSelCount@FileList@@UAEHXZ 004561a0 f   filelist.obj
 0001:000551c0       ?GetSelName@FileList@@EAEHPAVUnicodeString@@AAK0PAUFAR_FIND_DATA_EX@@@Z 004561c0 f   filelist.obj
 0001:00055520       ?ClearLastGetSelection@FileList@@EAEXXZ 00456520 f   filelist.obj
 0001:00055590       ?UngetSelName@FileList@@EAEXXZ 00456590 f   filelist.obj
 0001:000555a0       ?GetLastSelectedSize@FileList@@EAE_KXZ 004565a0 f   filelist.obj
 0001:000555d0       ?GetCurName@FileList@@EAEHAAVUnicodeString@@0@Z 004565d0 f   filelist.obj
 0001:00055660       ?ClearSelection@FileList@@UAEXXZ 00456660 f   filelist.obj
 0001:000556f0       ?SaveSelection@FileList@@UAEXXZ 004566f0 f   filelist.obj
 0001:00055720       ?RestoreSelection@FileList@@UAEXXZ 00456720 f   filelist.obj
 0001:00055780       ?GetFileName@FileList@@UAEHAAVUnicodeString@@HAAK@Z 00456780 f   filelist.obj
 0001:000557d0       ?GetCurrentPos@FileList@@UAEHXZ 004567d0 f   filelist.obj
 0001:000557e0       ?EditFilter@FileList@@UAEXXZ 004567e0 f   filelist.obj
 0001:00055830       ?SelectSortMode@FileList@@AAEXXZ 00456830 f   filelist.obj
 0001:00055fb0       ?DeleteDiz@FileList@@UAEXPB_W0@Z 00456fb0 f   filelist.obj
 0001:00055fd0       ?FlushDiz@FileList@@UAEXXZ 00456fd0 f   filelist.obj
 0001:00055ff0       ?GetDizName@FileList@@UAEXAAVUnicodeString@@@Z 00456ff0 f   filelist.obj
 0001:00056010       ?CopyDiz@FileList@@UAEXPB_W000PAVDizList@@@Z 00457010 f   filelist.obj
 0001:00056020       ?SetReturnCurrentFile@FileList@@UAEXH@Z 00457020 f   filelist.obj
 0001:00056030       ?CountDirSize@FileList@@AAEXK@Z 00457030 f   filelist.obj
 0001:00056430       ?SetSelectedFirstMode@FileList@@EAEXH@Z 00457430 f   filelist.obj
 0001:00056450       ?ChangeSortOrder@FileList@@UAEXH@Z 00457450 f   filelist.obj
 0001:00056480       ?UpdateKeyBar@FileList@@UAEHXZ 00457480 f   filelist.obj
 0001:000565e0       ?AddPluginPrefix@FileList@@SAAAVUnicodeString@@PAV1@AAV2@@Z 004575e0 f   filelist.obj
 0001:000566a0       ?DeleteNode@?$DList@PAUPrevDataItem@@@@EAEXPAUNode@CDList@@@Z 004576a0 f i filelist.obj
 0001:000566b0       ??1?$DList@PAUPrevDataItem@@@@UAE@XZ 004576b0 f i filelist.obj
 0001:000566c0       ?Push@?$DList@PAUPrevDataItem@@@@QAEPAPAUPrevDataItem@@PBQAU2@@Z 004576c0 f i filelist.obj
 0001:000566d0       ?Delete@?$DList@PAUPrevDataItem@@@@QAEPAPAUPrevDataItem@@PAPAU2@@Z 004576d0 f i filelist.obj
 0001:000566e0       ?DeleteNode@?$DList@PAUPluginsListItem@@@@EAEXPAUNode@CDList@@@Z 004576e0 f i filelist.obj
 0001:000566f0       ??1?$DList@PAUPluginsListItem@@@@UAE@XZ 004576f0 f i filelist.obj
 0001:00056700       ?Node2Type@?$DList@PAUPrevDataItem@@@@AAEPAPAUPrevDataItem@@PAUNode@CDList@@@Z 00457700 f i filelist.obj
 0001:00056720       ?Type2Node@?$DList@PAUPrevDataItem@@@@AAEPAUNode@CDList@@PBQAUPrevDataItem@@@Z 00457720 f i filelist.obj
 0001:00056740       ?Node2Type@?$DList@PAUPluginsListItem@@@@AAEPAPAUPluginsListItem@@PAUNode@CDList@@@Z 00457740 f i filelist.obj
 0001:00056760       ??0TNode@?$DList@PAUPrevDataItem@@@@QAE@PAPAUPrevDataItem@@@Z 00457760 f i filelist.obj
 0001:00056780       ??0TNode@?$DList@PAUPluginsListItem@@@@QAE@PAPAUPluginsListItem@@@Z 00457780 f i filelist.obj
 0001:000567a0       ??4FileListItem@@QAEAAU0@ABU0@@Z 004577a0 f i filelist.obj
 0001:000568e0       ??_E?$DList@PAUPrevDataItem@@@@UAEPAXI@Z 004578e0 f i filelist.obj
 0001:000568e0       ??_G?$DList@PAUPrevDataItem@@@@UAEPAXI@Z 004578e0 f i filelist.obj
 0001:00056910       ??_G?$DList@PAUPluginsListItem@@@@UAEPAXI@Z 00457910 f i filelist.obj
 0001:00056910       ??_E?$DList@PAUPluginsListItem@@@@UAEPAXI@Z 00457910 f i filelist.obj
 0001:00056940       ?SortFileList@FileList@@UAEXH@Z 00457940 f   filelist.obj
 0001:00056ac0       ?SetViewMode@FileList@@UAEXH@Z 00457ac0 f   filelist.obj
 0001:00056e50       ?SetSortMode@FileList@@UAEXH@Z 00457e50 f   filelist.obj
 0001:00056ea0       ?FindPartName@FileList@@UAEHPB_WHHH@Z 00457ea0 f   filelist.obj
 0001:000571a0       ?GetLastSelectedItem@FileList@@EAEHPAUFileListItem@@@Z 004581a0 f   filelist.obj
 0001:000571e0       ?UpdateViewPanel@FileList@@UAEXXZ 004581e0 f   filelist.obj
 0001:000573e0       ?CompareDir@FileList@@UAEXXZ 004583e0 f   filelist.obj
 0001:00057a70       ?CreateFullPathName@FileList@@QAEAAVUnicodeString@@PB_W0KAAV2@HH@Z 00458a70 f   filelist.obj
 0001:00057c60       ?SetTitle@FileList@@UAEXXZ 00458c60 f   filelist.obj
 0001:00057de0       ?DescribeFiles@FileList@@AAEXXZ 00458de0 f   filelist.obj
 0001:000581b0       ??0PrevDataItem@@QAE@XZ    004591b0 f i filelist.obj
 0001:000581c0       ?ProcessCopyKeys@FileList@@AAEXH@Z 004591c0 f   filelist.obj
 0001:00058510       ?PluginPanelHelp@FileList@@QAEHPAX@Z 00459510 f   filelist.obj
 0001:000586d0       ?IfGoHome@FileList@@UAEX_W@Z 004596d0 f   filelist.obj
 0001:000587e0       ?GetItem@FileList@@UAEHHPAX@Z 004597e0 f   filelist.obj
 0001:00058830       ?AllocNode@?$DList@PAUPrevDataItem@@@@EAEPAUNode@CDList@@PAX@Z 00459830 f i filelist.obj
 0001:00058860       ?First@?$DList@PAUPrevDataItem@@@@QAEPAPAUPrevDataItem@@XZ 00459860 f i filelist.obj
 0001:00058870       ?Last@?$DList@PAUPrevDataItem@@@@QAEPAPAUPrevDataItem@@XZ 00459870 f i filelist.obj
 0001:00058890       ?Next@?$DList@PAUPrevDataItem@@@@QAEPAPAUPrevDataItem@@PBQAU2@@Z 00459890 f i filelist.obj
 0001:000588c0       ?Prev@?$DList@PAUPrevDataItem@@@@QAEPAPAUPrevDataItem@@PBQAU2@@Z 004598c0 f i filelist.obj
 0001:000588f0       ?AllocNode@?$DList@PAUPluginsListItem@@@@EAEPAUNode@CDList@@PAX@Z 004598f0 f i filelist.obj
 0001:00058920       ?First@?$DList@PAUPluginsListItem@@@@QAEPAPAUPluginsListItem@@XZ 00459920 f i filelist.obj
 0001:00058930       ?Last@?$DList@PAUPluginsListItem@@@@QAEPAPAUPluginsListItem@@XZ 00459930 f i filelist.obj
 0001:00058950       ??0FileList@@QAE@XZ        00459950 f   filelist.obj
 0001:00058b40       ?CloseFile@Panel@@UAEXXZ   00459b40 f i filelist.obj
 0001:00058b50       ?QViewDelTempName@Panel@@UAEXXZ 00459b50 f i filelist.obj
 0001:00058b60       ?GetSelectedFirstMode@FileList@@EAEHXZ 00459b60 f i filelist.obj
 0001:00058b70       ?GetColumnsCount@FileList@@UAEHXZ 00459b70 f i filelist.obj
 0001:00058b80       ?GetFileCount@FileList@@UAEJXZ 00459b80 f i filelist.obj
 0001:00058b90       ??1PrevDataItem@@QAE@XZ    00459b90 f i filelist.obj
 0001:00058bb0       ??1FileListItem@@QAE@XZ    00459bb0 f i filelist.obj
 0001:00058c30       ?GetCurBaseName@FileList@@EAEHAAVUnicodeString@@0@Z 00459c30 f   filelist.obj
 0001:00058d00       ?SelectFiles@FileList@@AAEJHPB_W@Z 00459d00 f   filelist.obj
 0001:000597a0       ?CopyFiles@FileList@@AAEXXZ 0045a7a0 f   filelist.obj
 0001:000599b0       ?CopyNames@FileList@@AAEX_N0@Z 0045a9b0 f   filelist.obj
 0001:00059ec0       ?ApplyCommand@FileList@@AAE_NXZ 0045aec0 f   filelist.obj
 0001:0005a400       ?GetPrevViewMode@FileList@@UAEHXZ 0045b400 f   filelist.obj
 0001:0005a430       ?GetPrevSortMode@FileList@@UAEHXZ 0045b430 f   filelist.obj
 0001:0005a460       ?GetPrevSortOrder@FileList@@UAEHXZ 0045b460 f   filelist.obj
 0001:0005a490       ?GetPrevNumericSort@FileList@@UAEHXZ 0045b490 f   filelist.obj
 0001:0005a4c0       ?GetPrevCaseSensitiveSort@FileList@@UAEHXZ 0045b4c0 f   filelist.obj
 0001:0005a4f0       ?GetPrevDirectoriesFirst@FileList@@UAEHXZ 0045b4f0 f   filelist.obj
 0001:0005a520       ?OpenFilePlugin@FileList@@QAEPAXPB_WHW4OPENFILEPLUGINTYPE@@@Z 0045b520 f   filelist.obj
 0001:0005a680       ??_GPrevDataItem@@QAEPAXI@Z 0045b680 f i filelist.obj
 0001:0005a6c0       ??_GFileListItem@@QAEPAXI@Z 0045b6c0 f i filelist.obj
 0001:0005a6e0       ??_GUserDefinedList@@QAEPAXI@Z 0045b6e0 f i filelist.obj
 0001:0005a710       ?DeleteListData@FileList@@AAEXAAPAPAUFileListItem@@AAH@Z 0045b710 f   filelist.obj
 0001:0005a7f0       ?VMProcess@FileList@@UAE_JHPAX_J@Z 0045b7f0 f   filelist.obj
 0001:0005ae90       ?ChangeDir@FileList@@AAEHPB_WH@Z 0045be90 f   filelist.obj
 0001:0005ba90       ?ClearAllItem@FileList@@MAEXXZ 0045ca90 f   filelist.obj
 0001:0005bb00       ??1FileList@@UAE@XZ        0045cb00 f   filelist.obj
 0001:0005bc40       ?ProcessEnter@FileList@@AAEX_N000W4OPENFILEPLUGINTYPE@@@Z 0045cc40 f   filelist.obj
 0001:0005c2a0       ?SetCurDir@FileList@@UAEHPB_WH@Z 0045d2a0 f   filelist.obj
 0001:0005c370       ?ProcessMouse@FileList@@UAEHPAU_MOUSE_EVENT_RECORD@@@Z 0045d370 f   filelist.obj
 0001:0005c830       ??_GFileList@@UAEPAXI@Z    0045d830 f i filelist.obj
 0001:0005c830       ??_EFileList@@UAEPAXI@Z    0045d830 f i filelist.obj
 0001:0005c850       ?ProcessKey@FileList@@UAEHH@Z 0045d850 f   filelist.obj
 0001:0005f5f0       ?Free@FileMasksProcessor@@QAEXXZ 004605f0 f   FileMasksProcessor.obj
 0001:0005f630       ?Set@FileMasksProcessor@@UAE_NPB_WK@Z 00460630 f   FileMasksProcessor.obj
 0001:0005f730       ?IsEmpty@FileMasksProcessor@@UAE_NXZ 00460730 f   FileMasksProcessor.obj
 0001:0005f760       ??0BaseFileMask@@QAE@XZ    00460760 f i FileMasksProcessor.obj
 0001:0005f770       ?IsEmpty@BaseFileMask@@UAE_NXZ 00460770 f i FileMasksProcessor.obj
 0001:0005f780       ??1BaseFileMask@@UAE@XZ    00460780 f i FileMasksProcessor.obj
 0001:0005f790       ??_EBaseFileMask@@UAEPAXI@Z 00460790 f i FileMasksProcessor.obj
 0001:0005f790       ??_GBaseFileMask@@UAEPAXI@Z 00460790 f i FileMasksProcessor.obj
 0001:0005f7b0       ?Compare@FileMasksProcessor@@UAE_NPB_W@Z 004607b0 f   FileMasksProcessor.obj
 0001:0005f870       ??0FileMasksProcessor@@QAE@XZ 00460870 f   FileMasksProcessor.obj
 0001:0005f8a0       ??1FileMasksProcessor@@UAE@XZ 004608a0 f i FileMasksProcessor.obj
 0001:0005f900       ??_EFileMasksProcessor@@UAEPAXI@Z 00460900 f i FileMasksProcessor.obj
 0001:0005f900       ??_GFileMasksProcessor@@UAEPAXI@Z 00460900 f i FileMasksProcessor.obj
 0001:0005f920       ?Free@FileMasksWithExclude@@AAEXXZ 00460920 f   FileMasksWithExclude.obj
 0001:0005f940       ?FindExcludeChar@FileMasksWithExclude@@CAPB_WPB_W@Z 00460940 f   FileMasksWithExclude.obj
 0001:0005f9b0       ?Compare@FileMasksWithExclude@@UAE_NPB_W@Z 004609b0 f   FileMasksWithExclude.obj
 0001:0005f9f0       ?IsEmpty@FileMasksWithExclude@@UAE_NXZ 004609f0 f   FileMasksWithExclude.obj
 0001:0005fa20       ?IsExcludeMask@FileMasksWithExclude@@SA_NPB_W@Z 00460a20 f   FileMasksWithExclude.obj
 0001:0005fa40       ?Set@FileMasksWithExclude@@UAE_NPB_WK@Z 00460a40 f   FileMasksWithExclude.obj
 0001:0005fb50       ??0FileMasksWithExclude@@QAE@XZ 00460b50 f   FileMasksWithExclude.obj
 0001:0005fb70       ??1FileMasksWithExclude@@UAE@XZ 00460b70 f i FileMasksWithExclude.obj
 0001:0005fbe0       ??_GFileMasksWithExclude@@UAEPAXI@Z 00460be0 f i FileMasksWithExclude.obj
 0001:0005fbe0       ??_EFileMasksWithExclude@@UAEPAXI@Z 00460be0 f i FileMasksWithExclude.obj
 0001:0005fc00       ??0?$DList@PAUSIDCacheItem@@@@QAE@XZ 00460c00 f i fileowner.obj
 0001:0005fc20       ?SetOwnerInternal@@YA_NPB_W0@Z 00460c20 f   fileowner.obj
 0001:0005fd30       ?DeleteNode@?$DList@PAUSIDCacheItem@@@@EAEXPAUNode@CDList@@@Z 00460d30 f i fileowner.obj
 0001:0005fd40       ??1?$DList@PAUSIDCacheItem@@@@UAE@XZ 00460d40 f i fileowner.obj
 0001:0005fd50       ?Push@?$DList@PAUSIDCacheItem@@@@QAEPAPAUSIDCacheItem@@PBQAU2@@Z 00460d50 f i fileowner.obj
 0001:0005fd60       ?Node2Type@?$DList@PAUSIDCacheItem@@@@AAEPAPAUSIDCacheItem@@PAUNode@CDList@@@Z 00460d60 f i fileowner.obj
 0001:0005fd80       ?Type2Node@?$DList@PAUSIDCacheItem@@@@AAEPAUNode@CDList@@PBQAUSIDCacheItem@@@Z 00460d80 f i fileowner.obj
 0001:0005fda0       ??0TNode@?$DList@PAUSIDCacheItem@@@@QAE@PAPAUSIDCacheItem@@@Z 00460da0 f i fileowner.obj
 0001:0005fdc0       ??_G?$DList@PAUSIDCacheItem@@@@UAEPAXI@Z 00460dc0 f i fileowner.obj
 0001:0005fdc0       ??_E?$DList@PAUSIDCacheItem@@@@UAEPAXI@Z 00460dc0 f i fileowner.obj
 0001:0005fdf0       ?AllocNode@?$DList@PAUSIDCacheItem@@@@EAEPAUNode@CDList@@PAX@Z 00460df0 f i fileowner.obj
 0001:0005fe20       ?First@?$DList@PAUSIDCacheItem@@@@QAEPAPAUSIDCacheItem@@XZ 00460e20 f i fileowner.obj
 0001:0005fe30       ?Next@?$DList@PAUSIDCacheItem@@@@QAEPAPAUSIDCacheItem@@PBQAU2@@Z 00460e30 f i fileowner.obj
 0001:0005fe60       ??0SIDCacheItem@@QAE@PB_WPAX@Z 00460e60 f i fileowner.obj
 0001:0005fff0       ??1SIDCacheItem@@QAE@XZ    00460ff0 f i fileowner.obj
 0001:00060030       ??_GSIDCacheItem@@QAEPAXI@Z 00461030 f i fileowner.obj
 0001:00060080       ?AddSIDToCache@@YAPB_WPB_WPAX@Z 00461080 f   fileowner.obj
 0001:00060120       ?GetNameFromSIDCache@@YAPB_WPAX@Z 00461120 f   fileowner.obj
 0001:00060180       ?SetOwner@@YA_NPB_W0@Z     00461180 f   fileowner.obj
 0001:00060240       ?SIDCacheFlush@@YAXXZ      00461240 f   fileowner.obj
 0001:000602c0       ?GetFileOwner@@YG_NPB_W0AAVUnicodeString@@@Z 004612c0 f   fileowner.obj
 0001:000603e0       ??0MenuBar@@QAE@XZ         004613e0 f i filepanels.obj
 0001:00060400       ?ProcessKey@ScreenObject@@UAEHH@Z 00461400 f i filepanels.obj
 0001:00060410       ?ProcessMouse@ScreenObject@@UAEHPAU_MOUSE_EVENT_RECORD@@@Z 00461410 f i filepanels.obj
 0001:00060420       ??1MenuBar@@UAE@XZ         00461420 f i filepanels.obj
 0001:00060430       ??_GMenuBar@@UAEPAXI@Z     00461430 f i filepanels.obj
 0001:00060430       ??_EMenuBar@@UAEPAXI@Z     00461430 f i filepanels.obj
 0001:00060460       ?SetPrevViewMode@Panel@@QAEXH@Z 00461460 f i filepanels.obj
 0001:00060470       ?SetSortGroups@Panel@@QAEXH@Z 00461470 f i filepanels.obj
 0001:00060480       ?SetShowShortNamesMode@Panel@@QAEXH@Z 00461480 f i filepanels.obj
 0001:00060490       ?RedrawKeyBar@FilePanels@@UAEXXZ 00461490 f   filepanels.obj
 0001:000604b0       ?CreatePanel@FilePanels@@QAEPAVPanel@@H@Z 004614b0 f   filepanels.obj
 0001:00060560       ?DeletePanel@FilePanels@@QAEXPAVPanel@@@Z 00461560 f   filepanels.obj
 0001:00060590       ?SetAnhoterPanelFocus@FilePanels@@QAEHXZ 00461590 f   filepanels.obj
 0001:000605c0       ?SwapPanels@FilePanels@@QAEHXZ 004615c0 f   filepanels.obj
 0001:000606b0       ?VMProcess@FilePanels@@UAE_JHPAX_J@Z 004616b0 f   filepanels.obj
 0001:000607d0       ?GetAnotherPanel@FilePanels@@QAEPAVPanel@@PAV2@@Z 004617d0 f   filepanels.obj
 0001:000607e0       ?OnChangeFocus@FilePanels@@UAEXH@Z 004617e0 f   filepanels.obj
 0001:00060840       ?DisplayObject@FilePanels@@EAEXXZ 00461840 f   filepanels.obj
 0001:000608d0       ?ProcessMouse@FilePanels@@UAEHPAU_MOUSE_EVENT_RECORD@@@Z 004618d0 f   filepanels.obj
 0001:00060930       ?ShowConsoleTitle@FilePanels@@UAEXXZ 00461930 f   filepanels.obj
 0001:00060950       ?ResizeConsole@FilePanels@@UAEXXZ 00461950 f   filepanels.obj
 0001:00060990       ?FastHide@FilePanels@@UAEHXZ 00461990 f   filepanels.obj
 0001:000609a0       ?Refresh@FilePanels@@UAEXXZ 004619a0 f   filepanels.obj
 0001:000609b0       ?GetMacroMode@FilePanels@@UAEHXZ 004619b0 f   filepanels.obj
 0001:00060a90       ?SetPanelPositions@FilePanels@@QAEXHH@Z 00461a90 f   filepanels.obj
 0001:00060c20       ?SetScreenPosition@FilePanels@@UAEXXZ 00461c20 f   filepanels.obj
 0001:00060cd0       ?ChangePanel@FilePanels@@QAEPAVPanel@@PAV2@HHH@Z 00461cd0 f   filepanels.obj
 0001:000611a0       ?GetTypeAndName@FilePanels@@UAEHAAVUnicodeString@@0@Z 004621a0 f   filepanels.obj
 0001:00061290       ?GoToFile@FilePanels@@QAEXPB_W@Z 00462290 f   filepanels.obj
 0001:000614f0       ??0FilePanels@@QAE@XZ      004624f0 f   filepanels.obj
 0001:00061580       ?GetType@FilePanels@@UAEHXZ 00462580 f i filepanels.obj
 0001:00061590       ?GetTypeName@FilePanels@@UAEPB_WXZ 00462590 f i filepanels.obj
 0001:000615a0       ?Init@FilePanels@@QAEXXZ   004625a0 f   filepanels.obj
 0001:00061940       ??1FilePanels@@UAE@XZ      00462940 f   filepanels.obj
 0001:00061a00       ?ChangePanelToFilled@FilePanels@@QAEPAVPanel@@PAV2@H@Z 00462a00 f   filepanels.obj
 0001:00061f10       ??_EFilePanels@@UAEPAXI@Z  00462f10 f i filepanels.obj
 0001:00061f10       ??_GFilePanels@@UAEPAXI@Z  00462f10 f i filepanels.obj
 0001:00061f30       ?ChangePanelViewMode@FilePanels@@QAEHPAVPanel@@HH@Z 00462f30 f   filepanels.obj
 0001:00061fa0       ?ProcessKey@FilePanels@@UAEHH@Z 00462fa0 f   filepanels.obj
 0001:000630b0       ??0nsUniversalDetectorEx@@QAE@XZ 004640b0 f i filestr.obj
 0001:000630d0       ?getCodePage@nsUniversalDetectorEx@@QAEHXZ 004640d0 f i filestr.obj
 0001:000630e0       ?Report@nsUniversalDetectorEx@@MAEXPBD@Z 004640e0 f i filestr.obj
 0001:00063560       ??1nsUniversalDetectorEx@@UAE@XZ 00464560 f i filestr.obj
 0001:00063570       ??0OldGetFileString@@QAE@PAU_iobuf@@@Z 00464570 f   filestr.obj
 0001:000635d0       ??1OldGetFileString@@QAE@XZ 004645d0 f   filestr.obj
 0001:00063600       ?GetAnsiString@OldGetFileString@@AAEHPAPADAAH@Z 00464600 f   filestr.obj
 0001:000637a0       ?GetUnicodeString@OldGetFileString@@AAEHPAPA_WAAH_N@Z 004647a0 f   filestr.obj
 0001:00063980       ?IsTextUTF8@@YA_NQAEI@Z    00464980 f   filestr.obj
 0001:000639e0       ?OldGetFileFormat@@YA_NPAU_iobuf@@AAIPA_N_N@Z 004649e0 f   filestr.obj
 0001:00063bc0       ??0GetFileString@@QAE@AAVFile@@@Z 00464bc0 f   filestr.obj
 0001:00063c30       ??1GetFileString@@QAE@XZ   00464c30 f   filestr.obj
 0001:00063c60       ?GetAnsiString@GetFileString@@AAEHPAPADAAH@Z 00464c60 f   filestr.obj
 0001:00063e10       ?GetUnicodeString@GetFileString@@AAEHPAPA_WAAH_N@Z 00464e10 f   filestr.obj
 0001:00063ff0       ??_EnsUniversalDetectorEx@@UAEPAXI@Z 00464ff0 f i filestr.obj
 0001:00063ff0       ??_GnsUniversalDetectorEx@@UAEPAXI@Z 00464ff0 f i filestr.obj
 0001:00064010       ?GetString@OldGetFileString@@QAEHPAPA_WHAAH@Z 00465010 f   filestr.obj
 0001:000641b0       ?ReadString@@YAPA_WPAU_iobuf@@PA_WHH@Z 004651b0 f   filestr.obj
 0001:00064380       ?GetString@GetFileString@@QAEHPAPA_WIAAH@Z 00465380 f   filestr.obj
 0001:00064540       ?GetFileFormat@@YA_NAAVFile@@AAIPA_N_N@Z 00465540 f   filestr.obj
 0001:000647e0       ?PeekString@GetFileString@@QAEHPAPA_WIAAH@Z 004657e0 f   filestr.obj
 0001:00064830       ?SetSelect@MenuItemEx@@QAEKH@Z 00465830 f i filetype.obj
 0001:00064850       ?ExtractIfExistCommand@@YA_NAAVUnicodeString@@@Z 00465850 f   filetype.obj
 0001:000648d0       ?EditTypeRecordDlgProc@@YGJPAXHHJ@Z 004658d0 f   filetype.obj
 0001:00064990       ?GetDescriptionWidth@@YAHPB_W0@Z 00465990 f   filetype.obj
 0001:00064c90       ?ProcessGlobalFileTypes@@YAXPB_W_N1@Z 00465c90 f   filetype.obj
 0001:00064d60       ?ProcessExternal@@YAXPB_W00_N@Z 00465d60 f   filetype.obj
 0001:00065730       ?MoveMenuItem@@YAXHH@Z     00466730 f   filetype.obj
 0001:00065870       ?DeleteTypeRecord@@YA_NH@Z 00466870 f   filetype.obj
 0001:000659c0       ?ProcessLocalFileTypes@@YA_NPB_W0H_N@Z 004669c0 f   filetype.obj
 0001:00066460       ?EditTypeRecord@@YA_NHH_N@Z 00467460 f   filetype.obj
 0001:00066f40       ?EditFileTypes@@YAXXZ      00467f40 f   filetype.obj
 0001:00067150       ?IsTitleBarVisible@Frame@@QBEHXZ 00468150 f i fileview.obj
 0001:00067160       ?GetFilePos@Viewer@@QBE_JXZ 00468160 f i fileview.obj
 0001:00067170       ?GetViewFilePos@Viewer@@QBE_JXZ 00468170 f i fileview.obj
 0001:00067180       ?GetViewFileSize@Viewer@@QBE_JXZ 00468180 f i fileview.obj
 0001:00067190       ?SetHostFileViewer@Viewer@@QAEXPAVFileViewer@@@Z 00468190 f i fileview.obj
 0001:000671a0       ?GetTabSize@Viewer@@QBEHXZ 004681a0 f i fileview.obj
 0001:000671b0       ?SetTabSize@Viewer@@QAEXH@Z 004681b0 f i fileview.obj
 0001:000671c0       ?GetAutoDetectCodePage@Viewer@@QBEHXZ 004681c0 f i fileview.obj
 0001:000671d0       ?SetAutoDetectCodePage@Viewer@@QAEXH@Z 004681d0 f i fileview.obj
 0001:000671e0       ?GetShowScrollbar@Viewer@@QBEHXZ 004681e0 f i fileview.obj
 0001:000671f0       ?SetShowScrollbar@Viewer@@QAEXH@Z 004681f0 f i fileview.obj
 0001:00067200       ?GetShowArrows@Viewer@@QBEHXZ 00468200 f i fileview.obj
 0001:00067210       ?SetShowArrows@Viewer@@QAEXH@Z 00468210 f i fileview.obj
 0001:00067220       ?GetPersistentBlocks@Viewer@@QBEHXZ 00468220 f i fileview.obj
 0001:00067230       ?SetPersistentBlocks@Viewer@@QAEXH@Z 00468230 f i fileview.obj
 0001:00067240       ?GetNamesList@Viewer@@QAEPAVNamesList@@XZ 00468240 f i fileview.obj
 0001:00067250       ?IsFullScreen@FileViewer@@QAEHXZ 00468250 f i fileview.obj
 0001:00067260       ?SetEnableF6@FileEditor@@QAEXH@Z 00468260 f i fileview.obj
 0001:00067290       ?DisplayObject@FileViewer@@EAEXXZ 00468290 f   fileview.obj
 0001:000672a0       ?VMProcess@FileViewer@@UAE_JHPAX_J@Z 004682a0 f   fileview.obj
 0001:000673b0       ?ProcessMouse@FileViewer@@UAEHPAU_MOUSE_EVENT_RECORD@@@Z 004683b0 f   fileview.obj
 0001:00067400       ?ShowConsoleTitle@FileViewer@@UAEXXZ 00468400 f   fileview.obj
 0001:00067420       ?SetTempViewName@FileViewer@@QAEXPB_WH@Z 00468420 f   fileview.obj
 0001:00067430       ?FastHide@FileViewer@@UAEHXZ 00468430 f   fileview.obj
 0001:00067440       ?ViewerControl@FileViewer@@QAEHHPAX@Z 00468440 f   fileview.obj
 0001:00067450       ?GetTitle@FileViewer@@UAEAAVUnicodeString@@AAV2@HH@Z 00468450 f   fileview.obj
 0001:00067460       ?GetViewFileSize@FileViewer@@QBE_JXZ 00468460 f   fileview.obj
 0001:00067470       ?GetViewFilePos@FileViewer@@QBE_JXZ 00468470 f   fileview.obj
 0001:00067480       ?OnChangeFocus@FileViewer@@UAEXH@Z 00468480 f   fileview.obj
 0001:000674d0       ?Init@FileViewer@@QAEXPB_WHHJ0PAVNamesList@@H@Z 004684d0 f   fileview.obj
 0001:00067660       ?InitKeyBar@FileViewer@@UAEXXZ 00468660 f   fileview.obj
 0001:00067850       ?GetTypeAndName@FileViewer@@UAEHAAVUnicodeString@@0@Z 00468850 f   fileview.obj
 0001:000678b0       ??0FileViewer@@QAE@PB_WHHHJ0PAVNamesList@@HI@Z 004688b0 f   fileview.obj
 0001:00067950       ?GetTypeName@FileViewer@@UAEPB_WXZ 00468950 f i fileview.obj
 0001:00067960       ?GetType@FileViewer@@UAEHXZ 00468960 f i fileview.obj
 0001:00067970       ??0FileViewer@@QAE@PB_WHH0HHHHI@Z 00468970 f   fileview.obj
 0001:00067a90       ?ProcessKey@FileViewer@@UAEHH@Z 00468a90 f   fileview.obj
 0001:00068050       ??1FileViewer@@UAE@XZ      00469050 f   fileview.obj
 0001:000680a0       ?OnDestroy@FileViewer@@UAEXXZ 004690a0 f   fileview.obj
 0001:00068140       ?ShowStatus@FileViewer@@QAEXXZ 00469140 f   fileview.obj
 0001:00068370       ??_GFileViewer@@UAEPAXI@Z  00469370 f i fileview.obj
 0001:00068370       ??_EFileViewer@@UAEPAXI@Z  00469370 f i fileview.obj
 0001:000683d0       ?Show@FileViewer@@EAEXXZ   004693d0 f   fileview.obj
 0001:00068490       ?GetPluginsCount@PluginManager@@QAEHXZ 00469490 f i findfile.obj
 0001:000684a0       ?GetAllItem@Dialog@@QAEPAPBUDialogItemEx@@XZ 004694a0 f i findfile.obj
 0001:000684b0       ?SetEnableF6@FileViewer@@QAEXH@Z 004694b0 f i findfile.obj
 0001:000684d0       ?SetSaveToSaveAs@FileViewer@@QAEXH@Z 004694d0 f i findfile.obj
 0001:000684f0       ?SetSaveToSaveAs@FileEditor@@QAEXH@Z 004694f0 f i findfile.obj
 0001:00068520       ?Reset@Event@@QBE_NXZ      00469520 f i findfile.obj
 0001:00068530       ?Signaled@Event@@QBE_NXZ   00469530 f i findfile.obj
 0001:00068550       ?AddItem@UserDefinedList@@QAE_NPB_W@Z 00469550 f i findfile.obj
 0001:00068560       ?Lower@@YA_W_W@Z           00469560 f i findfile.obj
 0001:00068580       ??0Vars@@QAE@XZ            00469580 f i findfile.obj
 0001:00068590       ??_GTaskBar@@QAEPAXI@Z     00469590 f i findfile.obj
 0001:000685b0       ?ReleaseInFileSearch@@YAXXZ 004695b0 f   findfile.obj
 0001:00068670       ?IsWordDiv@@YA_N_W@Z       00469670 f   findfile.obj
 0001:000686b0       ?AdvancedDlgProc@@YGJPAXHHJ@Z 004696b0 f   findfile.obj
 0001:00068750       ?FindStringBMH@@YA?BHPB_WI@Z 00469750 f   findfile.obj
 0001:00068820       ?FindStringBMH@@YA?BHPBEI@Z 00469820 f   findfile.obj
 0001:000688b0       ??0?$DList@VUnicodeString@@@@QAE@XZ 004698b0 f i findfile.obj
 0001:000688d0       ??1?$DList@VUnicodeString@@@@UAE@XZ 004698d0 f i findfile.obj
 0001:000688e0       ?Push@?$DList@VUnicodeString@@@@QAEPAVUnicodeString@@PBV2@@Z 004698e0 f i findfile.obj
 0001:000688f0       ?Node2Type@?$DList@VUnicodeString@@@@AAEPAVUnicodeString@@PAUNode@CDList@@@Z 004698f0 f i findfile.obj
 0001:00068910       ?Type2Node@?$DList@VUnicodeString@@@@AAEPAUNode@CDList@@PBVUnicodeString@@@Z 00469910 f i findfile.obj
 0001:00068930       ?Init@InterThreadData@@QAEXXZ 00469930 f i findfile.obj
 0001:00068980       ?GetFindFileArcIndex@InterThreadData@@QAEIXZ 00469980 f i findfile.obj
 0001:000689a0       ?SetFindFileArcIndex@InterThreadData@@QAEXI@Z 004699a0 f i findfile.obj
 0001:000689c0       ?GetPercent@InterThreadData@@QAEHXZ 004699c0 f i findfile.obj
 0001:000689e0       ?SetPercent@InterThreadData@@QAEXH@Z 004699e0 f i findfile.obj
 0001:00068a00       ?GetLastFoundNumber@InterThreadData@@QAEHXZ 00469a00 f i findfile.obj
 0001:00068a20       ?SetLastFoundNumber@InterThreadData@@QAEXH@Z 00469a20 f i findfile.obj
 0001:00068a40       ?GetFileCount@InterThreadData@@QAEHXZ 00469a40 f i findfile.obj
 0001:00068a60       ?SetFileCount@InterThreadData@@QAEXH@Z 00469a60 f i findfile.obj
 0001:00068a80       ?GetDirCount@InterThreadData@@QAEHXZ 00469a80 f i findfile.obj
 0001:00068aa0       ?SetDirCount@InterThreadData@@QAEXH@Z 00469aa0 f i findfile.obj
 0001:00068ac0       ?GetFindListCount@InterThreadData@@QAEIXZ 00469ac0 f i findfile.obj
 0001:00068ae0       ?GetFindMessage@InterThreadData@@QAEXAAVUnicodeString@@@Z 00469ae0 f i findfile.obj
 0001:00068b10       ?SetFindMessage@InterThreadData@@QAEXABVUnicodeString@@@Z 00469b10 f i findfile.obj
 0001:00068b40       ?GetFindListItem@InterThreadData@@QAEXIAAUFINDLIST@@@Z 00469b40 f i findfile.obj
 0001:00068b90       ?SetFindListItem@InterThreadData@@QAEXIABUFINDLIST@@@Z 00469b90 f i findfile.obj
 0001:00068be0       ?GetArcListItem@InterThreadData@@QAEXIAAUARCLIST@@@Z 00469be0 f i findfile.obj
 0001:00068c40       ?SetArcListItem@InterThreadData@@QAEXIABUARCLIST@@@Z 00469c40 f i findfile.obj
 0001:00068ca0       ?FindListGrow@InterThreadData@@QAE_NXZ 00469ca0 f i findfile.obj
 0001:00068cf0       ?ArcListGrow@InterThreadData@@QAE_NXZ 00469cf0 f i findfile.obj
 0001:00068d40       ??0InterThreadData@@QAE@XZ 00469d40 f i findfile.obj
 0001:00068d60       ??1InterThreadData@@QAE@XZ 00469d60 f i findfile.obj
 0001:00068d90       ??0ARCLIST@@QAE@XZ         00469d90 f i findfile.obj
 0001:00068db0       ??1ARCLIST@@QAE@XZ         00469db0 f i findfile.obj
 0001:00068df0       ??1Vars@@QAE@XZ            00469df0 f i findfile.obj
 0001:00068e10       ?Clear@Vars@@QAEXXZ        00469e10 f i findfile.obj
 0001:00068e50       ?InitInFileSearch@@YAXXZ   00469e50 f   findfile.obj
 0001:00069370       ?PrepareDriveNameStr@@YAAAVUnicodeString@@AAV1@@Z 0046a370 f   findfile.obj
 0001:000694e0       ?SetPluginDirectory@@YAXPB_WPAX_N@Z 0046a4e0 f   findfile.obj
 0001:00069610       ?GetPluginFile@@YA_NIABUFAR_FIND_DATA_EX@@PB_WAAVUnicodeString@@@Z 0046a610 f   findfile.obj
 0001:00069900       ?LookForString@@YAHPB_W@Z  0046a900 f   findfile.obj
 0001:00069e80       ?IsFileIncluded@@YA_NPAUPluginPanelItem@@PB_WK@Z 0046ae80 f   findfile.obj
 0001:0006a0e0       ??_G?$DList@VUnicodeString@@@@UAEPAXI@Z 0046b0e0 f i findfile.obj
 0001:0006a0e0       ??_E?$DList@VUnicodeString@@@@UAEPAXI@Z 0046b0e0 f i findfile.obj
 0001:0006a110       ?First@?$DList@VUnicodeString@@@@QAEPAVUnicodeString@@XZ 0046b110 f i findfile.obj
 0001:0006a120       ?Next@?$DList@VUnicodeString@@@@QAEPAVUnicodeString@@PBV2@@Z 0046b120 f i findfile.obj
 0001:0006a150       ??1TNode@?$DList@VUnicodeString@@@@QAE@XZ 0046b150 f i findfile.obj
 0001:0006a170       ??0TNode@?$DList@VUnicodeString@@@@QAE@PAVUnicodeString@@@Z 0046b170 f i findfile.obj
 0001:0006a1a0       ?AddArcListItem@InterThreadData@@QAEIPB_WPAXK0@Z 0046b1a0 f i findfile.obj
 0001:0006a2c0       ??_GARCLIST@@QAEPAXI@Z     0046b2c0 f i findfile.obj
 0001:0006a310       ??0FINDLIST@@QAE@XZ        0046b310 f i findfile.obj
 0001:0006a330       ??1FINDLIST@@QAE@XZ        0046b330 f i findfile.obj
 0001:0006a370       ?AdvancedDialog@@YAXXZ     0046b370 f   findfile.obj
 0001:0006a960       ?MainDlgProc@@YGJPAXHHJ@Z  0046b960 f   findfile.obj
 0001:0006b190       ?FindDlgProc@@YGJPAXHHJ@Z  0046c190 f   findfile.obj
 0001:0006c420       ?ArchiveSearch@@YAXPAXPB_W@Z 0046d420 f   findfile.obj
 0001:0006c740       ?AllocNode@?$DList@VUnicodeString@@@@EAEPAUNode@CDList@@PAX@Z 0046d740 f i findfile.obj
 0001:0006c780       ??_GTNode@?$DList@VUnicodeString@@@@QAEPAXI@Z 0046d780 f i findfile.obj
 0001:0006c7c0       ?AddFindListItem@InterThreadData@@QAEIABUFAR_FIND_DATA_EX@@@Z 0046d7c0 f i findfile.obj
 0001:0006c860       ??_GFINDLIST@@QAEPAXI@Z    0046d860 f i findfile.obj
 0001:0006c8c0       ?AddMenuRecord@@YAXPAXPB_WABUFAR_FIND_DATA_EX@@@Z 0046d8c0 f   findfile.obj
 0001:0006d3d0       ?AddMenuRecord@@YAXPAXPB_WABUFAR_FIND_DATA@@@Z 0046e3d0 f   findfile.obj
 0001:0006d460       ?ScanPluginTree@@YAXPAX0KAAH@Z 0046e460 f   findfile.obj
 0001:0006d9f0       ?DoPreparePluginList@@YAXPAX_N@Z 0046e9f0 f   findfile.obj
 0001:0006dc50       ?DeleteNode@?$DList@VUnicodeString@@@@EAEXPAUNode@CDList@@@Z 0046ec50 f i findfile.obj
 0001:0006dc90       ?ClearAllLists@InterThreadData@@QAEXXZ 0046ec90 f i findfile.obj
 0001:0006dda0       ??1FindFiles@@QAE@XZ       0046eda0 f   findfile.obj
 0001:0006dde0       ?DoScanTree@@YAXPAXAAVUnicodeString@@@Z 0046ede0 f   findfile.obj
 0001:0006e590       ?DoPrepareFileList@@YAXPAX@Z 0046f590 f   findfile.obj
 0001:0006e950       ?ThreadRoutine@@YGKPAX@Z   0046f950 f   findfile.obj
 0001:0006e9f0       ?FindFilesProcess@@YA_NAAUVars@@@Z 0046f9f0 f   findfile.obj
 0001:0006fe60       ??0FindFiles@@QAE@XZ       00470e60 f   findfile.obj
 0001:00071140       ?FillREPARSE_DATA_BUFFER@@YA_NPAU_REPARSE_DATA_BUFFER@@PB_WI1I@Z 00472140 f   flink.obj
 0001:00071250       ?SetREPARSE_DATA_BUFFER@@YA_NPB_WPAU_REPARSE_DATA_BUFFER@@@Z 00472250 f   flink.obj
 0001:00071380       ?GetREPARSE_DATA_BUFFER@@YA_NPB_WPAU_REPARSE_DATA_BUFFER@@@Z 00472380 f   flink.obj
 0001:00071420       ?GetReparsePointInfo@@YGKPB_WAAVUnicodeString@@PAK@Z 00472420 f   flink.obj
 0001:00071500       ?GetNumberOfLinks@@YGHPB_W@Z 00472500 f   flink.obj
 0001:00071570       ?MkHardLink@@YGHPB_W0@Z    00472570 f   flink.obj
 0001:00071590       ?EnumStreams@@YA_NPB_WAA_KAAK@Z 00472590 f   flink.obj
 0001:00071640       ?DuplicateReparsePoint@@YA_NPB_W0@Z 00472640 f   flink.obj
 0001:00071690       ?GetVHDName@@YA_NPB_WAAVUnicodeString@@@Z 00472690 f   flink.obj
 0001:00071790       ?NormalizeSymlinkName@@YAXAAVUnicodeString@@@Z 00472790 f   flink.obj
 0001:00071810       ?CreateVolumeMountPoint@@YG_NPB_W0@Z 00472810 f   flink.obj
 0001:00071880       ?CreateReparsePoint@@YG_NPB_W0K@Z 00472880 f   flink.obj
 0001:00071b60       ?DeleteReparsePoint@@YG_NPB_W@Z 00472b60 f   flink.obj
 0001:00071c40       ?GetSubstName@@YA_NHPB_WAAVUnicodeString@@@Z 00472c40 f   flink.obj
 0001:00071d40       ?GetPathRoot@@YAXPB_WAAVUnicodeString@@@Z 00472d40 f   flink.obj
 0001:00071dd0       ?ModifyReparsePoint@@YA_NPB_W0@Z 00472dd0 f   flink.obj
 0001:00072000       ?MkSymLink@@YAHPB_W0W4ReparsePointTypes@@K@Z 00473000 f   flink.obj
 0001:000726f0       ?DelSubstDrive@@YA_NPB_W@Z 004736f0 f   flink.obj
 0001:00072810       ?FarMkLink@@YGHPB_W0K@Z    00473810 f   flink.obj
 0001:000728e0       ?SetSelect@MenuDataEx@@QAEKH@Z 004738e0 f i flmodes.obj
 0001:00072910       ?ReadPanelModes@FileList@@SAXXZ 00473910 f   flmodes.obj
 0001:00072cf0       ?SavePanelModes@FileList@@SAXXZ 00473cf0 f   flmodes.obj
 0001:00072fb0       ?SetFilePanelModes@FileList@@SAXXZ 00473fb0 f   flmodes.obj
 0001:00073d20       ?GetModalMode@Panel@@QAEHXZ 00474d20 f i flplugin.obj
 0001:00073d30       ?SetModalMode@Panel@@QAEXH@Z 00474d30 f i flplugin.obj
 0001:00073d40       ?FreePluginPanelItem@FileList@@SAXPAUPluginPanelItem@@@Z 00474d40 f   flplugin.obj
 0001:00073d70       ?OpenPluginForFile@FileList@@AAEPAXPB_WKW4OPENFILEPLUGINTYPE@@@Z 00474d70 f   flplugin.obj
 0001:00073dd0       ?DeletePluginItemList@FileList@@AAEXAAPAUPluginPanelItem@@AAH@Z 00474dd0 f   flplugin.obj
 0001:00073e30       ?GetOpenPluginInfo@FileList@@UAEXPAUOpenPluginInfo@@@Z 00474e30 f   flplugin.obj
 0001:00073e70       ?PluginGetPanelInfo@FileList@@QAEXAAUPanelInfo@@@Z 00474e70 f   flplugin.obj
 0001:00073ec0       ?PluginGetColumnTypesAndWidths@FileList@@QAEXAAVUnicodeString@@0@Z 00474ec0 f   flplugin.obj
 0001:00073ef0       ?PluginBeginSelection@FileList@@QAEXXZ 00474ef0 f   flplugin.obj
 0001:00073f00       ?PluginSetSelection@FileList@@QAEXH_N@Z 00474f00 f   flplugin.obj
 0001:00073f20       ?PluginClearSelection@FileList@@QAEXH@Z 00474f20 f   flplugin.obj
 0001:00073fb0       ?PluginEndSelection@FileList@@QAEXXZ 00474fb0 f   flplugin.obj
 0001:00073fd0       ?GetPluginHandle@FileList@@UAEPAXXZ 00474fd0 f   flplugin.obj
 0001:00073fe0       ?ProcessPluginEvent@FileList@@UAEHHPAX@Z 00474fe0 f   flplugin.obj
 0001:00074010       ?Push@?$DList@PAUPluginsListItem@@@@QAEPAPAUPluginsListItem@@PBQAU2@@Z 00475010 f i flplugin.obj
 0001:00074020       ?Delete@?$DList@PAUPluginsListItem@@@@QAEPAPAUPluginsListItem@@PAPAU2@@Z 00475020 f i flplugin.obj
 0001:00074030       ?FileListToPluginItem@FileList@@SAXPAUFileListItem@@PAUPluginPanelItem@@@Z 00475030 f   flplugin.obj
 0001:00074140       ?FileListToPluginItem2@FileList@@QAEIPAUFileListItem@@PAUPluginPanelItem@@@Z 00475140 f   flplugin.obj
 0001:00074400       ?PluginToFileListItem@FileList@@SAXPAUPluginPanelItem@@PAUFileListItem@@@Z 00475400 f   flplugin.obj
 0001:00074660       ?PluginGetPanelItem@FileList@@QAEIHPAUPluginPanelItem@@@Z 00475660 f   flplugin.obj
 0001:00074690       ?PluginGetSelectedPanelItem@FileList@@QAEIHPAUPluginPanelItem@@@Z 00475690 f   flplugin.obj
 0001:00074790       ?ProcessPluginCommand@FileList@@AAEXXZ 00475790 f   flplugin.obj
 0001:000747e0       ?PluginClearSelection@FileList@@AAEXPAUPluginPanelItem@@H@Z 004757e0 f   flplugin.obj
 0001:000748b0       ??0PluginsListItem@@QAE@XZ 004758b0 f i flplugin.obj
 0001:000748d0       ??1PluginsListItem@@QAE@XZ 004758d0 f i flplugin.obj
 0001:00074910       ?CreatePluginItemList@FileList@@AAEXAAPAUPluginPanelItem@@AAHH@Z 00475910 f   flplugin.obj
 0001:00074aa0       ?PluginHostGetFiles@FileList@@AAEXXZ 00475aa0 f   flplugin.obj
 0001:00074e00       ?ProcessOneHostFile@FileList@@AAEHH@Z 00475e00 f   flplugin.obj
 0001:00074f00       ?SetPluginModified@FileList@@UAEXXZ 00475f00 f   flplugin.obj
 0001:00074f40       ?PushPlugin@FileList@@AAEXPAXPB_W@Z 00475f40 f   flplugin.obj
 0001:00075040       ??_GPluginsListItem@@QAEPAXI@Z 00476040 f i flplugin.obj
 0001:000750a0       ?FileNameToPluginItem@FileList@@SAHPB_WPAUPluginPanelItem@@@Z 004760a0 f   flplugin.obj
 0001:000751c0       ?PutDizToPlugin@FileList@@AAEXPAV1@PAUPluginPanelItem@@HHHPAVDizList@@2@Z 004761c0 f   flplugin.obj
 0001:000756c0       ?PluginGetFiles@FileList@@AAEXPAPB_WH@Z 004766c0 f   flplugin.obj
 0001:00075940       ?PluginToPluginFiles@FileList@@AAEXH@Z 00476940 f   flplugin.obj
 0001:00075bc0       ?PluginPutFilesToAnother@FileList@@AAEHHPAVPanel@@@Z 00476bc0 f   flplugin.obj
 0001:00075d00       ?ProcessHostFile@FileList@@QAEXXZ 00476d00 f   flplugin.obj
 0001:00075ef0       ?SetPluginMode@FileList@@UAEXPAXPB_W_N@Z 00476ef0 f   flplugin.obj
 0001:00075fe0       ?PopPlugin@FileList@@AAEHH@Z 00476fe0 f   flplugin.obj
 0001:000762b0       ?PluginDelete@FileList@@AAEXXZ 004772b0 f   flplugin.obj
 0001:00076390       ?PluginPutFilesToNew@FileList@@AAEXXZ 00477390 f   flplugin.obj
 0001:00076490       ?ClearCustomData@FileListItem@@QAEXXZ 00477490 f i flshow.obj
 0001:00076500       ?GetShowColor@FileList@@AAEHHH@Z 00477500 f   flshow.obj
 0001:000765a0       ?SetShowColor@FileList@@AAEXHH@Z 004775a0 f   flshow.obj
 0001:000765c0       ?PrepareColumnWidths@FileList@@AAEHPAIPAH1AAHHH@Z 004775c0 f   flshow.obj
 0001:000768e0       ?IsFullScreen@FileList@@UAEHXZ 004778e0 f   flshow.obj
 0001:000768f0       ?IsModeFullScreen@FileList@@SAHH@Z 004778f0 f   flshow.obj
 0001:00076910       ?IsDizDisplayed@FileList@@UAEHXZ 00477910 f   flshow.obj
 0001:00076920       ?IsColumnDisplayed@FileList@@UAEHH@Z 00477920 f   flshow.obj
 0001:00076990       ?GetPanelStatusHeight@FileList@@UAEHXZ 00477990 f   flshow.obj
 0001:000769e0       ?ClearCustomData@FileList@@UAEXXZ 004779e0 f   flshow.obj
 0001:00076a40       ??$Round@H@@YA?BHABH0@Z    00477a40 f i flshow.obj
 0001:00076a60       ?ConvertName@FileList@@AAEHPB_WAAVUnicodeString@@HHHK@Z 00477a60 f   flshow.obj
 0001:00076c60       ?PreparePanelView@FileList@@AAEHPAUPanelViewSettings@@@Z 00477c60 f   flshow.obj
 0001:00076d30       ?ShowSelectedSize@FileList@@AAEXXZ 00477d30 f   flshow.obj
 0001:00076f30       ?ShowTotalSize@FileList@@AAEXAAUOpenPluginInfo@@@Z 00477f30 f   flshow.obj
 0001:000772d0       ?PrepareViewSettings@FileList@@AAEXHPAUOpenPluginInfo@@@Z 004782d0 f   flshow.obj
 0001:00077540       ?ShowList@FileList@@AAEXHH@Z 00478540 f   flshow.obj
 0001:00078930       ?ShowFileList@FileList@@AAEXH@Z 00479930 f   flshow.obj
 0001:00079320       ?DisplayObject@FileList@@EAEXXZ 0047a320 f   flshow.obj
 0001:00079390       ?Clear@FileListItem@@QAEXXZ 0047a390 f i flupdate.obj
 0001:00079440       ?UpdateIfRequired@FileList@@UAEXXZ 0047a440 f   flupdate.obj
 0001:00079470       ?ReadFileNamesMsg@@YAXPB_W@Z 0047a470 f   flupdate.obj
 0001:00079500       ?UpdateIfChanged@FileList@@UAEHH@Z 0047a500 f   flupdate.obj
 0001:000795f0       ?CloseChangeNotification@FileList@@UAEXXZ 0047a5f0 f   flupdate.obj
 0001:00079650       ?ReadSortGroups@FileList@@AAEX_N@Z 0047a650 f   flupdate.obj
 0001:000796d0       ?CreateChangeNotification@FileList@@QAEXH@Z 0047a6d0 f   flupdate.obj
 0001:000797a0       ?MoveSelection@FileList@@AAEXPAPAUFileListItem@@J0J@Z 0047a7a0 f   flupdate.obj
 0001:00079870       ??0FileListItem@@QAE@XZ    0047a870 f i flupdate.obj
 0001:000798a0       ?ReadDiz@FileList@@UAEXPAUPluginPanelItem@@HK@Z 0047a8a0 f   flupdate.obj
 0001:00079c60       ?AddParentPoint@FileList@@AAEXPAUFileListItem@@JPAU_FILETIME@@VUnicodeString@@@Z 0047ac60 f   flupdate.obj
 0001:00079d20       ?ReadFileNames@FileList@@AAEXHHH@Z 0047ad20 f   flupdate.obj
 0001:0007adb0       ?UpdatePlugin@FileList@@AAEXHH@Z 0047bdb0 f   flupdate.obj
 0001:0007b5f0       ?Update@FileList@@UAEXH@Z  0047c5f0 f   flupdate.obj
 0001:0007b930       ??0TSubstData@@QAE@XZ      0047c930 f i fnparce.obj
 0001:0007b970       ??1TSubstData@@QAE@XZ      0047c970 f i fnparce.obj
 0001:0007ba40       ?MakeListFile@Panel@@QAE_NAAVUnicodeString@@_NPB_W@Z 0047ca40 f   fnparce.obj
 0001:0007d0c0       ?SubstFileName@@YAHAAVUnicodeString@@PB_W1PAV1@222H1@Z 0047e0c0 f   fnparce.obj
 0001:0007d420       ?GetExitCode@TreeList@@QAEHXZ 0047e420 f i foldtree.obj
 0001:0007d430       ?SetCoords@FolderTree@@AAEXXZ 0047e430 f   foldtree.obj
 0001:0007d4b0       ?OnChangeFocus@FolderTree@@UAEXH@Z 0047e4b0 f   foldtree.obj
 0001:0007d4d0       ?ResizeConsole@FolderTree@@UAEXXZ 0047e4d0 f   foldtree.obj
 0001:0007d520       ?SetScreenPosition@FolderTree@@UAEXXZ 0047e520 f   foldtree.obj
 0001:0007d550       ?FastHide@FolderTree@@UAEHXZ 0047e550 f   foldtree.obj
 0001:0007d560       ?InitKeyBar@FolderTree@@UAEXXZ 0047e560 f   foldtree.obj
 0001:0007d620       ?GetTypeAndName@FolderTree@@UAEHAAVUnicodeString@@0@Z 0047e620 f   foldtree.obj
 0001:0007d680       ?DrawEdit@FolderTree@@AAEXXZ 0047e680 f   foldtree.obj
 0001:0007d780       ??0FolderTree@@QAE@AAVUnicodeString@@HHH@Z 0047e780 f   foldtree.obj
 0001:0007d930       ?GetTypeName@FolderTree@@UAEPB_WXZ 0047e930 f i foldtree.obj
 0001:0007d940       ?GetType@FolderTree@@UAEHXZ 0047e940 f i foldtree.obj
 0001:0007d950       ??1FolderTree@@UAE@XZ      0047e950 f   foldtree.obj
 0001:0007d9e0       ?DisplayObject@FolderTree@@EAEXXZ 0047e9e0 f   foldtree.obj
 0001:0007dab0       ?ProcessKey@FolderTree@@UAEHH@Z 0047eab0 f   foldtree.obj
 0001:0007de60       ?ProcessMouse@FolderTree@@UAEHPAU_MOUSE_EVENT_RECORD@@@Z 0047ee60 f   foldtree.obj
 0001:0007df70       ??_GFolderTree@@UAEPAXI@Z  0047ef70 f i foldtree.obj
 0001:0007df70       ??_EFolderTree@@UAEPAXI@Z  0047ef70 f i foldtree.obj
 0001:0007df90       ?SetPrecision@BaseFormat@@QAEAAV1@I@Z 0047ef90 f   format.obj
 0001:0007dfa0       ?SetWidth@BaseFormat@@QAEAAV1@I@Z 0047efa0 f   format.obj
 0001:0007dfb0       ?SetAlign@BaseFormat@@QAEAAV1@W4AlignType@fmt@@@Z 0047efb0 f   format.obj
 0001:0007dfc0       ?SetFillChar@BaseFormat@@QAEAAV1@_W@Z 0047efc0 f   format.obj
 0001:0007dfd0       ?SetRadix@BaseFormat@@QAEAAV1@H@Z 0047efd0 f   format.obj
 0001:0007dfe0       ??6BaseFormat@@QAEAAV0@ABV?$SimpleAlign@$0A@@fmt@@@Z 0047efe0 f   format.obj
 0001:0007dff0       ??6BaseFormat@@QAEAAV0@ABV?$SimpleAlign@$00@fmt@@@Z 0047eff0 f   format.obj
 0001:0007e000       ?GetValue@?$ManipulatorTemplate@I$0PPPPPPPP@@fmt@@QBEIXZ 0047f000 f i format.obj
 0001:0007e010       ?GetDefault@?$ManipulatorTemplate@I$0PPPPPPPP@@fmt@@SAIXZ 0047f010 f i format.obj
 0001:0007e020       ?GetValue@?$ManipulatorTemplate@I$0A@@fmt@@QBEIXZ 0047f020 f i format.obj
 0001:0007e030       ?GetDefault@?$ManipulatorTemplate@I$0A@@fmt@@SAIXZ 0047f030 f i format.obj
 0001:0007e040       ?GetValue@?$ManipulatorTemplate@W4AlignType@fmt@@$00@fmt@@QBE?AW4AlignType@2@XZ 0047f040 f i format.obj
 0001:0007e050       ?GetDefault@?$ManipulatorTemplate@W4AlignType@fmt@@$00@fmt@@SA?AW4AlignType@2@XZ 0047f050 f i format.obj
 0001:0007e060       ?GetValue@?$ManipulatorTemplate@_W$0CA@@fmt@@QBE_WXZ 0047f060 f i format.obj
 0001:0007e070       ?GetDefault@?$ManipulatorTemplate@_W$0CA@@fmt@@SA_WXZ 0047f070 f i format.obj
 0001:0007e080       ?GetValue@?$ManipulatorTemplate@H$09@fmt@@QBEHXZ 0047f080 f i format.obj
 0001:0007e090       ?GetDefault@?$ManipulatorTemplate@H$09@fmt@@SAHXZ 0047f090 f i format.obj
 0001:0007e0a0       ?UpperBuf@@YAXPA_WH@Z      0047f0a0 f i format.obj
 0001:0007e0c0       ?Insert@UnicodeString@@QAEAAV1@I_W@Z 0047f0c0 f i format.obj
 0001:0007e0e0       ??6BaseFormat@@QAEAAV0@ABV?$ManipulatorTemplate@I$0A@@fmt@@@Z 0047f0e0 f   format.obj
 0001:0007e0f0       ??6BaseFormat@@QAEAAV0@ABV?$ManipulatorTemplate@I$0PPPPPPPP@@fmt@@@Z 0047f0f0 f   format.obj
 0001:0007e100       ??6BaseFormat@@QAEAAV0@ABV?$ManipulatorTemplate@_W$0CA@@fmt@@@Z 0047f100 f   format.obj
 0001:0007e110       ??6BaseFormat@@QAEAAV0@ABV?$ManipulatorTemplate@H$09@fmt@@@Z 0047f110 f   format.obj
 0001:0007e120       ??6BaseFormat@@QAEAAV0@ABV?$ManipulatorTemplate@W4AlignType@fmt@@$00@fmt@@@Z 0047f120 f   format.obj
 0001:0007e130       ?Reset@BaseFormat@@AAEXXZ  0047f130 f   format.obj
 0001:0007e160       ?Commit@FormatScreen@@EAEXABVUnicodeString@@@Z 0047f160 f   format.obj
 0001:0007e180       ??0BaseFormat@@QAE@XZ      0047f180 f   format.obj
 0001:0007e1b0       ?Put@BaseFormat@@QAEAAV1@PB_WI@Z 0047f1b0 f   format.obj
 0001:0007e2c0       ??6BaseFormat@@QAEAAV0@_W@Z 0047f2c0 f   format.obj
 0001:0007e2d0       ??6BaseFormat@@QAEAAV0@PB_W@Z 0047f2d0 f   format.obj
 0001:0007e300       ??6BaseFormat@@QAEAAV0@ABVUnicodeString@@@Z 0047f300 f   format.obj
 0001:0007e320       ?ToString@BaseFormat@@AAEAAV1@_J_N@Z 0047f320 f   format.obj
 0001:0007e3c0       ?Commit@FormatString@@EAEXABVUnicodeString@@@Z 0047f3c0 f   format.obj
 0001:0007e3e0       ??6BaseFormat@@QAEAAV0@_J@Z 0047f3e0 f   format.obj
 0001:0007e450       ??6BaseFormat@@QAEAAV0@_K@Z 0047f450 f   format.obj
 0001:0007e4c0       ??6BaseFormat@@QAEAAV0@F@Z 0047f4c0 f   format.obj
 0001:0007e4d0       ??6BaseFormat@@QAEAAV0@G@Z 0047f4d0 f   format.obj
 0001:0007e4e0       ??6BaseFormat@@QAEAAV0@H@Z 0047f4e0 f   format.obj
 0001:0007e4f0       ??6BaseFormat@@QAEAAV0@I@Z 0047f4f0 f   format.obj
 0001:0007e500       ??6BaseFormat@@QAEAAV0@J@Z 0047f500 f   format.obj
 0001:0007e510       ??6BaseFormat@@QAEAAV0@K@Z 0047f510 f   format.obj
 0001:0007e520       ??0Frame@@QAE@XZ           0047f520 f   frame.obj
 0001:0007e560       ?DisplayObject@ScreenObject@@EAEXXZ 0047f560 f i frame.obj
 0001:0007e570       ?GetTypeName@Frame@@UAEPB_WXZ 0047f570 f i frame.obj
 0001:0007e580       ?GetTypeAndName@Frame@@UAEHAAVUnicodeString@@0@Z 0047f580 f i frame.obj
 0001:0007e590       ?GetType@Frame@@UAEHXZ     0047f590 f i frame.obj
 0001:0007e5a0       ?SetKeyBar@Frame@@QAEXPAVKeyBar@@@Z 0047f5a0 f   frame.obj
 0001:0007e5b0       ?UpdateKeyBar@Frame@@QAEXXZ 0047f5b0 f   frame.obj
 0001:0007e5d0       ?IsTopFrame@Frame@@QAEHXZ  0047f5d0 f   frame.obj
 0001:0007e5e0       ?OnChangeFocus@Frame@@UAEXH@Z 0047f5e0 f   frame.obj
 0001:0007e640       ?Push@Frame@@QAEXPAV1@@Z   0047f640 f   frame.obj
 0001:0007e670       ?DestroyAllModal@Frame@@QAEXXZ 0047f670 f   frame.obj
 0001:0007e6a0       ?FastHide@Frame@@UAEHXZ    0047f6a0 f   frame.obj
 0001:0007e6b0       ?OnDestroy@Frame@@UAEXXZ   0047f6b0 f   frame.obj
 0001:0007e6e0       ?RemoveModal@Frame@@QAE_NPAV1@@Z 0047f6e0 f   frame.obj
 0001:0007e720       ?ResizeConsole@Frame@@UAEXXZ 0047f720 f   frame.obj
 0001:0007e730       ?HasSaveScreen@Frame@@QAE_NXZ 0047f730 f   frame.obj
 0001:0007e750       ??1Frame@@UAE@XZ           0047f750 f   frame.obj
 0001:0007e780       ??_EFrame@@UAEPAXI@Z       0047f780 f i frame.obj
 0001:0007e780       ??_GFrame@@UAEPAXI@Z       0047f780 f i frame.obj
 0001:0007e7c0       ??0FormatScreen@@QAE@XZ    0047f7c0 f i global.obj
 0001:0007e7e0       ??1FormatScreen@@UAE@XZ    0047f7e0 f i global.obj
 0001:0007e7f0       ??_GFormatScreen@@UAEPAXI@Z 0047f7f0 f i global.obj
 0001:0007e7f0       ??_EFormatScreen@@UAEPAXI@Z 0047f7f0 f i global.obj
 0001:0007e810       ?GetBufferAddress@SaveScreen@@AAEPAU_CHAR_INFO@@XZ 0047f810 f i grabber.obj
 0001:0007e820       ?Reset@Grabber@@AAEXXZ     0047f820 f   grabber.obj
 0001:0007e860       ?CopyGrabbedArea@Grabber@@AAEXHH@Z 0047f860 f   grabber.obj
 0001:0007ece0       ?DisplayObject@Grabber@@EAEXXZ 0047fce0 f   grabber.obj
 0001:0007ef90       ?ProcessKey@Grabber@@EAEHH@Z 0047ff90 f   grabber.obj
 0001:0007fed0       ?ProcessMouse@Grabber@@EAEHPAU_MOUSE_EVENT_RECORD@@@Z 00480ed0 f   grabber.obj
 0001:00080000       ??1Modal@@UAE@XZ           00481000 f i grabber.obj
 0001:00080030       ?GetDialogObjectsData@Modal@@UAEXXZ 00481030 f i grabber.obj
 0001:00080040       ??_GModal@@UAEPAXI@Z       00481040 f i grabber.obj
 0001:00080040       ??_EModal@@UAEPAXI@Z       00481040 f i grabber.obj
 0001:00080090       ??0Grabber@@QAE@XZ         00481090 f   grabber.obj
 0001:000801f0       ??1Grabber@@UAE@XZ         004811f0 f   grabber.obj
 0001:00080240       ?RunGraber@@YA_NXZ         00481240 f   grabber.obj
 0001:000802d0       ??_EGrabber@@UAEPAXI@Z     004812d0 f i grabber.obj
 0001:000802d0       ??_GGrabber@@UAEPAXI@Z     004812d0 f i grabber.obj
 0001:00080330       ?Clear@StackHelpData@@QAEXXZ 00481330 f i help.obj
 0001:00080370       ??0HelpRecord@@QAE@PB_W@Z  00481370 f i help.obj
 0001:000803a0       ??4HelpRecord@@QAEABV0@ABV0@@Z 004813a0 f i help.obj
 0001:000803c0       ?wcsrchr@@YAPA_WPA_W_W@Z   004813c0 f i help.obj
 0001:000803d0       ?wcsstr@@YAPA_WPA_WPB_W@Z  004813d0 f i help.obj
 0001:000803e0       ??1HelpRecord@@QAE@XZ      004813e0 f i help.obj
 0001:000803f0       ??0CallBackStack@@QAE@XZ   004813f0 f i help.obj
 0001:00080400       ?isEmpty@CallBackStack@@QBEHXZ 00481400 f i help.obj
 0001:00080410       ?Hide@Help@@UAEXXZ         00481410 f   help.obj
 0001:00080420       ?CorrectPosition@Help@@AAEXXZ 00481420 f   help.obj
 0001:00080520       ?MkTopic@Help@@SAAAVUnicodeString@@HPB_WAAV2@@Z 00481520 f   help.obj
 0001:000806a0       ?SetScreenPosition@Help@@UAEXXZ 004816a0 f   help.obj
 0001:00080710       ?InitKeyBar@Help@@UAEXXZ   00481710 f   help.obj
 0001:000807f0       ?OnChangeFocus@Help@@UAEXH@Z 004817f0 f   help.obj
 0001:00080800       ?FastHide@Help@@UAEHXZ     00481800 f   help.obj
 0001:00080810       ?GetTypeAndName@Help@@UAEHAAVUnicodeString@@0@Z 00481810 f   help.obj
 0001:00080870       ?PrintStack@CallBackStack@@QAEXPB_W@Z 00481870 f   help.obj
 0001:00080880       ?getSize@?$TArray@VHelpRecord@@@@QBEIXZ 00481880 f i help.obj
 0001:00080890       ?getItem@?$TArray@VHelpRecord@@@@QAEPAVHelpRecord@@I@Z 00481890 f i help.obj
 0001:000808b0       ??_GHelpRecord@@QAEPAXI@Z  004818b0 f i help.obj
 0001:000808e0       ?deleteItem@?$TArray@VHelpRecord@@@@AAE_NI@Z 004818e0 f i help.obj
 0001:00080930       ?setDelta@?$TArray@VHelpRecord@@@@QAEXI@Z 00481930 f i help.obj
 0001:00080950       ?setSize@?$TArray@VHelpRecord@@@@QAE_NI@Z 00481950 f i help.obj
 0001:00080a60       ??8HelpRecord@@QBE_NABV0@@Z 00481a60 f i help.obj
 0001:00080a90       ??MHelpRecord@@QBEHABV0@@Z 00481a90 f i help.obj
 0001:00080ac0       ?HighlightsCorrection@Help@@AAEXAAVUnicodeString@@@Z 00481ac0 f   help.obj
 0001:00080b20       ?OutString@Help@@AAEXPB_W@Z 00481b20 f   help.obj
 0001:00080f10       ?StringLen@Help@@AAEHPB_W@Z 00481f10 f   help.obj
 0001:00081020       ?VMProcess@Help@@UAE_JHPAX_J@Z 00482020 f   help.obj
 0001:00081090       ?GetHelpItem@Help@@AAEPBVHelpRecord@@H@Z 00482090 f   help.obj
 0001:00081410       ??0?$TArray@VHelpRecord@@@@QAE@I@Z 00482410 f i help.obj
 0001:00081430       ?Free@?$TArray@VHelpRecord@@@@QAEXXZ 00482430 f i help.obj
 0001:00081490       ?setItem@?$TArray@VHelpRecord@@@@QAEPAVHelpRecord@@IABV2@@Z 00482490 f i help.obj
 0001:00081520       ?CmpItems@?$TArray@VHelpRecord@@@@CAHPAPBVHelpRecord@@0@Z 00482520 f i help.obj
 0001:00081590       ??0ListNode@CallBackStack@@QAE@PBUStackHelpData@@PAU01@@Z 00482590 f i help.obj
 0001:00081620       ??1ListNode@CallBackStack@@QAE@XZ 00482620 f i help.obj
 0001:000816a0       ??0StackHelpData@@QAE@XZ   004826a0 f i help.obj
 0001:000816d0       ??1StackHelpData@@QAE@XZ   004826d0 f i help.obj
 0001:00081750       ?DrawWindowFrame@Help@@AAEXXZ 00482750 f   help.obj
 0001:00081900       ?IsReferencePresent@Help@@AAEHXZ 00482900 f   help.obj
 0001:00081970       ??_GListNode@CallBackStack@@QAEPAXI@Z 00482970 f i help.obj
 0001:00081990       ?Push@CallBackStack@@QAEXPBUStackHelpData@@@Z 00482990 f   help.obj
 0001:000819c0       ??1?$TArray@VHelpRecord@@@@QAE@XZ 004829c0 f i help.obj
 0001:000819d0       ?addItem@?$TArray@VHelpRecord@@@@QAEPAVHelpRecord@@ABV2@@Z 004829d0 f i help.obj
 0001:000819f0       ?Sort@?$TArray@VHelpRecord@@@@QAEXP6AHPBX0@ZI@Z 004829f0 f i help.obj
 0001:00081a20       ?AddLine@Help@@AAEXPB_W@Z  00482a20 f   help.obj
 0001:00081b30       ?AddTitle@Help@@AAEXPB_W@Z 00482b30 f   help.obj
 0001:00081b90       ?FastShow@Help@@AAEXXZ     00482b90 f   help.obj
 0001:00081d30       ?ProcessMouse@Help@@UAEHPAU_MOUSE_EVENT_RECORD@@@Z 00482d30 f   help.obj
 0001:000820d0       ?MoveToReference@Help@@AAEXHH@Z 004830d0 f   help.obj
 0001:00082340       ?ReadDocumentsHelp@Help@@AAEXH@Z 00483340 f   help.obj
 0001:00082640       ?Pop@CallBackStack@@QAEHPAUStackHelpData@@@Z 00483640 f   help.obj
 0001:000826c0       ?ReadHelp@Help@@AAEHPB_W@Z 004836c0 f   help.obj
 0001:00083720       ?DisplayObject@Help@@EAEXXZ 00484720 f   help.obj
 0001:00083840       ?JumpTopic@Help@@AAEHPB_W@Z 00484840 f   help.obj
 0001:00083ed0       ?ResizeConsole@Help@@UAEXXZ 00484ed0 f   help.obj
 0001:00083fd0       ?ClearStack@CallBackStack@@QAEXXZ 00484fd0 f   help.obj
 0001:00084010       ??1CallBackStack@@QAE@XZ   00485010 f i help.obj
 0001:00084020       ??0Help@@QAE@PB_W0K@Z      00485020 f   help.obj
 0001:00084380       ?GetTypeName@Help@@UAEPB_WXZ 00485380 f i help.obj
 0001:00084390       ?GetType@Help@@UAEHXZ      00485390 f i help.obj
 0001:000843a0       ??_GCallBackStack@@QAEPAXI@Z 004853a0 f i help.obj
 0001:000843c0       ?ProcessKey@Help@@UAEHH@Z  004853c0 f   help.obj
 0001:00084b10       ??1Help@@UAE@XZ            00485b10 f   help.obj
 0001:00084c00       ??_GHelp@@UAEPAXI@Z        00485c00 f i help.obj
 0001:00084c00       ??_EHelp@@UAEPAXI@Z        00485c00 f i help.obj
 0001:00084c20       ?SetSortGroup@FileFilterParams@@QAEXH@Z 00485c20 f i hilight.obj
 0001:00084c30       ?ApplyDefaultStartingColors@@YAXPAUHighlightDataColor@@@Z 00485c30 f   hilight.obj
 0001:00084c60       ?ApplyBlackOnBlackColors@@YAXPAUHighlightDataColor@@@Z 00485c60 f   hilight.obj
 0001:00084d10       ?ApplyColors@@YAXPAUHighlightDataColor@@0@Z 00485d10 f   hilight.obj
 0001:00084e70       ?ApplyFinalColors@@YAXPAUHighlightDataColor@@@Z 00485e70 f   hilight.obj
 0001:00084f50       ?UpdateCurrentTime@HighlightFiles@@QAEXXZ 00485f50 f   hilight.obj
 0001:00084f90       ?MenuPosToRealPos@HighlightFiles@@AAEHHPAPAH_N@Z 00485f90 f   hilight.obj
 0001:00085040       ?SaveFilterToReg@@YAXPAVFileFilterParams@@PB_W_N@Z 00486040 f   hilight.obj
 0001:000852a0       ?GetHiColor@HighlightFiles@@QAEXPAPAUFileListItem@@H_N@Z 004862a0 f   hilight.obj
 0001:000853a0       ?GetGroup@HighlightFiles@@QAEHPBUFileListItem@@@Z 004863a0 f   hilight.obj
 0001:00085440       ?ProcessGroups@HighlightFiles@@AAEXXZ 00486440 f   hilight.obj
 0001:00085540       ?LoadFilterFromReg@@YAXPAVFileFilterParams@@PB_W1H_N@Z 00486540 f   hilight.obj
 0001:00085840       ?SaveHiData@HighlightFiles@@QAEXXZ 00486840 f   hilight.obj
 0001:00085c40       ?SetHighlighting@@YAXXZ    00486c40 f   hilight.obj
 0001:00085e80       ?FillMenu@HighlightFiles@@AAEXPAVVMenu@@H@Z 00486e80 f   hilight.obj
 0001:000860b0       ?ClearData@HighlightFiles@@AAEXXZ 004870b0 f   hilight.obj
 0001:000860d0       ?InitHighlightFiles@HighlightFiles@@AAEXXZ 004870d0 f   hilight.obj
 0001:000863d0       ??1HighlightFiles@@QAE@XZ  004873d0 f   hilight.obj
 0001:000863f0       ?HiEdit@HighlightFiles@@QAEXH@Z 004873f0 f   hilight.obj
 0001:00086a20       ??0HighlightFiles@@QAE@XZ  00487a20 f   hilight.obj
 0001:00086a70       ??0?$DList@UHistoryRecord@@@@QAE@XZ 00487a70 f i history.obj
 0001:00086a90       ?GetTitle@History@@AAEPB_WH@Z 00487a90 f   history.obj
 0001:00086b00       ?SetAddMode@History@@QAEX_NH0@Z 00487b00 f   history.obj
 0001:00086b20       ?EqualType@History@@AAE_NHH@Z 00487b20 f   history.obj
 0001:00086b50       ??1?$DList@UHistoryRecord@@@@UAE@XZ 00487b50 f i history.obj
 0001:00086b60       ?Push@?$DList@UHistoryRecord@@@@QAEPAUHistoryRecord@@PBU2@@Z 00487b60 f i history.obj
 0001:00086b70       ?Unshift@?$DList@UHistoryRecord@@@@QAEPAUHistoryRecord@@PBU2@@Z 00487b70 f i history.obj
 0001:00086b80       ?MoveAfter@?$DList@UHistoryRecord@@@@QAEXPBUHistoryRecord@@0@Z 00487b80 f i history.obj
 0001:00086b90       ?Node2Type@?$DList@UHistoryRecord@@@@AAEPAUHistoryRecord@@PAUNode@CDList@@@Z 00487b90 f i history.obj
 0001:00086bb0       ?Type2Node@?$DList@UHistoryRecord@@@@AAEPAUNode@CDList@@PBUHistoryRecord@@@Z 00487bb0 f i history.obj
 0001:00086bd0       ??$Max@K@@YAABKABK0@Z      00487bd0 f i history.obj
 0001:00086bf0       ??4HistoryRecord@@QAEABU0@ABU0@@Z 00487bf0 f i history.obj
 0001:00086c30       ??_E?$DList@UHistoryRecord@@@@UAEPAXI@Z 00487c30 f i history.obj
 0001:00086c30       ??_G?$DList@UHistoryRecord@@@@UAEPAXI@Z 00487c30 f i history.obj
 0001:00086c60       ?ReadLastItem@History@@SA_NPB_WAAVUnicodeString@@@Z 00487c60 f   history.obj
 0001:00086d30       ?First@?$DList@UHistoryRecord@@@@QAEPAUHistoryRecord@@XZ 00487d30 f i history.obj
 0001:00086d40       ?Last@?$DList@UHistoryRecord@@@@QAEPAUHistoryRecord@@XZ 00487d40 f i history.obj
 0001:00086d60       ?Next@?$DList@UHistoryRecord@@@@QAEPAUHistoryRecord@@PBU2@@Z 00487d60 f i history.obj
 0001:00086d90       ?Prev@?$DList@UHistoryRecord@@@@QAEPAUHistoryRecord@@PBU2@@Z 00487d90 f i history.obj
 0001:00086dc0       ??0HistoryRecord@@QAE@XZ   00487dc0 f i history.obj
 0001:00086e00       ??0History@@QAE@W4enumHISTORYTYPE@@IPB_WPBH_N@Z 00487e00 f   history.obj
 0001:00086e90       ??1History@@QAE@XZ         00487e90 f   history.obj
 0001:00086ec0       ??1HistoryRecord@@QAE@XZ   00487ec0 f i history.obj
 0001:00086ee0       ?SaveHistory@History@@QAE_NXZ 00487ee0 f   history.obj
 0001:00087220       ?ReadHistory@History@@QAE_N_N@Z 00488220 f   history.obj
 0001:000876f0       ?GetPrev@History@@QAEXAAVUnicodeString@@@Z 004886f0 f   history.obj
 0001:00087750       ?GetNext@History@@QAEXAAVUnicodeString@@@Z 00488750 f   history.obj
 0001:00087790       ?GetSimilar@History@@QAE_NAAVUnicodeString@@H_N@Z 00488790 f   history.obj
 0001:000878c0       ?GetAllSimilar@History@@QAE_NAAVVMenu@@PB_W@Z 004888c0 f   history.obj
 0001:00087a20       ??1TNode@?$DList@UHistoryRecord@@@@QAE@XZ 00488a20 f i history.obj
 0001:00087a40       ??0TNode@?$DList@UHistoryRecord@@@@QAE@PAUHistoryRecord@@@Z 00488a40 f i history.obj
 0001:00087ab0       ?AddToHistoryLocal@History@@AAEXPB_W0H@Z 00488ab0 f   history.obj
 0001:00087cc0       ?ProcessMenu@History@@AAEHAAVUnicodeString@@PB_WAAVVMenu@@HAAHPAVDialog@@@Z 00488cc0 f   history.obj
 0001:00088790       ?AllocNode@?$DList@UHistoryRecord@@@@EAEPAUNode@CDList@@PAX@Z 00489790 f i history.obj
 0001:000887b0       ??_GTNode@?$DList@UHistoryRecord@@@@QAEPAXI@Z 004897b0 f i history.obj
 0001:000887f0       ?AddToHistory@History@@QAEXPB_WH0_N@Z 004897f0 f   history.obj
 0001:00088830       ?Select@History@@QAEHPB_W0AAVUnicodeString@@AAH@Z 00489830 f   history.obj
 0001:000888e0       ?Select@History@@QAEHAAVVMenu@@HPAVDialog@@AAVUnicodeString@@@Z 004898e0 f   history.obj
 0001:00088910       ?DeleteNode@?$DList@UHistoryRecord@@@@EAEXPAUNode@CDList@@@Z 00489910 f i history.obj
 0001:00088950       ?GetExitCode@HMenu@@QAEXAAH0@Z 00489950 f   hmenu.obj
 0001:00088970       ?ProcessSubMenu@HMenu@@AAEXPAUMenuDataEx@@HPB_WHHAAH@Z 00489970 f   hmenu.obj
 0001:00088bc0       ?Process@HMenu@@UAEXXZ     00489bc0 f   hmenu.obj
 0001:00088bd0       ?ResizeConsole@HMenu@@UAEXXZ 00489bd0 f   hmenu.obj
 0001:00088c30       ?GetHighlights@HMenu@@AAE_WPBUHMenuData@@@Z 00489c30 f   hmenu.obj
 0001:00088c80       ?CheckHighlights@HMenu@@AAEHGH@Z 00489c80 f   hmenu.obj
 0001:00088da0       ??0HMenu@@QAE@PAUHMenuData@@H@Z 00489da0 f   hmenu.obj
 0001:00088e10       ?ShowMenu@HMenu@@AAEXXZ    00489e10 f   hmenu.obj
 0001:00088fa0       ?VMProcess@HMenu@@UAE_JHPAX_J@Z 00489fa0 f   hmenu.obj
 0001:00089350       ?ProcessKey@HMenu@@UAEHH@Z 0048a350 f   hmenu.obj
 0001:00089840       ?ProcessMouse@HMenu@@UAEHPAU_MOUSE_EVENT_RECORD@@@Z 0048a840 f   hmenu.obj
 0001:00089960       ??1HMenu@@UAE@XZ           0048a960 f   hmenu.obj
 0001:000899c0       ??_GHMenu@@UAEPAXI@Z       0048a9c0 f i hmenu.obj
 0001:000899c0       ??_EHMenu@@UAEPAXI@Z       0048a9c0 f i hmenu.obj
 0001:000899e0       ?DisplayObject@HMenu@@EAEXXZ 0048a9e0 f   hmenu.obj
 0001:00089a40       _wow_restore               0048aa40 f   hook_wow64.obj
 0001:00089a60       _wow_disable               0048aa60 f   hook_wow64.obj
 0001:00089cc0       ?CheckChild@@YA_NK@Z       0048acc0 f   hotplug.obj
 0001:00089da0       ?IsHotPlugDevice@@YA_NK@Z  0048ada0 f   hotplug.obj
 0001:0008a0d0       ?DriveMaskFromVolumeName@@YAKPB_W@Z 0048b0d0 f   hotplug.obj
 0001:0008a1d0       ?GetDriveMaskFromMountPoints@@YAKK@Z 0048b1d0 f   hotplug.obj
 0001:0008a3b0       ?GetRelationDrivesMask@@YAKK@Z 0048b3b0 f   hotplug.obj
 0001:0008a490       ?GetDriveMaskForDeviceInternal@@YAKK@Z 0048b490 f   hotplug.obj
 0001:0008a510       ?GetDriveMaskForDevice@@YAKK@Z 0048b510 f   hotplug.obj
 0001:0008a560       ?GetHotplugDriveDeviceInfoInternal@@YAHKPAPAUDeviceInfo@@H@Z 0048b560 f   hotplug.obj
 0001:0008ad40       ?ShowHotplugDevice@@YAXXZ  0048bd40 f   hotplug.obj
 0001:0008aff0       ?ProcessRemoveHotplugDevice@@YAH_WK@Z 0048bff0 f   hotplug.obj
 0001:0008b0c0       ??0ImportedFunctions@@QAE@XZ 0048c0c0 f   imports.obj
 0001:0008b250       ??1ImportedFunctions@@QAE@XZ 0048c250 f   imports.obj
 0001:0008b260       ?GetCodePage@Viewer@@QBEIXZ 0048c260 f i infolist.obj
 0001:0008b270       ??0DizViewer@@QAE@XZ       0048c270 f i infolist.obj
 0001:0008b290       ??1DizViewer@@UAE@XZ       0048c290 f i infolist.obj
 0001:0008b2a0       ?ProcessKey@DizViewer@@UAEHH@Z 0048c2a0 f i infolist.obj
 0001:0008b2c0       ?ProcessMouse@DizViewer@@UAEHPAU_MOUSE_EVENT_RECORD@@@Z 0048c2c0 f i infolist.obj
 0001:0008b2e0       ??_EDizViewer@@UAEPAXI@Z   0048c2e0 f i infolist.obj
 0001:0008b2e0       ??_GDizViewer@@UAEPAXI@Z   0048c2e0 f i infolist.obj
 0001:0008b310       ?Update@InfoList@@UAEXH@Z  0048c310 f   infolist.obj
 0001:0008b340       ?VMProcess@InfoList@@UAE_JHPAX_J@Z 0048c340 f   infolist.obj
 0001:0008b390       ?ProcessMouse@InfoList@@UAEHPAU_MOUSE_EVENT_RECORD@@@Z 0048c390 f   infolist.obj
 0001:0008b490       ?CloseFile@InfoList@@UAEXXZ 0048c490 f   infolist.obj
 0001:0008b520       ?SetMacroMode@InfoList@@AAEXH@Z 0048c520 f   infolist.obj
 0001:0008b560       ??0?$ManipulatorTemplate@H$09@fmt@@QAE@H@Z 0048c560 f i infolist.obj
 0001:0008b570       ?GetTitle@InfoList@@UAEAAVUnicodeString@@AAV2@HH@Z 0048c570 f   infolist.obj
 0001:0008b620       ?PrintText@InfoList@@AAEXPB_W@Z 0048c620 f   infolist.obj
 0001:0008b660       ?PrintText@InfoList@@AAEXH@Z 0048c660 f   infolist.obj
 0001:0008b6b0       ?SetFocus@InfoList@@UAEXXZ 0048c6b0 f   infolist.obj
 0001:0008b6f0       ?KillFocus@InfoList@@UAEXXZ 0048c6f0 f   infolist.obj
 0001:0008b730       ?GetCurName@InfoList@@UAEHAAVUnicodeString@@0@Z 0048c730 f   infolist.obj
 0001:0008b760       ?DynamicUpdateKeyBar@InfoList@@AAEXXZ 0048c760 f   infolist.obj
 0001:0008b8e0       ??0InfoList@@QAE@XZ        0048c8e0 f   infolist.obj
 0001:0008b950       ?ClearAllItem@Panel@@MAEXXZ 0048c950 f i infolist.obj
 0001:0008b960       ?SendKeyToPlugin@Panel@@UAEHK_N@Z 0048c960 f i infolist.obj
 0001:0008b970       ?GetSelCount@Panel@@UAEHXZ 0048c970 f i infolist.obj
 0001:0008b980       ?GetRealSelCount@Panel@@UAEHXZ 0048c980 f i infolist.obj
 0001:0008b990       ?GetSelName@Panel@@UAEHPAVUnicodeString@@AAK0PAUFAR_FIND_DATA_EX@@@Z 0048c990 f i infolist.obj
 0001:0008b9a0       ?UngetSelName@Panel@@UAEXXZ 0048c9a0 f i infolist.obj
 0001:0008b9b0       ?ClearLastGetSelection@Panel@@UAEXXZ 0048c9b0 f i infolist.obj
 0001:0008b9c0       ?GetLastSelectedSize@Panel@@UAE_KXZ 0048c9c0 f i infolist.obj
 0001:0008b9d0       ?GetLastSelectedItem@Panel@@UAEHPAUFileListItem@@@Z 0048c9d0 f i infolist.obj
 0001:0008b9e0       ?GetFileName@Panel@@UAEHAAVUnicodeString@@HAAK@Z 0048c9e0 f i infolist.obj
 0001:0008b9f0       ?GetCurrentPos@Panel@@UAEHXZ 0048c9f0 f i infolist.obj
 0001:0008ba00       ?UpdateIfChanged@Panel@@UAEHH@Z 0048ca00 f i infolist.obj
 0001:0008ba10       ?UpdateIfRequired@Panel@@UAEXXZ 0048ca10 f i infolist.obj
 0001:0008ba20       ?CloseChangeNotification@Panel@@UAEXXZ 0048ca20 f i infolist.obj
 0001:0008ba30       ?FindPartName@Panel@@UAEHPB_WHHH@Z 0048ca30 f i infolist.obj
 0001:0008ba40       ?GoToFile@Panel@@UAEHJ@Z   0048ca40 f i infolist.obj
 0001:0008ba50       ?GoToFile@Panel@@UAEHPB_WH@Z 0048ca50 f i infolist.obj
 0001:0008ba60       ?FindFile@Panel@@UAEJPB_WH@Z 0048ca60 f i infolist.obj
 0001:0008ba70       ?IsSelected@Panel@@UAEHPB_W@Z 0048ca70 f i infolist.obj
 0001:0008ba80       ?IsSelected@Panel@@UAEHJ@Z 0048ca80 f i infolist.obj
 0001:0008ba90       ?FindFirst@Panel@@UAEJPB_W@Z 0048ca90 f i infolist.obj
 0001:0008baa0       ?FindNext@Panel@@UAEJHPB_W@Z 0048caa0 f i infolist.obj
 0001:0008bab0       ?SetSelectedFirstMode@Panel@@UAEXH@Z 0048cab0 f i infolist.obj
 0001:0008bac0       ?GetSelectedFirstMode@Panel@@UAEHXZ 0048cac0 f i infolist.obj
 0001:0008bad0       ?GetPrevViewMode@Panel@@UAEHXZ 0048cad0 f i infolist.obj
 0001:0008bae0       ?GetPrevSortMode@Panel@@UAEHXZ 0048cae0 f i infolist.obj
 0001:0008baf0       ?GetPrevSortOrder@Panel@@UAEHXZ 0048caf0 f i infolist.obj
 0001:0008bb00       ?GetPrevNumericSort@Panel@@UAEHXZ 0048cb00 f i infolist.obj
 0001:0008bb10       ?GetPrevCaseSensitiveSort@Panel@@UAEHXZ 0048cb10 f i infolist.obj
 0001:0008bb20       ?GetPrevDirectoriesFirst@Panel@@UAEHXZ 0048cb20 f i infolist.obj
 0001:0008bb30       ?SetSortMode@Panel@@UAEXH@Z 0048cb30 f i infolist.obj
 0001:0008bb40       ?UpdateViewPanel@Panel@@UAEXXZ 0048cb40 f i infolist.obj
 0001:0008bb50       ?CompareDir@Panel@@UAEXXZ  0048cb50 f i infolist.obj
 0001:0008bb60       ?MoveToMouse@Panel@@UAEXPAU_MOUSE_EVENT_RECORD@@@Z 0048cb60 f i infolist.obj
 0001:0008bb70       ?ClearSelection@Panel@@UAEXXZ 0048cb70 f i infolist.obj
 0001:0008bb80       ?SaveSelection@Panel@@UAEXXZ 0048cb80 f i infolist.obj
 0001:0008bb90       ?RestoreSelection@Panel@@UAEXXZ 0048cb90 f i infolist.obj
 0001:0008bba0       ?SortFileList@Panel@@UAEXH@Z 0048cba0 f i infolist.obj
 0001:0008bbb0       ?EditFilter@Panel@@UAEXXZ  0048cbb0 f i infolist.obj
 0001:0008bbc0       ?FileInFilter@Panel@@UAE_NJ@Z 0048cbc0 f i infolist.obj
 0001:0008bbd0       ?ReadDiz@Panel@@UAEXPAUPluginPanelItem@@HK@Z 0048cbd0 f i infolist.obj
 0001:0008bbe0       ?DeleteDiz@Panel@@UAEXPB_W0@Z 0048cbe0 f i infolist.obj
 0001:0008bbf0       ?GetDizName@Panel@@UAEXAAVUnicodeString@@@Z 0048cbf0 f i infolist.obj
 0001:0008bc00       ?FlushDiz@Panel@@UAEXXZ    0048cc00 f i infolist.obj
 0001:0008bc10       ?CopyDiz@Panel@@UAEXPB_W000PAVDizList@@@Z 0048cc10 f i infolist.obj
 0001:0008bc20       ?IsFullScreen@Panel@@UAEHXZ 0048cc20 f i infolist.obj
 0001:0008bc30       ?IsDizDisplayed@Panel@@UAEHXZ 0048cc30 f i infolist.obj
 0001:0008bc40       ?IsColumnDisplayed@Panel@@UAEHH@Z 0048cc40 f i infolist.obj
 0001:0008bc50       ?GetColumnsCount@Panel@@UAEHXZ 0048cc50 f i infolist.obj
 0001:0008bc60       ?SetReturnCurrentFile@Panel@@UAEXH@Z 0048cc60 f i infolist.obj
 0001:0008bc70       ?GetOpenPluginInfo@Panel@@UAEXPAUOpenPluginInfo@@@Z 0048cc70 f i infolist.obj
 0001:0008bc80       ?SetPluginMode@Panel@@UAEXPAXPB_W_N@Z 0048cc80 f i infolist.obj
 0001:0008bc90       ?SetPluginModified@Panel@@UAEXXZ 0048cc90 f i infolist.obj
 0001:0008bca0       ?ProcessPluginEvent@Panel@@UAEHHPAX@Z 0048cca0 f i infolist.obj
 0001:0008bcb0       ?GetPluginHandle@Panel@@UAEPAXXZ 0048ccb0 f i infolist.obj
 0001:0008bcc0       ?IfGoHome@Panel@@UAEX_W@Z  0048ccc0 f i infolist.obj
 0001:0008bcd0       ?GetFileCount@Panel@@UAEJXZ 0048ccd0 f i infolist.obj
 0001:0008bce0       ?GetItem@Panel@@UAEHHPAX@Z 0048cce0 f i infolist.obj
 0001:0008bcf0       ?GetPanelStatusHeight@Panel@@UAEHXZ 0048ccf0 f i infolist.obj
 0001:0008bd00       ?ClearCustomData@Panel@@UAEXXZ 0048cd00 f i infolist.obj
 0001:0008bd10       ??1InfoList@@UAE@XZ        0048cd10 f   infolist.obj
 0001:0008bd70       ?ProcessKey@InfoList@@UAEHH@Z 0048cd70 f   infolist.obj
 0001:0008c100       ?PrintInfo@InfoList@@AAEXPB_W@Z 0048d100 f   infolist.obj
 0001:0008c200       ?PrintInfo@InfoList@@AAEXH@Z 0048d200 f   infolist.obj
 0001:0008c220       ?ShowPluginDescription@InfoList@@AAEXXZ 0048d220 f   infolist.obj
 0001:0008c490       ?OpenDizFile@InfoList@@AAEHPB_WH@Z 0048d490 f   infolist.obj
 0001:0008c730       ?UpdateKeyBar@InfoList@@UAEHXZ 0048d730 f   infolist.obj
 0001:0008c7d0       ??_GInfoList@@UAEPAXI@Z    0048d7d0 f i infolist.obj
 0001:0008c7d0       ??_EInfoList@@UAEPAXI@Z    0048d7d0 f i infolist.obj
 0001:0008c7f0       ?ShowDirDescription@InfoList@@AAEXH@Z 0048d7f0 f   infolist.obj
 0001:0008cb50       ?DisplayObject@InfoList@@EAEXXZ 0048db50 f   infolist.obj
 0001:0008da60       ?ChangeConsoleMode@@YAXH@Z 0048ea60 f   interf.obj
 0001:0008daa0       ?SaveConsoleWindowRect@@YAXXZ 0048eaa0 f   interf.obj
 0001:0008dab0       ?RestoreConsoleWindowRect@@YAXXZ 0048eab0 f   interf.obj
 0001:0008db20       ?FlushInputBuffer@@YAXXZ   0048eb20 f   interf.obj
 0001:0008db40       ?GenerateWINDOW_BUFFER_SIZE_EVENT@@YAXHH@Z 0048eb40 f   interf.obj
 0001:0008dbc0       ?GetVideoMode@@YAXAAU_COORD@@@Z 0048ebc0 f   interf.obj
 0001:0008dc60       ?CtrlHandler@@YGHK@Z       0048ec60 f   interf.obj
 0001:0008dda0       ?GotoXY@@YAXHH@Z           0048eda0 f   interf.obj
 0001:0008ddc0       ?WhereX@@YAHXZ             0048edc0 f   interf.obj
 0001:0008ddd0       ?WhereY@@YAHXZ             0048edd0 f   interf.obj
 0001:0008dde0       ?MoveCursor@@YAXHH@Z       0048ede0 f   interf.obj
 0001:0008de00       ?GetCursorPos@@YAXAAF0@Z   0048ee00 f   interf.obj
 0001:0008de20       ?SetInitialCursorType@@YAXXZ 0048ee20 f   interf.obj
 0001:0008de40       ?GetCursorType@@YAXAA_NAAK@Z 0048ee40 f   interf.obj
 0001:0008de60       ?MoveRealCursor@@YAXHH@Z   0048ee60 f   interf.obj
 0001:0008de90       ?GetRealCursorPos@@YAXAAF0@Z 0048ee90 f   interf.obj
 0001:0008dec0       ?InitRecodeOutTable@@YAXXZ 0048eec0 f   interf.obj
 0001:0008e170       ?SetScreen@@YAXHHHH_WH@Z   0048f170 f   interf.obj
 0001:0008e1e0       ?MakeShadow@@YAXHHHH@Z     0048f1e0 f   interf.obj
 0001:0008e230       ?ChangeBlockColor@@YAXHHHHH@Z 0048f230 f   interf.obj
 0001:0008e2a0       ?SetColor@@YAXH@Z          0048f2a0 f   interf.obj
 0001:0008e2c0       ?SetRealColor@@YAXH@Z      0048f2c0 f   interf.obj
 0001:0008e2f0       ?ClearScreen@@YAXH@Z       0048f2f0 f   interf.obj
 0001:0008e360       ?GetColor@@YAHXZ           0048f360 f   interf.obj
 0001:0008e370       ?ScrollScreen@@YAXH@Z      0048f370 f   interf.obj
 0001:0008e3c0       ?GetText@@YAXHHHHPAXH@Z    0048f3c0 f   interf.obj
 0001:0008e3f0       ?PutText@@YAXHHHHPBX@Z     0048f3f0 f   interf.obj
 0001:0008e440       ?ScrollBarRequired@@YA_NI_K@Z 0048f440 f   interf.obj
 0001:0008e470       ?MakeSeparator@@YAPA_WHPA_WHPB_W@Z 0048f470 f   interf.obj
 0001:0008e630       ?HiStrlen@@YAHPB_W@Z       0048f630 f   interf.obj
 0001:0008e690       ?HiFindRealPos@@YAHPB_WHH@Z 0048f690 f   interf.obj
 0001:0008e6f0       ?HiFindNextVisualPos@@YAHPB_WHH@Z 0048f6f0 f   interf.obj
 0001:0008e780       ?IsFullscreen@@YA_NXZ      0048f780 f   interf.obj
 0001:0008e7b0       ??$Round@_K@@YA?B_KAB_K0@Z 0048f7b0 f i interf.obj
 0001:0008e820       ?CloseConsole@@YAXXZ       0048f820 f   interf.obj
 0001:0008e930       ?SetFarConsoleMode@@YAXH@Z 0048f930 f   interf.obj
 0001:0008e9a0       ?ChangeVideoMode@@YAXHH@Z  0048f9a0 f   interf.obj
 0001:0008eab0       ?SetCursorType@@YAX_NK@Z   0048fab0 f   interf.obj
 0001:0008eb10       ?Text@@YAXPB_W@Z           0048fb10 f   interf.obj
 0001:0008ebd0       ?Text@@YAXH@Z              0048fbd0 f   interf.obj
 0001:0008ebf0       ?VText@@YAXPB_W@Z          0048fbf0 f   interf.obj
 0001:0008ec60       ?mprintf@@YAXPB_WZZ        0048fc60 f   interf.obj
 0001:0008eca0       ?vmprintf@@YAXPB_WZZ       0048fca0 f   interf.obj
 0001:0008ece0       ?BoxText@@YAXPB_WH@Z       0048fce0 f   interf.obj
 0001:0008ed10       ?Box@@YAXHHHHHH@Z          0048fd10 f   interf.obj
 0001:0008ef80       ?ScrollBarEx@@YA_NIII_K0@Z 0048ff80 f   interf.obj
 0001:0008f1a0       ?ScrollBar@@YAXHHHKK@Z     004901a0 f   interf.obj
 0001:0008f2b0       ?DrawLine@@YAXHHPB_W@Z     004902b0 f   interf.obj
 0001:0008f350       ?ChangeVideoMode@@YAXH@Z   00490350 f   interf.obj
 0001:0008f3e0       ?ShowTime@@YAXH@Z          004903e0 f   interf.obj
 0001:0008f580       ?Text@@YAXHHHPB_W@Z        00490580 f   interf.obj
 0001:0008f5c0       ?HiText@@YAXPB_WHH@Z       004905c0 f   interf.obj
 0001:0008f800       ?BoxText@@YAX_W@Z          00490800 f   interf.obj
 0001:0008f820       ?HiText2Str@@YAAAVUnicodeString@@AAV1@PB_W@Z 00490820 f   interf.obj
 0001:0008f940       ?InitConsole@@YAXH@Z       00490940 f   interf.obj
 0001:0008fbe0       ?SetVideoMode@@YAXXZ       00490be0 f   interf.obj
 0001:0008fc70       ?SetOwner@KeyBar@@QAEXPAVScreenObject@@@Z 00490c70 f   keybar.obj
 0001:0008fc80       ?SetRegGroup@KeyBar@@QAEXH@Z 00490c80 f   keybar.obj
 0001:0008fcc0       ?SetAllRegGroup@KeyBar@@QAEXXZ 00490cc0 f   keybar.obj
 0001:0008fd00       ?SetGroup@KeyBar@@QAEXHPBQB_WH@Z 00490d00 f   keybar.obj
 0001:0008fd60       ?ClearGroup@KeyBar@@QAEXH@Z 00490d60 f   keybar.obj
 0001:0008fda0       ?Change@KeyBar@@QAEXHPB_WH@Z 00490da0 f   keybar.obj
 0001:0008fdd0       ?SetAllGroup@KeyBar@@QAEXHHH@Z 00490dd0 f   keybar.obj
 0001:0008fe50       ?ProcessMouse@KeyBar@@UAEHPAU_MOUSE_EVENT_RECORD@@@Z 00490e50 f   keybar.obj
 0001:0008ffe0       ?RedrawIfChanged@KeyBar@@QAEXXZ 00490fe0 f   keybar.obj
 0001:00090010       ?SetDisableMask@KeyBar@@QAEXH@Z 00491010 f   keybar.obj
 0001:00090020       ?ResizeConsole@KeyBar@@UAEXXZ 00491020 f   keybar.obj
 0001:00090030       ?DisplayObject@KeyBar@@EAEXXZ 00491030 f   keybar.obj
 0001:000902a0       ?ProcessKey@KeyBar@@UAEHH@Z 004912a0 f   keybar.obj
 0001:000902f0       ??0KeyBar@@QAE@XZ          004912f0 f   keybar.obj
 0001:000903a0       ?ReadRegGroup@KeyBar@@QAEXPB_W0@Z 004913a0 f   keybar.obj
 0001:000906b0       ?GetFrameCount@Manager@@QAEHXZ 004916b0 f i keyboard.obj
 0001:000906c0       ?KeyToKeyLayoutCompare@@YA_NHH@Z 004916c0 f   keyboard.obj
 0001:00090700       ?KeyToKeyLayout@@YAHH@Z    00491700 f   keyboard.obj
 0001:00090730       ?SetFLockState@@YAHIH@Z    00491730 f   keyboard.obj
 0001:00090810       ?WriteInput@@YAHHK@Z       00491810 f   keyboard.obj
 0001:000908d0       ?ConfirmAbortOp@@YAHXZ     004918d0 f   keyboard.obj
 0001:000908f0       ?TranslateKeyToVK@@YAHHAAH0PAU_INPUT_RECORD@@@Z 004918f0 f   keyboard.obj
 0001:00090b30       ?IsNavKey@@YAHK@Z          00491b30 f   keyboard.obj
 0001:00090b70       ?IsShiftKey@@YAHK@Z        00491b70 f   keyboard.obj
 0001:00090ba0       ?CalcKeyCode@@YAKPAU_INPUT_RECORD@@HPAH_N@Z 00491ba0 f   keyboard.obj
 0001:00092ac0       ?InitKeysArray@@YAXXZ      00493ac0 f   keyboard.obj
 0001:00092d40       ?PeekInputRecord@@YAKPAU_INPUT_RECORD@@_N@Z 00493d40 f   keyboard.obj
 0001:00092fa0       ?ShieldCalcKeyCode@@YAKPAU_INPUT_RECORD@@HPAH_N@Z 00493fa0 f   keyboard.obj
 0001:00093000       ?InputRecordToKey@@YGHPBU_INPUT_RECORD@@@Z 00494000 f   keyboard.obj
 0001:00093090       ?ReloadEnvironment@@YAXXZ  00494090 f   keyboard.obj
 0001:000933a0       ?GetInputRecord@@YAKPAU_INPUT_RECORD@@_N11@Z 004943a0 f   keyboard.obj
 0001:00094570       ?WaitKey@@YAKKK_N@Z        00495570 f   keyboard.obj
 0001:000946c0       ?CheckForEscSilent@@YAHXZ  004956c0 f   keyboard.obj
 0001:000947a0       ?CheckForEsc@@YAHXZ        004957a0 f   keyboard.obj
 0001:000947d0       ?IsMouseButtonPressed@@YAKXZ 004957d0 f   keyboard.obj
 0001:00094870       ?KeyNameToKey@@YGHPB_W@Z   00495870 f   keyboard.obj
 0001:00094b30       ?KeyToText@@YGHHAAVUnicodeString@@@Z 00495b30 f   keyboard.obj
 0001:00094d90       ?Free@Language@@AAEXXZ     00495d90 f   language.obj
 0001:00094df0       ?Close@Language@@QAEXXZ    00495df0 f   language.obj
 0001:00094e70       ?ConvertString@Language@@AAEXPB_WAAVUnicodeString@@@Z 00495e70 f   language.obj
 0001:00095000       ?GetLangParam@@YAHPAU_iobuf@@PB_WPAVUnicodeString@@2I@Z 00496000 f   language.obj
 0001:00095220       ?GetOptionsParam@@YAHPAU_iobuf@@PB_WAAVUnicodeString@@I@Z 00496220 f   language.obj
 0001:000953f0       ??0Language@@QAE@XZ        004963f0 f   language.obj
 0001:00095420       ??1Language@@QAE@XZ        00496420 f   language.obj
 0001:00095450       ?CheckMsgId@Language@@ABE_NH@Z 00496450 f   language.obj
 0001:000955a0       ?GetMsg@Language@@QBEPB_WH@Z 004965a0 f   language.obj
 0001:00095600       ?GetMsgA@Language@@QBEPBDH@Z 00496600 f   language.obj
 0001:00095660       ?Select@@YAHHPAPAVVMenu@@@Z 00496660 f   language.obj
 0001:00095be0       ?OpenLangFile@@YAPAU_iobuf@@PB_W00AAVUnicodeString@@AAIHPAV2@@Z 00496be0 f   language.obj
 0001:00095ed0       ?Init@Language@@QAE_NPB_W_NH@Z 00496ed0 f   language.obj
 0001:00096370       ?StrStr@@YAPB_WPB_W0@Z     00497370 f   local.obj
 0001:000963d0       ?StrStrI@@YAPB_WPB_W0@Z    004973d0 f   local.obj
 0001:00096480       ?RevStrStrI@@YAPB_WPB_W0@Z 00497480 f   local.obj
 0001:00096570       ?RevStrStr@@YAPB_WPB_W0@Z  00497570 f   local.obj
 0001:00096620       ?NumStrCmp@@YAHPB_WI0I_N@Z 00497620 f   local.obj
 0001:00096860       ?LocalUpperInit@@YAXXZ     00497860 f   localOEM.obj
 0001:00096960       ?LocalIslower@@YGHI@Z      00497960 f   localOEM.obj
 0001:00096990       ?LocalIsupper@@YGHI@Z      00497990 f   localOEM.obj
 0001:000969c0       ?LocalIsalpha@@YGHI@Z      004979c0 f   localOEM.obj
 0001:00096a00       ?LocalIsalphanum@@YGHI@Z   00497a00 f   localOEM.obj
 0001:00096a40       ?LocalUpper@@YGII@Z        00497a40 f   localOEM.obj
 0001:00096a60       ?LocalUpperBuf@@YGXPADH@Z  00497a60 f   localOEM.obj
 0001:00096a90       ?LocalLower@@YGII@Z        00497a90 f   localOEM.obj
 0001:00096ab0       ?LocalStrupr@@YGXPAD@Z     00497ab0 f   localOEM.obj
 0001:00096ae0       ?LocalStrlwr@@YGXPAD@Z     00497ae0 f   localOEM.obj
 0001:00096b10       ?LocalStrstri@@YAPBDPBD0@Z 00497b10 f   localOEM.obj
 0001:00096b90       ?LocalRevStrstri@@YAPBDPBD0@Z 00497b90 f   localOEM.obj
 0001:00096c40       ?LocalStricmp@@YAHPBD0@Z   00497c40 f   localOEM.obj
 0001:00096ca0       ?LocalStrnicmp@@YAHPBD0H@Z 00497ca0 f   localOEM.obj
 0001:00096d00       ?LStricmp@@YGHPBD0@Z       00497d00 f   localOEM.obj
 0001:00096d20       ?LStrnicmp@@YGHPBD0H@Z     00497d20 f   localOEM.obj
 0001:00096db0       ?InitLCIDSort@@YAXXZ       00497db0 f   localOEM.obj
 0001:00096f20       ?LocalLowerBuf@@YGXPADH@Z  00497f20 f   localOEM.obj
 0001:00096f50       ??0LockScreen@@QAE@XZ      00497f50 f   lockscrn.obj
 0001:00096f70       ??1LockScreen@@QAE@XZ      00497f70 f   lockscrn.obj
 0001:00096f90       ??YTVar@@QAEAAV0@ABV0@@Z   00497f90 f i macro.obj
 0001:00096fd0       ??ZTVar@@QAEAAV0@ABV0@@Z   00497fd0 f i macro.obj
 0001:00097010       ??XTVar@@QAEAAV0@ABV0@@Z   00498010 f i macro.obj
 0001:00097050       ??_0TVar@@QAEAAV0@ABV0@@Z  00498050 f i macro.obj
 0001:00097090       ??_4TVar@@QAEAAV0@ABV0@@Z  00498090 f i macro.obj
 0001:000970d0       ??_5TVar@@QAEAAV0@ABV0@@Z  004980d0 f i macro.obj
 0001:00097110       ??_6TVar@@QAEAAV0@ABV0@@Z  00498110 f i macro.obj
 0001:00097150       ??_2TVar@@QAEAAV0@ABV0@@Z  00498150 f i macro.obj
 0001:00097190       ??_3TVar@@QAEAAV0@ABV0@@Z  00498190 f i macro.obj
 0001:000971d0       ?type@TVar@@QAE?AW4TVarType@@XZ 004981d0 f i macro.obj
 0001:000971e0       ?SetType@TVar@@QAEXW4TVarType@@@Z 004981e0 f i macro.obj
 0001:000971f0       ?isString@TVar@@QBEHXZ     004981f0 f i macro.obj
 0001:00097200       ?isInteger@TVar@@QBEHXZ    00498200 f i macro.obj
 0001:00097220       ?isUnknown@TVar@@QBEHXZ    00498220 f i macro.obj
 0001:00097230       ?varInsert@@YAPAVTVarSet@@QAPAV1@PB_W@Z 00498230 f i macro.obj
 0001:00097250       ?IsMenuArea@@YA_NH@Z       00498250 f i macro.obj
 0001:00097280       ?GetTopModal@Frame@@QAEPAV1@XZ 00498280 f i macro.obj
 0001:00097290       ?ResetLastInputRecord@Manager@@QAEXXZ 00498290 f i macro.obj
 0001:000972a0       ?SetFilterEnabled@VMenu@@QAEX_N@Z 004982a0 f i macro.obj
 0001:000972b0       ?SetFilterMaskMode@VMenu@@QAEX_N@Z 004982b0 f i macro.obj
 0001:000972c0       ?GetShowItemCount@VMenu@@QAEHXZ 004982c0 f i macro.obj
 0001:000972d0       ?GetAllItemCount@Dialog@@QAEIXZ 004982d0 f i macro.obj
 0001:000972e0       ?GetDlgFocusPos@Dialog@@QAEIXZ 004982e0 f i macro.obj
 0001:000972f0       ?IsPluginsLoaded@PluginManager@@QAEHXZ 004982f0 f i macro.obj
 0001:00097300       ?CheckFlags@PluginManager@@QAEHK@Z 00498300 f i macro.obj
 0001:00097310       ?GetString@CommandLine@@QAEXAAVUnicodeString@@@Z 00498310 f i macro.obj
 0001:00097320       ?Clear@TreeItem@@QAEXXZ    00498320 f i macro.obj
 0001:00097340       ?WasTitleModified@ConsoleTitle@@SA_NXZ 00498340 f i macro.obj
 0001:00097350       ?ToPtr@@YAPAXH@Z           00498350 f i macro.obj
 0001:00097360       ?InitInternalLIBVars@KeyMacro@@AAEXXZ 00498360 f   macro.obj
 0001:00097430       ?LowerBuf@@YAXPA_WH@Z      00498430 f i macro.obj
 0001:00097450       ?StrUpper@@YAXPA_W@Z       00498450 f i macro.obj
 0001:00097480       ?StrLower@@YAXPA_W@Z       00498480 f i macro.obj
 0001:000974b0       ??_GLockScreen@@QAEPAXI@Z  004984b0 f i macro.obj
 0001:000974d0       ?ReleaseWORKBuffer@KeyMacro@@AAEXH@Z 004984d0 f   macro.obj
 0001:00097640       ?GetPlainText@KeyMacro@@QAE_NAAVUnicodeString@@@Z 00498640 f   macro.obj
 0001:000976d0       ?GetPlainTextSize@KeyMacro@@QAEHXZ 004986d0 f   macro.obj
 0001:000978a0       ?eStackAsString@@YAPB_WH@Z 004988a0 f   macro.obj
 0001:000978c0       ?SwitchFlags@KeyMacro@@AAEKAAKK@Z 004988c0 f   macro.obj
 0001:000978e0       ?SetMacroConst@KeyMacro@@SAXPB_WABVTVar@@@Z 004988e0 f   macro.obj
 0001:00097910       ?UnregMacroFunction@KeyMacro@@SA_NI@Z 00498910 f   macro.obj
 0001:000979f0       ?GetMacroFunction@KeyMacro@@SAPBUTMacroFunction@@I@Z 004989f0 f   macro.obj
 0001:00097a10       ?GetCountMacroFunction@KeyMacro@@SAIXZ 00498a10 f   macro.obj
 0001:00097a20       ?GetNewOpCode@KeyMacro@@SAKXZ 00498a20 f   macro.obj
 0001:00097a30       ?RestartAutoMacro@KeyMacro@@QAEXH@Z 00498a30 f   macro.obj
 0001:00097a70       ?PostNewMacro@KeyMacro@@QAEHPAUMacroRecord@@HH@Z 00498a70 f   macro.obj
 0001:00097b90       ?Init@MacroState@@QAEXPAY0BH@PAVTVarSet@@@Z 00498b90 f   macro.obj
 0001:00097be0       ?PushState@KeyMacro@@QAEH_N@Z 00498be0 f   macro.obj
 0001:00097c70       ?PopState@KeyMacro@@QAEHXZ 00498c70 f   macro.obj
 0001:00097cc0       ?GetIndex@KeyMacro@@QAEHHH_N@Z 00498cc0 f   macro.obj
 0001:00097e00       ?GetRecordSize@KeyMacro@@QAEHHH@Z 00498e00 f   macro.obj
 0001:00097e40       ?GetSubKey@KeyMacro@@SAPB_WH@Z 00498e40 f   macro.obj
 0001:00097e60       ?GetSubKey@KeyMacro@@SAHPB_W@Z 00498e60 f   macro.obj
 0001:00097eb0       ?CheckEditSelected@KeyMacro@@AAEHK@Z 00498eb0 f   macro.obj
 0001:00097f80       ?CheckInsidePlugin@KeyMacro@@AAEHK@Z 00498f80 f   macro.obj
 0001:00097fb0       ?CheckCmdLine@KeyMacro@@AAEHHK@Z 00498fb0 f   macro.obj
 0001:00097fe0       ?CheckPanel@KeyMacro@@AAEHHKH@Z 00498fe0 f   macro.obj
 0001:00098040       ?CheckCurMacroFlags@KeyMacro@@QAEHK@Z 00499040 f   macro.obj
 0001:00098070       ?GetCurRecord@KeyMacro@@QAEHPAUMacroRecord@@PAH@Z 00499070 f   macro.obj
 0001:00098130       ?IsHistroyEnable@KeyMacro@@QAE_NH@Z 00499130 f   macro.obj
 0001:00098180       ?Sort@KeyMacro@@AAEXXZ     00499180 f   macro.obj
 0001:00098200       ?GetOpCode@KeyMacro@@AAEKPAUMacroRecord@@H@Z 00499200 f   macro.obj
 0001:00098220       ?CheckWaitKeyFunc@KeyMacro@@QAE_NXZ 00499220 f   macro.obj
 0001:00098260       ?SetOpCode@KeyMacro@@AAEKPAUMacroRecord@@HK@Z 00499260 f   macro.obj
 0001:00098290       ?IsExecutingLastKey@KeyMacro@@QAEHXZ 00499290 f   macro.obj
 0001:000982b0       ?SendDropProcess@KeyMacro@@QAEXXZ 004992b0 f   macro.obj
 0001:000982c0       ?DropProcess@KeyMacro@@QAEXXZ 004992c0 f   macro.obj
 0001:00098310       ?checkMacroConst@@YA_NPB_W@Z 00499310 f   macro.obj
 0001:00098330       ?initMacroVarTable@@YAXH@Z 00499330 f   macro.obj
 0001:00098360       ?doneMacroVarTable@@YAXH@Z 00499360 f   macro.obj
 0001:00098390       ?GetMacroParseError@KeyMacro@@QAEHPAKPAU_COORD@@PAVUnicodeString@@@Z 00499390 f   macro.obj
 0001:000983b0       ?GetMacroParseError@KeyMacro@@QAEHPAVUnicodeString@@000@Z 004993b0 f   macro.obj
 0001:000983d0       ?IsOpCode@KeyMacro@@QAE_NK@Z 004993d0 f   macro.obj
 0001:000984c0       ??0?$TStack@VTVar@@@@QAE@XZ 004994c0 f i macro.obj
 0001:000984d0       ?empty@?$TStack@VTVar@@@@QBE_NXZ 004994d0 f i macro.obj
 0001:000984e0       ?Peek@?$TStack@VTVar@@@@QAEPAVTVar@@XZ 004994e0 f i macro.obj
 0001:000984f0       ??0OneItem@?$TStack@VTVar@@@@QAE@XZ 004994f0 f i macro.obj
 0001:00098500       ??1OneItem@?$TStack@VTVar@@@@QAE@XZ 00499500 f i macro.obj
 0001:00098510       ?Peek@TVMStack@@QAEABVTVar@@XZ 00499510 f i macro.obj
 0001:00098520       ?KeyNameMacroToKey@@YGHPB_W@Z 00499520 f   macro.obj
 0001:00098580       ??0KeyMacro@@QAE@XZ        00499580 f   macro.obj
 0001:00098620       ?FARPseudoVariable@KeyMacro@@AAE?AVTVar@@KKAAK@Z 00499620 f   macro.obj
 0001:0009a100       ?PeekKey@KeyMacro@@QAEHXZ  0049b100 f   macro.obj
 0001:0009a130       ?MkRegKeyName@KeyMacro@@AAEAAVUnicodeString@@HAAV2@@Z 0049b130 f   macro.obj
 0001:0009a270       ?MkTextSequence@KeyMacro@@SAPA_WPAKHPB_W@Z 0049b270 f   macro.obj
 0001:0009a470       ?SaveMacros@KeyMacro@@QAEXH@Z 0049b470 f   macro.obj
 0001:0009a690       ?WriteVarsConst@KeyMacro@@AAEHH@Z 0049b690 f   macro.obj
 0001:0009a8f0       ?ReadVarsConst@KeyMacro@@AAEHHAAVUnicodeString@@@Z 0049b8f0 f   macro.obj
 0001:0009acd0       ?RegisterMacroFunction@KeyMacro@@SAPAUTMacroFunction@@PBU2@@Z 0049bcd0 f   macro.obj
 0001:0009ae00       ?AssignMacroDlgProc@KeyMacro@@CGJPAXHHJ@Z 0049be00 f   macro.obj
 0001:0009b480       ?ParseMacroString@KeyMacro@@QAEHPAUMacroRecord@@PB_WH@Z 0049c480 f   macro.obj
 0001:0009b6f0       ?CheckFileFolder@KeyMacro@@AAEHPAVPanel@@KH@Z 0049c6f0 f   macro.obj
 0001:0009b7f0       ?CheckAll@KeyMacro@@AAEHHK@Z 0049c7f0 f   macro.obj
 0001:0009b970       ?Push@?$TStack@VTVar@@@@QAEPAVTVar@@ABV2@@Z 0049c970 f i macro.obj
 0001:0009b9c0       ??_GOneItem@?$TStack@VTVar@@@@QAEPAXI@Z 0049c9c0 f i macro.obj
 0001:0009b9e0       ??0TreeItem@@QAE@XZ        0049c9e0 f i macro.obj
 0001:0009ba20       ??1TreeItem@@QAE@XZ        0049ca20 f i macro.obj
 0001:0009ba50       ?KeyMacroToText@@YGHHAAVUnicodeString@@@Z 0049ca50 f   macro.obj
 0001:0009bb40       ?RegisterMacroIntFunction@KeyMacro@@SAXXZ 0049cb40 f   macro.obj
 0001:0009bbb0       ?ReadMacros@KeyMacro@@AAEHHAAVUnicodeString@@@Z 0049cbb0 f   macro.obj
 0001:0009c0c0       ?RunStartMacro@KeyMacro@@QAEXXZ 0049d0c0 f   macro.obj
 0001:0009c1c0       ?AssignMacroKey@KeyMacro@@AAEKXZ 0049d1c0 f   macro.obj
 0001:0009c450       ?ParamMacroDlgProc@KeyMacro@@CGJPAXHHJ@Z 0049d450 f   macro.obj
 0001:0009c560       ?GetMacroSettings@KeyMacro@@AAEHHAAK@Z 0049d560 f   macro.obj
 0001:0009d220       ?PostNewMacro@KeyMacro@@QAEHPB_WKKH@Z 0049e220 f   macro.obj
 0001:0009d3c0       ?GetMacroKeyInfo@KeyMacro@@SAH_NHHAAVUnicodeString@@1@Z 0049e3c0 f   macro.obj
 0001:0009d880       ?Pop@?$TStack@VTVar@@@@QAEPAVTVar@@AAV2@@Z 0049e880 f i macro.obj
 0001:0009d8d0       ?Free@?$TStack@VTVar@@@@QAEXXZ 0049e8d0 f i macro.obj
 0001:0009d910       ?Pop@TVMStack@@QAEABVTVar@@XZ 0049e910 f i macro.obj
 0001:0009d980       ?Pop@TVMStack@@QAEAAVTVar@@AAV2@@Z 0049e980 f i macro.obj
 0001:0009d9d0       ?InitInternalVars@KeyMacro@@AAEXH@Z 0049e9d0 f   macro.obj
 0001:0009da50       ?ProcessKey@KeyMacro@@QAEHH@Z 0049ea50 f   macro.obj
 0001:000a5e50       ?GetKey@KeyMacro@@QAEHXZ   004a6e50 f   macro.obj
 0001:000a85a0       ?ReadMacroFunction@KeyMacro@@AAEHHAAVUnicodeString@@@Z 004a95a0 f   macro.obj
 0001:000a89e0       ??1?$TStack@VTVar@@@@QAE@XZ 004a99e0 f i macro.obj
 0001:000a89f0       ??0TVMStack@@QAE@XZ        004a99f0 f i macro.obj
 0001:000a8a10       ??1TVMStack@@QAE@XZ        004a9a10 f i macro.obj
 0001:000a8a30       ??1KeyMacro@@QAE@XZ        004a9a30 f   macro.obj
 0001:000a8ac0       ?LoadMacros@KeyMacro@@QAEHHH@Z 004a9ac0 f   macro.obj
 0001:000a8ce0       ?init@TExec@@QAEXXZ        004a9ce0 f i macrocompiler.obj
 0001:000a8d10       ??RTExec@@QAEAAUTExecItem@@XZ 004a9d10 f i macrocompiler.obj
 0001:000a8d20       ?findnearloop@TExec@@QAEHPAPAUTExecItem@@@Z 004a9d20 f   macrocompiler.obj
 0001:000a8d60       ?add@TExec@@QAEHW4TExecMode@@KK@Z 004a9d60 f   macrocompiler.obj
 0001:000a8db0       ?del@TExec@@QAEHXZ         004a9db0 f   macrocompiler.obj
 0001:000a9010       ?__getMacroErrorCode@@YAHPAH@Z 004aa010 f   macrocompiler.obj
 0001:000a9030       ?__setMacroErrorCode@@YAXH@Z 004aa030 f   macrocompiler.obj
 0001:000a9040       ??0TExec@@QAE@XZ           004aa040 f i macrocompiler.obj
 0001:000aa1c0       ?__getMacroParseError@@YAHPAKPAU_COORD@@PAVUnicodeString@@@Z 004ab1c0 f   macrocompiler.obj
 0001:000aa220       ?__getMacroParseError@@YAHPAVUnicodeString@@000@Z 004ab220 f   macrocompiler.obj
 0001:000aacf0       ?__parseMacroString@@YAHAAPAKAAHPB_W@Z 004abcf0 f   macrocompiler.obj
 0001:000abb00       ?GetLastError@Language@@QBE?AW4LngErrors@@XZ 004acb00 f i main.obj
 0001:000ac180       ?MainProcessSEH@@YAHAAVUnicodeString@@000HH@Z 004ad180 f   main.obj
 0001:000ac230       _wmain                     004ad230 f   main.obj
 0001:000acb20       ?SetDisable@MenuItemEx@@QAEKH@Z 004adb20 f i manager.obj
 0001:000acb40       ??0Manager@@QAE@XZ         004adb40 f   manager.obj
 0001:000acba0       ??1Manager@@QAE@XZ         004adba0 f   manager.obj
 0001:000acbd0       ?InsertFrame@Manager@@QAEXPAVFrame@@H@Z 004adbd0 f   manager.obj
 0001:000acbe0       ?DeleteFrame@Manager@@QAEXPAVFrame@@@Z 004adbe0 f   manager.obj
 0001:000acc20       ?GetModalExitCode@Manager@@AAEHXZ 004adc20 f   manager.obj
 0001:000acc30       ?GetFrameCountByType@Manager@@QAEHH@Z 004adc30 f   manager.obj
 0001:000acc80       ?SetFramePos@Manager@@QAEXH@Z 004adc80 f   manager.obj
 0001:000acc90       ?ShowBackground@Manager@@QAEHXZ 004adc90 f   manager.obj
 0001:000accb0       ?ExecuteFrame@Manager@@QAEXPAVFrame@@@Z 004adcb0 f   manager.obj
 0001:000accc0       ?HaveAnyFrame@Manager@@QAEHXZ 004adcc0 f   manager.obj
 0001:000acd00       ?SetLastInputRecord@Manager@@QAEXPAU_INPUT_RECORD@@@Z 004add00 f   manager.obj
 0001:000acd30       ?ProcessMouse@Manager@@QAEHPAU_MOUSE_EVENT_RECORD@@@Z 004add30 f   manager.obj
 0001:000acd50       ?IsPanelsActive@Manager@@QAEHXZ 004add50 f   manager.obj
 0001:000acd70       ??AManager@@QAEPAVFrame@@H@Z 004add70 f   manager.obj
 0001:000acd90       ?IndexOfStack@Manager@@QAEHPAVFrame@@@Z 004add90 f   manager.obj
 0001:000acdc0       ?IndexOf@Manager@@QAEHPAVFrame@@@Z 004addc0 f   manager.obj
 0001:000acdf0       ?DeactivateCommit@Manager@@AAEXXZ 004addf0 f   manager.obj
 0001:000ace50       ?ActivateCommit@Manager@@AAEXXZ 004ade50 f   manager.obj
 0001:000aced0       ?InsertCommit@Manager@@AAEXXZ 004aded0 f   manager.obj
 0001:000acf30       ?RefreshCommit@Manager@@AAEXXZ 004adf30 f   manager.obj
 0001:000ad010       ?ExecuteCommit@Manager@@AAEXXZ 004ae010 f   manager.obj
 0001:000ad050       ?ModalizeCommit@Manager@@AAEXXZ 004ae050 f   manager.obj
 0001:000ad070       ?UnmodalizeCommit@Manager@@AAEXXZ 004ae070 f   manager.obj
 0001:000ad0c0       ?ifDoubleInstance@Manager@@QAEHPAVFrame@@@Z 004ae0c0 f   manager.obj
 0001:000ad0d0       ?ResizeAllModal@Manager@@QAEXPAVFrame@@@Z 004ae0d0 f   manager.obj
 0001:000ad100       ?InitKeyBar@Manager@@QAEXXZ 004ae100 f   manager.obj
 0001:000ad130       ?GetTopModal@Manager@@QAEPAVFrame@@XZ 004ae130 f   manager.obj
 0001:000ad150       ?DeleteFrame@Manager@@QAEXH@Z 004ae150 f   manager.obj
 0001:000ad180       ?ModalizeFrame@Manager@@QAEXPAVFrame@@H@Z 004ae180 f   manager.obj
 0001:000ad1a0       ?UnmodalizeFrame@Manager@@QAEXPAVFrame@@@Z 004ae1a0 f   manager.obj
 0001:000ad1b0       ?ActivateFrame@Manager@@QAEXPAVFrame@@@Z 004ae1b0 f   manager.obj
 0001:000ad210       ?ActivateFrame@Manager@@QAEXH@Z 004ae210 f   manager.obj
 0001:000ad240       ?DeactivateFrame@Manager@@QAEXPAVFrame@@H@Z 004ae240 f   manager.obj
 0001:000ad2b0       ?SwapTwoFrame@Manager@@QAEXH@Z 004ae2b0 f   manager.obj
 0001:000ad340       ?SwitchToPanels@Manager@@QAEXXZ 004ae340 f   manager.obj
 0001:000ad360       ?DeleteCommit@Manager@@AAEXXZ 004ae360 f   manager.obj
 0001:000ad600       ?CloseAll@Manager@@QAEXXZ  004ae600 f   manager.obj
 0001:000ad6e0       ?CountFramesWithName@Manager@@QAEHPB_WH@Z 004ae6e0 f   manager.obj
 0001:000ad7b0       ?FindFrameByFile@Manager@@QAEHHPB_W0@Z 004ae7b0 f   manager.obj
 0001:000ada30       ?PluginsMenu@Manager@@QAEXXZ 004aea30 f   manager.obj
 0001:000adb70       ?UpdateCommit@Manager@@AAEXXZ 004aeb70 f   manager.obj
 0001:000adc10       ?FrameMenu@Manager@@AAEPAVFrame@@XZ 004aec10 f   manager.obj
 0001:000adf40       ?Commit@Manager@@AAEHXZ    004aef40 f   manager.obj
 0001:000ae030       ?PluginCommit@Manager@@QAEHXZ 004af030 f   manager.obj
 0001:000ae040       ?ExitAll@Manager@@QAEHXZ   004af040 f   manager.obj
 0001:000ae130       ?IsAnyFrameModified@Manager@@QAEHH@Z 004af130 f   manager.obj
 0001:000ae1a0       ?RefreshFrame@Manager@@QAEXPAVFrame@@@Z 004af1a0 f   manager.obj
 0001:000ae200       ?RefreshFrame@Manager@@QAEXH@Z 004af200 f   manager.obj
 0001:000ae230       ?ExitMainLoop@Manager@@QAEXH@Z 004af230 f   manager.obj
 0001:000ae310       ?ImmediateHide@Manager@@QAEXXZ 004af310 f   manager.obj
 0001:000ae470       ?ResizeAllFrame@Manager@@QAEXXZ 004af470 f   manager.obj
 0001:000ae550       ?ProcessKey@Manager@@QAEHK@Z 004af550 f   manager.obj
 0001:000aeae0       ?ProcessMainLoop@Manager@@QAEXXZ 004afae0 f   manager.obj
 0001:000aec20       ?ExecuteNonModal@Manager@@QAEXXZ 004afc20 f   manager.obj
 0001:000aecd0       ?ExecuteModal@Manager@@QAEXPAVFrame@@@Z 004afcd0 f   manager.obj
 0001:000aed20       ?EnterMainLoop@Manager@@QAEXXZ 004afd20 f   manager.obj
 0001:000aed60       ?DisplayObject@MenuBar@@EAEXXZ 004afd60 f   menubar.obj
 0001:000af080       ?SetPluginNumber@Dialog@@QAEXH@Z 004b0080 f i message.obj
 0001:000af090       ?MsgDlgProc@@YGJPAXHHJ@Z   004b0090 f   message.obj
 0001:000af200       ?GetMessagePosition@@YAXAAH000@Z 004b0200 f   message.obj
 0001:000af230       ?FormatErrorString@@YA_N_NKAAVUnicodeString@@@Z 004b0230 f   message.obj
 0001:000af2e0       ?GetWin32ErrorString@@YA_NKAAVUnicodeString@@@Z 004b02e0 f   message.obj
 0001:000af360       ?GetNtErrorString@@YA_NJAAVUnicodeString@@@Z 004b0360 f   message.obj
 0001:000af3f0       ?GetErrorString@@YA_NAAVUnicodeString@@@Z 004b03f0 f   message.obj
 0001:000af470       ?SetMessageHelp@@YAXPB_W@Z 004b0470 f   message.obj
 0001:000af4b0       ?Message@@YAHKHPB_WPBQB_WHH@Z 004b04b0 f   message.obj
 0001:000b0240       ?Message@@YAHKHPB_W00000000000000H@Z 004b1240 f   message.obj
 0001:000b0300       ?Message@@YAHKHPB_W0000H@Z 004b1300 f   message.obj
 0001:000b0350       ?Message@@YAHKHPB_W0000000H@Z 004b1350 f   message.obj
 0001:000b03a0       ?Message@@YAHKHPB_W0000000000H@Z 004b13a0 f   message.obj
 0001:000b0400       ?AbortMessage@@YAHXZ       004b1400 f   message.obj
 0001:000b04c0       ?ToPercent@@YAHKK@Z        004b14c0 f   mix.obj
 0001:000b0510       ?ToPercent64@@YAH_K0@Z     004b1510 f   mix.obj
 0001:000b05a0       ?FarMkTempEx@@YAAAVUnicodeString@@AAV1@PB_WH1@Z 004b15a0 f   mix.obj
 0001:000b0700       _FarMkTemp@12              004b1700 f   mix.obj
 0001:000b0780       _FarRecursiveSearch@20     004b1780 f   mix.obj
 0001:000b08f0       ?MkDirDlgProc@@YGJPAXHHJ@Z 004b18f0 f   mkdir.obj
 0001:000b0a50       ?ShellMakeDir@@YAXPAVPanel@@@Z 004b1a50 f   mkdir.obj
 0001:000b13d0       ?ReadInput@Modal@@UAEHPAU_INPUT_RECORD@@@Z 004b23d0 f   modal.obj
 0001:000b1480       ?WriteInput@Modal@@QAEXH@Z 004b2480 f   modal.obj
 0001:000b1490       ?ProcessInput@Modal@@QAEXXZ 004b2490 f   modal.obj
 0001:000b14b0       ?Done@Modal@@QAEHXZ        004b24b0 f   modal.obj
 0001:000b14c0       ?ClearDone@Modal@@QAEXXZ   004b24c0 f   modal.obj
 0001:000b14d0       ?GetExitCode@Modal@@QAEHXZ 004b24d0 f   modal.obj
 0001:000b14e0       ?SetExitCode@Modal@@UAEXH@Z 004b24e0 f   modal.obj
 0001:000b1500       ?Process@Modal@@UAEXXZ     004b2500 f   modal.obj
 0001:000b1550       ?SetHelp@Modal@@QAEXPB_W@Z 004b2550 f   modal.obj
 0001:000b1590       ?ShowHelp@Modal@@QAEXXZ    004b2590 f   modal.obj
 0001:000b15d0       ??0Modal@@QAE@XZ           004b25d0 f   modal.obj
 0001:000b1600       ??0?$DList@UOneName@NamesList@@@@QAE@XZ 004b2600 f i namelist.obj
 0001:000b1620       ?Init@NamesList@@AAEXXZ    004b2620 f   namelist.obj
 0001:000b1640       ??1?$DList@UOneName@NamesList@@@@UAE@XZ 004b2640 f i namelist.obj
 0001:000b1650       ?Push@?$DList@UOneName@NamesList@@@@QAEPAUOneName@NamesList@@PBU23@@Z 004b2650 f i namelist.obj
 0001:000b1660       ?Swap@?$DList@UOneName@NamesList@@@@QAEXAAV1@@Z 004b2660 f i namelist.obj
 0001:000b1670       ?Node2Type@?$DList@UOneName@NamesList@@@@AAEPAUOneName@NamesList@@PAUNode@CDList@@@Z 004b2670 f i namelist.obj
 0001:000b1690       ?Type2Node@?$DList@UOneName@NamesList@@@@AAEPAUNode@CDList@@PBUOneName@NamesList@@@Z 004b2690 f i namelist.obj
 0001:000b16b0       ??_G?$DList@UOneName@NamesList@@@@UAEPAXI@Z 004b26b0 f i namelist.obj
 0001:000b16b0       ??_E?$DList@UOneName@NamesList@@@@UAEPAXI@Z 004b26b0 f i namelist.obj
 0001:000b16e0       ?AddName@NamesList@@QAEXPB_W0@Z 004b26e0 f   namelist.obj
 0001:000b1770       ?MoveData@NamesList@@QAEXAAV1@@Z 004b2770 f   namelist.obj
 0001:000b17b0       ?GetCurDir@NamesList@@QAEXAAVUnicodeString@@@Z 004b27b0 f   namelist.obj
 0001:000b17c0       ?SetCurDir@NamesList@@QAEXPB_W@Z 004b27c0 f   namelist.obj
 0001:000b1840       ?First@?$DList@UOneName@NamesList@@@@QAEPAUOneName@NamesList@@XZ 004b2840 f i namelist.obj
 0001:000b1850       ?Next@?$DList@UOneName@NamesList@@@@QAEPAUOneName@NamesList@@PBU23@@Z 004b2850 f i namelist.obj
 0001:000b1880       ?Prev@?$DList@UOneName@NamesList@@@@QAEPAUOneName@NamesList@@PBU23@@Z 004b2880 f i namelist.obj
 0001:000b18b0       ??4FileName2@NamesList@@QAEAAU01@ABU01@@Z 004b28b0 f i namelist.obj
 0001:000b18e0       ??0FileName2@NamesList@@QAE@XZ 004b28e0 f i namelist.obj
 0001:000b1900       ??1FileName2@NamesList@@QAE@XZ 004b2900 f i namelist.obj
 0001:000b1940       ??0NamesList@@QAE@XZ       004b2940 f   namelist.obj
 0001:000b1980       ??1NamesList@@QAE@XZ       004b2980 f   namelist.obj
 0001:000b19b0       ?GetNextName@NamesList@@QAE_NAAVUnicodeString@@0@Z 004b29b0 f   namelist.obj
 0001:000b1a00       ?GetPrevName@NamesList@@QAE_NAAVUnicodeString@@0@Z 004b2a00 f   namelist.obj
 0001:000b1a50       ?SetCurName@NamesList@@QAEXPB_W@Z 004b2a50 f   namelist.obj
 0001:000b1ab0       ??1OneName@NamesList@@QAE@XZ 004b2ab0 f i namelist.obj
 0001:000b1af0       ??4OneName@NamesList@@QAEAAU01@ABU01@@Z 004b2af0 f i namelist.obj
 0001:000b1b20       ??0OneName@NamesList@@QAE@XZ 004b2b20 f i namelist.obj
 0001:000b1b40       ??1TNode@?$DList@UOneName@NamesList@@@@QAE@XZ 004b2b40 f i namelist.obj
 0001:000b1b80       ??0TNode@?$DList@UOneName@NamesList@@@@QAE@PAUOneName@NamesList@@@Z 004b2b80 f i namelist.obj
 0001:000b1bc0       ?AllocNode@?$DList@UOneName@NamesList@@@@EAEPAUNode@CDList@@PAX@Z 004b2bc0 f i namelist.obj
 0001:000b1c10       ??_GTNode@?$DList@UOneName@NamesList@@@@QAEPAXI@Z 004b2c10 f i namelist.obj
 0001:000b1c70       ?DeleteNode@?$DList@UOneName@NamesList@@@@EAEXPAUNode@CDList@@@Z 004b2c70 f i namelist.obj
 0001:000b1cc0       ?GetStoredUserName@@YAX_WAAVUnicodeString@@@Z 004b2cc0 f   network.obj
 0001:000b1d80       ?AddSavedNetworkDisks@@YAXAAK0@Z 004b2d80 f   network.obj
 0001:000b1ef0       ?CurPath2ComputerName@@YAAAVUnicodeString@@PB_WAAV1@@Z 004b2ef0 f   network.obj
 0001:000b2010       ?DriveLocalToRemoteName@@YAAAVUnicodeString@@H_WAAV1@@Z 004b3010 f   network.obj
 0001:000b2100       ?ConnectToNetworkDrive@@YAXPB_W@Z 004b3100 f   network.obj
 0001:000b2310       _PR_Malloc                 004b3310 f   nsUniversalDetectorEx.obj
 0001:000b2320       _PR_Calloc                 004b3320 f   nsUniversalDetectorEx.obj
 0001:000b2330       _PR_Realloc                004b3330 f   nsUniversalDetectorEx.obj
 0001:000b2340       _PR_Free                   004b3340 f   nsUniversalDetectorEx.obj
 0001:000b2350       ?HandleOneChar@CharDistributionAnalysis@@QAEXPBDI@Z 004b3350 f i nsUniversalDetectorEx.obj
 0001:000b2390       ?Reset@CharDistributionAnalysis@@QAEXXZ 004b3390 f i nsUniversalDetectorEx.obj
 0001:000b23a0       ?GotEnoughData@CharDistributionAnalysis@@QAEHXZ 004b33a0 f i nsUniversalDetectorEx.obj
 0001:000b23b0       ?GetConfidence@CharDistributionAnalysis@@QAEMXZ 004b33b0 f   nsUniversalDetectorEx.obj
 0001:000b2420       ?HandleOneChar@JapaneseContextAnalysis@@QAEXPBDI@Z 004b3420 f i nsUniversalDetectorEx.obj
 0001:000b2490       ?GotEnoughData@JapaneseContextAnalysis@@QAEHXZ 004b3490 f i nsUniversalDetectorEx.obj
 0001:000b24a0       ?HandleData@JapaneseContextAnalysis@@QAEXPBDI@Z 004b34a0 f   nsUniversalDetectorEx.obj
 0001:000b2540       ?Reset@JapaneseContextAnalysis@@QAEXXZ 004b3540 f   nsUniversalDetectorEx.obj
 0001:000b2570       ?GetConfidence@JapaneseContextAnalysis@@QAEMXZ 004b3570 f   nsUniversalDetectorEx.obj
 0001:000b25c0       ?GetOrder@SJISContextAnalysis@@MAEHPBDPAI@Z 004b35c0 f   nsUniversalDetectorEx.obj
 0001:000b2610       ?GetOrder@EUCJPContextAnalysis@@MAEHPBDPAI@Z 004b3610 f   nsUniversalDetectorEx.obj
 0001:000b2660       ??1nsCharSetProber@@UAE@XZ 004b3660 f i nsUniversalDetectorEx.obj
 0001:000b2670       ??_EnsCharSetProber@@UAEPAXI@Z 004b3670 f i nsUniversalDetectorEx.obj
 0001:000b2670       ??_GnsCharSetProber@@UAEPAXI@Z 004b3670 f i nsUniversalDetectorEx.obj
 0001:000b2690       ??0nsCharSetProber@@QAE@XZ 004b3690 f i nsUniversalDetectorEx.obj
 0001:000b26a0       ??0nsCodingStateMachine@@QAE@PAUSMModel@@@Z 004b36a0 f i nsUniversalDetectorEx.obj
 0001:000b26c0       ?NextState@nsCodingStateMachine@@QAE?AW4nsSMState@@D@Z 004b36c0 f i nsUniversalDetectorEx.obj
 0001:000b2740       ?GetCurrentCharLen@nsCodingStateMachine@@QAEIXZ 004b3740 f i nsUniversalDetectorEx.obj
 0001:000b2750       ?Reset@nsCodingStateMachine@@QAEXXZ 004b3750 f i nsUniversalDetectorEx.obj
 0001:000b2760       ?GetCodingStateMachine@nsCodingStateMachine@@QAEPBDXZ 004b3760 f i nsUniversalDetectorEx.obj
 0001:000b2770       ?Reset@nsBig5Prober@@UAEXXZ 004b3770 f   nsUniversalDetectorEx.obj
 0001:000b2790       ?HandleData@nsBig5Prober@@UAE?AW4nsProbingState@@PBDI@Z 004b3790 f   nsUniversalDetectorEx.obj
 0001:000b2860       ?GetConfidence@nsBig5Prober@@UAEMXZ 004b3860 f   nsUniversalDetectorEx.obj
 0001:000b2870       ?FilterWithoutEnglishLetters@nsCharSetProber@@SAHPBDIPAPADAAI@Z 004b3870 f   nsUniversalDetectorEx.obj
 0001:000b2910       ?FilterWithEnglishLetters@nsCharSetProber@@SAHPBDIPAPADAAI@Z 004b3910 f   nsUniversalDetectorEx.obj
 0001:000b29c0       ??0nsEscCharSetProber@@QAE@I@Z 004b39c0 f   nsUniversalDetectorEx.obj
 0001:000b2a80       ?GetCharSetName@nsEscCharSetProber@@UAEPBDXZ 004b3a80 f i nsUniversalDetectorEx.obj
 0001:000b2a90       ?GetState@nsEscCharSetProber@@UAE?AW4nsProbingState@@XZ 004b3a90 f i nsUniversalDetectorEx.obj
 0001:000b2aa0       ?GetConfidence@nsEscCharSetProber@@UAEMXZ 004b3aa0 f i nsUniversalDetectorEx.obj
 0001:000b2ab0       ?SetOpion@nsEscCharSetProber@@UAEXXZ 004b3ab0 f i nsUniversalDetectorEx.obj
 0001:000b2ac0       ??1nsEscCharSetProber@@UAE@XZ 004b3ac0 f   nsUniversalDetectorEx.obj
 0001:000b2af0       ?Reset@nsEscCharSetProber@@UAEXXZ 004b3af0 f   nsUniversalDetectorEx.obj
 0001:000b2b30       ?HandleData@nsEscCharSetProber@@UAE?AW4nsProbingState@@PBDI@Z 004b3b30 f   nsUniversalDetectorEx.obj
 0001:000b2ba0       ?Reset@nsEUCJPProber@@UAEXXZ 004b3ba0 f   nsUniversalDetectorEx.obj
 0001:000b2be0       ?HandleData@nsEUCJPProber@@UAE?AW4nsProbingState@@PBDI@Z 004b3be0 f   nsUniversalDetectorEx.obj
 0001:000b2d10       ?GetConfidence@nsEUCJPProber@@UAEMXZ 004b3d10 f   nsUniversalDetectorEx.obj
 0001:000b2d90       ?Reset@nsEUCKRProber@@UAEXXZ 004b3d90 f   nsUniversalDetectorEx.obj
 0001:000b2db0       ?HandleData@nsEUCKRProber@@UAE?AW4nsProbingState@@PBDI@Z 004b3db0 f   nsUniversalDetectorEx.obj
 0001:000b2e80       ?GetConfidence@nsEUCKRProber@@UAEMXZ 004b3e80 f   nsUniversalDetectorEx.obj
 0001:000b2e90       ?Reset@nsEUCTWProber@@UAEXXZ 004b3e90 f   nsUniversalDetectorEx.obj
 0001:000b2eb0       ?HandleData@nsEUCTWProber@@UAE?AW4nsProbingState@@PBDI@Z 004b3eb0 f   nsUniversalDetectorEx.obj
 0001:000b2f80       ?GetConfidence@nsEUCTWProber@@UAEMXZ 004b3f80 f   nsUniversalDetectorEx.obj
 0001:000b2f90       ?Reset@nsGB18030Prober@@UAEXXZ 004b3f90 f   nsUniversalDetectorEx.obj
 0001:000b2fb0       ?HandleData@nsGB18030Prober@@UAE?AW4nsProbingState@@PBDI@Z 004b3fb0 f   nsUniversalDetectorEx.obj
 0001:000b3080       ?GetConfidence@nsGB18030Prober@@UAEMXZ 004b4080 f   nsUniversalDetectorEx.obj
 0001:000b3090       ?SetModelProbers@nsHebrewProber@@QAEXPAVnsCharSetProber@@0@Z 004b4090 f i nsUniversalDetectorEx.obj
 0001:000b30b0       ?isFinal@nsHebrewProber@@KAHD@Z 004b40b0 f   nsUniversalDetectorEx.obj
 0001:000b30e0       ?isNonFinal@nsHebrewProber@@KAHD@Z 004b40e0 f   nsUniversalDetectorEx.obj
 0001:000b3100       ?HandleData@nsHebrewProber@@UAE?AW4nsProbingState@@PBDI@Z 004b4100 f   nsUniversalDetectorEx.obj
 0001:000b31a0       ?GetCharSetName@nsHebrewProber@@UAEPBDXZ 004b41a0 f   nsUniversalDetectorEx.obj
 0001:000b3230       ?Reset@nsHebrewProber@@UAEXXZ 004b4230 f   nsUniversalDetectorEx.obj
 0001:000b3250       ?GetState@nsHebrewProber@@UAE?AW4nsProbingState@@XZ 004b4250 f   nsUniversalDetectorEx.obj
 0001:000b3280       ?Reset@nsLatin1Prober@@UAEXXZ 004b4280 f   nsUniversalDetectorEx.obj
 0001:000b32a0       ?HandleData@nsLatin1Prober@@UAE?AW4nsProbingState@@PBDI@Z 004b42a0 f   nsUniversalDetectorEx.obj
 0001:000b3350       ?GetConfidence@nsLatin1Prober@@UAEMXZ 004b4350 f   nsUniversalDetectorEx.obj
 0001:000b3410       ??1nsMBCSGroupProber@@UAE@XZ 004b4410 f   nsUniversalDetectorEx.obj
 0001:000b3450       ?GetState@nsMBCSGroupProber@@UAE?AW4nsProbingState@@XZ 004b4450 f i nsUniversalDetectorEx.obj
 0001:000b3460       ?SetOpion@nsMBCSGroupProber@@UAEXXZ 004b4460 f i nsUniversalDetectorEx.obj
 0001:000b3470       ?GetCharSetName@nsMBCSGroupProber@@UAEPBDXZ 004b4470 f   nsUniversalDetectorEx.obj
 0001:000b34a0       ?Reset@nsMBCSGroupProber@@UAEXXZ 004b44a0 f   nsUniversalDetectorEx.obj
 0001:000b34f0       ?HandleData@nsMBCSGroupProber@@UAE?AW4nsProbingState@@PBDI@Z 004b44f0 f   nsUniversalDetectorEx.obj
 0001:000b3600       ?GetConfidence@nsMBCSGroupProber@@UAEMXZ 004b4600 f   nsUniversalDetectorEx.obj
 0001:000b3680       ?HandleData@nsSingleByteCharSetProber@@UAE?AW4nsProbingState@@PBDI@Z 004b4680 f   nsUniversalDetectorEx.obj
 0001:000b3750       ?Reset@nsSingleByteCharSetProber@@UAEXXZ 004b4750 f   nsUniversalDetectorEx.obj
 0001:000b3770       ?GetConfidence@nsSingleByteCharSetProber@@UAEMXZ 004b4770 f   nsUniversalDetectorEx.obj
 0001:000b37f0       ?GetCharSetName@nsSingleByteCharSetProber@@UAEPBDXZ 004b47f0 f   nsUniversalDetectorEx.obj
 0001:000b3810       ??1nsSBCSGroupProber@@UAE@XZ 004b4810 f   nsUniversalDetectorEx.obj
 0001:000b3850       ?GetState@nsSBCSGroupProber@@UAE?AW4nsProbingState@@XZ 004b4850 f i nsUniversalDetectorEx.obj
 0001:000b3860       ?SetOpion@nsSBCSGroupProber@@UAEXXZ 004b4860 f i nsUniversalDetectorEx.obj
 0001:000b3870       ?GetCharSetName@nsSBCSGroupProber@@UAEPBDXZ 004b4870 f   nsUniversalDetectorEx.obj
 0001:000b38a0       ?Reset@nsSBCSGroupProber@@UAEXXZ 004b48a0 f   nsUniversalDetectorEx.obj
 0001:000b38f0       ?HandleData@nsSBCSGroupProber@@UAE?AW4nsProbingState@@PBDI@Z 004b48f0 f   nsUniversalDetectorEx.obj
 0001:000b39a0       ?GetConfidence@nsSBCSGroupProber@@UAEMXZ 004b49a0 f   nsUniversalDetectorEx.obj
 0001:000b3a20       ?Reset@nsSJISProber@@UAEXXZ 004b4a20 f   nsUniversalDetectorEx.obj
 0001:000b3a60       ?HandleData@nsSJISProber@@UAE?AW4nsProbingState@@PBDI@Z 004b4a60 f   nsUniversalDetectorEx.obj
 0001:000b3b90       ?GetConfidence@nsSJISProber@@UAEMXZ 004b4b90 f   nsUniversalDetectorEx.obj
 0001:000b3c10       ??0nsUniversalDetector@@QAE@I@Z 004b4c10 f   nsUniversalDetectorEx.obj
 0001:000b3c50       ??1nsUniversalDetector@@UAE@XZ 004b4c50 f   nsUniversalDetectorEx.obj
 0001:000b3c90       ?Reset@nsUniversalDetector@@MAEXXZ 004b4c90 f   nsUniversalDetectorEx.obj
 0001:000b3cf0       ?DataEnd@nsUniversalDetector@@UAEXXZ 004b4cf0 f   nsUniversalDetectorEx.obj
 0001:000b3da0       ?Reset@nsUTF8Prober@@UAEXXZ 004b4da0 f   nsUniversalDetectorEx.obj
 0001:000b3db0       ?HandleData@nsUTF8Prober@@UAE?AW4nsProbingState@@PBDI@Z 004b4db0 f   nsUniversalDetectorEx.obj
 0001:000b3e30       ?GetConfidence@nsUTF8Prober@@UAEMXZ 004b4e30 f   nsUniversalDetectorEx.obj
 0001:000b3ed0       ??0CharDistributionAnalysis@@QAE@XZ 004b4ed0 f i nsUniversalDetectorEx.obj
 0001:000b3ef0       ?GetOrder@CharDistributionAnalysis@@MAEHPBD@Z 004b4ef0 f i nsUniversalDetectorEx.obj
 0001:000b3f00       ??0EUCTWDistributionAnalysis@@QAE@XZ 004b4f00 f   nsUniversalDetectorEx.obj
 0001:000b3f30       ?GetOrder@EUCTWDistributionAnalysis@@MAEHPBD@Z 004b4f30 f i nsUniversalDetectorEx.obj
 0001:000b3f60       ??0EUCKRDistributionAnalysis@@QAE@XZ 004b4f60 f   nsUniversalDetectorEx.obj
 0001:000b3f90       ?GetOrder@EUCKRDistributionAnalysis@@MAEHPBD@Z 004b4f90 f i nsUniversalDetectorEx.obj
 0001:000b3fc0       ??0GB2312DistributionAnalysis@@QAE@XZ 004b4fc0 f   nsUniversalDetectorEx.obj
 0001:000b3ff0       ?GetOrder@GB2312DistributionAnalysis@@MAEHPBD@Z 004b4ff0 f i nsUniversalDetectorEx.obj
 0001:000b4020       ??0Big5DistributionAnalysis@@QAE@XZ 004b5020 f   nsUniversalDetectorEx.obj
 0001:000b4050       ?GetOrder@Big5DistributionAnalysis@@MAEHPBD@Z 004b5050 f i nsUniversalDetectorEx.obj
 0001:000b4090       ??0SJISDistributionAnalysis@@QAE@XZ 004b5090 f   nsUniversalDetectorEx.obj
 0001:000b40c0       ?GetOrder@SJISDistributionAnalysis@@MAEHPBD@Z 004b50c0 f i nsUniversalDetectorEx.obj
 0001:000b4110       ??0EUCJPDistributionAnalysis@@QAE@XZ 004b5110 f   nsUniversalDetectorEx.obj
 0001:000b4140       ?GetOrder@EUCJPDistributionAnalysis@@MAEHPBD@Z 004b5140 f i nsUniversalDetectorEx.obj
 0001:000b4170       ??0JapaneseContextAnalysis@@QAE@XZ 004b5170 f i nsUniversalDetectorEx.obj
 0001:000b41a0       ??0nsSingleByteCharSetProber@@QAE@PAUSequenceModel@@@Z 004b51a0 f i nsUniversalDetectorEx.obj
 0001:000b41e0       ?GetState@nsSingleByteCharSetProber@@UAE?AW4nsProbingState@@XZ 004b51e0 f i nsUniversalDetectorEx.obj
 0001:000b41f0       ?SetOpion@nsSingleByteCharSetProber@@UAEXXZ 004b51f0 f i nsUniversalDetectorEx.obj
 0001:000b4200       ??1nsSingleByteCharSetProber@@UAE@XZ 004b5200 f i nsUniversalDetectorEx.obj
 0001:000b4210       ??0nsSingleByteCharSetProber@@QAE@PAUSequenceModel@@HPAVnsCharSetProber@@@Z 004b5210 f i nsUniversalDetectorEx.obj
 0001:000b4250       ??_EnsSingleByteCharSetProber@@UAEPAXI@Z 004b5250 f i nsUniversalDetectorEx.obj
 0001:000b4250       ??_GnsSingleByteCharSetProber@@UAEPAXI@Z 004b5250 f i nsUniversalDetectorEx.obj
 0001:000b4270       ??0nsBig5Prober@@QAE@XZ    004b5270 f i nsUniversalDetectorEx.obj
 0001:000b42e0       ??1nsBig5Prober@@UAE@XZ    004b52e0 f i nsUniversalDetectorEx.obj
 0001:000b4300       ?GetCharSetName@nsBig5Prober@@UAEPBDXZ 004b5300 f i nsUniversalDetectorEx.obj
 0001:000b4310       ?GetState@nsBig5Prober@@UAE?AW4nsProbingState@@XZ 004b5310 f i nsUniversalDetectorEx.obj
 0001:000b4320       ?SetOpion@nsBig5Prober@@UAEXXZ 004b5320 f i nsUniversalDetectorEx.obj
 0001:000b4330       ??_GnsBig5Prober@@UAEPAXI@Z 004b5330 f i nsUniversalDetectorEx.obj
 0001:000b4330       ??_EnsBig5Prober@@UAEPAXI@Z 004b5330 f i nsUniversalDetectorEx.obj
 0001:000b4370       ??_GnsEscCharSetProber@@UAEPAXI@Z 004b5370 f i nsUniversalDetectorEx.obj
 0001:000b4370       ??_EnsEscCharSetProber@@UAEPAXI@Z 004b5370 f i nsUniversalDetectorEx.obj
 0001:000b43c0       ??0EUCJPContextAnalysis@@QAE@XZ 004b53c0 f i nsUniversalDetectorEx.obj
 0001:000b43f0       ?GetOrder@EUCJPContextAnalysis@@MAEHPBD@Z 004b53f0 f i nsUniversalDetectorEx.obj
 0001:000b4420       ??0nsEUCKRProber@@QAE@XZ   004b5420 f i nsUniversalDetectorEx.obj
 0001:000b4490       ??1nsEUCKRProber@@UAE@XZ   004b5490 f i nsUniversalDetectorEx.obj
 0001:000b44b0       ?GetCharSetName@nsEUCKRProber@@UAEPBDXZ 004b54b0 f i nsUniversalDetectorEx.obj
 0001:000b44c0       ?GetState@nsEUCKRProber@@UAE?AW4nsProbingState@@XZ 004b54c0 f i nsUniversalDetectorEx.obj
 0001:000b44d0       ?SetOpion@nsEUCKRProber@@UAEXXZ 004b54d0 f i nsUniversalDetectorEx.obj
 0001:000b44e0       ??_EnsEUCKRProber@@UAEPAXI@Z 004b54e0 f i nsUniversalDetectorEx.obj
 0001:000b44e0       ??_GnsEUCKRProber@@UAEPAXI@Z 004b54e0 f i nsUniversalDetectorEx.obj
 0001:000b4520       ??0nsEUCTWProber@@QAE@XZ   004b5520 f i nsUniversalDetectorEx.obj
 0001:000b4590       ??1nsEUCTWProber@@UAE@XZ   004b5590 f i nsUniversalDetectorEx.obj
 0001:000b45b0       ?GetCharSetName@nsEUCTWProber@@UAEPBDXZ 004b55b0 f i nsUniversalDetectorEx.obj
 0001:000b45c0       ?GetState@nsEUCTWProber@@UAE?AW4nsProbingState@@XZ 004b55c0 f i nsUniversalDetectorEx.obj
 0001:000b45d0       ?SetOpion@nsEUCTWProber@@UAEXXZ 004b55d0 f i nsUniversalDetectorEx.obj
 0001:000b45e0       ??_GnsEUCTWProber@@UAEPAXI@Z 004b55e0 f i nsUniversalDetectorEx.obj
 0001:000b45e0       ??_EnsEUCTWProber@@UAEPAXI@Z 004b55e0 f i nsUniversalDetectorEx.obj
 0001:000b4620       ??0nsGB18030Prober@@QAE@XZ 004b5620 f i nsUniversalDetectorEx.obj
 0001:000b4690       ??1nsGB18030Prober@@UAE@XZ 004b5690 f i nsUniversalDetectorEx.obj
 0001:000b46b0       ?GetCharSetName@nsGB18030Prober@@UAEPBDXZ 004b56b0 f i nsUniversalDetectorEx.obj
 0001:000b46c0       ?GetState@nsGB18030Prober@@UAE?AW4nsProbingState@@XZ 004b56c0 f i nsUniversalDetectorEx.obj
 0001:000b46d0       ?SetOpion@nsGB18030Prober@@UAEXXZ 004b56d0 f i nsUniversalDetectorEx.obj
 0001:000b46e0       ??_EnsGB18030Prober@@UAEPAXI@Z 004b56e0 f i nsUniversalDetectorEx.obj
 0001:000b46e0       ??_GnsGB18030Prober@@UAEPAXI@Z 004b56e0 f i nsUniversalDetectorEx.obj
 0001:000b4720       ??0nsHebrewProber@@QAE@XZ  004b5720 f i nsUniversalDetectorEx.obj
 0001:000b4740       ??1nsHebrewProber@@UAE@XZ  004b5740 f i nsUniversalDetectorEx.obj
 0001:000b4750       ?GetConfidence@nsHebrewProber@@UAEMXZ 004b5750 f i nsUniversalDetectorEx.obj
 0001:000b4760       ?SetOpion@nsHebrewProber@@UAEXXZ 004b5760 f i nsUniversalDetectorEx.obj
 0001:000b4770       ??_EnsHebrewProber@@UAEPAXI@Z 004b5770 f i nsUniversalDetectorEx.obj
 0001:000b4770       ??_GnsHebrewProber@@UAEPAXI@Z 004b5770 f i nsUniversalDetectorEx.obj
 0001:000b4790       ??0nsLatin1Prober@@QAE@XZ  004b5790 f i nsUniversalDetectorEx.obj
 0001:000b47b0       ??1nsLatin1Prober@@UAE@XZ  004b57b0 f i nsUniversalDetectorEx.obj
 0001:000b47c0       ?GetCharSetName@nsLatin1Prober@@UAEPBDXZ 004b57c0 f i nsUniversalDetectorEx.obj
 0001:000b47d0       ?GetState@nsLatin1Prober@@UAE?AW4nsProbingState@@XZ 004b57d0 f i nsUniversalDetectorEx.obj
 0001:000b47e0       ?SetOpion@nsLatin1Prober@@UAEXXZ 004b57e0 f i nsUniversalDetectorEx.obj
 0001:000b47f0       ??_EnsLatin1Prober@@UAEPAXI@Z 004b57f0 f i nsUniversalDetectorEx.obj
 0001:000b47f0       ??_GnsLatin1Prober@@UAEPAXI@Z 004b57f0 f i nsUniversalDetectorEx.obj
 0001:000b4810       ??0SJISContextAnalysis@@QAE@XZ 004b5810 f i nsUniversalDetectorEx.obj
 0001:000b4840       ?GetOrder@SJISContextAnalysis@@MAEHPBD@Z 004b5840 f i nsUniversalDetectorEx.obj
 0001:000b4870       ??0nsUTF8Prober@@QAE@XZ    004b5870 f i nsUniversalDetectorEx.obj
 0001:000b48c0       ??1nsUTF8Prober@@UAE@XZ    004b58c0 f i nsUniversalDetectorEx.obj
 0001:000b48e0       ?GetCharSetName@nsUTF8Prober@@UAEPBDXZ 004b58e0 f i nsUniversalDetectorEx.obj
 0001:000b48f0       ?GetState@nsUTF8Prober@@UAE?AW4nsProbingState@@XZ 004b58f0 f i nsUniversalDetectorEx.obj
 0001:000b4900       ?SetOpion@nsUTF8Prober@@UAEXXZ 004b5900 f i nsUniversalDetectorEx.obj
 0001:000b4910       ??_EnsUTF8Prober@@UAEPAXI@Z 004b5910 f i nsUniversalDetectorEx.obj
 0001:000b4910       ??_GnsUTF8Prober@@UAEPAXI@Z 004b5910 f i nsUniversalDetectorEx.obj
 0001:000b4950       ??_EnsMBCSGroupProber@@UAEPAXI@Z 004b5950 f i nsUniversalDetectorEx.obj
 0001:000b4950       ??_GnsMBCSGroupProber@@UAEPAXI@Z 004b5950 f i nsUniversalDetectorEx.obj
 0001:000b4970       ??0nsSBCSGroupProber@@QAE@XZ 004b5970 f   nsUniversalDetectorEx.obj
 0001:000b4d40       ??_EnsSBCSGroupProber@@UAEPAXI@Z 004b5d40 f i nsUniversalDetectorEx.obj
 0001:000b4d40       ??_GnsSBCSGroupProber@@UAEPAXI@Z 004b5d40 f i nsUniversalDetectorEx.obj
 0001:000b4d60       ??_EnsUniversalDetector@@UAEPAXI@Z 004b5d60 f i nsUniversalDetectorEx.obj
 0001:000b4d60       ??_GnsUniversalDetector@@UAEPAXI@Z 004b5d60 f i nsUniversalDetectorEx.obj
 0001:000b4d80       ??0nsEUCJPProber@@QAE@XZ   004b5d80 f i nsUniversalDetectorEx.obj
 0001:000b4e30       ??1nsEUCJPProber@@UAE@XZ   004b5e30 f i nsUniversalDetectorEx.obj
 0001:000b4e50       ?GetCharSetName@nsEUCJPProber@@UAEPBDXZ 004b5e50 f i nsUniversalDetectorEx.obj
 0001:000b4e60       ?GetState@nsEUCJPProber@@UAE?AW4nsProbingState@@XZ 004b5e60 f i nsUniversalDetectorEx.obj
 0001:000b4e70       ?SetOpion@nsEUCJPProber@@UAEXXZ 004b5e70 f i nsUniversalDetectorEx.obj
 0001:000b4e80       ??_GnsEUCJPProber@@UAEPAXI@Z 004b5e80 f i nsUniversalDetectorEx.obj
 0001:000b4e80       ??_EnsEUCJPProber@@UAEPAXI@Z 004b5e80 f i nsUniversalDetectorEx.obj
 0001:000b4ec0       ??0nsSJISProber@@QAE@XZ    004b5ec0 f i nsUniversalDetectorEx.obj
 0001:000b4f70       ??1nsSJISProber@@UAE@XZ    004b5f70 f i nsUniversalDetectorEx.obj
 0001:000b4f90       ?GetCharSetName@nsSJISProber@@UAEPBDXZ 004b5f90 f i nsUniversalDetectorEx.obj
 0001:000b4fa0       ?GetState@nsSJISProber@@UAE?AW4nsProbingState@@XZ 004b5fa0 f i nsUniversalDetectorEx.obj
 0001:000b4fb0       ?SetOpion@nsSJISProber@@UAEXXZ 004b5fb0 f i nsUniversalDetectorEx.obj
 0001:000b4fc0       ??_EnsSJISProber@@UAEPAXI@Z 004b5fc0 f i nsUniversalDetectorEx.obj
 0001:000b4fc0       ??_GnsSJISProber@@UAEPAXI@Z 004b5fc0 f i nsUniversalDetectorEx.obj
 0001:000b5000       ??0nsMBCSGroupProber@@QAE@I@Z 004b6000 f   nsUniversalDetectorEx.obj
 0001:000b5160       ?HandleData@nsUniversalDetector@@UAEIPBDI@Z 004b6160 f   nsUniversalDetectorEx.obj
 0001:000b5450       ?SetGrayed@MenuDataEx@@QAEKH@Z 004b6450 f i options.obj
 0001:000b5480       ?SetLeftRightMenuChecks@@YAXPAUMenuDataEx@@_N@Z 004b6480 f   options.obj
 0001:000b5560       ?ShellOptions@@YAXHPAU_MOUSE_EVENT_RECORD@@@Z 004b6560 f   options.obj
 0001:000b6fd0       ?FarColorToReal@@YAEH@Z    004b7fd0 f   palette.obj
 0001:000b6ff0       ?ConvertCurrentPalette@@YAXXZ 004b7ff0 f   palette.obj
 0001:000b7000       ?Clear@ChDiskPluginItem@@QAEXXZ 004b8000 f i panel.obj
 0001:000b7040       ?SetViewMode@Panel@@UAEXH@Z 004b8040 f   panel.obj
 0001:000b7050       ?ChDiskDlgProc@@YGJPAXHHJ@Z 004b8050 f   panel.obj
 0001:000b70e0       ?FastFindProcessName@Panel@@AAEXPAVEdit@@PB_WAAVUnicodeString@@2@Z 004b80e0 f   panel.obj
 0001:000b72a0       ?VMProcess@Panel@@UAE_JHPAX_J@Z 004b82a0 f   panel.obj
 0001:000b72e0       ?FastFindShow@Panel@@AAEXHH@Z 004b82e0 f   panel.obj
 0001:000b7360       ?SetFocus@Panel@@UAEXXZ    004b8360 f   panel.obj
 0001:000b73f0       ?KillFocus@Panel@@UAEXXZ   004b83f0 f   panel.obj
 0001:000b7410       ?IsDragging@Panel@@IAEHXZ  004b8410 f   panel.obj
 0001:000b7420       ?EndDrag@Panel@@SAXXZ      004b8420 f   panel.obj
 0001:000b7460       ?GetCurDir@Panel@@UAEHAAVUnicodeString@@@Z 004b8460 f   panel.obj
 0001:000b7480       ?SetCurDir@Panel@@UAEHPB_WH@Z 004b8480 f   panel.obj
 0001:000b7500       ?InitCurDir@Panel@@QAEXPB_W@Z 004b8500 f   panel.obj
 0001:000b7580       ?Hide@Panel@@UAEXXZ        004b8580 f   panel.obj
 0001:000b75f0       ?DrawSeparator@Panel@@IAEXH@Z 004b85f0 f   panel.obj
 0001:000b7630       ?GetCurName@Panel@@UAEHAAVUnicodeString@@0@Z 004b8630 f   panel.obj
 0001:000b7650       ?GetCurBaseName@Panel@@UAEHAAVUnicodeString@@0@Z 004b8650 f   panel.obj
 0001:000b7670       ?NeedUpdatePanel@Panel@@QAEHPAV1@@Z 004b8670 f   panel.obj
 0001:000b76d0       ?getSize@?$TArray@VChDiskPluginItem@@@@QBEIXZ 004b86d0 f i panel.obj
 0001:000b76e0       ?getItem@?$TArray@VChDiskPluginItem@@@@QAEPAVChDiskPluginItem@@I@Z 004b86e0 f i panel.obj
 0001:000b7700       ?setDelta@?$TArray@VChDiskPluginItem@@@@QAEXI@Z 004b8700 f i panel.obj
 0001:000b7720       ??4MenuItemEx@@QAEABU0@ABU0@@Z 004b8720 f i panel.obj
 0001:000b7780       ??8ChDiskPluginItem@@QBE_NABV0@@Z 004b8780 f i panel.obj
 0001:000b77d0       ??MChDiskPluginItem@@QBEHABV0@@Z 004b87d0 f i panel.obj
 0001:000b7830       ??4ChDiskPluginItem@@QAEABV0@ABV0@@Z 004b8830 f   panel.obj
 0001:000b7860       ?RemoveHotplugDevice@Panel@@AAEXPAUPanelMenuItem@@AAVVMenu@@@Z 004b8860 f   panel.obj
 0001:000b7a80       ?FastFind@Panel@@IAEXH@Z   004b8a80 f   panel.obj
 0001:000b8140       ?DragMessage@Panel@@AAEXHHH@Z 004b9140 f   panel.obj
 0001:000b83e0       ?ShowScreensCount@Panel@@IAEXXZ 004b93e0 f   panel.obj
 0001:000b8580       ?SetTitle@Panel@@UAEXXZ    004b9580 f   panel.obj
 0001:000b86c0       ?GetTitle@Panel@@UAEAAVUnicodeString@@AAV2@HH@Z 004b96c0 f   panel.obj
 0001:000b8f60       ?SaveShortcutFolder@Panel@@QAE_NH_N@Z 004b9f60 f   panel.obj
 0001:000b9190       ?ExecShortcutFolder@Panel@@QAE_NH_N@Z 004ba190 f   panel.obj
 0001:000b9700       ??0?$TArray@VChDiskPluginItem@@@@QAE@I@Z 004ba700 f i panel.obj
 0001:000b9720       ?CmpItems@?$TArray@VChDiskPluginItem@@@@CAHPAPBVChDiskPluginItem@@0@Z 004ba720 f i panel.obj
 0001:000b9760       ??0Panel@@QAE@XZ           004ba760 f   panel.obj
 0001:000b97e0       ?Update@Panel@@UAEXH@Z     004ba7e0 f i panel.obj
 0001:000b97f0       ?UpdateKeyBar@Panel@@UAEHXZ 004ba7f0 f i panel.obj
 0001:000b9800       ??1Panel@@UAE@XZ           004ba800 f   panel.obj
 0001:000b9880       ?ChangeDirToCurrent@Panel@@UAEXXZ 004ba880 f   panel.obj
 0001:000b98e0       ?ProcessDelDisk@Panel@@AAEH_WHPAVVMenu@@@Z 004ba8e0 f   panel.obj
 0001:000b9ec0       ?PanelProcessMouse@Panel@@QAEHPAU_MOUSE_EVENT_RECORD@@AAH@Z 004baec0 f   panel.obj
 0001:000ba1e0       ?Show@Panel@@UAEXXZ        004bb1e0 f   panel.obj
 0001:000ba290       ?Sort@?$TArray@VChDiskPluginItem@@@@QAEXP6AHPBX0@ZI@Z 004bb290 f i panel.obj
 0001:000ba2c0       ??0ChDiskPluginItem@@QAE@XZ 004bb2c0 f i panel.obj
 0001:000ba310       ??1ChDiskPluginItem@@QAE@XZ 004bb310 f i panel.obj
 0001:000ba330       ??_EPanel@@UAEPAXI@Z       004bb330 f i panel.obj
 0001:000ba330       ??_GPanel@@UAEPAXI@Z       004bb330 f i panel.obj
 0001:000ba350       ?DisconnectDrive@Panel@@AAEHPAUPanelMenuItem@@AAVVMenu@@@Z 004bb350 f   panel.obj
 0001:000ba5d0       ??_GChDiskPluginItem@@QAEPAXI@Z 004bb5d0 f i panel.obj
 0001:000ba610       ?deleteItem@?$TArray@VChDiskPluginItem@@@@AAE_NI@Z 004bb610 f i panel.obj
 0001:000ba670       ?setSize@?$TArray@VChDiskPluginItem@@@@QAE_NI@Z 004bb670 f i panel.obj
 0001:000ba980       ?Free@?$TArray@VChDiskPluginItem@@@@QAEXXZ 004bb980 f i panel.obj
 0001:000ba9f0       ?setItem@?$TArray@VChDiskPluginItem@@@@QAEPAVChDiskPluginItem@@IABV2@@Z 004bb9f0 f i panel.obj
 0001:000baa80       ?Pack@?$TArray@VChDiskPluginItem@@@@QAE_NXZ 004bba80 f i panel.obj
 0001:000bab70       ??1?$TArray@VChDiskPluginItem@@@@QAE@XZ 004bbb70 f i panel.obj
 0001:000bab80       ?addItem@?$TArray@VChDiskPluginItem@@@@QAEPAVChDiskPluginItem@@ABV2@@Z 004bbb80 f i panel.obj
 0001:000bb0b0       ?ChangeDiskMenu@Panel@@AAEHHH@Z 004bc0b0 f   panel.obj
 0001:000bd030       ?ChangeDisk@Panel@@QAEXXZ  004be030 f   panel.obj
 0001:000bd090       ?SetCurPath@Panel@@QAEHXZ  004be090 f   panel.obj
 0001:000bd330       ?SetPluginCommand@Panel@@QAEHHHJ@Z 004be330 f   panel.obj
 0001:000bda60       ?ResetLastUpdateTime@FileList@@QAEXXZ 004bea60 f i panelmix.obj
 0001:000bda70       ?ShellUpdatePanels@@YAXPAVPanel@@H@Z 004bea70 f   panelmix.obj
 0001:000bdb80       ?CheckUpdateAnotherPanel@@YAHPAVPanel@@PB_W@Z 004beb80 f   panelmix.obj
 0001:000bdcd0       ?_MakePath1@@YAHKAAVUnicodeString@@PB_WH@Z 004becd0 f   panelmix.obj
 0001:000bdfc0       ?TextToViewSettings@@YAXPB_W0HPAIPAH2AAH@Z 004befc0 f   panelmix.obj
 0001:000be4c0       ?ViewSettingsToText@@YAXPAIPAH1HHAAVUnicodeString@@2@Z 004bf4c0 f   panelmix.obj
 0001:000be9e0       ?FormatStr_DateTime@@YA?BVUnicodeString@@PBU_FILETIME@@HKH@Z 004bf9e0 f   panelmix.obj
 0001:000beca0       ?FormatStr_Size@@YA?BVUnicodeString@@_J00V1@KKKHKH@Z 004bfca0 f   panelmix.obj
 0001:000beee0       ?FormatStr_Attribute@@YA?BVUnicodeString@@KH@Z 004bfee0 f   panelmix.obj
 0001:000bf090       ?IsLocalPath@@YA_NPB_W@Z   004c0090 f   pathmix.obj
 0001:000bf0b0       ?IsLocalRootPath@@YA_NPB_W@Z 004c00b0 f   pathmix.obj
 0001:000bf0f0       ?HasPathPrefix@@YA_NPB_W@Z 004c00f0 f   pathmix.obj
 0001:000bf130       ?IsLocalPrefixPath@@YA_NPB_W@Z 004c0130 f   pathmix.obj
 0001:000bf190       ?IsLocalPrefixRootPath@@YA_NPB_W@Z 004c0190 f   pathmix.obj
 0001:000bf1c0       ?IsLocalVolumePath@@YA_NPB_W@Z 004c01c0 f   pathmix.obj
 0001:000bf220       ?IsLocalVolumeRootPath@@YA_NPB_W@Z 004c0220 f   pathmix.obj
 0001:000bf260       ?TestParentFolderName@@YA_NPB_W@Z 004c0260 f   pathmix.obj
 0001:000bf2a0       ?TestCurrentFolderName@@YA_NPB_W@Z 004c02a0 f   pathmix.obj
 0001:000bf2e0       ?PointToName@@YAPB_WPB_W0@Z 004c02e0 f   pathmix.obj
 0001:000bf350       ?PointToFolderNameIfFolder@@YGPB_WPB_W@Z 004c0350 f   pathmix.obj
 0001:000bf3b0       ?PointToExt@@YAPB_WPB_W0@Z 004c03b0 f   pathmix.obj
 0001:000bf420       ?CutToNameUNC@@YAAAVUnicodeString@@AAV1@@Z 004c0420 f   pathmix.obj
 0001:000bf4e0       ?CutToFolderNameIfFolder@@YAAAVUnicodeString@@AAV1@@Z 004c04e0 f   pathmix.obj
 0001:000bf560       ?PointToNameUNC@@YAPB_WPB_W@Z 004c0560 f   pathmix.obj
 0001:000bf610       ?FirstSlash@@YAPB_WPB_W@Z  004c0610 f   pathmix.obj
 0001:000bf640       ?LastSlash@@YAPB_WPB_W@Z   004c0640 f   pathmix.obj
 0001:000bf690       ?Equal@UnicodeString@@QBE_NIABV1@@Z 004c0690 f i pathmix.obj
 0001:000bf6b0       ?Equal@UnicodeString@@QBE_NI_W@Z 004c06b0 f i pathmix.obj
 0001:000bf6d0       ?IsNetworkPath@@YA_NPB_W@Z 004c06d0 f   pathmix.obj
 0001:000bf750       ?IsNetworkServerPath@@YA_NPB_W@Z 004c0750 f   pathmix.obj
 0001:000bf7d0       ?PathCanHoldRegularFile@@YA_NPB_W@Z 004c07d0 f   pathmix.obj
 0001:000bf830       ?IsPluginPrefixPath@@YA_NPB_W@Z 004c0830 f   pathmix.obj
 0001:000bf880       ?PointToName@@YGPB_WPB_W@Z 004c0880 f   pathmix.obj
 0001:000bf8a0       ?PointToName@@YAPB_WAAVUnicodeString@@@Z 004c08a0 f   pathmix.obj
 0001:000bf8c0       ?PointToExt@@YAPB_WPB_W@Z  004c08c0 f   pathmix.obj
 0001:000bf8f0       ?PointToExt@@YAPB_WAAVUnicodeString@@@Z 004c08f0 f   pathmix.obj
 0001:000bf910       ?AddEndSlash@@YAHPA_W_W@Z  004c0910 f   pathmix.obj
 0001:000bfa00       ?AddEndSlash@@YGHPA_W@Z    004c0a00 f   pathmix.obj
 0001:000bfa20       ?AddEndSlash@@YAHAAVUnicodeString@@_W@Z 004c0a20 f   pathmix.obj
 0001:000bfa60       ?DeleteEndSlash@@YA_NPA_W_N@Z 004c0a60 f   pathmix.obj
 0001:000bfab0       ?DeleteEndSlash@@YGHAAVUnicodeString@@_N@Z 004c0ab0 f   pathmix.obj
 0001:000bfb20       ?ReplaceSlashToBSlash@@YAAAVUnicodeString@@AAV1@@Z 004c0b20 f   pathmix.obj
 0001:000bfb60       ?FindSlash@@YA_NAAIABVUnicodeString@@I@Z 004c0b60 f   pathmix.obj
 0001:000bfba0       ?FindLastSlash@@YA_NAAIABVUnicodeString@@@Z 004c0ba0 f   pathmix.obj
 0001:000bfbe0       ?GetPathRootLength@@YAIABVUnicodeString@@@Z 004c0be0 f   pathmix.obj
 0001:000bfcf0       ?IsRootPath@@YA_NABVUnicodeString@@@Z 004c0cf0 f   pathmix.obj
 0001:000bfd30       ??0NTPath@@QAE@PB_W@Z      004c0d30 f   pathmix.obj
 0001:000bfea0       ?IsAbsolutePath@@YA_NPB_W@Z 004c0ea0 f   pathmix.obj
 0001:000bff00       ?TestCurrentDirectory@@YA_NPB_W@Z 004c0f00 f   pathmix.obj
 0001:000bff90       ?AddEndSlash@@YAHAAVUnicodeString@@@Z 004c0f90 f   pathmix.obj
 0001:000bffc0       ?CutToSlash@@YA_NAAVUnicodeString@@_N@Z 004c0fc0 f   pathmix.obj
 0001:000c0010       ?ExtractPathRoot@@YA?AVUnicodeString@@ABV1@@Z 004c1010 f   pathmix.obj
 0001:000c00d0       ?ExtractFileName@@YA?AVUnicodeString@@ABV1@@Z 004c10d0 f   pathmix.obj
 0001:000c0150       ?ExtractFilePath@@YA?AVUnicodeString@@ABV1@@Z 004c1150 f   pathmix.obj
 0001:000c0240       ?PathStartsWith@@YA_NABVUnicodeString@@0@Z 004c1240 f   pathmix.obj
 0001:000c02d0       ?MatchNtPathRoot@@YAHABVUnicodeString@@PB_W@Z 004c12d0 f   pathmix.obj
 0001:000c0610       ?ShowProcessList@@YAXXZ    004c1610 f   plist.obj
 0001:000c09f0       ??1PreserveLongName@@QAE@XZ 004c19f0 f   plognmn.obj
 0001:000c0b40       ??0PreserveLongName@@QAE@PB_WH@Z 004c1b40 f   plognmn.obj
 0001:000c0c30       ?GetError@Help@@QAEHXZ     004c1c30 f i plugapi.obj
 0001:000c0c40       ?InModalEV@Manager@@QAEHXZ 004c1c40 f i plugapi.obj
 0001:000c0c50       ?InitOK@Dialog@@QAE_NXZ    004c1c50 f i plugapi.obj
 0001:000c0c60       ?GetCurPos@CommandLine@@QAEHXZ 004c1c60 f i plugapi.obj
 0001:000c0c70       ?GetSelString@CommandLine@@QAEXAAVUnicodeString@@@Z 004c1c70 f i plugapi.obj
 0001:000c0c80       ?GetSelection@CommandLine@@QAEXAAH0@Z 004c1c80 f i plugapi.obj
 0001:000c0c90       ?Select@CommandLine@@QAEXHH@Z 004c1c90 f i plugapi.obj
 0001:000c0ca0       ?DisableAC@CommandLine@@QAEXXZ 004c1ca0 f i plugapi.obj
 0001:000c0cb0       ?RevertAC@CommandLine@@QAEXXZ 004c1cb0 f i plugapi.obj
 0001:000c0cd0       ?GetMsg@PluginW@@QAEPB_WH@Z 004c1cd0 f i plugapi.obj
 0001:000c0ce0       ?ReportThreadUnsafeCall@@YAXPB_WK@Z 004c1ce0 f   plugapi.obj
 0001:000c0d80       ?FarItoa@@YGPA_WHPA_WH@Z   004c1d80 f   plugapi.obj
 0001:000c0db0       ?FarItoa64@@YGPA_W_JPA_WH@Z 004c1db0 f   plugapi.obj
 0001:000c0de0       ?FarAtoi@@YGHPB_W@Z        004c1de0 f   plugapi.obj
 0001:000c0e00       ?FarAtoi64@@YG_JPB_W@Z     004c1e00 f   plugapi.obj
 0001:000c0e20       ?FarQsort@@YGXPAXIIP6AHPBX1@Z@Z 004c1e20 f   plugapi.obj
 0001:000c0e50       ?FarQsortEx@@YGXPAXIIP6AHPBX10@Z0@Z 004c1e50 f   plugapi.obj
 0001:000c0e80       ?FarBsearch@@YGPAXPBX0IIP6AH00@Z@Z 004c1e80 f   plugapi.obj
 0001:000c0ec0       ?DeleteBuffer@@YGXPAX@Z    004c1ec0 f   plugapi.obj
 0001:000c0ee0       ?IsUpper@@YAH_W@Z          004c1ee0 f i plugapi.obj
 0001:000c0ef0       ?IsLower@@YAH_W@Z          004c1ef0 f i plugapi.obj
 0001:000c0f00       ?FarDefDlgProc@@YGJPAXHHJ@Z 004c1f00 f   plugapi.obj
 0001:000c0f20       ?FarSendDlgMessage@@YGJPAXHHJ@Z 004c1f20 f   plugapi.obj
 0001:000c0ff0       ?FarDialogInit@@YGPAXHHHHHPB_WPAUFarDialogItem@@IKKP6GJPAXHHJ@ZJ@Z 004c1ff0 f   plugapi.obj
 0001:000c1100       ?FarDialogRun@@YGHPAX@Z    004c2100 f   plugapi.obj
 0001:000c1180       ?FarDialogFree@@YGXPAX@Z   004c2180 f   plugapi.obj
 0001:000c11a0       ?FarSaveScreen@@YGPAXHHHH@Z 004c21a0 f   plugapi.obj
 0001:000c12e0       ?FarFreeDirList@@YGXPAUFAR_FIND_DATA@@H@Z 004c22e0 f   plugapi.obj
 0001:000c1320       ?FarFreePluginDirList@@YGXPAUPluginPanelItem@@H@Z 004c2320 f   plugapi.obj
 0001:000c1380       ?FarViewer@@YGHPB_W0HHHHKI@Z 004c2380 f   plugapi.obj
 0001:000c15b0       ?FarEditor@@YGHPB_W0HHHHKHHI@Z 004c25b0 f   plugapi.obj
 0001:000c18c0       ?FarCmpName@@YGHPB_W0H@Z   004c28c0 f   plugapi.obj
 0001:000c18f0       ?FarText@@YGXHHHPB_W@Z     004c28f0 f   plugapi.obj
 0001:000c1950       ?FarEditorControl@@YGHHPAX@Z 004c2950 f   plugapi.obj
 0001:000c19b0       ?FarViewerControl@@YGHHPAX@Z 004c29b0 f   plugapi.obj
 0001:000c1a10       ?farUpperBuf@@YGXPA_WH@Z   004c2a10 f   plugapi.obj
 0001:000c1a20       ?farLowerBuf@@YGXPA_WH@Z   004c2a20 f   plugapi.obj
 0001:000c1a30       ?farStrUpper@@YGXPA_W@Z    004c2a30 f   plugapi.obj
 0001:000c1a60       ?farStrLower@@YGXPA_W@Z    004c2a60 f   plugapi.obj
 0001:000c1a90       ?farUpper@@YG_W_W@Z        004c2a90 f   plugapi.obj
 0001:000c1ab0       ?farLower@@YG_W_W@Z        004c2ab0 f   plugapi.obj
 0001:000c1ad0       ?farStrCmpNI@@YGHPB_W0H@Z  004c2ad0 f   plugapi.obj
 0001:000c1b00       ?farStrCmpI@@YGHPB_W0@Z    004c2b00 f   plugapi.obj
 0001:000c1b30       ?farIsLower@@YGH_W@Z       004c2b30 f   plugapi.obj
 0001:000c1b40       ?farIsUpper@@YGH_W@Z       004c2b40 f   plugapi.obj
 0001:000c1b50       ?farIsAlpha@@YGH_W@Z       004c2b50 f   plugapi.obj
 0001:000c1b60       ?farIsAlphaNum@@YGH_W@Z    004c2b60 f   plugapi.obj
 0001:000c1b70       ?farRegExpControl@@YGHPAXHJ@Z 004c2b70 f   plugapi.obj
 0001:000c1c80       ?FarGetMsgFn@@YGPB_WHH@Z   004c2c80 f   plugapi.obj
 0001:000c1d40       ?FarMessageFn@@YGHHKPB_WPBQB_WHH@Z 004c2d40 f   plugapi.obj
 0001:000c20a0       ?FarControl@@YGHPAXHHJ@Z   004c30a0 f   plugapi.obj
 0001:000c24d0       ?FarRestoreScreen@@YGXPAX@Z 004c34d0 f   plugapi.obj
 0001:000c2630       ?ScanPluginDir@@YAXXZ      004c3630 f   plugapi.obj
 0001:000c2ac0       ?farGetFileOwner@@YGHPB_W0PA_WH@Z 004c3ac0 f   plugapi.obj
 0001:000c2b30       ?farGetReparsePointInfo@@YGHPB_WPA_WH@Z 004c3b30 f   plugapi.obj
 0001:000c2c00       ?farGetPathRoot@@YGHPB_WPA_WH@Z 004c3c00 f   plugapi.obj
 0001:000c2cd0       ?farPluginsControl@@YGHPAXHHJ@Z 004c3cd0 f   plugapi.obj
 0001:000c2d90       ?farFileFilterControl@@YGHPAXHHJ@Z 004c3d90 f   plugapi.obj
 0001:000c2eb0       ?farGetCurrentDirectory@@YGKKPA_W@Z 004c3eb0 f   plugapi.obj
 0001:000c2f20       ?FarInputBox@@YGHPB_W000PA_WH0K@Z 004c3f20 f   plugapi.obj
 0001:000c2fc0       ?FarShowHelp@@YGHPB_W0K@Z  004c3fc0 f   plugapi.obj
 0001:000c32b0       ?FarAdvControl@@YGHHHPAX@Z 004c42b0 f   plugapi.obj
 0001:000c3d40       ?FarMenuFn@@YGHHHHHKPB_W00PBHPAHPBUFarMenuItem@@H@Z 004c4d40 f   plugapi.obj
 0001:000c4260       ?FarGetPluginDirList@@YGHHPAXPB_WPAPAUPluginPanelItem@@PAH@Z 004c5260 f   plugapi.obj
 0001:000c4580       ?farConvertPath@@YGHW4CONVERTPATHMODES@@PB_WPA_WH@Z 004c5580 f   plugapi.obj
 0001:000c46b0       ?FarGetDirList@@YGHPB_WPAPAUFAR_FIND_DATA@@PAH@Z 004c56b0 f   plugapi.obj
 0001:000c4950       ??1Plugin@@UAE@XZ          004c5950 f i PluginA.obj
 0001:000c4960       ??_EPlugin@@UAEPAXI@Z      004c5960 f i PluginA.obj
 0001:000c4960       ??_GPlugin@@UAEPAXI@Z      004c5960 f i PluginA.obj
 0001:000c4980       ?GetMsgA@PluginA@@QAEPBDH@Z 004c5980 f i PluginA.obj
 0001:000c4990       ?strchr@@YAPADPADH@Z       004c5990 f i PluginA.obj
 0001:000c49a0       ?IsSpaceA@@YAHH@Z          004c59a0 f i PluginA.obj
 0001:000c49c0       ?IsEolA@@YAHH@Z            004c59c0 f i PluginA.obj
 0001:000c49e0       ?IsSlashA@@YAHH@Z          004c59e0 f i PluginA.obj
 0001:000c4a00       ?FirstSlashA@@YAPBDPBD@Z   004c5a00 f   PluginA.obj
 0001:000c4a20       ?FirstSlashA@@YA_NPBDAAI@Z 004c5a20 f   PluginA.obj
 0001:000c4a60       ?LastSlashA@@YAPBDPBD@Z    004c5a60 f   PluginA.obj
 0001:000c4ab0       ?LastSlashA@@YA_NPBDAAI@Z  004c5ab0 f   PluginA.obj
 0001:000c4ae0       ?AnsiToUnicodeBin@@YAXPBDPA_WHI@Z 004c5ae0 f   PluginA.obj
 0001:000c4b20       ?AnsiToUnicodeBin@@YAPA_WPBDHI@Z 004c5b20 f   PluginA.obj
 0001:000c4b70       ?AnsiToUnicode@@YAPA_WPBDI@Z 004c5b70 f   PluginA.obj
 0001:000c4ba0       ?UnicodeToAnsiBin@@YAPADPB_WHI@Z 004c5ba0 f   PluginA.obj
 0001:000c4bf0       ?ArrayAnsiToUnicode@@YAPAPA_WPAPADH@Z 004c5bf0 f   PluginA.obj
 0001:000c4cb0       ?FreeArrayUnicode@@YAXPAPA_W@Z 004c5cb0 f   PluginA.obj
 0001:000c4cf0       ?OldKeyToKey@@YAKK@Z       004c5cf0 f   PluginA.obj
 0001:000c4d80       ?KeyToOldKey@@YAKK@Z       004c5d80 f   PluginA.obj
 0001:000c4e10       ?ConvertInfoPanelLinesA@@YAXPBUInfoPanelLine@oldfar@@PAPAU1@H@Z 004c5e10 f   PluginA.obj
 0001:000c4f10       ?FreeUnicodeInfoPanelLines@@YAXPAUInfoPanelLine@@H@Z 004c5f10 f   PluginA.obj
 0001:000c4f60       ?ConvertPanelModesA@@YAXPBUPanelMode@oldfar@@PAPAU1@H@Z 004c5f60 f   PluginA.obj
 0001:000c5220       ?FreeUnicodePanelModes@@YAXPAUPanelMode@@H@Z 004c6220 f   PluginA.obj
 0001:000c52a0       ?ConvertKeyBarTitlesA@@YAXPBUKeyBarTitles@oldfar@@PAU1@_N@Z 004c62a0 f   PluginA.obj
 0001:000c5580       ?FreeUnicodeKeyBarTitles@@YAXPAUKeyBarTitles@@@Z 004c6580 f   PluginA.obj
 0001:000c5620       ?ConvertPanelItemA@@YAXPBUPluginPanelItem@oldfar@@PAPAU1@H@Z 004c6620 f   PluginA.obj
 0001:000c5970       ?FreeUnicodePanelItem@@YAXPAUPluginPanelItem@@H@Z 004c6970 f   PluginA.obj
 0001:000c5a00       ?FreePanelItemA@@YAXPAUPluginPanelItem@oldfar@@H_N@Z 004c6a00 f   PluginA.obj
 0001:000c5ab0       ?RemoveTrailingSpacesA@@YGPADPAD@Z 004c6ab0 f   PluginA.obj
 0001:000c5b00       ?FarItoaA@@YGPADHPADH@Z    004c6b00 f   PluginA.obj
 0001:000c5b30       ?FarItoa64A@@YGPAD_JPADH@Z 004c6b30 f   PluginA.obj
 0001:000c5b60       ?FarAtoiA@@YGHPBD@Z        004c6b60 f   PluginA.obj
 0001:000c5b80       ?FarAtoi64A@@YG_JPBD@Z     004c6b80 f   PluginA.obj
 0001:000c5ba0       ?PointToNameA@@YGPADPAD@Z  004c6ba0 f   PluginA.obj
 0001:000c5be0       ?UnquoteA@@YGXPAD@Z        004c6be0 f   PluginA.obj
 0001:000c5c10       ?RemoveLeadingSpacesA@@YGPADPAD@Z 004c6c10 f   PluginA.obj
 0001:000c5c60       ?RemoveExternalSpacesA@@YGPADPAD@Z 004c6c60 f   PluginA.obj
 0001:000c5c80       ?TruncStrA@@YGPADPADH@Z    004c6c80 f   PluginA.obj
 0001:000c5d00       ?TruncPathStrA@@YGPADPADH@Z 004c6d00 f   PluginA.obj
 0001:000c5de0       ?InsertQuoteA@@YAPADPAD@Z  004c6de0 f   PluginA.obj
 0001:000c5e30       ?QuoteSpaceOnlyA@@YGPADPAD@Z 004c6e30 f   PluginA.obj
 0001:000c5e60       ?AddEndSlashA@@YAHPADD@Z   004c6e60 f   PluginA.obj
 0001:000c5f00       ?AddEndSlashA@@YGHPAD@Z    004c6f00 f   PluginA.obj
 0001:000c5f20       ?CopyToClipboardA@@YGHPBD@Z 004c6f20 f   PluginA.obj
 0001:000c5f90       ?DeleteBufferA@@YGXPAX@Z   004c6f90 f   PluginA.obj
 0001:000c5fb0       ?InputRecordToKeyA@@YGHPBU_INPUT_RECORD@@@Z 004c6fb0 f   PluginA.obj
 0001:000c60c0       ??0?$DList@PAUDialogData@@@@QAE@XZ 004c70c0 f i PluginA.obj
 0001:000c60e0       ?UnicodeListItemToAnsi@@YAXPAUFarListItem@@PAU1oldfar@@@Z 004c70e0 f   PluginA.obj
 0001:000c6170       ?GetAnsiVBufSize@@YAIAAUFarDialogItem@oldfar@@@Z 004c7170 f   PluginA.obj
 0001:000c6190       ?GetAnsiVBufPtr@@YAPAU_CHAR_INFO@@PAU1@I@Z 004c7190 f   PluginA.obj
 0001:000c61b0       ?SetAnsiVBufPtr@@YAXPAU_CHAR_INFO@@0I@Z 004c71b0 f   PluginA.obj
 0001:000c61d0       ?AnsiVBufToUnicode@@YAXPAU_CHAR_INFO@@0I_N@Z 004c71d0 f   PluginA.obj
 0001:000c6240       ?AnsiVBufToUnicode@@YAPAU_CHAR_INFO@@AAUFarDialogItem@oldfar@@@Z 004c7240 f   PluginA.obj
 0001:000c62b0       ?AnsiListItemToUnicode@@YAXPAUFarListItem@oldfar@@PAU1@@Z 004c72b0 f   PluginA.obj
 0001:000c6350       ?AnsiDialogItemToUnicodeSafe@@YAXAAUFarDialogItem@oldfar@@AAU1@@Z 004c7350 f   PluginA.obj
 0001:000c6600       ?AnsiDialogItemToUnicode@@YAXAAUFarDialogItem@oldfar@@AAU1@AAUFarList@@@Z 004c7600 f   PluginA.obj
 0001:000c68d0       ?FreeUnicodeDialogItem@@YAXAAUFarDialogItem@@@Z 004c78d0 f   PluginA.obj
 0001:000c6a90       ?FreeAnsiDialogItem@@YAXAAUFarDialogItem@oldfar@@@Z 004c7a90 f   PluginA.obj
 0001:000c6b00       ?UnicodeDialogItemToAnsiSafe@@YAXAAUFarDialogItem@@AAU1oldfar@@@Z 004c7b00 f   PluginA.obj
 0001:000c6db0       ?FarDefDlgProcA@@YGJPAXHHJ@Z 004c7db0 f   PluginA.obj
 0001:000c6dc0       ?ConvertUnicodePanelInfoToAnsi@@YAXPAUPanelInfo@@PAU1oldfar@@@Z 004c7dc0 f   PluginA.obj
 0001:000c6fd0       ?FreeAnsiPanelInfo@@YAXPAUPanelInfo@oldfar@@@Z 004c7fd0 f   PluginA.obj
 0001:000c7020       ?FarFreeDirListA@@YGXPBUPluginPanelItem@oldfar@@@Z 004c8020 f   PluginA.obj
 0001:000c7050       ?GetEditorCodePageA@@YAIXZ 004c8050 f   PluginA.obj
 0001:000c70b0       ?MultiByteRecode@@YAXIIPADH@Z 004c80b0 f   PluginA.obj
 0001:000c7140       ??0Plugin@@QAE@XZ          004c8140 f i PluginA.obj
 0001:000c7150       ?apiSetFileApisToOEM@@YAXXZ 004c8150 f   PluginA.obj
 0001:000c7170       ?apiRevertFileApis@@YAXXZ  004c8170 f   PluginA.obj
 0001:000c71a0       ?IsPanelPlugin@PluginA@@UAE_NXZ 004c81a0 f   PluginA.obj
 0001:000c7250       ??_GChangePriority@@QAEPAXI@Z 004c8250 f i PluginA.obj
 0001:000c7270       ?ProcessEditorInput@PluginA@@UAEHPBU_INPUT_RECORD@@@Z 004c8270 f   PluginA.obj
 0001:000c73b0       ?ProcessEditorEvent@PluginA@@UAEHHPAX@Z 004c83b0 f   PluginA.obj
 0001:000c74b0       ?ProcessViewerEvent@PluginA@@UAEHHPAX@Z 004c84b0 f   PluginA.obj
 0001:000c75b0       ?ProcessDialogEvent@PluginA@@UAEHHPAX@Z 004c85b0 f   PluginA.obj
 0001:000c76c0       ?GetVirtualFindData@PluginA@@UAEHPAXPAPAUPluginPanelItem@@PAHPB_W@Z 004c86c0 f   PluginA.obj
 0001:000c7860       ?FreeVirtualFindData@PluginA@@UAEXPAXPAUPluginPanelItem@@H@Z 004c8860 f   PluginA.obj
 0001:000c7970       ?MakeDirectory@PluginA@@UAEHPAXPAPB_WH@Z 004c8970 f   PluginA.obj
 0001:000c7ae0       ?GetFindData@PluginA@@UAEHPAXPAPAUPluginPanelItem@@PAHH@Z 004c8ae0 f   PluginA.obj
 0001:000c7c30       ?FreeFindData@PluginA@@UAEXPAXPAUPluginPanelItem@@H@Z 004c8c30 f   PluginA.obj
 0001:000c7d40       ?ProcessKey@PluginA@@UAEHPAXHI@Z 004c8d40 f   PluginA.obj
 0001:000c7e70       ?FreeOpenPluginInfo@PluginA@@AAEXXZ 004c8e70 f   PluginA.obj
 0001:000c7f50       ?ConvertOpenPluginInfo@PluginA@@AAEXAAUOpenPluginInfo@oldfar@@PAU2@@Z 004c8f50 f   PluginA.obj
 0001:000c8200       ?GetOpenPluginInfo@PluginA@@UAEXPAXPAUOpenPluginInfo@@@Z 004c9200 f   PluginA.obj
 0001:000c8330       ?Configure@PluginA@@UAEHH@Z 004c9330 f   PluginA.obj
 0001:000c8430       ?FreePluginInfo@PluginA@@AAEXXZ 004c9430 f   PluginA.obj
 0001:000c84f0       ?ConvertPluginInfo@PluginA@@AAEXAAUPluginInfo@oldfar@@PAU2@@Z 004c94f0 f   PluginA.obj
 0001:000c87b0       ?GetPluginInfo@PluginA@@UAE_NPAUPluginInfo@@@Z 004c97b0 f   PluginA.obj
 0001:000c8910       ?ExitFAR@PluginA@@UAEXXZ   004c9910 f   PluginA.obj
 0001:000c8a00       ?ClearExports@PluginA@@AAEXXZ 004c9a00 f   PluginA.obj
 0001:000c8ab0       ?DeleteNode@?$DList@PAUDialogData@@@@EAEXPAUNode@CDList@@@Z 004c9ab0 f i PluginA.obj
 0001:000c8ac0       ??1?$DList@PAUDialogData@@@@UAE@XZ 004c9ac0 f i PluginA.obj
 0001:000c8ad0       ?Push@?$DList@PAUDialogData@@@@QAEPAPAUDialogData@@PBQAU2@@Z 004c9ad0 f i PluginA.obj
 0001:000c8ae0       ?Delete@?$DList@PAUDialogData@@@@QAEPAPAUDialogData@@PAPAU2@@Z 004c9ae0 f i PluginA.obj
 0001:000c8af0       ?Node2Type@?$DList@PAUDialogData@@@@AAEPAPAUDialogData@@PAUNode@CDList@@@Z 004c9af0 f i PluginA.obj
 0001:000c8b10       ?Type2Node@?$DList@PAUDialogData@@@@AAEPAUNode@CDList@@PBQAUDialogData@@@Z 004c9b10 f i PluginA.obj
 0001:000c8b30       ??0TNode@?$DList@PAUDialogData@@@@QAE@PAPAUDialogData@@@Z 004c9b30 f i PluginA.obj
 0001:000c8b50       ?UnicodeToAnsi@@YAPADPB_WI@Z 004c9b50 f   PluginA.obj
 0001:000c8b90       ?ConvertPanelItemToAnsi@@YAXABUPluginPanelItem@@AAU1oldfar@@@Z 004c9b90 f   PluginA.obj
 0001:000c8da0       ?ConvertPanelItemsArrayToAnsi@@YAXPBUPluginPanelItem@@AAPAU1oldfar@@H@Z 004c9da0 f   PluginA.obj
 0001:000c8e00       ?GetPathRootA@@YGXPBDPAD@Z 004c9e00 f   PluginA.obj
 0001:000c8ea0       ?PasteFromClipboardA@@YGPADXZ 004c9ea0 f   PluginA.obj
 0001:000c8ee0       ?ProcessNameA@@YGHPBDPADK@Z 004c9ee0 f   PluginA.obj
 0001:000c9020       ?KeyNameToKeyA@@YGHPBD@Z   004ca020 f   PluginA.obj
 0001:000c9080       ?FarKeyToNameA@@YGHHPADH@Z 004ca080 f   PluginA.obj
 0001:000c9100       ?FarMkTempA@@YGPADPADPBD@Z 004ca100 f   PluginA.obj
 0001:000c91b0       ?FarMkLinkA@@YGHPBD0K@Z    004ca1b0 f   PluginA.obj
 0001:000c92c0       ?GetNumberOfLinksA@@YGHPBD@Z 004ca2c0 f   PluginA.obj
 0001:000c9320       ?ConvertNameToRealA@@YGHPBDPADH@Z 004ca320 f   PluginA.obj
 0001:000c9420       ?FarGetReparsePointInfoA@@YGHPBDPADH@Z 004ca420 f   PluginA.obj
 0001:000c94e0       ?FarRecursiveSearchA@@YGXPBD0P6GHPBU_WIN32_FIND_DATAA@@0PAX@ZK2@Z 004ca4e0 f   PluginA.obj
 0001:000c95c0       ?ExpandEnvironmentStrA@@YGKPBDPADI@Z 004ca5c0 f   PluginA.obj
 0001:000c9680       ?FarViewerA@@YGHPBD0HHHHK@Z 004ca680 f   PluginA.obj
 0001:000c9740       ?FarEditorA@@YGHPBD0HHHHKHH@Z 004ca740 f   PluginA.obj
 0001:000c9810       ?FarCmpNameA@@YGHPBD0H@Z   004ca810 f   PluginA.obj
 0001:000c98c0       ?FarTextA@@YGXHHHPBD@Z     004ca8c0 f   PluginA.obj
 0001:000c9940       ?FarShowHelpA@@YGHPBD0K@Z  004ca940 f   PluginA.obj
 0001:000c99f0       ?FarInputBoxA@@YGHPBD000PADH0K@Z 004ca9f0 f   PluginA.obj
 0001:000c9c00       ?FarMessageFnA@@YGHHKPBDPBQBDHH@Z 004cac00 f   PluginA.obj
 0001:000c9dd0       ?FarGetMsgFnA@@YGPBDHH@Z   004cadd0 f   PluginA.obj
 0001:000c9e90       ?FarMenuFnA@@YGHHHHHKPBD00PBHPAHPBUFarMenuItem@oldfar@@H@Z 004cae90 f   PluginA.obj
 0001:000ca2b0       ??_G?$DList@PAUDialogData@@@@UAEPAXI@Z 004cb2b0 f i PluginA.obj
 0001:000ca2b0       ??_E?$DList@PAUDialogData@@@@UAEPAXI@Z 004cb2b0 f i PluginA.obj
 0001:000ca2e0       ?FarControlA@@YGHPAXH0@Z   004cb2e0 f   PluginA.obj
 0001:000cabc0       ?FarGetDirListA@@YGHPBDPAPAUPluginPanelItem@oldfar@@PAH@Z 004cbbc0 f   PluginA.obj
 0001:000cae10       ?FarGetPluginDirListA@@YGHHPAXPBDPAPAUPluginPanelItem@oldfar@@PAH@Z 004cbe10 f   PluginA.obj
 0001:000caf60       ?FarAdvControlA@@YGHHHPAX@Z 004cbf60 f   PluginA.obj
 0001:000cb8b0       ?GetEditorCodePageFavA@@YAHXZ 004cc8b0 f   PluginA.obj
 0001:000cb990       ?ConvertCharTableToCodePage@@YAIH@Z 004cc990 f   PluginA.obj
 0001:000cbaa0       ?FarEditorControlA@@YGHHPAX@Z 004ccaa0 f   PluginA.obj
 0001:000cc460       ?FarViewerControlA@@YGHHPAX@Z 004cd460 f   PluginA.obj
 0001:000cc780       ?XlatA@@YGPADPADHHPBUCharTableSet@oldfar@@K@Z 004cd780 f   PluginA.obj
 0001:000cc830       ?GetFileOwnerA@@YGHPBD0PAD@Z 004cd830 f   PluginA.obj
 0001:000cc9b0       ??0PluginA@@QAE@PAVPluginManager@@PB_W@Z 004cd9b0 f   PluginA.obj
 0001:000ccab0       ?IsOemPlugin@PluginA@@UAE_NXZ 004cdab0 f i PluginA.obj
 0001:000ccac0       ?HasOpenPlugin@PluginA@@UAE_NXZ 004cdac0 f i PluginA.obj
 0001:000ccad0       ?HasMakeDirectory@PluginA@@UAE_NXZ 004cdad0 f i PluginA.obj
 0001:000ccae0       ?HasDeleteFiles@PluginA@@UAE_NXZ 004cdae0 f i PluginA.obj
 0001:000ccaf0       ?HasPutFiles@PluginA@@UAE_NXZ 004cdaf0 f i PluginA.obj
 0001:000ccb00       ?HasGetFiles@PluginA@@UAE_NXZ 004cdb00 f i PluginA.obj
 0001:000ccb10       ?HasSetStartupInfo@PluginA@@UAE_NXZ 004cdb10 f i PluginA.obj
 0001:000ccb20       ?HasOpenFilePlugin@PluginA@@UAE_NXZ 004cdb20 f i PluginA.obj
 0001:000ccb30       ?HasClosePlugin@PluginA@@UAE_NXZ 004cdb30 f i PluginA.obj
 0001:000ccb40       ?HasGetPluginInfo@PluginA@@UAE_NXZ 004cdb40 f i PluginA.obj
 0001:000ccb50       ?HasGetOpenPluginInfo@PluginA@@UAE_NXZ 004cdb50 f i PluginA.obj
 0001:000ccb60       ?HasGetFindData@PluginA@@UAE_NXZ 004cdb60 f i PluginA.obj
 0001:000ccb70       ?HasFreeFindData@PluginA@@UAE_NXZ 004cdb70 f i PluginA.obj
 0001:000ccb80       ?HasGetVirtualFindData@PluginA@@UAE_NXZ 004cdb80 f i PluginA.obj
 0001:000ccb90       ?HasFreeVirtualFindData@PluginA@@UAE_NXZ 004cdb90 f i PluginA.obj
 0001:000ccba0       ?HasSetDirectory@PluginA@@UAE_NXZ 004cdba0 f i PluginA.obj
 0001:000ccbb0       ?HasProcessHostFile@PluginA@@UAE_NXZ 004cdbb0 f i PluginA.obj
 0001:000ccbc0       ?HasSetFindList@PluginA@@UAE_NXZ 004cdbc0 f i PluginA.obj
 0001:000ccbd0       ?HasConfigure@PluginA@@UAE_NXZ 004cdbd0 f i PluginA.obj
 0001:000ccbe0       ?HasExitFAR@PluginA@@UAE_NXZ 004cdbe0 f i PluginA.obj
 0001:000ccbf0       ?HasProcessKey@PluginA@@UAE_NXZ 004cdbf0 f i PluginA.obj
 0001:000ccc00       ?HasProcessEvent@PluginA@@UAE_NXZ 004cdc00 f i PluginA.obj
 0001:000ccc10       ?HasProcessEditorEvent@PluginA@@UAE_NXZ 004cdc10 f i PluginA.obj
 0001:000ccc20       ?HasCompare@PluginA@@UAE_NXZ 004cdc20 f i PluginA.obj
 0001:000ccc30       ?HasProcessEditorInput@PluginA@@UAE_NXZ 004cdc30 f i PluginA.obj
 0001:000ccc40       ?HasMinFarVersion@PluginA@@UAE_NXZ 004cdc40 f i PluginA.obj
 0001:000ccc50       ?HasProcessViewerEvent@PluginA@@UAE_NXZ 004cdc50 f i PluginA.obj
 0001:000ccc60       ?HasProcessDialogEvent@PluginA@@UAE_NXZ 004cdc60 f i PluginA.obj
 0001:000ccc70       ?HasProcessSynchroEvent@PluginA@@UAE_NXZ 004cdc70 f i PluginA.obj
 0001:000ccc80       ?HasAnalyse@PluginA@@UAE_NXZ 004cdc80 f i PluginA.obj
 0001:000ccc90       ?HasGetCustomData@PluginA@@UAE_NXZ 004cdc90 f i PluginA.obj
 0001:000ccca0       ?HasFreeCustomData@PluginA@@UAE_NXZ 004cdca0 f i PluginA.obj
 0001:000cccb0       ?GetModuleName@PluginA@@UAEABVUnicodeString@@XZ 004cdcb0 f i PluginA.obj
 0001:000cccc0       ?GetSysID@PluginA@@UAEKXZ  004cdcc0 f i PluginA.obj
 0001:000cccd0       ?CheckWorkFlags@PluginA@@UAE_NK@Z 004cdcd0 f i PluginA.obj
 0001:000ccce0       ?GetWorkFlags@PluginA@@UAEKXZ 004cdce0 f i PluginA.obj
 0001:000cccf0       ?GetFuncFlags@PluginA@@UAEKXZ 004cdcf0 f i PluginA.obj
 0001:000ccd00       ?InitLang@PluginA@@UAE_NPB_W@Z 004cdd00 f i PluginA.obj
 0001:000ccd20       ?CloseLang@PluginA@@UAEXXZ 004cdd20 f i PluginA.obj
 0001:000ccd30       ?GetCustomData@PluginA@@UAEHPB_WPAPA_W@Z 004cdd30 f i PluginA.obj
 0001:000ccd40       ?FreeCustomData@PluginA@@UAEXPA_W@Z 004cdd40 f i PluginA.obj
 0001:000ccd50       ?ProcessSynchroEvent@PluginA@@UAEHHPAX@Z 004cdd50 f i PluginA.obj
 0001:000ccd60       ?Analyse@PluginA@@UAEHPBUAnalyseData@@@Z 004cdd60 f i PluginA.obj
 0001:000ccd70       ?GetCacheName@PluginA@@UAEPB_WXZ 004cdd70 f i PluginA.obj
 0001:000ccd80       ??1PluginA@@UAE@XZ         004cdd80 f   PluginA.obj
 0001:000cce20       ?LoadFromCache@PluginA@@UAE_NABUFAR_FIND_DATA_EX@@@Z 004cde20 f   PluginA.obj
 0001:000cd140       ?Load@PluginA@@UAE_NXZ     004ce140 f   PluginA.obj
 0001:000cd640       ?CheckMinFarVersion@PluginA@@UAE_NAA_N@Z 004ce640 f   PluginA.obj
 0001:000cd7c0       ?Unload@PluginA@@UAEH_N@Z  004ce7c0 f   PluginA.obj
 0001:000cd810       ?OpenPlugin@PluginA@@UAEPAXHH@Z 004ce810 f   PluginA.obj
 0001:000cd9c0       ?OpenFilePlugin@PluginA@@UAEPAXPB_WPBEHH@Z 004ce9c0 f   PluginA.obj
 0001:000cdb00       ?SetFindList@PluginA@@UAEHPAXPBUPluginPanelItem@@H@Z 004ceb00 f   PluginA.obj
 0001:000cdc50       ?GetFiles@PluginA@@UAEHPAXPAUPluginPanelItem@@HHPAPB_WH@Z 004cec50 f   PluginA.obj
 0001:000cde10       ?PutFiles@PluginA@@UAEHPAXPAUPluginPanelItem@@HHH@Z 004cee10 f   PluginA.obj
 0001:000cdf70       ?DeleteFiles@PluginA@@UAEHPAXPAUPluginPanelItem@@HH@Z 004cef70 f   PluginA.obj
 0001:000ce0c0       ?ProcessHostFile@PluginA@@UAEHPAXPAUPluginPanelItem@@HH@Z 004cf0c0 f   PluginA.obj
 0001:000ce210       ?ProcessEvent@PluginA@@UAEHPAXH0@Z 004cf210 f   PluginA.obj
 0001:000ce370       ?Compare@PluginA@@UAEHPAXPBUPluginPanelItem@@1K@Z 004cf370 f   PluginA.obj
 0001:000ce4e0       ?ClosePlugin@PluginA@@UAEXPAX@Z 004cf4e0 f   PluginA.obj
 0001:000ce5e0       ?SetDirectory@PluginA@@UAEHPAXPB_WH@Z 004cf5e0 f   PluginA.obj
 0001:000ce740       ?AllocNode@?$DList@PAUDialogData@@@@EAEPAUNode@CDList@@PAX@Z 004cf740 f i PluginA.obj
 0001:000ce770       ?Last@?$DList@PAUDialogData@@@@QAEPAPAUDialogData@@XZ 004cf770 f i PluginA.obj
 0001:000ce790       ?Prev@?$DList@PAUDialogData@@@@QAEPAPAUDialogData@@PBQAU2@@Z 004cf790 f i PluginA.obj
 0001:000ce7c0       ?FindCurrentDialogData@@YAPAUDialogData@@PAX@Z 004cf7c0 f   PluginA.obj
 0001:000ce800       ?CurrentDialogItemA@@YAPAUFarDialogItem@oldfar@@PAXH@Z 004cf800 f   PluginA.obj
 0001:000ce830       ?CurrentDialogItem@@YAPAUFarDialogItem@@PAXH@Z 004cf830 f   PluginA.obj
 0001:000ce860       ?CurrentList@@YAPAUFarList@@PAXH@Z 004cf860 f   PluginA.obj
 0001:000ce880       ?CurrentDlgProc@@YGJPAXHHJ@Z 004cf880 f   PluginA.obj
 0001:000ce8b0       ?UnicodeDialogItemToAnsi@@YAPAUFarDialogItem@oldfar@@AAU1@PAXH@Z 004cf8b0 f   PluginA.obj
 0001:000cea50       ?DlgProcA@@YGJPAXHHJ@Z     004cfa50 f   PluginA.obj
 0001:000cecf0       ?FarSendDlgMessageA@@YGJPAXHHJ@Z 004cfcf0 f   PluginA.obj
 0001:000cfb90       ?FarDialogExA@@YGHHHHHHPBDPAUFarDialogItem@oldfar@@HKKP6GJPAXHHJ@ZJ@Z 004d0b90 f   PluginA.obj
 0001:000d0030       ?FarDialogFnA@@YGHHHHHHPBDPAUFarDialogItem@oldfar@@H@Z 004d1030 f   PluginA.obj
 0001:000d0070       ?FarCharTableA@@YGHHPADH@Z 004d1070 f   PluginA.obj
 0001:000d03a0       ??_GPluginA@@UAEPAXI@Z     004d13a0 f i PluginA.obj
 0001:000d03a0       ??_EPluginA@@UAEPAXI@Z     004d13a0 f i PluginA.obj
 0001:000d03c0       ?SaveToCache@PluginA@@UAE_NXZ 004d13c0 f   PluginA.obj
 0001:000d0bc0       ?SetStartupInfo@PluginA@@UAE_NAA_N@Z 004d1bc0 f   PluginA.obj
 0001:000d0d70       ?CRC32@@YAKKPBDI@Z         004d1d70 f   plugins.obj
 0001:000d0e70       ?IsModulePlugin2@@YA?AW4PluginType@@PAE@Z 004d1e70 f   plugins.obj
 0001:000d1040       ?IsModulePlugin@@YA?AW4PluginType@@PB_W@Z 004d2040 f   plugins.obj
 0001:000d10c0       ??0PluginManager@@QAE@XZ   004d20c0 f   plugins.obj
 0001:000d10e0       ??1PluginManager@@QAE@XZ   004d20e0 f   plugins.obj
 0001:000d1130       ?AddPlugin@PluginManager@@AAE_NPAVPlugin@@@Z 004d2130 f   plugins.obj
 0001:000d1180       ?RemovePlugin@PluginManager@@AAE_NPAVPlugin@@@Z 004d2180 f   plugins.obj
 0001:000d11f0       ?LoadPlugin@PluginManager@@AAE_NPB_WABUFAR_FIND_DATA_EX@@_N@Z 004d21f0 f   plugins.obj
 0001:000d12b0       ?GetPlugin@PluginManager@@QAEPAVPlugin@@H@Z 004d22b0 f   plugins.obj
 0001:000d12d0       ?IsPluginValid@PluginManager@@QAE_NPAVPlugin@@@Z 004d22d0 f   plugins.obj
 0001:000d1300       ?ClosePlugin@PluginManager@@QAEXPAX@Z 004d2300 f   plugins.obj
 0001:000d1340       ?ProcessEditorInput@PluginManager@@QAEHPAU_INPUT_RECORD@@@Z 004d2340 f   plugins.obj
 0001:000d1390       ?ProcessEditorEvent@PluginManager@@QAEHHPAX@Z 004d2390 f   plugins.obj
 0001:000d1400       ?ProcessViewerEvent@PluginManager@@QAEHHPAX@Z 004d2400 f   plugins.obj
 0001:000d1450       ?ProcessDialogEvent@PluginManager@@QAEHHPAX@Z 004d2450 f   plugins.obj
 0001:000d14b0       ?GetFindData@PluginManager@@QAEHPAXPAPAUPluginPanelItem@@PAHH@Z 004d24b0 f   plugins.obj
 0001:000d1500       ?FreeFindData@PluginManager@@QAEXPAXPAUPluginPanelItem@@H@Z 004d2500 f   plugins.obj
 0001:000d1530       ?GetVirtualFindData@PluginManager@@QAEHPAXPAPAUPluginPanelItem@@PAHPB_W@Z 004d2530 f   plugins.obj
 0001:000d1580       ?FreeVirtualFindData@PluginManager@@QAEXPAXPAUPluginPanelItem@@H@Z 004d2580 f   plugins.obj
 0001:000d15b0       ?SetDirectory@PluginManager@@QAEHPAXPB_WH@Z 004d25b0 f   plugins.obj
 0001:000d15f0       ?GetFiles@PluginManager@@QAEHPAXPAUPluginPanelItem@@HHPAPB_WH@Z 004d25f0 f   plugins.obj
 0001:000d1640       ?GetOpenPluginInfo@PluginManager@@QAEXPAXPAUOpenPluginInfo@@@Z 004d2640 f   plugins.obj
 0001:000d16d0       ?ProcessKey@PluginManager@@QAEHPAXHI@Z 004d26d0 f   plugins.obj
 0001:000d1700       ?ProcessEvent@PluginManager@@QAEHPAXH0@Z 004d2700 f   plugins.obj
 0001:000d1730       ?Compare@PluginManager@@QAEHPAXPBUPluginPanelItem@@1I@Z 004d2730 f   plugins.obj
 0001:000d1760       ?ConfigureCurrent@PluginManager@@QAEXPAVPlugin@@H@Z 004d2760 f   plugins.obj
 0001:000d1810       ?UseFarCommand@PluginManager@@QAEHPAXH@Z 004d2810 f   plugins.obj
 0001:000d18e0       ?DiscardCache@PluginManager@@QAEXXZ 004d28e0 f   plugins.obj
 0001:000d1920       ?LoadIfCacheAbsent@PluginManager@@AAEXXZ 004d2920 f   plugins.obj
 0001:000d1960       ?ReadUserBackgound@PluginManager@@AAEXPAVSaveScreen@@@Z 004d2960 f   plugins.obj
 0001:000d19d0       ?FindPlugin@PluginManager@@QAEPAVPlugin@@K@Z 004d29d0 f   plugins.obj
 0001:000d1a20       ?OpenPlugin@PluginManager@@QAEPAXPAVPlugin@@HH@Z 004d2a20 f   plugins.obj
 0001:000d1a60       ?HasGetCustomData@PluginManager@@QAE_NXZ 004d2a60 f   plugins.obj
 0001:000d1aa0       ?getItem@?$TPointerArray@UPluginHandle@@@@QAEPAUPluginHandle@@I@Z 004d2aa0 f i plugins.obj
 0001:000d1ac0       ?getCount@?$TPointerArray@UPluginHandle@@@@QBEIXZ 004d2ac0 f i plugins.obj
 0001:000d1ad0       ?getItem@?$TPointerArray@UPluginData@@@@QAEPAUPluginData@@I@Z 004d2ad0 f i plugins.obj
 0001:000d1af0       ?getCount@?$TPointerArray@UPluginData@@@@QBEIXZ 004d2af0 f i plugins.obj
 0001:000d1b00       ?Free@?$TPointerArray@UPluginHandle@@@@QAEXXZ 004d2b00 f i plugins.obj
 0001:000d1b50       ?setDelta@?$TPointerArray@UPluginHandle@@@@QAEXI@Z 004d2b50 f i plugins.obj
 0001:000d1b70       ?Free@?$TPointerArray@UPluginData@@@@QAEXXZ 004d2b70 f i plugins.obj
 0001:000d1bc0       ?setDelta@?$TPointerArray@UPluginData@@@@QAEXI@Z 004d2bc0 f i plugins.obj
 0001:000d1be0       ?setSize@?$TPointerArray@UPluginHandle@@@@AAE_NI@Z 004d2be0 f i plugins.obj
 0001:000d1c90       ?setSize@?$TPointerArray@UPluginData@@@@AAE_NI@Z 004d2c90 f i plugins.obj
 0001:000d1d40       ?UnloadPlugin@PluginManager@@QAEHPAVPlugin@@K_N1@Z 004d2d40 f   plugins.obj
 0001:000d1f40       ?GetPlugin@PluginManager@@QAEPAVPlugin@@PB_W@Z 004d2f40 f   plugins.obj
 0001:000d2000       ?DeleteFiles@PluginManager@@QAEHPAXPAUPluginPanelItem@@HH@Z 004d3000 f   plugins.obj
 0001:000d2080       ?MakeDirectory@PluginManager@@QAEHPAXPAPB_WH@Z 004d3080 f   plugins.obj
 0001:000d2100       ?ProcessHostFile@PluginManager@@QAEHPAXPAUPluginPanelItem@@HH@Z 004d3100 f   plugins.obj
 0001:000d2180       ?PutFiles@PluginManager@@QAEHPAXPAUPluginPanelItem@@HHH@Z 004d3180 f   plugins.obj
 0001:000d2200       ?GetHotKeyRegKey@PluginManager@@QAEXPAVPlugin@@HAAVUnicodeString@@@Z 004d3200 f   plugins.obj
 0001:000d2350       ?GetPluginHotKey@PluginManager@@AAEXPAVPlugin@@HPB_WAAVUnicodeString@@@Z 004d3350 f   plugins.obj
 0001:000d23d0       ?GetDiskMenuItem@PluginManager@@QAE_NPAVPlugin@@HAA_NAA_WAAVUnicodeString@@@Z 004d33d0 f   plugins.obj
 0001:000d2580       ?ReloadLanguage@PluginManager@@QAEXXZ 004d3580 f   plugins.obj
 0001:000d25e0       ?CallPlugin@PluginManager@@QAEHKHPAXPAH@Z 004d35e0 f   plugins.obj
 0001:000d2720       ??0?$TPointerArray@UPluginHandle@@@@QAE@I@Z 004d3720 f i plugins.obj
 0001:000d2740       ??1?$TPointerArray@UPluginHandle@@@@QAE@XZ 004d3740 f i plugins.obj
 0001:000d2750       ??0?$TPointerArray@UPluginData@@@@QAE@I@Z 004d3750 f i plugins.obj
 0001:000d2770       ??1?$TPointerArray@UPluginData@@@@QAE@XZ 004d3770 f i plugins.obj
 0001:000d2780       ?insertItem@?$TPointerArray@UPluginHandle@@@@QAEPAUPluginHandle@@I@Z 004d3780 f i plugins.obj
 0001:000d2800       ?insertItem@?$TPointerArray@UPluginData@@@@QAEPAUPluginData@@I@Z 004d3800 f i plugins.obj
 0001:000d2880       ?UnloadPluginExternal@PluginManager@@QAEHPB_W@Z 004d3880 f   plugins.obj
 0001:000d28b0       ?LoadPluginsFromCache@PluginManager@@AAEXXZ 004d38b0 f   plugins.obj
 0001:000d29f0       ?GetFile@PluginManager@@QAEHPAXPAUPluginPanelItem@@PB_WAAVUnicodeString@@H@Z 004d39f0 f   plugins.obj
 0001:000d2c90       ?SetHotKeyDialog@PluginManager@@QAE_NPB_W00@Z 004d3c90 f   plugins.obj
 0001:000d2f90       ?GetCustomData@PluginManager@@QAEXPAUFileListItem@@@Z 004d3f90 f   plugins.obj
 0001:000d3140       ?addItem@?$TPointerArray@UPluginHandle@@@@QAEPAUPluginHandle@@XZ 004d4140 f i plugins.obj
 0001:000d3150       ?addItem@?$TPointerArray@UPluginData@@@@QAEPAUPluginData@@XZ 004d4150 f i plugins.obj
 0001:000d3160       ?LoadPluginExternal@PluginManager@@QAE_NPB_W_N@Z 004d4160 f   plugins.obj
 0001:000d3260       ?OpenFilePlugin@PluginManager@@QAEPAXPB_WHW4OPENFILEPLUGINTYPE@@@Z 004d4260 f   plugins.obj
 0001:000d39b0       ?OpenFindListPlugin@PluginManager@@QAEPAXPBUPluginPanelItem@@H@Z 004d49b0 f   plugins.obj
 0001:000d3cf0       ?Configure@PluginManager@@QAEXH@Z 004d4cf0 f   plugins.obj
 0001:000d4520       ?CommandsMenu@PluginManager@@QAEHHHPB_W@Z 004d5520 f   plugins.obj
 0001:000d4fa0       ?ProcessCommandLine@PluginManager@@QAEHPB_WPAVPanel@@@Z 004d5fa0 f   plugins.obj
 0001:000d56b0       ?LoadPlugins@PluginManager@@QAEXXZ 004d66b0 f   plugins.obj
 0001:000d5b10       ?swprintf@@YAHPA_WPB_WZZ   004d6b10 f i PluginW.obj
 0001:000d5b60       ?IsPanelPlugin@PluginW@@UAE_NXZ 004d6b60 f   PluginW.obj
 0001:000d5be0       ?Analyse@PluginW@@UAEHPBUAnalyseData@@@Z 004d6be0 f   PluginW.obj
 0001:000d5cf0       ?OpenFilePlugin@PluginW@@UAEPAXPB_WPBEHH@Z 004d6cf0 f   PluginW.obj
 0001:000d5df0       ?SetFindList@PluginW@@UAEHPAXPBUPluginPanelItem@@H@Z 004d6df0 f   PluginW.obj
 0001:000d5ef0       ?ProcessEditorInput@PluginW@@UAEHPBU_INPUT_RECORD@@@Z 004d6ef0 f   PluginW.obj
 0001:000d5fd0       ?ProcessEditorEvent@PluginW@@UAEHHPAX@Z 004d6fd0 f   PluginW.obj
 0001:000d60d0       ?ProcessViewerEvent@PluginW@@UAEHHPAX@Z 004d70d0 f   PluginW.obj
 0001:000d61b0       ?ProcessDialogEvent@PluginW@@UAEHHPAX@Z 004d71b0 f   PluginW.obj
 0001:000d6290       ?ProcessSynchroEvent@PluginW@@UAEHHPAX@Z 004d7290 f   PluginW.obj
 0001:000d6370       ?GetVirtualFindData@PluginW@@UAEHPAXPAPAUPluginPanelItem@@PAHPB_W@Z 004d7370 f   PluginW.obj
 0001:000d6470       ?FreeVirtualFindData@PluginW@@UAEXPAXPAUPluginPanelItem@@H@Z 004d7470 f   PluginW.obj
 0001:000d6560       ?GetFiles@PluginW@@UAEHPAXPAUPluginPanelItem@@HHPAPB_WH@Z 004d7560 f   PluginW.obj
 0001:000d6680       ?DeleteFiles@PluginW@@UAEHPAXPAUPluginPanelItem@@HH@Z 004d7680 f   PluginW.obj
 0001:000d6790       ?MakeDirectory@PluginW@@UAEHPAXPAPB_WH@Z 004d7790 f   PluginW.obj
 0001:000d68a0       ?ProcessHostFile@PluginW@@UAEHPAXPAUPluginPanelItem@@HH@Z 004d78a0 f   PluginW.obj
 0001:000d69b0       ?ProcessEvent@PluginW@@UAEHPAXH0@Z 004d79b0 f   PluginW.obj
 0001:000d6ab0       ?Compare@PluginW@@UAEHPAXPBUPluginPanelItem@@1K@Z 004d7ab0 f   PluginW.obj
 0001:000d6bc0       ?GetFindData@PluginW@@UAEHPAXPAPAUPluginPanelItem@@PAHH@Z 004d7bc0 f   PluginW.obj
 0001:000d6cc0       ?FreeFindData@PluginW@@UAEXPAXPAUPluginPanelItem@@H@Z 004d7cc0 f   PluginW.obj
 0001:000d6db0       ?ProcessKey@PluginW@@UAEHPAXHI@Z 004d7db0 f   PluginW.obj
 0001:000d6eb0       ?ClosePlugin@PluginW@@UAEXPAX@Z 004d7eb0 f   PluginW.obj
 0001:000d6f90       ?SetDirectory@PluginW@@UAEHPAXPB_WH@Z 004d7f90 f   PluginW.obj
 0001:000d7090       ?GetOpenPluginInfo@PluginW@@UAEXPAXPAUOpenPluginInfo@@@Z 004d8090 f   PluginW.obj
 0001:000d7170       ?Configure@PluginW@@UAEHH@Z 004d8170 f   PluginW.obj
 0001:000d7240       ?GetPluginInfo@PluginW@@UAE_NPAUPluginInfo@@@Z 004d8240 f   PluginW.obj
 0001:000d7320       ?GetCustomData@PluginW@@UAEHPB_WPAPA_W@Z 004d8320 f   PluginW.obj
 0001:000d7440       ?FreeCustomData@PluginW@@UAEXPA_W@Z 004d8440 f   PluginW.obj
 0001:000d7530       ?ExitFAR@PluginW@@UAEXXZ   004d8530 f   PluginW.obj
 0001:000d7600       ?ClearExports@PluginW@@AAEXXZ 004d8600 f   PluginW.obj
 0001:000d77f0       ?CheckMinFarVersion@PluginW@@UAE_NAA_N@Z 004d87f0 f   PluginW.obj
 0001:000d7920       ?Unload@PluginW@@UAEH_N@Z  004d8920 f   PluginW.obj
 0001:000d7970       ?OpenPlugin@PluginW@@UAEPAXHH@Z 004d8970 f   PluginW.obj
 0001:000d7c30       ?KeyNameToKeyW@@YGHPB_W@Z  004d8c30 f   PluginW.obj
 0001:000d7cb0       ??0PluginW@@QAE@PAVPluginManager@@PB_W@Z 004d8cb0 f   PluginW.obj
 0001:000d7da0       ?IsOemPlugin@PluginW@@UAE_NXZ 004d8da0 f i PluginW.obj
 0001:000d7db0       ?HasOpenPlugin@PluginW@@UAE_NXZ 004d8db0 f i PluginW.obj
 0001:000d7dc0       ?HasMakeDirectory@PluginW@@UAE_NXZ 004d8dc0 f i PluginW.obj
 0001:000d7dd0       ?HasDeleteFiles@PluginW@@UAE_NXZ 004d8dd0 f i PluginW.obj
 0001:000d7de0       ?HasPutFiles@PluginW@@UAE_NXZ 004d8de0 f i PluginW.obj
 0001:000d7df0       ?HasGetFiles@PluginW@@UAE_NXZ 004d8df0 f i PluginW.obj
 0001:000d7e00       ?HasSetStartupInfo@PluginW@@UAE_NXZ 004d8e00 f i PluginW.obj
 0001:000d7e10       ?HasOpenFilePlugin@PluginW@@UAE_NXZ 004d8e10 f i PluginW.obj
 0001:000d7e20       ?HasClosePlugin@PluginW@@UAE_NXZ 004d8e20 f i PluginW.obj
 0001:000d7e30       ?HasGetPluginInfo@PluginW@@UAE_NXZ 004d8e30 f i PluginW.obj
 0001:000d7e40       ?HasGetOpenPluginInfo@PluginW@@UAE_NXZ 004d8e40 f i PluginW.obj
 0001:000d7e50       ?HasGetFindData@PluginW@@UAE_NXZ 004d8e50 f i PluginW.obj
 0001:000d7e60       ?HasFreeFindData@PluginW@@UAE_NXZ 004d8e60 f i PluginW.obj
 0001:000d7e70       ?HasGetVirtualFindData@PluginW@@UAE_NXZ 004d8e70 f i PluginW.obj
 0001:000d7e80       ?HasFreeVirtualFindData@PluginW@@UAE_NXZ 004d8e80 f i PluginW.obj
 0001:000d7e90       ?HasSetDirectory@PluginW@@UAE_NXZ 004d8e90 f i PluginW.obj
 0001:000d7ea0       ?HasProcessHostFile@PluginW@@UAE_NXZ 004d8ea0 f i PluginW.obj
 0001:000d7eb0       ?HasSetFindList@PluginW@@UAE_NXZ 004d8eb0 f i PluginW.obj
 0001:000d7ec0       ?HasConfigure@PluginW@@UAE_NXZ 004d8ec0 f i PluginW.obj
 0001:000d7ed0       ?HasExitFAR@PluginW@@UAE_NXZ 004d8ed0 f i PluginW.obj
 0001:000d7ee0       ?HasProcessKey@PluginW@@UAE_NXZ 004d8ee0 f i PluginW.obj
 0001:000d7ef0       ?HasProcessEvent@PluginW@@UAE_NXZ 004d8ef0 f i PluginW.obj
 0001:000d7f00       ?HasProcessEditorEvent@PluginW@@UAE_NXZ 004d8f00 f i PluginW.obj
 0001:000d7f10       ?HasCompare@PluginW@@UAE_NXZ 004d8f10 f i PluginW.obj
 0001:000d7f20       ?HasProcessEditorInput@PluginW@@UAE_NXZ 004d8f20 f i PluginW.obj
 0001:000d7f30       ?HasMinFarVersion@PluginW@@UAE_NXZ 004d8f30 f i PluginW.obj
 0001:000d7f40       ?HasProcessViewerEvent@PluginW@@UAE_NXZ 004d8f40 f i PluginW.obj
 0001:000d7f50       ?HasProcessDialogEvent@PluginW@@UAE_NXZ 004d8f50 f i PluginW.obj
 0001:000d7f60       ?HasProcessSynchroEvent@PluginW@@UAE_NXZ 004d8f60 f i PluginW.obj
 0001:000d7f70       ?HasAnalyse@PluginW@@UAE_NXZ 004d8f70 f i PluginW.obj
 0001:000d7f80       ?HasGetCustomData@PluginW@@UAE_NXZ 004d8f80 f i PluginW.obj
 0001:000d7f90       ?HasFreeCustomData@PluginW@@UAE_NXZ 004d8f90 f i PluginW.obj
 0001:000d7fa0       ?GetModuleName@PluginW@@UAEABVUnicodeString@@XZ 004d8fa0 f i PluginW.obj
 0001:000d7fb0       ?GetSysID@PluginW@@UAEKXZ  004d8fb0 f i PluginW.obj
 0001:000d7fc0       ?CheckWorkFlags@PluginW@@UAE_NK@Z 004d8fc0 f i PluginW.obj
 0001:000d7fd0       ?GetWorkFlags@PluginW@@UAEKXZ 004d8fd0 f i PluginW.obj
 0001:000d7fe0       ?GetFuncFlags@PluginW@@UAEKXZ 004d8fe0 f i PluginW.obj
 0001:000d7ff0       ?InitLang@PluginW@@UAE_NPB_W@Z 004d8ff0 f i PluginW.obj
 0001:000d8010       ?CloseLang@PluginW@@UAEXXZ 004d9010 f i PluginW.obj
 0001:000d8020       ?GetCacheName@PluginW@@UAEPB_WXZ 004d9020 f i PluginW.obj
 0001:000d8030       ??1PluginW@@UAE@XZ         004d9030 f   PluginW.obj
 0001:000d80b0       ?LoadFromCache@PluginW@@UAE_NABUFAR_FIND_DATA_EX@@@Z 004d90b0 f   PluginW.obj
 0001:000d8410       ?Load@PluginW@@UAE_NXZ     004d9410 f   PluginW.obj
 0001:000d8810       ?CreatePluginStartupInfo@@YAXPAVPlugin@@PAUPluginStartupInfo@@PAUFarStandardFunctions@@@Z 004d9810 f   PluginW.obj
 0001:000d8b80       ?SetStartupInfo@PluginW@@UAE_NAA_N@Z 004d9b80 f   PluginW.obj
 0001:000d8cd0       ?PutFiles@PluginW@@UAEHPAXPAUPluginPanelItem@@HHH@Z 004d9cd0 f   PluginW.obj
 0001:000d8e30       ??_GPluginW@@UAEPAXI@Z     004d9e30 f i PluginW.obj
 0001:000d8e30       ??_EPluginW@@UAEPAXI@Z     004d9e30 f i PluginW.obj
 0001:000d8e50       ?SaveToCache@PluginW@@UAE_NXZ 004d9e50 f   PluginW.obj
 0001:000d9360       ??0FilePositionCache@@QAE@XZ 004da360 f   poscache.obj
 0001:000d9490       ?FindPosition@FilePositionCache@@AAEHPB_W@Z 004da490 f   poscache.obj
 0001:000d9520       ??_EUnicodeString@@QAEPAXI@Z 004da520 f i poscache.obj
 0001:000d95b0       ??1FilePositionCache@@QAE@XZ 004da5b0 f   poscache.obj
 0001:000d95f0       ?AddPosition@FilePositionCache@@QAEXPB_WAAUPosCache@@@Z 004da5f0 f   poscache.obj
 0001:000d9720       ?GetPosition@FilePositionCache@@QAE_NPB_WAAUPosCache@@@Z 004da720 f   poscache.obj
 0001:000d9830       ?Save@FilePositionCache@@QAE_NPB_W@Z 004da830 f   poscache.obj
 0001:000d9b70       ?Read@FilePositionCache@@QAE_NPB_W@Z 004dab70 f   poscache.obj
 0001:000da030       ?PrintFiles@@YAXPAVPanel@@@Z 004db030 f   print.obj
 0001:000da790       ??0Privilege@@QAE@PB_W@Z   004db790 f   privilege.obj
 0001:000da840       ??1Privilege@@QAE@XZ       004db840 f   privilege.obj
 0001:000da880       ?CheckPrivilege@@YA_NPB_W@Z 004db880 f   privilege.obj
 0001:000dacb0       ?CmpName@@YAHPB_W0_N1@Z    004dbcb0 f   processname.obj
 0001:000dacf0       ?ConvertWildcards@@YAHPB_WAAVUnicodeString@@H@Z 004dbcf0 f   processname.obj
 0001:000db100       ?ProcessName@@YGHPB_WPA_WKK@Z 004dc100 f   processname.obj
 0001:000db290       ?GetHexMode@Viewer@@QBEHXZ 004dc290 f i qview.obj
 0001:000db2a0       ?VMProcess@QuickView@@UAE_JHPAX_J@Z 004dc2a0 f   qview.obj
 0001:000db300       ?ProcessMouse@QuickView@@UAEHPAU_MOUSE_EVENT_RECORD@@@Z 004dc300 f   qview.obj
 0001:000db370       ?CloseFile@QuickView@@UAEXXZ 004dc370 f   qview.obj
 0001:000db400       ?SetMacroMode@QuickView@@AAEXH@Z 004dc400 f   qview.obj
 0001:000db440       ?GetTitle@QuickView@@UAEAAVUnicodeString@@AAV2@HH@Z 004dc440 f   qview.obj
 0001:000db500       ?Update@QuickView@@UAEXH@Z 004dc500 f   qview.obj
 0001:000db550       ?QViewDelTempName@QuickView@@UAEXXZ 004dc550 f   qview.obj
 0001:000db620       ?PrintText@QuickView@@AAEXPB_W@Z 004dc620 f   qview.obj
 0001:000db680       ?SetFocus@QuickView@@UAEXXZ 004dc680 f   qview.obj
 0001:000db6c0       ?KillFocus@QuickView@@UAEXXZ 004dc6c0 f   qview.obj
 0001:000db700       ?GetCurName@QuickView@@UAEHAAVUnicodeString@@0@Z 004dc700 f   qview.obj
 0001:000db740       ?DynamicUpdateKeyBar@QuickView@@AAEXXZ 004dc740 f   qview.obj
 0001:000db8e0       ??0QuickView@@QAE@XZ       004dc8e0 f   qview.obj
 0001:000db970       ??1QuickView@@UAE@XZ       004dc970 f   qview.obj
 0001:000dba20       ?ProcessKey@QuickView@@UAEHH@Z 004dca20 f   qview.obj
 0001:000dbc20       ?ShowFile@QuickView@@QAEXPB_WHPAX@Z 004dcc20 f   qview.obj
 0001:000dbf90       ?UpdateIfChanged@QuickView@@UAEHH@Z 004dcf90 f   qview.obj
 0001:000dc050       ?SetTitle@QuickView@@UAEXXZ 004dd050 f   qview.obj
 0001:000dc1d0       ?UpdateKeyBar@QuickView@@UAEHXZ 004dd1d0 f   qview.obj
 0001:000dc270       ??_EQuickView@@UAEPAXI@Z   004dd270 f i qview.obj
 0001:000dc270       ??_GQuickView@@UAEPAXI@Z   004dd270 f i qview.obj
 0001:000dc290       ?DisplayObject@QuickView@@EAEXXZ 004dd290 f   qview.obj
 0001:000dcc20       ??0RedrawDesktop@@QAE@H@Z  004ddc20 f   rdrwdsk.obj
 0001:000dcd60       ??1RedrawDesktop@@QAE@XZ   004ddd60 f   rdrwdsk.obj
 0001:000dce40       ??0UndoGlobalSaveScrPtr@@QAE@PAVSaveScreen@@@Z 004dde40 f   RefreshFrameManager.obj
 0001:000dce50       ??1UndoGlobalSaveScrPtr@@QAE@XZ 004dde50 f   RefreshFrameManager.obj
 0001:000dce60       ??0RefreshFrameManager@@QAE@HHHH@Z 004dde60 f   RefreshFrameManager.obj
 0001:000dce80       ??1RefreshFrameManager@@QAE@XZ 004dde80 f   RefreshFrameManager.obj
 0001:000dcef0       ?SetError@RegExp@@AAEHHH@Z 004ddef0 f i RegExp.obj
 0001:000dcf10       ?isType@@YAH_WH@Z          004ddf10 f   RegExp.obj
 0001:000dcfd0       ?ushlen@@YAHPB_W@Z         004ddfd0 f   RegExp.obj
 0001:000dcff0       ??0UniSet@@QAE@XZ          004ddff0 f i RegExp.obj
 0001:000dd020       ?Reset@UniSet@@QAEXXZ      004de020 f i RegExp.obj
 0001:000dd060       ??0Setter@UniSet@@QAE@AAU1@_W@Z 004de060 f i RegExp.obj
 0001:000dd080       ??AUniSet@@QAE?AUSetter@0@_W@Z 004de080 f i RegExp.obj
 0001:000dd0a0       ??1UniSet@@QAE@XZ          004de0a0 f i RegExp.obj
 0001:000dd0d0       ?CheckType@UniSet@@QBE_NH_W@Z 004de0d0 f i RegExp.obj
 0001:000dd1c0       ?GetBit@UniSet@@QBE_N_W@Z  004de1c0 f i RegExp.obj
 0001:000dd280       ?SetBit@UniSet@@QAEX_W@Z   004de280 f i RegExp.obj
 0001:000dd2e0       ?ClearBit@UniSet@@QAEX_W@Z 004de2e0 f i RegExp.obj
 0001:000dd340       ??0REOpCode@@QAE@XZ        004de340 f i RegExp.obj
 0001:000dd360       ??_GUniSet@@QAEPAXI@Z      004de360 f i RegExp.obj
 0001:000dd3a0       ??0RegExp@@QAE@XZ          004de3a0 f   RegExp.obj
 0001:000dd470       ?CalcLength@RegExp@@AAEHPB_WH@Z 004de470 f   RegExp.obj
 0001:000dd730       ?GetNum@RegExp@@AAEHPB_WAAH@Z 004de730 f   RegExp.obj
 0001:000dd8b0       ?InnerCompile@RegExp@@AAEHPB_WHH@Z 004de8b0 f   RegExp.obj
 0001:000deab0       ?PushState@RegExp@@AAEXXZ  004dfab0 f i RegExp.obj
 0001:000deb60       ?PopState@RegExp@@AAEHXZ   004dfb60 f i RegExp.obj
 0001:000debb0       ?GetState@RegExp@@AAEPAUStateStackItem@@XZ 004dfbb0 f i RegExp.obj
 0001:000debe0       ?FindStateByPos@RegExp@@AAEPAUStateStackItem@@PAUREOpCode@@H@Z 004dfbe0 f i RegExp.obj
 0001:000dec40       ?StrCmp@RegExp@@AAEHAAPB_WPB_W1@Z 004dfc40 f i RegExp.obj
 0001:000dece0       ?InnerMatch@RegExp@@AAEHPB_W0PAURegExpMatch@@AAH@Z 004dfce0 f   RegExp.obj
 0001:000e2950       ?TrimTail@RegExp@@AAEXAAPB_W@Z 004e3950 f   RegExp.obj
 0001:000e2d70       ?CleanStack@RegExp@@QAEXXZ 004e3d70 f   RegExp.obj
 0001:000e2da0       ??4Setter@UniSet@@QAEXH@Z  004e3da0 f i RegExp.obj
 0001:000e2dd0       ??7Setter@UniSet@@QBE_NXZ  004e3dd0 f i RegExp.obj
 0001:000e2df0       ??1REOpCode@@QAE@XZ        004e3df0 f   RegExp.obj
 0001:000e2e70       ??_EREOpCode@@QAEPAXI@Z    004e3e70 f i RegExp.obj
 0001:000e2ee0       ?Match@RegExp@@QAEHPB_W0PAURegExpMatch@@AAH@Z 004e3ee0 f   RegExp.obj
 0001:000e2fc0       ?MatchEx@RegExp@@QAEHPB_W00PAURegExpMatch@@AAH@Z 004e3fc0 f   RegExp.obj
 0001:000e30c0       ?Match@RegExp@@QAEHPB_WPAURegExpMatch@@AAH@Z 004e40c0 f   RegExp.obj
 0001:000e3100       ?Optimize@RegExp@@QAEHXZ   004e4100 f   RegExp.obj
 0001:000e3560       ?Search@RegExp@@QAEHPB_W0PAURegExpMatch@@AAH@Z 004e4560 f   RegExp.obj
 0001:000e3720       ?SearchEx@RegExp@@QAEHPB_W00PAURegExpMatch@@AAH@Z 004e4720 f   RegExp.obj
 0001:000e38f0       ??1RegExp@@UAE@XZ          004e48f0 f   RegExp.obj
 0001:000e3990       ?Compile@RegExp@@QAEHPB_WH@Z 004e4990 f   RegExp.obj
 0001:000e3c90       ?Search@RegExp@@QAEHPB_WPAURegExpMatch@@AAH@Z 004e4c90 f   RegExp.obj
 0001:000e3cd0       ??_GRegExp@@UAEPAXI@Z      004e4cd0 f i RegExp.obj
 0001:000e3cd0       ??_ERegExp@@UAEPAXI@Z      004e4cd0 f i RegExp.obj
 0001:000e3cf0       ?Init@RegExp@@AAEXPB_WH@Z  004e4cf0 f   RegExp.obj
 0001:000e3da0       ??0RegExp@@QAE@PB_WH@Z     004e4da0 f   RegExp.obj
 0001:000e3dd0       ?SetRegRootKey@@YAXPAUHKEY__@@@Z 004e4dd0 f   registry.obj
 0001:000e3de0       ?CloseSameRegKey@@YAXXZ    004e4de0 f   registry.obj
 0001:000e3e10       ?GetRegKeySize@@YAHPAUHKEY__@@PB_W@Z 004e4e10 f   registry.obj
 0001:000e3e60       ??0KeyRecordItem@@QAE@XZ   004e4e60 f i registry.obj
 0001:000e3e70       ??8KeyRecordItem@@QBE_NABV0@@Z 004e4e70 f i registry.obj
 0001:000e3e90       ??MKeyRecordItem@@QBEHABV0@@Z 004e4e90 f i registry.obj
 0001:000e3eb0       ??4KeyRecordItem@@QAEABV0@ABV0@@Z 004e4eb0 f i registry.obj
 0001:000e3ec0       ??1KeyRecordItem@@QAE@XZ   004e4ec0 f i registry.obj
 0001:000e3ef0       ?getItem@?$TArray@VKeyRecordItem@@@@QAEPAVKeyRecordItem@@I@Z 004e4ef0 f i registry.obj
 0001:000e3f10       ??_GKeyRecordItem@@QAEPAXI@Z 004e4f10 f i registry.obj
 0001:000e3f30       ?CmpItems@?$TArray@VKeyRecordItem@@@@CAHPAPBVKeyRecordItem@@0@Z 004e4f30 f i registry.obj
 0001:000e3f60       ?deleteItem@?$TArray@VKeyRecordItem@@@@AAE_NI@Z 004e4f60 f i registry.obj
 0001:000e3fa0       ?setDelta@?$TArray@VKeyRecordItem@@@@QAEXI@Z 004e4fa0 f i registry.obj
 0001:000e3fc0       ?setSize@?$TArray@VKeyRecordItem@@@@QAE_NI@Z 004e4fc0 f i registry.obj
 0001:000e40c0       ?UseSameRegKey@@YAXXZ      004e50c0 f   registry.obj
 0001:000e4190       ?RegQueryStringValueEx@@YAHPAUHKEY__@@PB_WAAVUnicodeString@@1@Z 004e5190 f   registry.obj
 0001:000e4240       ?RegQueryStringValue@@YAHPAUHKEY__@@PB_WAAVUnicodeString@@1@Z 004e5240 f   registry.obj
 0001:000e4320       ??0?$TArray@VKeyRecordItem@@@@QAE@I@Z 004e5320 f i registry.obj
 0001:000e4340       ?Free@?$TArray@VKeyRecordItem@@@@QAEXXZ 004e5340 f i registry.obj
 0001:000e4390       ?setItem@?$TArray@VKeyRecordItem@@@@QAEPAVKeyRecordItem@@IABV2@@Z 004e5390 f i registry.obj
 0001:000e4420       ?Sort@?$TArray@VKeyRecordItem@@@@QAEXP6AHPBX0@ZI@Z 004e5420 f i registry.obj
 0001:000e4450       ?DeleteRegKey@@YAXPB_W@Z   004e5450 f   registry.obj
 0001:000e44b0       ?DeleteRegValue@@YAXPB_W0@Z 004e54b0 f   registry.obj
 0001:000e4740       ?DeleteEmptyKey@@YAHPAUHKEY__@@PB_W@Z 004e5740 f   registry.obj
 0001:000e48a0       ?CheckRegKey@@YAHPB_W@Z    004e58a0 f   registry.obj
 0001:000e4930       ??1?$TArray@VKeyRecordItem@@@@QAE@XZ 004e5930 f i registry.obj
 0001:000e4940       ?addItem@?$TArray@VKeyRecordItem@@@@QAEPAVKeyRecordItem@@ABV2@@Z 004e5940 f i registry.obj
 0001:000e4960       ?CreateRegKey@@YAPAUHKEY__@@PB_W@Z 004e5960 f   registry.obj
 0001:000e4a00       ?OpenRegKey@@YAPAUHKEY__@@PB_W@Z 004e5a00 f   registry.obj
 0001:000e4ab0       ?DeleteFullKeyTree@@YAXPB_W@Z 004e5ab0 f   registry.obj
 0001:000e4ae0       ?CheckRegValue@@YAHPB_W0PAK1@Z 004e5ae0 f   registry.obj
 0001:000e4b70       ?EnumRegKey@@YAHPB_WKAAVUnicodeString@@@Z 004e5b70 f   registry.obj
 0001:000e4c40       ?EnumRegValueEx@@YAHPB_WKAAVUnicodeString@@1PAKPA_J2@Z 004e5c40 f   registry.obj
 0001:000e4e30       ?SetRegKey@@YAJPB_W0QB_WHK@Z 004e5e30 f   registry.obj
 0001:000e4e80       ?SetRegKey@@YAJPB_W0QB_W@Z 004e5e80 f   registry.obj
 0001:000e4ee0       ?SetRegKey@@YAJPB_W0K@Z    004e5ee0 f   registry.obj
 0001:000e4f30       ?SetRegKey64@@YAJPB_W0_K@Z 004e5f30 f   registry.obj
 0001:000e4f80       ?SetRegKey@@YAJPB_W0PBEK@Z 004e5f80 f   registry.obj
 0001:000e4fd0       ?GetRegKeySize@@YAHPB_W0@Z 004e5fd0 f   registry.obj
 0001:000e5040       ?GetRegKey@@YAHPB_W0AAVUnicodeString@@0PAK@Z 004e6040 f   registry.obj
 0001:000e5150       ?GetRegKey@@YAHPB_W0AAHK@Z 004e6150 f   registry.obj
 0001:000e51c0       ?GetRegKey@@YAHPB_W0K@Z    004e61c0 f   registry.obj
 0001:000e51f0       ?GetRegKey64@@YAHPB_W0AA_J_K@Z 004e61f0 f   registry.obj
 0001:000e5270       ?GetRegKey64@@YA_JPB_W0_K@Z 004e6270 f   registry.obj
 0001:000e52a0       ?GetRegKey@@YAHPB_W0PAEPBEKPAK@Z 004e62a0 f   registry.obj
 0001:000e53a0       ?CopyKeyTree@@YAHPB_W00@Z  004e63a0 f   registry.obj
 0001:000e58c0       ?CopyLocalKeyTree@@YAHPB_W0@Z 004e68c0 f   registry.obj
 0001:000e5960       ?DeleteKeyTree@@YAXPB_W@Z  004e6960 f   registry.obj
 0001:000e59c0       ?EnumRegValue@@YAHPB_WKAAVUnicodeString@@PAEKPAKPA_J@Z 004e69c0 f   registry.obj
 0001:000e5a50       ?DeleteKeyRecord@@YAXPB_WH@Z 004e6a50 f   registry.obj
 0001:000e5b80       ?InsertKeyRecord@@YAXPB_WHH@Z 004e6b80 f   registry.obj
 0001:000e5cc0       ?RenumKeyRecord@@YAXPB_W00@Z 004e6cc0 f   registry.obj
 0001:000e5f50       ??0SaveFilePos@@QAE@PAU_iobuf@@@Z 004e6f50 f   savefpos.obj
 0001:000e5f80       ??1SaveFilePos@@QAE@XZ     004e6f80 f   savefpos.obj
 0001:000e5fa0       ?Discard@SaveScreen@@QAEXXZ 004e6fa0 f   savescr.obj
 0001:000e5fc0       ?RestoreArea@SaveScreen@@QAEXH@Z 004e6fc0 f   savescr.obj
 0001:000e6010       ?CorrectRealScreenCoord@SaveScreen@@QAEXXZ 004e7010 f   savescr.obj
 0001:000e6050       ?AppendArea@SaveScreen@@QAEXPAV1@@Z 004e7050 f   savescr.obj
 0001:000e6100       ?ScreenBufCharCount@SaveScreen@@AAEHXZ 004e7100 f   savescr.obj
 0001:000e6120       ?CharCopy@SaveScreen@@AAEXPAU_CHAR_INFO@@0H@Z 004e7120 f   savescr.obj
 0001:000e6150       ?CleanupBuffer@SaveScreen@@AAEXPAU_CHAR_INFO@@I@Z 004e7150 f   savescr.obj
 0001:000e61a0       ?DumpBuffer@SaveScreen@@QAEXPB_W@Z 004e71a0 f   savescr.obj
 0001:000e61d0       ??1SaveScreen@@QAE@XZ      004e71d0 f   savescr.obj
 0001:000e6220       ?SaveArea@SaveScreen@@QAEXHHHH@Z 004e7220 f   savescr.obj
 0001:000e62c0       ?SaveArea@SaveScreen@@QAEXXZ 004e72c0 f   savescr.obj
 0001:000e6320       ?Resize@SaveScreen@@QAEXHHK_N@Z 004e7320 f   savescr.obj
 0001:000e68a0       ??0SaveScreen@@QAE@XZ      004e78a0 f   savescr.obj
 0001:000e68d0       ??0SaveScreen@@QAE@HHHH@Z  004e78d0 f   savescr.obj
 0001:000e6990       ?setDelta@?$TPointerArray@UScanTreeData@@@@QAEXI@Z 004e7990 f i scantree.obj
 0001:000e69b0       ?getItem@?$TPointerArray@UScanTreeData@@@@QAEPAUScanTreeData@@I@Z 004e79b0 f i scantree.obj
 0001:000e69d0       ?lastItem@?$TPointerArray@UScanTreeData@@@@QAEPAUScanTreeData@@XZ 004e79d0 f i scantree.obj
 0001:000e69f0       ?getCount@?$TPointerArray@UScanTreeData@@@@QBEIXZ 004e79f0 f i scantree.obj
 0001:000e6a00       ?setSize@?$TPointerArray@UScanTreeData@@@@AAE_NI@Z 004e7a00 f i scantree.obj
 0001:000e6ab0       ??0?$TPointerArray@UScanTreeData@@@@QAE@I@Z 004e7ab0 f i scantree.obj
 0001:000e6ad0       ??0ScanTreeData@@QAE@XZ    004e7ad0 f i scantree.obj
 0001:000e6af0       ?insertItem@?$TPointerArray@UScanTreeData@@@@QAEPAUScanTreeData@@I@Z 004e7af0 f i scantree.obj
 0001:000e6b80       ?addItem@?$TPointerArray@UScanTreeData@@@@QAEPAUScanTreeData@@XZ 004e7b80 f i scantree.obj
 0001:000e6b90       ?deleteItem@?$TPointerArray@UScanTreeData@@@@QAE_NI@Z 004e7b90 f i scantree.obj
 0001:000e6c20       ?SetFindPath@ScanTree@@QAEXPB_W0K@Z 004e7c20 f   scantree.obj
 0001:000e6d10       ?GetNextName@ScanTree@@QAE_NPAUFAR_FIND_DATA_EX@@AAVUnicodeString@@@Z 004e7d10 f   scantree.obj
 0001:000e7100       ?SkipDir@ScanTree@@QAEXXZ  004e8100 f   scantree.obj
 0001:000e7170       ??0ScanTree@@QAE@HHH@Z     004e8170 f   scantree.obj
 0001:000e71f0       ?SetVidChar@@YAXAAU_CHAR_INFO@@_W@Z 004e81f0 f i scrbuf.obj
 0001:000e7220       ?Elevated@elevation@@QAE_NXZ 004e8220 f i scrbuf.obj
 0001:000e7230       ??0ScreenBuf@@QAE@XZ       004e8230 f   scrbuf.obj
 0001:000e7270       ??1ScreenBuf@@QAE@XZ       004e8270 f   scrbuf.obj
 0001:000e72a0       ??0?$DList@U_SMALL_RECT@@@@QAE@XZ 004e82a0 f i scrbuf.obj
 0001:000e72c0       ?Lock@ScreenBuf@@QAEXXZ    004e82c0 f   scrbuf.obj
 0001:000e72d0       ?Unlock@ScreenBuf@@QAEXXZ  004e82d0 f   scrbuf.obj
 0001:000e72e0       ?ResetShadow@ScreenBuf@@QAEXXZ 004e82e0 f   scrbuf.obj
 0001:000e72f0       ?GetCursorPos@ScreenBuf@@QAEXAAF0@Z 004e82f0 f   scrbuf.obj
 0001:000e7310       ?SetCursorType@ScreenBuf@@QAEX_NK@Z 004e8310 f   scrbuf.obj
 0001:000e7330       ?GetCursorType@ScreenBuf@@QAEXAA_NAAK@Z 004e8330 f   scrbuf.obj
 0001:000e7350       ?DeleteNode@?$DList@U_SMALL_RECT@@@@EAEXPAUNode@CDList@@@Z 004e8350 f i scrbuf.obj
 0001:000e7360       ??1?$DList@U_SMALL_RECT@@@@UAE@XZ 004e8360 f i scrbuf.obj
 0001:000e7370       ?Push@?$DList@U_SMALL_RECT@@@@QAEPAU_SMALL_RECT@@PBU2@@Z 004e8370 f i scrbuf.obj
 0001:000e7380       ?Node2Type@?$DList@U_SMALL_RECT@@@@AAEPAU_SMALL_RECT@@PAUNode@CDList@@@Z 004e8380 f i scrbuf.obj
 0001:000e73a0       ?Type2Node@?$DList@U_SMALL_RECT@@@@AAEPAUNode@CDList@@PBU_SMALL_RECT@@@Z 004e83a0 f i scrbuf.obj
 0001:000e73c0       ??0TNode@?$DList@U_SMALL_RECT@@@@QAE@PAU_SMALL_RECT@@@Z 004e83c0 f i scrbuf.obj
 0001:000e73e0       ?AllocBuf@ScreenBuf@@QAEXHH@Z 004e83e0 f   scrbuf.obj
 0001:000e74d0       ?FillBuf@ScreenBuf@@QAEXXZ 004e84d0 f   scrbuf.obj
 0001:000e7590       ?Write@ScreenBuf@@QAEXHHPBU_CHAR_INFO@@H@Z 004e8590 f   scrbuf.obj
 0001:000e7690       ?Read@ScreenBuf@@QAEXHHHHPAU_CHAR_INFO@@H@Z 004e8690 f   scrbuf.obj
 0001:000e7730       ?ApplyColorMask@ScreenBuf@@QAEXHHHHG@Z 004e8730 f   scrbuf.obj
 0001:000e77d0       ?ApplyColor@ScreenBuf@@QAEXHHHHG@Z 004e87d0 f   scrbuf.obj
 0001:000e78e0       ?ApplyColor@ScreenBuf@@QAEXHHHHHG@Z 004e88e0 f   scrbuf.obj
 0001:000e7a00       ?FillRect@ScreenBuf@@QAEXHHHH_WG@Z 004e8a00 f   scrbuf.obj
 0001:000e7aa0       ??_E?$DList@U_SMALL_RECT@@@@UAEPAXI@Z 004e8aa0 f i scrbuf.obj
 0001:000e7aa0       ??_G?$DList@U_SMALL_RECT@@@@UAEPAXI@Z 004e8aa0 f i scrbuf.obj
 0001:000e7ad0       ?MoveCursor@ScreenBuf@@QAEXHH@Z 004e8ad0 f   scrbuf.obj
 0001:000e7b40       ?RestoreMacroChar@ScreenBuf@@QAEXXZ 004e8b40 f   scrbuf.obj
 0001:000e7b60       ?RestoreElevationChar@ScreenBuf@@QAEXXZ 004e8b60 f   scrbuf.obj
 0001:000e7b90       ?Scroll@ScreenBuf@@QAEXH@Z 004e8b90 f   scrbuf.obj
 0001:000e7be0       ?AllocNode@?$DList@U_SMALL_RECT@@@@EAEPAUNode@CDList@@PAX@Z 004e8be0 f i scrbuf.obj
 0001:000e7c10       ?First@?$DList@U_SMALL_RECT@@@@QAEPAU_SMALL_RECT@@XZ 004e8c10 f i scrbuf.obj
 0001:000e7c20       ?Last@?$DList@U_SMALL_RECT@@@@QAEPAU_SMALL_RECT@@XZ 004e8c20 f i scrbuf.obj
 0001:000e7c40       ?Next@?$DList@U_SMALL_RECT@@@@QAEPAU_SMALL_RECT@@PBU2@@Z 004e8c40 f i scrbuf.obj
 0001:000e7c70       ?Flush@ScreenBuf@@QAEXXZ   004e8c70 f   scrbuf.obj
 0001:000e8270       ??0ScreenObject@@QAE@XZ    004e9270 f   scrobj.obj
 0001:000e82a0       ?Lock@ScreenObject@@QAEXXZ 004e92a0 f   scrobj.obj
 0001:000e82b0       ?Unlock@ScreenObject@@QAEXXZ 004e92b0 f   scrobj.obj
 0001:000e82d0       ?Locked@ScreenObject@@QAE_NXZ 004e92d0 f   scrobj.obj
 0001:000e82f0       ?SetOwner@ScreenObject@@QAEXPAV1@@Z 004e92f0 f   scrobj.obj
 0001:000e8300       ?GetOwner@ScreenObject@@QAEPAV1@XZ 004e9300 f   scrobj.obj
 0001:000e8310       ?SetPosition@ScreenObject@@UAEXHHHH@Z 004e9310 f   scrobj.obj
 0001:000e8370       ?SetScreenPosition@ScreenObject@@UAEXXZ 004e9370 f   scrobj.obj
 0001:000e8380       ?GetPosition@ScreenObject@@UAEXAAH000@Z 004e9380 f   scrobj.obj
 0001:000e83b0       ?Hide@ScreenObject@@UAEXXZ 004e93b0 f   scrobj.obj
 0001:000e8400       ?Hide0@ScreenObject@@UAEXXZ 004e9400 f   scrobj.obj
 0001:000e8410       ?SavePrevScreen@ScreenObject@@QAEXXZ 004e9410 f   scrobj.obj
 0001:000e8460       ?Redraw@ScreenObject@@QAEXXZ 004e9460 f   scrobj.obj
 0001:000e8470       ?Shadow@ScreenObject@@QAEX_N@Z 004e9470 f   scrobj.obj
 0001:000e8550       ?SetCapture@ScreenObject@@SAXPAV1@@Z 004e9550 f   scrobj.obj
 0001:000e8560       ??1ScreenObject@@UAE@XZ    004e9560 f   scrobj.obj
 0001:000e85c0       ?Show@ScreenObject@@UAEXXZ 004e95c0 f   scrobj.obj
 0001:000e8600       ??_EScreenObject@@UAEPAXI@Z 004e9600 f i scrobj.obj
 0001:000e8600       ??_GScreenObject@@UAEPAXI@Z 004e9600 f i scrobj.obj
 0001:000e8a10       ?ScreenSaver@@YAHH@Z       004e9a10 f   scrsaver.obj
 0001:000e8be0       ??1SetAttrDlgParam@@QAE@XZ 004e9be0 f i setattr.obj
 0001:000e8c20       ?ShellSetFileAttributesMsg@@YAXPB_W@Z 004e9c20 f   setattr.obj
 0001:000e8db0       ?ReadFileTime@@YA_NHPB_WAAU_FILETIME@@00@Z 004e9db0 f   setattr.obj
 0001:000e90b0       ?PR_ShellSetFileAttributesMsg@@YAXXZ 004ea0b0 f   setattr.obj
 0001:000e90d0       ?SetAttrDlgProc@@YGJPAXHHJ@Z 004ea0d0 f   setattr.obj
 0001:000e99e0       ?ShellSetFileAttributes@@YA_NPAVPanel@@PB_W@Z 004ea9e0 f   setattr.obj
 0001:000ed270       ?GetColorDialog@@YAHAAG_N1@Z 004ee270 f   setcolor.obj
 0001:000ee460       ?GetColor@@YAXH@Z          004ef460 f   setcolor.obj
 0001:000ee720       ?SetColors@@YAXXZ          004ef720 f   setcolor.obj
 0001:000ef880       ??0?$DList@UShortcutItem@@@@QAE@XZ 004f0880 f i shortcuts.obj
 0001:000ef8a0       ??1?$DList@UShortcutItem@@@@UAE@XZ 004f08a0 f i shortcuts.obj
 0001:000ef8b0       ?Push@?$DList@UShortcutItem@@@@QAEPAUShortcutItem@@PBU2@@Z 004f08b0 f i shortcuts.obj
 0001:000ef8c0       ?InsertBefore@?$DList@UShortcutItem@@@@QAEPAUShortcutItem@@PBU2@0@Z 004f08c0 f i shortcuts.obj
 0001:000ef8d0       ?Delete@?$DList@UShortcutItem@@@@QAEPAUShortcutItem@@PAU2@@Z 004f08d0 f i shortcuts.obj
 0001:000ef8e0       ?Node2Type@?$DList@UShortcutItem@@@@AAEPAUShortcutItem@@PAUNode@CDList@@@Z 004f08e0 f i shortcuts.obj
 0001:000ef900       ?Type2Node@?$DList@UShortcutItem@@@@AAEPAUNode@CDList@@PBUShortcutItem@@@Z 004f0900 f i shortcuts.obj
 0001:000ef920       ??4ShortcutItem@@QAEAAU0@ABU0@@Z 004f0920 f i shortcuts.obj
 0001:000ef960       ??_E?$DList@UShortcutItem@@@@UAEPAXI@Z 004f0960 f i shortcuts.obj
 0001:000ef960       ??_G?$DList@UShortcutItem@@@@UAEPAXI@Z 004f0960 f i shortcuts.obj
 0001:000ef990       ?Add@Shortcuts@@QAEXIPB_W000@Z 004f0990 f   shortcuts.obj
 0001:000efa90       ?First@?$DList@UShortcutItem@@@@QAEPAUShortcutItem@@XZ 004f0a90 f i shortcuts.obj
 0001:000efaa0       ?Next@?$DList@UShortcutItem@@@@QAEPAUShortcutItem@@PBU2@@Z 004f0aa0 f i shortcuts.obj
 0001:000efad0       ??1ShortcutItem@@QAE@XZ    004f0ad0 f i shortcuts.obj
 0001:000efb50       ??0ShortcutItem@@QAE@XZ    004f0b50 f i shortcuts.obj
 0001:000efb80       ??1Shortcuts@@QAE@XZ       004f0b80 f   shortcuts.obj
 0001:000efde0       ?Set@Shortcuts@@QAEXIPB_W000@Z 004f0de0 f   shortcuts.obj
 0001:000efef0       ?MakeItemName@Shortcuts@@AAEXIPAUMenuItemEx@@@Z 004f0ef0 f   shortcuts.obj
 0001:000f0050       ??1TNode@?$DList@UShortcutItem@@@@QAE@XZ 004f1050 f i shortcuts.obj
 0001:000f0060       ??0TNode@?$DList@UShortcutItem@@@@QAE@PAUShortcutItem@@@Z 004f1060 f i shortcuts.obj
 0001:000f00d0       ??0Shortcuts@@QAE@XZ       004f10d0 f   shortcuts.obj
 0001:000f05f0       ?AllocNode@?$DList@UShortcutItem@@@@EAEPAUNode@CDList@@PAX@Z 004f15f0 f i shortcuts.obj
 0001:000f0610       ??_GTNode@?$DList@UShortcutItem@@@@QAEPAXI@Z 004f1610 f i shortcuts.obj
 0001:000f0640       ?DeleteNode@?$DList@UShortcutItem@@@@EAEXPAUNode@CDList@@@Z 004f1640 f i shortcuts.obj
 0001:000f0660       ?EditItem@Shortcuts@@AAEXPAVVMenu@@PAUShortcutItem@@_N@Z 004f1660 f   shortcuts.obj
 0001:000f0a50       ?Configure@Shortcuts@@QAEXXZ 004f1a50 f   shortcuts.obj
 0001:000f0e50       ?Get@Shortcuts@@QAE_NIPAVUnicodeString@@000@Z 004f1e50 f   shortcuts.obj
 0001:000f13d0       ?GetString@@YGHPB_W000AAVUnicodeString@@0KPAH0@Z 004f23d0 f   stddlg.obj
 0001:000f1af0       ?GetSearchReplaceString@@YGHHPAVUnicodeString@@0PB_W1PAH22221@Z 004f2af0 f   stddlg.obj
 0001:000f2ac0       ?GetNameAndPassword@@YGHPB_WAAVUnicodeString@@10K@Z 004f3ac0 f   stddlg.obj
 0001:000f2f80       ?RemoveChar@@YAAAVUnicodeString@@AAV1@_WH@Z 004f3f80 f   strmix.obj
 0001:000f2ff0       ?Unquote@@YGXPA_W@Z        004f3ff0 f   strmix.obj
 0001:000f3030       ?Unquote@@YGXAAVUnicodeString@@@Z 004f4030 f   strmix.obj
 0001:000f3080       ?PrepareUnitStr@@YAXXZ     004f4080 f   strmix.obj
 0001:000f30f0       ?CheckFileSizeStringFormat@@YA_NPB_W@Z 004f40f0 f   strmix.obj
 0001:000f3150       ?GetDecimalSeparator@@YA_WXZ 004f4150 f   strmix.obj
 0001:000f3170       ?GetSize@UnicodeStringData@@QBEIXZ 004f4170 f i strmix.obj
 0001:000f3180       ?GetSize@UnicodeString@@QBEIXZ 004f4180 f i strmix.obj
 0001:000f3240       ?InsertQuote@@YGPA_WPA_W@Z 004f4240 f   strmix.obj
 0001:000f32b0       ?InsertRegexpQuote@@YGPA_WPA_W@Z 004f42b0 f   strmix.obj
 0001:000f32e0       ?QuoteSpace@@YGPA_WPA_W@Z  004f42e0 f   strmix.obj
 0001:000f3310       ?InsertQuote@@YAAAVUnicodeString@@AAV1@@Z 004f4310 f   strmix.obj
 0001:000f3330       ?InsertRegexpQuote@@YAAAVUnicodeString@@AAV1@@Z 004f4330 f   strmix.obj
 0001:000f3360       ?QuoteSpace@@YAAAVUnicodeString@@AAV1@@Z 004f4360 f   strmix.obj
 0001:000f3390       ?QuoteSpaceOnly@@YGPA_WPA_W@Z 004f4390 f   strmix.obj
 0001:000f33b0       ?QuoteSpaceOnly@@YGAAVUnicodeString@@AAV1@@Z 004f43b0 f   strmix.obj
 0001:000f33e0       ?TruncStrFromEnd@@YGPA_WPA_WH@Z 004f43e0 f   strmix.obj
 0001:000f3450       ?TruncStr@@YGPA_WPA_WH@Z   004f4450 f   strmix.obj
 0001:000f34f0       ?TruncStr@@YGAAVUnicodeString@@AAV1@H@Z 004f44f0 f   strmix.obj
 0001:000f3520       ?TruncStrFromCenter@@YAPA_WPA_WH@Z 004f4520 f   strmix.obj
 0001:000f35b0       ?TruncStrFromCenter@@YAAAVUnicodeString@@AAV1@H@Z 004f45b0 f   strmix.obj
 0001:000f35e0       ?TruncPathStr@@YGPA_WPA_WH@Z 004f45e0 f   strmix.obj
 0001:000f3710       ?TruncPathStr@@YGAAVUnicodeString@@AAV1@H@Z 004f4710 f   strmix.obj
 0001:000f3740       ?RemoveLeadingSpaces@@YGPA_WPA_W@Z 004f4740 f   strmix.obj
 0001:000f37b0       ?RemoveLeadingSpaces@@YGAAVUnicodeString@@AAV1@@Z 004f47b0 f   strmix.obj
 0001:000f3800       ?RemoveTrailingSpaces@@YGPA_WPA_W@Z 004f4800 f   strmix.obj
 0001:000f3870       ?RemoveTrailingSpaces@@YGAAVUnicodeString@@AAV1@@Z 004f4870 f   strmix.obj
 0001:000f3900       ?RemoveExternalSpaces@@YGPA_WPA_W@Z 004f4900 f   strmix.obj
 0001:000f3920       ?RemoveExternalSpaces@@YGAAVUnicodeString@@AAV1@@Z 004f4920 f   strmix.obj
 0001:000f3940       ?RemoveUnprintableCharacters@@YGAAVUnicodeString@@AAV1@@Z 004f4940 f   strmix.obj
 0001:000f3990       ?GetCommaWord@@YAPB_WPB_WAAVUnicodeString@@_W@Z 004f4990 f   strmix.obj
 0001:000f3a20       ?IsCaseMixed@@YAHABVUnicodeString@@@Z 004f4a20 f   strmix.obj
 0001:000f3aa0       ?IsCaseLower@@YAHABVUnicodeString@@@Z 004f4aa0 f   strmix.obj
 0001:000f3af0       ?UnquoteExternal@@YAXAAVUnicodeString@@@Z 004f4af0 f   strmix.obj
 0001:000f3b30       ?InsertString@@YAPA_WPA_WHPB_WH@Z 004f4b30 f   strmix.obj
 0001:000f3bb0       ?ReplaceStrings@@YAHAAVUnicodeString@@PB_W1HH@Z 004f4bb0 f   strmix.obj
 0001:000f3d80       ?ConvertFileSizeString@@YA_KPB_W@Z 004f4d80 f   strmix.obj
 0001:000f3e80       ?FormatNumber@@YAAAVUnicodeString@@PB_WAAV1@H@Z 004f4e80 f   strmix.obj
 0001:000f3fe0       ?InsertCommas@@YAAAVUnicodeString@@_KAAV1@@Z 004f4fe0 f   strmix.obj
 0001:000f4010       ?TruncStrFromEnd@@YGAAVUnicodeString@@AAV1@H@Z 004f5010 f   strmix.obj
 0001:000f4040       ?FileSizeToStr@@YGAAVUnicodeString@@AAV1@_KHH@Z 004f5040 f   strmix.obj
 0001:000f44d0       ?FarFormatText@@YGAAVUnicodeString@@PB_WHAAV1@0K@Z 004f54d0 f   strmix.obj
 0001:000f4990       ?CalcWordFromString@@YAQB_WPB_WHPAH10@Z 004f5990 f   strmix.obj
 0001:000f4b70       ?Transform@@YAXAAVUnicodeString@@PB_W_W@Z 004f5b70 f   strmix.obj
 0001:000f4cc0       ?ReplaceBrackets@@YA?AVUnicodeString@@ABV1@0PAURegExpMatch@@H@Z 004f5cc0 f   strmix.obj
 0001:000f4e30       ?CenterStr@@YAAAVUnicodeString@@PB_WAAV1@H@Z 004f5e30 f   strmix.obj
 0001:000f4f90       ??0?$DList@USynchroData@PluginSynchro@@@@QAE@XZ 004f5f90 f i synchro.obj
 0001:000f4fb0       ?DeleteNode@?$DList@USynchroData@PluginSynchro@@@@EAEXPAUNode@CDList@@@Z 004f5fb0 f i synchro.obj
 0001:000f4fc0       ??1?$DList@USynchroData@PluginSynchro@@@@UAE@XZ 004f5fc0 f i synchro.obj
 0001:000f4fd0       ?Push@?$DList@USynchroData@PluginSynchro@@@@QAEPAUSynchroData@PluginSynchro@@PBU23@@Z 004f5fd0 f i synchro.obj
 0001:000f4fe0       ?Delete@?$DList@USynchroData@PluginSynchro@@@@QAEPAUSynchroData@PluginSynchro@@PAU23@@Z 004f5fe0 f i synchro.obj
 0001:000f4ff0       ?Node2Type@?$DList@USynchroData@PluginSynchro@@@@AAEPAUSynchroData@PluginSynchro@@PAUNode@CDList@@@Z 004f5ff0 f i synchro.obj
 0001:000f5010       ??0TNode@?$DList@USynchroData@PluginSynchro@@@@QAE@PAUSynchroData@PluginSynchro@@@Z 004f6010 f i synchro.obj
 0001:000f5030       ??0PluginSynchro@@QAE@XZ   004f6030 f   synchro.obj
 0001:000f5060       ??_E?$DList@USynchroData@PluginSynchro@@@@UAEPAXI@Z 004f6060 f i synchro.obj
 0001:000f5060       ??_G?$DList@USynchroData@PluginSynchro@@@@UAEPAXI@Z 004f6060 f i synchro.obj
 0001:000f5090       ??1PluginSynchro@@QAE@XZ   004f6090 f   synchro.obj
 0001:000f50b0       ?Synchro@PluginSynchro@@QAEX_NHPAX@Z 004f60b0 f   synchro.obj
 0001:000f5100       ?AllocNode@?$DList@USynchroData@PluginSynchro@@@@EAEPAUNode@CDList@@PAX@Z 004f6100 f i synchro.obj
 0001:000f5130       ?First@?$DList@USynchroData@PluginSynchro@@@@QAEPAUSynchroData@PluginSynchro@@XZ 004f6130 f i synchro.obj
 0001:000f5140       ?Process@PluginSynchro@@QAE_NXZ 004f6140 f   synchro.obj
 0001:000f5200       ?OpenLogStream@@YAPAU_iobuf@@PB_W@Z 004f6200 f   syslog.obj
 0001:000f5210       ?OpenSysLog@@YAXXZ         004f6210 f   syslog.obj
 0001:000f5220       ?CloseSysLog@@YAXXZ        004f6220 f   syslog.obj
 0001:000f5230       ?ShowHeap@@YAXXZ           004f6230 f   syslog.obj
 0001:000f5240       ?CheckHeap@@YAXH@Z         004f6240 f   syslog.obj
 0001:000f5250       ?SysLog@@YAXH@Z            004f6250 f   syslog.obj
 0001:000f5260       ?SysLog@@YAXPB_WZZ         004f6260 f   syslog.obj
 0001:000f5270       ?SysLogLastError@@YAXXZ    004f6270 f   syslog.obj
 0001:000f5280       ?SysLog@@YAXHPB_WZZ        004f6280 f   syslog.obj
 0001:000f5290       ?SysLogDump@@YAXPB_WKPAEHPAU_iobuf@@@Z 004f6290 f   syslog.obj
 0001:000f52a0       ?SaveScreenDumpBuffer@@YAXPB_WPBU_CHAR_INFO@@HHHHPAU_iobuf@@@Z 004f62a0 f   syslog.obj
 0001:000f52b0       ?PluginsStackItem_Dump@@YAXPB_WPBUPluginsListItem@@HPAU_iobuf@@@Z 004f62b0 f   syslog.obj
 0001:000f52c0       ?GetOpenPluginInfo_Dump@@YAXPB_WPBUOpenPluginInfo@@PAU_iobuf@@@Z 004f62c0 f   syslog.obj
 0001:000f52d0       ?ManagerClass_Dump@@YAXPB_WPBVManager@@PAU_iobuf@@@Z 004f62d0 f   syslog.obj
 0001:000f52e0       ??0CleverSysLog@@QAE@PB_W@Z 004f62e0 f   syslog.obj
 0001:000f52f0       ??0CleverSysLog@@QAE@HPB_W@Z 004f62f0 f   syslog.obj
 0001:000f5300       ??1CleverSysLog@@QAE@XZ    004f6300 f   syslog.obj
 0001:000f5310       ?INPUT_RECORD_DumpBuffer@@YAXPAU_iobuf@@@Z 004f6310 f   syslog.obj
 0001:000f5320       ?GetVolumeInformation_Dump@@YAXPB_W00KKKK0KPAU_iobuf@@@Z 004f6320 f   syslog.obj
 0001:000f5330       ?WIN32_FIND_DATA_Dump@@YAXPB_WABU_WIN32_FIND_DATAW@@PAU_iobuf@@@Z 004f6330 f   syslog.obj
 0001:000f5340       ?PanelViewSettings_Dump@@YAXPB_WABUPanelViewSettings@@PAU_iobuf@@@Z 004f6340 f   syslog.obj
 0001:000f5350       ?__ECTL_ToName@@YA?AVUnicodeString@@H@Z 004f6350 f   syslog.obj
 0001:000f5390       ?__EE_ToName@@YA?AVUnicodeString@@H@Z 004f6390 f   syslog.obj
 0001:000f53d0       ?__EEREDRAW_ToName@@YA?AVUnicodeString@@H@Z 004f63d0 f   syslog.obj
 0001:000f5410       ?__ESPT_ToName@@YA?AVUnicodeString@@H@Z 004f6410 f   syslog.obj
 0001:000f5450       ?__VE_ToName@@YA?AVUnicodeString@@H@Z 004f6450 f   syslog.obj
 0001:000f5490       ?__FCTL_ToName@@YA?AVUnicodeString@@H@Z 004f6490 f   syslog.obj
 0001:000f54d0       ?__ACTL_ToName@@YA?AVUnicodeString@@H@Z 004f64d0 f   syslog.obj
 0001:000f5510       ?__VCTL_ToName@@YA?AVUnicodeString@@H@Z 004f6510 f   syslog.obj
 0001:000f5550       ?__MCODE_ToName@@YA?AVUnicodeString@@H@Z 004f6550 f   syslog.obj
 0001:000f5590       ?__FARKEY_ToName@@YA?AVUnicodeString@@H@Z 004f6590 f   syslog.obj
 0001:000f55d0       ?__DLGMSG_ToName@@YA?AVUnicodeString@@H@Z 004f65d0 f   syslog.obj
 0001:000f5610       ?__VK_KEY_ToName@@YA?AVUnicodeString@@H@Z 004f6610 f   syslog.obj
 0001:000f5650       ?__MOUSE_EVENT_RECORD_Dump@@YA?AVUnicodeString@@PAU_MOUSE_EVENT_RECORD@@@Z 004f6650 f   syslog.obj
 0001:000f5690       ?__INPUT_RECORD_Dump@@YA?AVUnicodeString@@PAU_INPUT_RECORD@@@Z 004f6690 f   syslog.obj
 0001:000f56d0       ?__SysLog_LinearDump@@YA?AVUnicodeString@@PAEH@Z 004f66d0 f   syslog.obj
 0001:000f5710       ??1TaskBarCore@@QAE@XZ     004f6710 f   TaskBar.obj
 0001:000f5740       ?SetProgressState@TaskBarCore@@QAEXW4TBPFLAG@@@Z 004f6740 f   TaskBar.obj
 0001:000f5770       ?SetProgressValue@TaskBarCore@@QAEX_K0@Z 004f6770 f   TaskBar.obj
 0001:000f57c0       ?GetProgressState@TaskBarCore@@QAE?AW4TBPFLAG@@XZ 004f67c0 f   TaskBar.obj
 0001:000f57d0       ?Flash@TaskBarCore@@QAEXXZ 004f67d0 f   TaskBar.obj
 0001:000f5850       ??0TaskBar@@QAE@_N@Z       004f6850 f   TaskBar.obj
 0001:000f58a0       ??1TaskBar@@QAE@XZ         004f68a0 f   TaskBar.obj
 0001:000f58f0       ??0TaskBarPause@@QAE@XZ    004f68f0 f   TaskBar.obj
 0001:000f5960       ??1TaskBarPause@@QAE@XZ    004f6960 f   TaskBar.obj
 0001:000f5990       ??0TaskBarError@@QAE@XZ    004f6990 f   TaskBar.obj
 0001:000f5a00       ??1TaskBarError@@QAE@XZ    004f6a00 f   TaskBar.obj
 0001:000f5a30       ??$IID_PPV_ARGS_Helper@UITaskbarList3@@@@YAPAPAXPAPAUITaskbarList3@@@Z 004f6a30 f i TaskBar.obj
 0001:000f5a40       ??0TaskBarCore@@QAE@XZ     004f6a40 f   TaskBar.obj
 0001:000f5a90       ??0OneItem@TPreRedrawFunc@@QAE@UPreRedrawItem@@PAU01@@Z 004f6a90 f i TPreRedrawFunc.obj
 0001:000f5ab0       ??0TPreRedrawFunc@@QAE@XZ  004f6ab0 f i TPreRedrawFunc.obj
 0001:000f5ac0       ?Pop@TPreRedrawFunc@@QAE?AUPreRedrawItem@@XZ 004f6ac0 f   TPreRedrawFunc.obj
 0001:000f5b30       ?Peek@TPreRedrawFunc@@QAE?AUPreRedrawItem@@XZ 004f6b30 f   TPreRedrawFunc.obj
 0001:000f5b50       ?SetParam@TPreRedrawFunc@@QAE?AUPreRedrawItem@@UPreRedrawParamStruct@@@Z 004f6b50 f   TPreRedrawFunc.obj
 0001:000f5ba0       ?Push@TPreRedrawFunc@@QAE?AUPreRedrawItem@@ABU2@@Z 004f6ba0 f   TPreRedrawFunc.obj
 0001:000f5c00       ?Push@TPreRedrawFunc@@QAE?AUPreRedrawItem@@P6AXXZPAUPreRedrawParamStruct@@@Z 004f6c00 f   TPreRedrawFunc.obj
 0001:000f5c60       ?Free@TPreRedrawFunc@@QAEXXZ 004f6c60 f   TPreRedrawFunc.obj
 0001:000f5ca0       ??0TPreRedrawFuncGuard@@QAE@P6AXXZ@Z 004f6ca0 f   TPreRedrawFunc.obj
 0001:000f5cf0       ??1TPreRedrawFuncGuard@@QAE@XZ 004f6cf0 f   TPreRedrawFunc.obj
 0001:000f5d10       ??1TPreRedrawFunc@@QAE@XZ  004f6d10 f i TPreRedrawFunc.obj
 0001:000f5d20       ?Resize@TreeListCache@@QAEXXZ 004f6d20 f i treelist.obj
 0001:000f5d60       ?Add@TreeListCache@@QAEXPB_W@Z 004f6d60 f i treelist.obj
 0001:000f5dc0       ?Insert@TreeListCache@@QAEXHPB_W@Z 004f6dc0 f i treelist.obj
 0001:000f5e40       ?Delete@TreeListCache@@QAEXH@Z 004f6e40 f i treelist.obj
 0001:000f5e90       ?Clean@TreeListCache@@QAEXXZ 004f6e90 f i treelist.obj
 0001:000f5ef0       ?Copy@TreeListCache@@QAEXPAU1@@Z 004f6ef0 f i treelist.obj
 0001:000f5f70       ?GetTitle@TreeList@@UAEAAVUnicodeString@@AAV2@HH@Z 004f6f70 f   treelist.obj
 0001:000f5fc0       ?GetRootPanel@TreeList@@AAEPAVPanel@@XZ 004f6fc0 f   treelist.obj
 0001:000f6020       ?MsgReadTree@TreeList@@CAHHAAH@Z 004f7020 f   treelist.obj
 0001:000f6120       ?CountSlash@TreeList@@AAEIPB_W@Z 004f7120 f   treelist.obj
 0001:000f6150       ?VMProcess@TreeList@@UAE_JHPAX_J@Z 004f7150 f   treelist.obj
 0001:000f61d0       ?GetNextNavPos@TreeList@@AAEHXZ 004f71d0 f   treelist.obj
 0001:000f6220       ?GetPrevNavPos@TreeList@@AAEHXZ 004f7220 f   treelist.obj
 0001:000f6260       ?CorrectPosition@TreeList@@AAEXXZ 004f7260 f   treelist.obj
 0001:000f62e0       ?SetDirPosition@TreeList@@AAEHPB_W@Z 004f72e0 f   treelist.obj
 0001:000f6370       ?GetCurDir@TreeList@@UAEHAAVUnicodeString@@@Z 004f7370 f   treelist.obj
 0001:000f63d0       ?MoveToMouse@TreeList@@UAEXPAU_MOUSE_EVENT_RECORD@@@Z 004f73d0 f   treelist.obj
 0001:000f63f0       ?GetSelCount@TreeList@@EAEHXZ 004f73f0 f   treelist.obj
 0001:000f6400       ?GetSelName@TreeList@@UAEHPAVUnicodeString@@AAK0PAUFAR_FIND_DATA_EX@@@Z 004f7400 f   treelist.obj
 0001:000f6460       ?GetCurName@TreeList@@UAEHAAVUnicodeString@@0@Z 004f7460 f   treelist.obj
 0001:000f64b0       ?ClearCache@TreeList@@SAXH@Z 004f74b0 f   treelist.obj
 0001:000f64c0       ?GoToFile@TreeList@@UAEHJ@Z 004f74c0 f   treelist.obj
 0001:000f64f0       ?GoToFile@TreeList@@UAEHPB_WH@Z 004f74f0 f   treelist.obj
 0001:000f6520       ?FindFile@TreeList@@UAEJPB_WH@Z 004f7520 f   treelist.obj
 0001:000f65c0       ?FindFirst@TreeList@@UAEJPB_W@Z 004f75c0 f   treelist.obj
 0001:000f65e0       ?FindNext@TreeList@@UAEJHPB_W@Z 004f75e0 f   treelist.obj
 0001:000f6660       ?GetFileName@TreeList@@UAEHAAVUnicodeString@@HAAK@Z 004f7660 f   treelist.obj
 0001:000f67b0       ?MustBeCached@TreeList@@SAHPB_W@Z 004f77b0 f   treelist.obj
 0001:000f6830       ?SetMacroMode@TreeList@@AAEXH@Z 004f7830 f   treelist.obj
 0001:000f6870       ?DynamicUpdateKeyBar@TreeList@@AAEXXZ 004f7870 f   treelist.obj
 0001:000f68a0       ?MkTreeFileName@TreeList@@CAAAVUnicodeString@@PB_WAAV2@@Z 004f78a0 f   treelist.obj
 0001:000f6910       ?MkTreeCacheFolderName@TreeList@@CAAAVUnicodeString@@PB_WAAV2@@Z 004f7910 f   treelist.obj
 0001:000f6980       ?CreateTreeFileName@TreeList@@CAAAVUnicodeString@@PB_WAAV2@@Z 004f7980 f   treelist.obj
 0001:000f6990       ?GetCurrentPos@TreeList@@UAEHXZ 004f7990 f   treelist.obj
 0001:000f69a0       ??4TreeItem@@QAEAAU0@ABU0@@Z 004f79a0 f i treelist.obj
 0001:000f69d0       ?SetRootDir@TreeList@@QAEXPB_W@Z 004f79d0 f   treelist.obj
 0001:000f6a50       ?DisplayTreeName@TreeList@@AAEXPB_WH@Z 004f7a50 f   treelist.obj
 0001:000f6ba0       ?PR_MsgReadTree@TreeList@@SAXXZ 004f7ba0 f   treelist.obj
 0001:000f6bd0       ?FillLastData@TreeList@@AAE_NXZ 004f7bd0 f   treelist.obj
 0001:000f6de0       ?SetCurDir@TreeList@@UAEHPB_WH@Z 004f7de0 f   treelist.obj
 0001:000f6e50       ?UpdateViewPanel@TreeList@@UAEXXZ 004f7e50 f   treelist.obj
 0001:000f6f20       ?SetFocus@TreeList@@UAEXXZ 004f7f20 f   treelist.obj
 0001:000f6f60       ?UpdateKeyBar@TreeList@@UAEHXZ 004f7f60 f   treelist.obj
 0001:000f7020       ?SetTitle@TreeList@@UAEXXZ 004f8020 f   treelist.obj
 0001:000f71a0       ?GetItem@TreeList@@UAEHHPAX@Z 004f81a0 f   treelist.obj
 0001:000f7200       ??0TreeListCache@@QAE@XZ   004f8200 f i treelist.obj
 0001:000f7220       ??1TreeListCache@@QAE@XZ   004f8220 f i treelist.obj
 0001:000f7240       ??0TreeList@@QAE@H@Z       004f8240 f   treelist.obj
 0001:000f72e0       ?GetFileCount@TreeList@@UAEJXZ 004f82e0 f i treelist.obj
 0001:000f72f0       ??_GTreeItem@@QAEPAXI@Z    004f82f0 f i treelist.obj
 0001:000f7340       ??_ETreeItem@@QAEPAXI@Z    004f8340 f i treelist.obj
 0001:000f73f0       ?DisplayTree@TreeList@@AAEXH@Z 004f83f0 f   treelist.obj
 0001:000f78a0       ?GetCacheTreeName@TreeList@@CAHPB_WAAVUnicodeString@@H@Z 004f88a0 f   treelist.obj
 0001:000f7b30       ?GetRoot@TreeList@@AAEXXZ  004f8b30 f   treelist.obj
 0001:000f7bc0       ?Up@TreeList@@AAEXH@Z      004f8bc0 f   treelist.obj
 0001:000f7be0       ?Down@TreeList@@AAEXH@Z    004f8be0 f   treelist.obj
 0001:000f7c00       ?Scroll@TreeList@@AAEXH@Z  004f8c00 f   treelist.obj
 0001:000f7c20       ?FindPartName@TreeList@@UAEHPB_WHHH@Z 004f8c20 f   treelist.obj
 0001:000f7e40       ?FlushCache@TreeList@@SAXXZ 004f8e40 f   treelist.obj
 0001:000f7fa0       ?SaveState@TreeList@@AAE_NXZ 004f8fa0 f   treelist.obj
 0001:000f80c0       ?RestoreState@TreeList@@AAE_NXZ 004f90c0 f   treelist.obj
 0001:000f8260       ??1TreeList@@UAE@XZ        004f9260 f   treelist.obj
 0001:000f8350       ?SaveTreeFile@TreeList@@AAEXXZ 004f9350 f   treelist.obj
 0001:000f85a0       ?ReadTreeFile@TreeList@@AAEHXZ 004f95a0 f   treelist.obj
 0001:000f8b40       ?ReadCache@TreeList@@SAXPB_W@Z 004f9b40 f   treelist.obj
 0001:000f8d00       ??_ETreeList@@UAEPAXI@Z    004f9d00 f i treelist.obj
 0001:000f8d00       ??_GTreeList@@UAEPAXI@Z    004f9d00 f i treelist.obj
 0001:000f8d20       ?AddTreeName@TreeList@@SAXPB_W@Z 004f9d20 f   treelist.obj
 0001:000f8e70       ?DelTreeName@TreeList@@SAXPB_W@Z 004f9e70 f   treelist.obj
 0001:000f8fe0       ?KillFocus@TreeList@@UAEXXZ 004f9fe0 f   treelist.obj
 0001:000f9070       ?ProcessEnter@TreeList@@QAEXXZ 004fa070 f   treelist.obj
 0001:000f9120       ?ReadSubTree@TreeList@@SAXPB_W@Z 004fa120 f   treelist.obj
 0001:000f93b0       ?ReadTree@TreeList@@QAEHXZ 004fa3b0 f   treelist.obj
 0001:000f9ad0       ?SyncDir@TreeList@@AAEXXZ  004faad0 f   treelist.obj
 0001:000f9b70       ?ProcessKey@TreeList@@UAEHH@Z 004fab70 f   treelist.obj
 0001:000fa4d0       ?ProcessMouse@TreeList@@UAEHPAU_MOUSE_EVENT_RECORD@@@Z 004fb4d0 f   treelist.obj
 0001:000fa7a0       ?RenTreeName@TreeList@@SAXPB_W0@Z 004fb7a0 f   treelist.obj
 0001:000faa40       ?DisplayObject@TreeList@@EAEXXZ 004fba40 f   treelist.obj
 0001:000faaf0       ?Update@TreeList@@UAEXH@Z  004fbaf0 f   treelist.obj
 0001:000fac10       ?isDouble@TVar@@QBEHXZ     004fbc10 f i tvar.obj
 0001:000fac20       ??1TAbstractSet@@QAE@XZ    004fbc20 f i tvar.obj
 0001:000faf10       ??1TVar@@QAE@XZ            004fbf10 f   tvar.obj
 0001:000faf20       ??0TVar@@QAE@_J@Z          004fbf20 f   tvar.obj
 0001:000faf50       ??0TVar@@QAE@H@Z           004fbf50 f   tvar.obj
 0001:000faf80       ??0TVar@@QAE@N@Z           004fbf80 f   tvar.obj
 0001:000fafa0       ?i@TVar@@QBE_JXZ           004fbfa0 f   tvar.obj
 0001:000fafe0       ?d@TVar@@QBENXZ            004fbfe0 f   tvar.obj
 0001:000fb020       ?toInteger@TVar@@QAE_JXZ   004fc020 f   tvar.obj
 0001:000fb080       ?toDouble@TVar@@QAENXZ     004fc080 f   tvar.obj
 0001:000fb0e0       ?getInteger@TVar@@QBE_JXZ  004fc0e0 f   tvar.obj
 0001:000fb120       ?getDouble@TVar@@QBENXZ    004fc120 f   tvar.obj
 0001:000fb160       ?hash@@YAHPB_W@Z           004fc160 f   tvar.obj
 0001:000fb1b0       ?varEnum@@YAPAVTVarSet@@QAPAV1@H@Z 004fc1b0 f   tvar.obj
 0001:000fb1f0       ??1TVarSet@@QAE@XZ         004fc1f0 f i tvar.obj
 0001:000fb220       ?initVTable@@YAXQAPAVTVarSet@@@Z 004fc220 f   tvar.obj
 0001:000fb270       ??0TAbstractSet@@QAE@PB_W@Z 004fc270 f i tvar.obj
 0001:000fb2e0       ??0TVarSet@@QAE@PB_W@Z     004fc2e0 f i tvar.obj
 0001:000fb3a0       ??0TVar@@QAE@PB_W@Z        004fc3a0 f   tvar.obj
 0001:000fb3d0       ??0TVar@@QAE@ABV0@@Z       004fc3d0 f   tvar.obj
 0001:000fb400       ??4TVar@@QAEAAV0@ABV0@@Z   004fc400 f   tvar.obj
 0001:000fb450       ?s@TVar@@QBEPB_WXZ         004fc450 f   tvar.obj
 0001:000fb4c0       ?toString@TVar@@QAEPB_WXZ  004fc4c0 f   tvar.obj
 0001:000fb870       ?CompAB@TVar@@CAHABV1@0P6AHW4TVarType@@PBX2@Z@Z 004fc870 f   tvar.obj
 0001:000fba50       ??9@YAHABVTVar@@0@Z        004fca50 f   tvar.obj
 0001:000fba70       ??8@YAHABVTVar@@0@Z        004fca70 f   tvar.obj
 0001:000fba90       ??M@YAHABVTVar@@0@Z        004fca90 f   tvar.obj
 0001:000fbab0       ??N@YAHABVTVar@@0@Z        004fcab0 f   tvar.obj
 0001:000fbad0       ??O@YAHABVTVar@@0@Z        004fcad0 f   tvar.obj
 0001:000fbaf0       ??P@YAHABVTVar@@0@Z        004fcaf0 f   tvar.obj
 0001:000fbb10       ??G@YA?AVTVar@@ABV0@0@Z    004fcb10 f   tvar.obj
 0001:000fbdc0       ??D@YA?AVTVar@@ABV0@0@Z    004fcdc0 f   tvar.obj
 0001:000fc030       ??K@YA?AVTVar@@ABV0@0@Z    004fd030 f   tvar.obj
 0001:000fc380       ??L@YA?AVTVar@@ABV0@0@Z    004fd380 f   tvar.obj
 0001:000fc710       ??U@YA?AVTVar@@ABV0@0@Z    004fd710 f   tvar.obj
 0001:000fc9c0       ??I@YA?AVTVar@@ABV0@0@Z    004fd9c0 f   tvar.obj
 0001:000fcc70       ??T@YA?AVTVar@@ABV0@0@Z    004fdc70 f   tvar.obj
 0001:000fcf20       ??5@YA?AVTVar@@ABV0@0@Z    004fdf20 f   tvar.obj
 0001:000fd1d0       ??6@YA?AVTVar@@ABV0@0@Z    004fe1d0 f   tvar.obj
 0001:000fd480       ??W@YA?AVTVar@@ABV0@0@Z    004fe480 f   tvar.obj
 0001:000fd6f0       ??V@YA?AVTVar@@ABV0@0@Z    004fe6f0 f   tvar.obj
 0001:000fd950       ?xor_op@@YA?AVTVar@@ABV1@0@Z 004fe950 f   tvar.obj
 0001:000fdc80       ??HTVar@@QAE?AV0@XZ        004fec80 f   tvar.obj
 0001:000fdcb0       ??GTVar@@QAE?AV0@XZ        004fecb0 f   tvar.obj
 0001:000fdd40       ??7TVar@@QAE?AV0@XZ        004fed40 f   tvar.obj
 0001:000fdde0       ??STVar@@QAE?AV0@XZ        004fede0 f   tvar.obj
 0001:000fde70       ?isVar@@YAHQAPAVTVarSet@@PB_W@Z 004fee70 f   tvar.obj
 0001:000fdec0       ?varLook@@YAPAVTVarSet@@QAPAV1@PB_W_N@Z 004feec0 f   tvar.obj
 0001:000fdf80       ??_GTVarSet@@QAEPAXI@Z     004fef80 f i tvar.obj
 0001:000fdfc0       ?deleteVTable@@YAXQAPAVTVarSet@@@Z 004fefc0 f   tvar.obj
 0001:000fe190       ?AppendStr@TVar@@QAEAAV1@ABV1@@Z 004ff190 f   tvar.obj
 0001:000fe210       ?AppendStr@TVar@@QAEAAV1@_W@Z 004ff210 f   tvar.obj
 0001:000fe2a0       ??H@YA?AVTVar@@ABV0@0@Z    004ff2a0 f   tvar.obj
 0001:000fe580       ?varKill@@YAXQAPAVTVarSet@@PB_W@Z 004ff580 f   tvar.obj
 0001:000fe620       ??0UserDefinedListItem@@QAE@XZ 004ff620 f i udlist.obj
 0001:000fe630       ??1UserDefinedListItem@@QAE@XZ 004ff630 f   udlist.obj
 0001:000fe640       ??4UserDefinedListItem@@QAEABV0@ABV0@@Z 004ff640 f   udlist.obj
 0001:000fe690       ??4UserDefinedListItem@@QAEABV0@PB_W@Z 004ff690 f   udlist.obj
 0001:000fe6d0       ?SetDefaultSeparators@UserDefinedList@@AAEXXZ 004ff6d0 f   udlist.obj
 0001:000fe6f0       ?CheckSeparators@UserDefinedList@@ABE_NXZ 004ff6f0 f   udlist.obj
 0001:000fe740       ?CmpItems@UserDefinedList@@CAHPAPBVUserDefinedListItem@@0@Z 004ff740 f   udlist.obj
 0001:000fe770       ?Reset@UserDefinedList@@QAEXXZ 004ff770 f   udlist.obj
 0001:000fe780       ?getItem@?$TArray@VUserDefinedListItem@@@@QAEPAVUserDefinedListItem@@I@Z 004ff780 f i udlist.obj
 0001:000fe7a0       ?deleteItem@?$TArray@VUserDefinedListItem@@@@AAE_NI@Z 004ff7a0 f i udlist.obj
 0001:000fe7f0       ?setDelta@?$TArray@VUserDefinedListItem@@@@QAEXI@Z 004ff7f0 f i udlist.obj
 0001:000fe810       ?setSize@?$TArray@VUserDefinedListItem@@@@QAE_NI@Z 004ff810 f i udlist.obj
 0001:000fe920       ??8UserDefinedListItem@@QBE_NABV0@@Z 004ff920 f   udlist.obj
 0001:000fe960       ??MUserDefinedListItem@@QBEHABV0@@Z 004ff960 f   udlist.obj
 0001:000fe9b0       ?set@UserDefinedListItem@@QAEPA_WPB_WI@Z 004ff9b0 f   udlist.obj
 0001:000fea10       ?Skip@UserDefinedList@@AAEPB_WPB_WAAH1AA_N@Z 004ffa10 f   udlist.obj
 0001:000febc0       ?IsEmpty@UserDefinedList@@QAE_NXZ 004ffbc0 f   udlist.obj
 0001:000febe0       ?GetNext@UserDefinedList@@QAEPB_WXZ 004ffbe0 f   udlist.obj
 0001:000fec10       ??0?$TArray@VUserDefinedListItem@@@@QAE@I@Z 004ffc10 f i udlist.obj
 0001:000fec30       ?setItem@?$TArray@VUserDefinedListItem@@@@QAEPAVUserDefinedListItem@@IABV2@@Z 004ffc30 f i udlist.obj
 0001:000fecb0       ?Pack@?$TArray@VUserDefinedListItem@@@@QAE_NXZ 004ffcb0 f i udlist.obj
 0001:000fed70       ?CmpItems@?$TArray@VUserDefinedListItem@@@@CAHPAPBVUserDefinedListItem@@0@Z 004ffd70 f i udlist.obj
 0001:000fedd0       ?Free@UserDefinedList@@QAEXXZ 004ffdd0 f   udlist.obj
 0001:000fedf0       ?addItem@?$TArray@VUserDefinedListItem@@@@QAEPAVUserDefinedListItem@@ABV2@@Z 004ffdf0 f i udlist.obj
 0001:000fee10       ?Sort@?$TArray@VUserDefinedListItem@@@@QAEXP6AHPBX0@ZI@Z 004ffe10 f i udlist.obj
 0001:000fee40       ?SetParameters@UserDefinedList@@QAE_NGGK@Z 004ffe40 f   udlist.obj
 0001:000fef40       ?Set@UserDefinedList@@QAE_NPB_W_N@Z 004fff40 f   udlist.obj
 0001:000ff380       ??0UserDefinedList@@QAE@XZ 00500380 f   udlist.obj
 0001:000ff3b0       ??0UserDefinedList@@QAE@GGK@Z 005003b0 f   udlist.obj
 0001:000ff3f0       _wmemcmp                   005003f0 f i UnicodeString.obj
 0001:000ff430       ?AllocData@UnicodeStringData@@AAEPA_WIPAI@Z 00500430 f i UnicodeString.obj
 0001:000ff490       ??0UnicodeStringData@@QAE@II@Z 00500490 f i UnicodeString.obj
 0001:000ff4d0       ?SetLength@UnicodeStringData@@QAEII@Z 005004d0 f i UnicodeString.obj
 0001:000ff4f0       ?Inflate@UnicodeStringData@@QAEXI@Z 005004f0 f i UnicodeString.obj
 0001:000ff550       ?GetRef@UnicodeStringData@@QBEHXZ 00500550 f i UnicodeString.obj
 0001:000ff560       ?AddRef@UnicodeStringData@@QAEXXZ 00500560 f i UnicodeString.obj
 0001:000ff570       ?eus@@YAPAVUnicodeStringData@@XZ 00500570 f   UnicodeString.obj
 0001:000ff5d0       ?SetEUS@UnicodeString@@AAEXXZ 005005d0 f   UnicodeString.obj
 0001:000ff5e0       ?GetCharString@UnicodeString@@QBEIPADII@Z 005005e0 f   UnicodeString.obj
 0001:000ff630       ?Equal@UnicodeString@@QBE_NIIPB_WI@Z 00500630 f   UnicodeString.obj
 0001:000ff680       ?ReleaseBuffer@UnicodeString@@QAEXI@Z 00500680 f   UnicodeString.obj
 0001:000ff6c0       ?Pos@UnicodeString@@QBE_NAAI_WI@Z 005006c0 f   UnicodeString.obj
 0001:000ff700       ?Pos@UnicodeString@@QBE_NAAIPB_WI@Z 00500700 f   UnicodeString.obj
 0001:000ff740       ?PosI@UnicodeString@@QBE_NAAIPB_WI@Z 00500740 f   UnicodeString.obj
 0001:000ff780       ?RPos@UnicodeString@@QBE_NAAI_WI@Z 00500780 f   UnicodeString.obj
 0001:000ff7c0       ?Inflate@UnicodeString@@QAEXI@Z 005007c0 f   UnicodeString.obj
 0001:000ff880       ?Replace@UnicodeString@@QAEAAV1@IIPB_WI@Z 00500880 f   UnicodeString.obj
 0001:000ffab0       ?Append@UnicodeString@@QAEAAV1@PBDI@Z 00500ab0 f   UnicodeString.obj
 0001:000ffb30       ?Copy@UnicodeString@@QAEAAV1@ABV1@@Z 00500b30 f   UnicodeString.obj
 0001:000ffb70       ?Copy@UnicodeString@@QAEAAV1@PBDI@Z 00500b70 f   UnicodeString.obj
 0001:000ffc40       ?GetBuffer@UnicodeString@@QAEPA_WI@Z 00500c40 f   UnicodeString.obj
 0001:000ffc60       ?SetLength@UnicodeString@@QAEII@Z 00500c60 f   UnicodeString.obj
 0001:000ffcd0       ?Clear@UnicodeString@@QAEAAV1@XZ 00500cd0 f   UnicodeString.obj
 0001:000ffd20       ?Lower@UnicodeString@@QAEAAV1@II@Z 00500d20 f   UnicodeString.obj
 0001:000ffd60       ?Upper@UnicodeString@@QAEAAV1@II@Z 00500d60 f   UnicodeString.obj
 0001:000ffda0       ??H@YA?BVUnicodeString@@ABV0@0@Z 00500da0 f   UnicodeString.obj
 0001:000ffe70       ??H@YA?BVUnicodeString@@ABV0@PBD@Z 00500e70 f   UnicodeString.obj
 0001:000fff30       ??H@YA?BVUnicodeString@@ABV0@PB_W@Z 00500f30 f   UnicodeString.obj
 0001:00100010       ?Format@UnicodeString@@QAAHPB_WZZ 00501010 f   UnicodeString.obj
 0001:001000b0       ?SubStr@UnicodeString@@QAE?AV1@II@Z 005010b0 f   UnicodeString.obj
 0001:00100120       ?GetLeftPos@CommandLine@@QAEHXZ 00501120 f i usermenu.obj
 0001:00100130       ??1UserMenu@@QAE@XZ        00501130 f   usermenu.obj
 0001:00100140       ?EditMenuDlgProc@@YGJPAXHHJ@Z 00501140 f   usermenu.obj
 0001:00100280       ?PrepareHotKey@@YAHAAVUnicodeString@@@Z 00501280 f   usermenu.obj
 0001:00100320       ?MenuRegToFile@@YAXPB_WAAVFile@@AAVCachedWrite@@_N@Z 00501320 f   usermenu.obj
 0001:001006c0       ?MenuFileToReg@@YAXPB_WAAVFile@@AAVGetFileString@@_NI@Z 005016c0 f   usermenu.obj
 0001:00100b10       ?EditMenu@UserMenu@@AAE_NPB_WHH_N@Z 00501b10 f   usermenu.obj
 0001:00101710       ?DeleteMenuRecord@UserMenu@@AAEHPB_WH@Z 00502710 f   usermenu.obj
 0001:00101950       ?MoveMenuItem@UserMenu@@AAE_NPB_WHH@Z 00502950 f   usermenu.obj
 0001:00101b00       ?FillUserMenu@@YAHAAVVMenu@@PB_WHPAH11@Z 00502b00 f   usermenu.obj
 0001:00101f50       ?ProcessSingleMenu@UserMenu@@AAEHPB_WH00@Z 00502f50 f   usermenu.obj
 0001:00102fe0       ?ProcessUserMenu@UserMenu@@AAEX_N@Z 00503fe0 f   usermenu.obj
 0001:00103750       ??0UserMenu@@QAE@_N@Z      00504750 f   usermenu.obj
 0001:00103770       ?memchr@@YAPAXPAXHI@Z      00504770 f i viewer.obj
 0001:00103780       ?AdjustWidth@Viewer@@AAEXXZ 00504780 f   viewer.obj
 0001:001037c0       ?DrawScrollbar@Viewer@@AAEXXZ 005047c0 f   viewer.obj
 0001:00103940       ?ShowStatus@Viewer@@AAEXXZ 00504940 f   viewer.obj
 0001:00103950       ?SetStatusMode@Viewer@@QAEXH@Z 00504950 f   viewer.obj
 0001:00103a20       ?VMProcess@Viewer@@UAE_JHPAX_J@Z 00504a20 f   viewer.obj
 0001:00103b70       ?CacheLine@Viewer@@AAEX_JH_N@Z 00504b70 f   viewer.obj
 0001:00103e70       ?CacheFindUp@Viewer@@AAEH_J@Z 00504e70 f   viewer.obj
 0001:00103fa0       ?GetStrBytesNum@Viewer@@AAEHPB_WH@Z 00504fa0 f   viewer.obj
 0001:00103ff0       ?ChangeViewKeyBar@Viewer@@AAEXXZ 00504ff0 f   viewer.obj
 0001:00104270       ?SearchTextTransform@Viewer@@QAEXAAVUnicodeString@@PB_W_NAAH@Z 00505270 f   viewer.obj
 0001:00104530       ??0search_data@Viewer@@QAE@XZ 00505530 f i viewer.obj
 0001:00104560       ??1search_data@Viewer@@QAE@XZ 00505560 f i viewer.obj
 0001:00104570       ?GetWrapMode@Viewer@@QAEHXZ 00505570 f   viewer.obj
 0001:00104580       ?SetWrapMode@Viewer@@QAEXH@Z 00505580 f   viewer.obj
 0001:00104590       ?EnableHideCursor@Viewer@@QAEXH@Z 00505590 f   viewer.obj
 0001:001045a0       ?GetWrapType@Viewer@@QAEHXZ 005055a0 f   viewer.obj
 0001:001045b0       ?SetWrapType@Viewer@@QAEXH@Z 005055b0 f   viewer.obj
 0001:001045c0       ?GetFileName@Viewer@@QAEXAAVUnicodeString@@@Z 005055c0 f   viewer.obj
 0001:001045e0       ?SetTempViewName@Viewer@@QAEXPB_WH@Z 005055e0 f   viewer.obj
 0001:00104630       ?SetTitle@Viewer@@QAEXPB_W@Z 00505630 f   viewer.obj
 0001:00104680       ?SetPluginData@Viewer@@QAEXPB_W@Z 00505680 f   viewer.obj
 0001:001046d0       ?SetNamesList@Viewer@@QAEXPAVNamesList@@@Z 005056d0 f   viewer.obj
 0001:00104970       ?vread@Viewer@@AAEHPA_WH0@Z 00505970 f   viewer.obj
 0001:00104ad0       ?vseek@Viewer@@AAE_N_JH@Z  00505ad0 f   viewer.obj
 0001:00104b40       ?vtell@Viewer@@AAE_JXZ     00505b40 f   viewer.obj
 0001:00104b70       ?veof@Viewer@@AAE_NXZ      00505b70 f   viewer.obj
 0001:00104ba0       ?vgetc@Viewer@@AAE_NPA_W@Z 00505ba0 f   viewer.obj
 0001:00104db0       ?vgetc_prev@Viewer@@AAE_WXZ 00505db0 f   viewer.obj
 0001:00104fa0       ?SetFileSize@Viewer@@AAEXXZ 00505fa0 f   viewer.obj
 0001:00104ff0       ?GetSelectedParam@Viewer@@QAEXAA_J0AAK@Z 00505ff0 f   viewer.obj
 0001:00105030       ?isTemporary@Viewer@@QAEHXZ 00506030 f   viewer.obj
 0001:00105060       ?KeepInitParameters@Viewer@@QAEXXZ 00506060 f   viewer.obj
 0001:001050d0       ?ShowHex@Viewer@@AAEXXZ    005060d0 f   viewer.obj
 0001:00105af0       ?GetTitle@Viewer@@QAEAAVUnicodeString@@AAV2@HH@Z 00506af0 f   viewer.obj
 0001:00105bf0       ?ReadString@Viewer@@AAEXPAUViewerString@@H_N@Z 00506bf0 f   viewer.obj
 0001:00106220       ?EndOfScreen@Viewer@@AAE_JH@Z 00507220 f   viewer.obj
 0001:00106380       ?BegOfScreen@Viewer@@AAE_JXZ 00507380 f   viewer.obj
 0001:001064a0       ?Up@Viewer@@AAEXH@Z        005074a0 f   viewer.obj
 0001:001068f0       ?SetViewKeyBar@Viewer@@QAEXPAVKeyBar@@@Z 005078f0 f   viewer.obj
 0001:00106910       ?ViewerSearchDlgProc@@YGJPAXHHJ@Z 00507910 f   viewer.obj
 0001:00106e20       ?search_hex_forward@Viewer@@AAEHPAUsearch_data@1@@Z 00507e20 f   viewer.obj
 0001:00107130       ?search_hex_backward@Viewer@@AAEHPAUsearch_data@1@@Z 00508130 f   viewer.obj
 0001:00107440       ?search_text_forward@Viewer@@AAEHPAUsearch_data@1@@Z 00508440 f   viewer.obj
 0001:00107930       ?search_text_backward@Viewer@@AAEHPAUsearch_data@1@@Z 00508930 f   viewer.obj
 0001:00107e20       ?ShowConsoleTitle@Viewer@@UAEXXZ 00508e20 f   viewer.obj
 0001:00107e90       ?AdjustFilePos@Viewer@@AAEXXZ 00508e90 f   viewer.obj
 0001:00107fd0       ?SelectText@Viewer@@QAEXAB_J0K@Z 00508fd0 f   viewer.obj
 0001:001081c0       ?ProcessHexMode@Viewer@@QAEHH_N@Z 005091c0 f   viewer.obj
 0001:00108200       ?ProcessWrapMode@Viewer@@QAEHH_N@Z 00509200 f   viewer.obj
 0001:00108280       ?ProcessTypeWrapMode@Viewer@@QAEHH_N@Z 00509280 f   viewer.obj
 0001:00108310       ??1Viewer@@UAE@XZ          00509310 f   viewer.obj
 0001:001086f0       ?OpenFile@Viewer@@QAEHPB_WH@Z 005096f0 f   viewer.obj
 0001:00108df0       ?ShowPage@Viewer@@AAEXH@Z  00509df0 f   viewer.obj
 0001:001094c0       ?DisplayObject@Viewer@@EAEXXZ 0050a4c0 f   viewer.obj
 0001:001094e0       ?ProcessMouse@Viewer@@UAEHPAU_MOUSE_EVENT_RECORD@@@Z 0050a4e0 f   viewer.obj
 0001:00109c40       ?read_line@Viewer@@AAEHPA_W0_JHAA_JAAH@Z 0050ac40 f   viewer.obj
 0001:00109de0       ?search_regex_forward@Viewer@@AAEHPAUsearch_data@1@@Z 0050ade0 f   viewer.obj
 0001:0010a0c0       ?search_regex_backward@Viewer@@AAEHPAUsearch_data@1@@Z 0050b0c0 f   viewer.obj
 0001:0010a390       ?SetFilePos@Viewer@@QAEX_J@Z 0050b390 f   viewer.obj
 0001:0010a3b0       ?GoTo@Viewer@@QAEXH_JK@Z   0050b3b0 f   viewer.obj
 0001:0010ab70       ?ViewerControl@Viewer@@QAEHHPAX@Z 0050bb70 f   viewer.obj
 0001:0010aff0       ??0Viewer@@QAE@_NI@Z       0050bff0 f   viewer.obj
 0001:0010b480       ??_GViewer@@UAEPAXI@Z      0050c480 f i viewer.obj
 0001:0010b480       ??_EViewer@@UAEPAXI@Z      0050c480 f i viewer.obj
 0001:0010b4d0       ?Search@Viewer@@AAEXHH@Z   0050c4d0 f   viewer.obj
 0001:0010c500       ?ProcessKey@Viewer@@UAEHH@Z 0050d500 f   viewer.obj
 0001:0010da40       ?GetFlags@VMenu@@QBEKXZ    0050ea40 f i vmenu.obj
 0001:0010da50       ?GetShowSeparatorCount@VMenu@@QAEHXZ 0050ea50 f i vmenu.obj
 0001:0010da60       ?ResetCursor@VMenu@@QAEXXZ 0050ea60 f   vmenu.obj
 0001:0010da80       ?ItemCanHaveFocus@VMenu@@AAE_NK@Z 0050ea80 f   vmenu.obj
 0001:0010daa0       ?ItemCanBeEntered@VMenu@@AAE_NK@Z 0050eaa0 f   vmenu.obj
 0001:0010dac0       ?ItemIsVisible@VMenu@@AAE_NK@Z 0050eac0 f   vmenu.obj
 0001:0010dad0       ?UpdateInternalCounters@VMenu@@AAEXKK@Z 0050ead0 f   vmenu.obj
 0001:0010db60       ?UpdateItemFlags@VMenu@@QAEXHK@Z 0050eb60 f   vmenu.obj
 0001:0010dc40       ?FilterUpdateHeight@VMenu@@QAEX_N@Z 0050ec40 f   vmenu.obj
 0001:0010dcc0       ?IsFilterEditKey@VMenu@@AAE_NH@Z 0050ecc0 f   vmenu.obj
 0001:0010dd00       ?ShouldSendKeyToFilter@VMenu@@AAE_NH@Z 0050ed00 f   vmenu.obj
 0001:0010dd90       ?ReadInput@VMenu@@UAEHPAU_INPUT_RECORD@@@Z 0050ed90 f   vmenu.obj
 0001:0010dde0       ?GetVisualPos@VMenu@@QAEHH@Z 0050ede0 f   vmenu.obj
 0001:0010de40       ?VisualPosToReal@VMenu@@QAEHH@Z 0050ee40 f   vmenu.obj
 0001:0010deb0       ?ShiftItemShowPos@VMenu@@AAE_NHH@Z 0050eeb0 f   vmenu.obj
 0001:0010df80       ?UpdateMaxLength@VMenu@@AAEXH@Z 0050ef80 f   vmenu.obj
 0001:0010dfb0       ?DefMenuProc@VMenu@@SGJPAXHHJ@Z 0050efb0 f   vmenu.obj
 0001:0010dfc0       ?_SetUserData@VMenu@@CAHPAUMenuItemEx@@PBXH@Z 0050efc0 f   vmenu.obj
 0001:0010e070       ?MenuItem2FarList@VMenu@@SAPAUFarListItem@@PBUMenuItemEx@@PAU2@@Z 0050f070 f   vmenu.obj
 0001:0010e0b0       ?FarList2MenuItem@VMenu@@SAPAUMenuItemEx@@PBUFarListItem@@PAU2@@Z 0050f0b0 f   vmenu.obj
 0001:0010e180       ?UpdateRequired@VMenu@@QAE_NXZ 0050f180 f   vmenu.obj
 0001:0010e1b0       ?SetSelectPos@VMenu@@QAEHHH@Z 0050f1b0 f   vmenu.obj
 0001:0010e2c0       ?SetSelectPos@VMenu@@QAEHPAUFarListPos@@@Z 0050f2c0 f   vmenu.obj
 0001:0010e3f0       ?UpdateSelectPos@VMenu@@AAEXXZ 0050f3f0 f   vmenu.obj
 0001:0010e4a0       ?GetItemPosition@VMenu@@AAEHH@Z 0050f4a0 f   vmenu.obj
 0001:0010e4e0       ?GetSelectPos@VMenu@@QAEHPAUFarListPos@@@Z 0050f4e0 f   vmenu.obj
 0001:0010e520       ?GetCheck@VMenu@@QAEHH@Z   0050f520 f   vmenu.obj
 0001:0010e5a0       ?SetCheck@VMenu@@QAEXHH@Z  0050f5a0 f   vmenu.obj
 0001:0010e620       ?RestoreFilteredItems@VMenu@@QAEXXZ 0050f620 f   vmenu.obj
 0001:0010e6e0       ?SetFilterString@VMenu@@QAEXPB_W@Z 0050f6e0 f   vmenu.obj
 0001:0010e750       ?GetFilterString@VMenu@@QAEPB_WXZ 0050f750 f   vmenu.obj
 0001:0010e770       ?Show@VMenu@@UAEXXZ        0050f770 f   vmenu.obj
 0001:0010ea00       ?Hide@VMenu@@UAEXXZ        0050fa00 f   vmenu.obj
 0001:0010eaa0       ?DrawTitles@VMenu@@AAEXXZ  0050faa0 f   vmenu.obj
 0001:0010ede0       ?GetHighlights@VMenu@@AAE_WPBUMenuItemEx@@@Z 0050fde0 f   vmenu.obj
 0001:0010ee70       ?AssignHighlights@VMenu@@QAEXH@Z 0050fe70 f   vmenu.obj
 0001:0010f2e0       ?UpdateMaxLengthFromTitles@VMenu@@AAEXXZ 005102e0 f   vmenu.obj
 0001:0010f340       ?SetMaxHeight@VMenu@@QAEXH@Z 00510340 f   vmenu.obj
 0001:0010f380       ?GetTitle@VMenu@@UAEAAVUnicodeString@@AAV2@HH@Z 00510380 f   vmenu.obj
 0001:0010f3b0       ?GetBottomTitle@VMenu@@QAEAAVUnicodeString@@AAV2@@Z 005103b0 f   vmenu.obj
 0001:0010f3f0       ?SetBottomTitle@VMenu@@QAEXPB_W@Z 005103f0 f   vmenu.obj
 0001:0010f490       ?SetTitle@VMenu@@QAEXPB_W@Z 00510490 f   vmenu.obj
 0001:0010f5b0       ?ResizeConsole@VMenu@@UAEXXZ 005105b0 f   vmenu.obj
 0001:0010f690       ?SetBoxType@VMenu@@QAEXH@Z 00510690 f   vmenu.obj
 0001:0010f6c0       ?SetColors@VMenu@@QAEXPAUFarListColors@@@Z 005106c0 f   vmenu.obj
 0001:0010f7b0       ?GetColors@VMenu@@QAEXPAUFarListColors@@@Z 005107b0 f   vmenu.obj
 0001:0010f810       ?SetOneColor@VMenu@@QAEXHF@Z 00510810 f   vmenu.obj
 0001:0010f850       ?GetVMenuInfo@VMenu@@QAEHPAUFarListInfo@@@Z 00510850 f   vmenu.obj
 0001:0010f8e0       ?SendMenuMessage@VMenu@@SGJPAXHHJ@Z 005108e0 f   vmenu.obj
 0001:0010f930       ?GetItemPtr@VMenu@@QAEPAUMenuItemEx@@H@Z 00510930 f   vmenu.obj
 0001:0010f990       ?_GetUserData@VMenu@@CAPAXPAUMenuItemEx@@PAXH@Z 00510990 f   vmenu.obj
 0001:0010fa30       ?GetUserDataSize@VMenu@@QAEHH@Z 00510a30 f   vmenu.obj
 0001:0010faa0       ?SetUserData@VMenu@@QAEHPBXHH@Z 00510aa0 f   vmenu.obj
 0001:0010fb20       ?GetUserData@VMenu@@QAEPAXPAXHH@Z 00510b20 f   vmenu.obj
 0001:0010fba0       ?GetTypeAndName@VMenu@@UAEHAAVUnicodeString@@0@Z 00510ba0 f   vmenu.obj
 0001:0010fc30       ?FindItem@VMenu@@QAEHHPB_WK@Z 00510c30 f   vmenu.obj
 0001:0010fee0       ?SortItems@VMenu@@QAEXHHH@Z 00510ee0 f   vmenu.obj
 0001:0010ff70       ?SortItems@VMenu@@QAEXP6AHPBUMenuItemEx@@0PBUSortItemParam@@@ZHH@Z 00510f70 f   vmenu.obj
 0001:0010fff0       ?AddItem@VMenu@@QAEHPBUMenuItemEx@@H@Z 00510ff0 f   vmenu.obj
 0001:00110240       ?UpdateItem@VMenu@@QAEHPBUFarListUpdate@@@Z 00511240 f   vmenu.obj
 0001:00110340       ??_GMenuItemEx@@QAEPAXI@Z  00511340 f i vmenu.obj
 0001:00110380       ?FilterStringUpdated@VMenu@@QAEXXZ 00511380 f   vmenu.obj
 0001:001106e0       ?ShortenFilterString@VMenu@@AAEXH@Z 005116e0 f   vmenu.obj
 0001:00110870       ?AddToFilter@VMenu@@QAE_NPB_W@Z 00511870 f   vmenu.obj
 0001:00110950       ?ShowMenu@VMenu@@AAEX_N@Z  00511950 f   vmenu.obj
 0001:001115e0       ?CheckHighlights@VMenu@@AAEH_WH@Z 005125e0 f   vmenu.obj
 0001:001116f0       ?CheckKeyHiOrAcc@VMenu@@AAE_NKHH@Z 005126f0 f   vmenu.obj
 0001:001117f0       ?FindItem@VMenu@@QAEHPBUFarListFind@@@Z 005127f0 f   vmenu.obj
 0001:00111810       ??0VMenu@@QAE@PB_WPAUMenuDataEx@@HHKP6GJPAXHHJ@ZPAVDialog@@@Z 00512810 f   vmenu.obj
 0001:00111b50       ?GetTypeName@VMenu@@UAEPB_WXZ 00512b50 f i vmenu.obj
 0001:00111b60       ?GetType@VMenu@@UAEHXZ     00512b60 f i vmenu.obj
 0001:00111b80       ?InsertItem@VMenu@@QAEHPBUFarListInsert@@@Z 00512b80 f   vmenu.obj
 0001:00111c40       ?AddItem@VMenu@@QAEHPBUFarList@@@Z 00512c40 f   vmenu.obj
 0001:00111cf0       ?AddItem@VMenu@@QAEHPB_W@Z 00512cf0 f   vmenu.obj
 0001:00111d70       ?DeleteItems@VMenu@@QAEXXZ 00512d70 f   vmenu.obj
 0001:00111eb0       ?VMProcess@VMenu@@UAE_JHPAX_J@Z 00512eb0 f   vmenu.obj
 0001:001126b0       ?ProcessKey@VMenu@@UAEHH@Z 005136b0 f   vmenu.obj
 0001:001130d0       ?ProcessMouse@VMenu@@UAEHPAU_MOUSE_EVENT_RECORD@@@Z 005140d0 f   vmenu.obj
 0001:00113740       ?DisplayObject@VMenu@@EAEXXZ 00514740 f   vmenu.obj
 0001:001139f0       ??1VMenu@@UAE@XZ           005149f0 f   vmenu.obj
 0001:00113b30       ?DeleteItem@VMenu@@QAEHHH@Z 00514b30 f   vmenu.obj
 0001:00113ce0       ?Pack@VMenu@@QAE_NXZ       00514ce0 f   vmenu.obj
 0001:00113da0       ??_GVMenu@@UAEPAXI@Z       00514da0 f i vmenu.obj
 0001:00113da0       ??_EVMenu@@UAEPAXI@Z       00514da0 f i vmenu.obj
 0001:00113dc0       ??0events@@QAE@XZ          00514dc0 f i window.obj
 0001:00113e10       ??1events@@QAE@XZ          00514e10 f i window.obj
 0001:00113e40       ??1WindowHandler@@QAE@XZ   00514e40 f   window.obj
 0001:00113e70       ?WndProc@@YGJPAUHWND__@@IIJ@Z 00514e70 f   window.obj
 0001:00113f80       ?WindowThreadRoutine@@YGKPAX@Z 00514f80 f   window.obj
 0001:00114070       ?Check@WindowHandler@@QAEXXZ 00515070 f   window.obj
 0001:001140b0       ??0WindowHandler@@QAE@XZ   005150b0 f   window.obj
 0001:001140f0       ?Xlat@@YGPA_WPA_WHHK@Z     005150f0 f   xlat.obj
 0001:001143b8       _WNetGetUniversalNameW@16  005153b8 f   mpr:MPR.dll
 0001:001143be       _WNetGetConnectionW@12     005153be f   mpr:MPR.dll
 0001:001143c4       _WNetCloseEnum@4           005153c4 f   mpr:MPR.dll
 0001:001143ca       _WNetEnumResourceW@16      005153ca f   mpr:MPR.dll
 0001:001143d0       _WNetOpenEnumW@20          005153d0 f   mpr:MPR.dll
 0001:001143d6       _WNetAddConnection2W@16    005153d6 f   mpr:MPR.dll
 0001:001143dc       _WNetCancelConnection2W@12 005153dc f   mpr:MPR.dll
 0001:001143e2       _GetModuleFileNameExW@16   005153e2 f   psapi:PSAPI.DLL
 0001:001143e8       _GetUserNameExW@12         005153e8 f   secur32:Secur32.dll
 0001:001143ee       _SetupDiDestroyDeviceInfoList@4 005153ee f   setupapi:SETUPAPI.dll
 0001:001143f4       _SetupDiGetDeviceRegistryPropertyW@28 005153f4 f   setupapi:SETUPAPI.dll
 0001:001143fa       _SetupDiOpenDeviceInfoW@20 005153fa f   setupapi:SETUPAPI.dll
 0001:00114400       _SetupDiGetClassDevsW@16   00515400 f   setupapi:SETUPAPI.dll
 0001:00114406       _CM_Get_Device_IDW@16      00515406 f   setupapi:SETUPAPI.dll
 0001:0011440c       _CM_Get_Child@12           0051540c f   setupapi:SETUPAPI.dll
 0001:00114412       _CM_Get_DevNode_Status@16  00515412 f   setupapi:SETUPAPI.dll
 0001:00114418       _CM_Request_Device_EjectW@20 00515418 f   setupapi:SETUPAPI.dll
 0001:0011441e       _SetupDiGetDeviceInterfaceDetailW@24 0051541e f   setupapi:SETUPAPI.dll
 0001:00114424       _SetupDiEnumDeviceInterfaces@20 00515424 f   setupapi:SETUPAPI.dll
 0001:0011442a       _CM_Locate_DevNodeW@12     0051542a f   setupapi:SETUPAPI.dll
 0001:00114430       _CM_Get_Device_ID_ListW@16 00515430 f   setupapi:SETUPAPI.dll
 0001:00114436       _CM_Get_Device_ID_List_SizeW@12 00515436 f   setupapi:SETUPAPI.dll
 0001:0011443c       _CM_Get_Sibling@12         0051543c f   setupapi:SETUPAPI.dll
 0001:00114442       _GetDriveTypeW@4           00515442 f   kernel32:KERNEL32.dll
 0001:00114448       _SetThreadPriority@8       00515448 f   kernel32:KERNEL32.dll
 0001:0011444e       _GetThreadPriority@4       0051544e f   kernel32:KERNEL32.dll
 0001:00114454       _GetCurrentThread@0        00515454 f   kernel32:KERNEL32.dll
 0001:0011445a       _GlobalFree@4              0051545a f   kernel32:KERNEL32.dll
 0001:00114460       _GlobalUnlock@4            00515460 f   kernel32:KERNEL32.dll
 0001:00114466       _GlobalLock@4              00515466 f   kernel32:KERNEL32.dll
 0001:0011446c       _GlobalAlloc@8             0051546c f   kernel32:KERNEL32.dll
 0001:00114472       _CompareStringW@24         00515472 f   kernel32:KERNEL32.dll
 0001:00114478       _MultiByteToWideChar@24    00515478 f   kernel32:KERNEL32.dll
 0001:0011447e       _GetACP@0                  0051547e f   kernel32:KERNEL32.dll
 0001:00114484       _GetOEMCP@0                00515484 f   kernel32:KERNEL32.dll
 0001:0011448a       _GetCPInfo@8               0051548a f   kernel32:KERNEL32.dll
 0001:00114490       _GetCPInfoExW@12           00515490 f   kernel32:KERNEL32.dll
 0001:00114496       _EnumSystemCodePagesW@8    00515496 f   kernel32:KERNEL32.dll
 0001:0011449c       _AllocConsole@0            0051549c f   kernel32:KERNEL32.dll
 0001:001144a2       _FreeConsole@0             005154a2 f   kernel32:KERNEL32.dll
 0001:001144a8       _GetStdHandle@4            005154a8 f   kernel32:KERNEL32.dll
 0001:001144ae       _GetConsoleWindow@0        005154ae f   kernel32:KERNEL32.dll
 0001:001144b4       _GetConsoleScreenBufferInfo@8 005154b4 f   kernel32:KERNEL32.dll
 0001:001144ba       _SetConsoleWindowInfo@12   005154ba f   kernel32:KERNEL32.dll
 0001:001144c0       _SetConsoleTitleW@4        005154c0 f   kernel32:KERNEL32.dll
 0001:001144c6       _SetLastError@4            005154c6 f   kernel32:KERNEL32.dll
 0001:001144cc       _GetConsoleCP@0            005154cc f   kernel32:KERNEL32.dll
 0001:001144d2       _SetConsoleCP@4            005154d2 f   kernel32:KERNEL32.dll
 0001:001144d8       _GetConsoleOutputCP@0      005154d8 f   kernel32:KERNEL32.dll
 0001:001144de       _SetConsoleOutputCP@4      005154de f   kernel32:KERNEL32.dll
 0001:001144e4       _SetConsoleCtrlHandler@8   005154e4 f   kernel32:KERNEL32.dll
 0001:001144ea       _GetConsoleMode@8          005154ea f   kernel32:KERNEL32.dll
 0001:001144f0       _SetConsoleMode@8          005154f0 f   kernel32:KERNEL32.dll
 0001:001144f6       _WriteConsoleW@20          005154f6 f   kernel32:KERNEL32.dll
 0001:001144fc       _SetConsoleTextAttribute@8 005154fc f   kernel32:KERNEL32.dll
 0001:00114502       _GetConsoleCursorInfo@8    00515502 f   kernel32:KERNEL32.dll
 0001:00114508       _SetConsoleCursorInfo@8    00515508 f   kernel32:KERNEL32.dll
 0001:0011450e       _FlushConsoleInputBuffer@4 0051550e f   kernel32:KERNEL32.dll
 0001:00114514       _GetNumberOfConsoleInputEvents@8 00515514 f   kernel32:KERNEL32.dll
 0001:0011451a       _GetConsoleAliasW@16       0051551a f   kernel32:KERNEL32.dll
 0001:00114520       _GetConsoleDisplayMode@4   00515520 f   kernel32:KERNEL32.dll
 0001:00114526       _GetLargestConsoleWindowSize@4 00515526 f   kernel32:KERNEL32.dll
 0001:0011452c       _SetConsoleActiveScreenBuffer@4 0051552c f   kernel32:KERNEL32.dll
 0001:00114532       _ScrollConsoleScreenBufferW@20 00515532 f   kernel32:KERNEL32.dll
 0001:00114538       _SetConsoleScreenBufferSize@8 00515538 f   kernel32:KERNEL32.dll
 0001:0011453e       _GetLastError@0            0051553e f   kernel32:KERNEL32.dll
 0001:00114544       _GetConsoleTitleW@8        00515544 f   kernel32:KERNEL32.dll
 0001:0011454a       _PeekConsoleInputW@16      0051554a f   kernel32:KERNEL32.dll
 0001:00114550       _ReadConsoleInputW@16      00515550 f   kernel32:KERNEL32.dll
 0001:00114556       _WriteConsoleInputW@16     00515556 f   kernel32:KERNEL32.dll
 0001:0011455c       _ReadConsoleOutputW@20     0051555c f   kernel32:KERNEL32.dll
 0001:00114562       _WriteConsoleOutputW@20    00515562 f   kernel32:KERNEL32.dll
 0001:00114568       _SetConsoleCursorPosition@8 00515568 f   kernel32:KERNEL32.dll
 0001:0011456e       _FillConsoleOutputAttribute@20 0051556e f   kernel32:KERNEL32.dll
 0001:00114574       _FillConsoleOutputCharacterW@20 00515574 f   kernel32:KERNEL32.dll
 0001:0011457a       _InitializeCriticalSection@4 0051557a f   kernel32:KERNEL32.dll
 0001:00114580       _DeleteCriticalSection@4   00515580 f   kernel32:KERNEL32.dll
 0001:00114586       _EnterCriticalSection@4    00515586 f   kernel32:KERNEL32.dll
 0001:0011458c       _LeaveCriticalSection@4    0051558c f   kernel32:KERNEL32.dll
 0001:00114592       _GetTickCount@0            00515592 f   kernel32:KERNEL32.dll
 0001:00114598       _SetThreadExecutionState@4 00515598 f   kernel32:KERNEL32.dll
 0001:0011459e       _CloseHandle@4             0051559e f   kernel32:KERNEL32.dll
 0001:001145a4       _GetShortPathNameW@12      005155a4 f   kernel32:KERNEL32.dll
 0001:001145aa       _GetLongPathNameW@12       005155aa f   kernel32:KERNEL32.dll
 0001:001145b0       _GetCalendarInfoW@24       005155b0 f   kernel32:KERNEL32.dll
 0001:001145b6       _GetLocaleInfoW@16         005155b6 f   kernel32:KERNEL32.dll
 0001:001145bc       _LocalFileTimeToFileTime@8 005155bc f   kernel32:KERNEL32.dll
 0001:001145c2       _SystemTimeToFileTime@8    005155c2 f   kernel32:KERNEL32.dll
 0001:001145c8       _FileTimeToSystemTime@8    005155c8 f   kernel32:KERNEL32.dll
 0001:001145ce       _FileTimeToLocalFileTime@8 005155ce f   kernel32:KERNEL32.dll
 0001:001145d4       _GetLocalTime@4            005155d4 f   kernel32:KERNEL32.dll
 0001:001145da       _Sleep@4                   005155da f   kernel32:KERNEL32.dll
 0001:001145e0       _GetCurrentThreadId@0      005155e0 f   kernel32:KERNEL32.dll
 0001:001145e6       _InterlockedDecrement@4    005155e6 f   kernel32:KERNEL32.dll
 0001:001145ec       _InterlockedIncrement@4    005155ec f   kernel32:KERNEL32.dll
 0001:001145f2       _GetDiskFreeSpaceW@20      005155f2 f   kernel32:KERNEL32.dll
 0001:001145f8       _SetEnvironmentVariableW@8 005155f8 f   kernel32:KERNEL32.dll
 0001:001145fe       _WideCharToMultiByte@32    005155fe f   kernel32:KERNEL32.dll
 0001:00114604       _GetLogicalDrives@0        00515604 f   kernel32:KERNEL32.dll
 0001:0011460a       _CreateEventW@16           0051560a f   kernel32:KERNEL32.dll
 0001:00114610       _SetEvent@4                00515610 f   kernel32:KERNEL32.dll
 0001:00114616       _WaitForSingleObject@8     00515616 f   kernel32:KERNEL32.dll
 0001:0011461c       _ReadFile@20               0051561c f   kernel32:KERNEL32.dll
 0001:00114622       _WriteFile@20              00515622 f   kernel32:KERNEL32.dll
 0001:00114628       _CreateDirectoryW@8        00515628 f   kernel32:KERNEL32.dll
 0001:0011462e       _CreateDirectoryExW@12     0051562e f   kernel32:KERNEL32.dll
 0001:00114634       _RemoveDirectoryW@4        00515634 f   kernel32:KERNEL32.dll
 0001:0011463a       _DeleteFileW@4             0051563a f   kernel32:KERNEL32.dll
 0001:00114640       _CopyFileExW@24            00515640 f   kernel32:KERNEL32.dll
 0001:00114646       _MoveFileExW@12            00515646 f   kernel32:KERNEL32.dll
 0001:0011464c       _GetFileAttributesW@4      0051564c f   kernel32:KERNEL32.dll
 0001:00114652       _SetFileAttributesW@8      00515652 f   kernel32:KERNEL32.dll
 0001:00114658       _CreateHardLinkW@12        00515658 f   kernel32:KERNEL32.dll
 0001:0011465e       _DuplicateHandle@28        0051565e f   kernel32:KERNEL32.dll
 0001:00114664       _GetCurrentProcess@0       00515664 f   kernel32:KERNEL32.dll
 0001:0011466a       _OpenProcess@12            0051566a f   kernel32:KERNEL32.dll
 0001:00114670       _DisconnectNamedPipe@4     00515670 f   kernel32:KERNEL32.dll
 0001:00114676       _GetCurrentProcessId@0     00515676 f   kernel32:KERNEL32.dll
 0001:0011467c       _CreateFileW@28            0051567c f   kernel32:KERNEL32.dll
 0001:00114682       _WaitNamedPipeW@8          00515682 f   kernel32:KERNEL32.dll
 0001:00114688       _SetErrorMode@4            00515688 f   kernel32:KERNEL32.dll
 0001:0011468e       _TerminateProcess@8        0051568e f   kernel32:KERNEL32.dll
 0001:00114694       _GetOverlappedResult@16    00515694 f   kernel32:KERNEL32.dll
 0001:0011469a       _ConnectNamedPipe@8        0051569a f   kernel32:KERNEL32.dll
 0001:001146a0       _LocalFree@4               005156a0 f   kernel32:KERNEL32.dll
 0001:001146a6       _CreateNamedPipeW@32       005156a6 f   kernel32:KERNEL32.dll
 0001:001146ac       _LocalAlloc@8              005156ac f   kernel32:KERNEL32.dll
 0001:001146b2       _SetCurrentDirectoryW@4    005156b2 f   kernel32:KERNEL32.dll
 0001:001146b8       _FreeLibrary@4             005156b8 f   kernel32:KERNEL32.dll
 0001:001146be       _GetProcAddress@8          005156be f   kernel32:KERNEL32.dll
 0001:001146c4       _LoadLibraryW@4            005156c4 f   kernel32:KERNEL32.dll
 0001:001146ca       _SetFilePointerEx@20       005156ca f   kernel32:KERNEL32.dll
 0001:001146d0       _SetEndOfFile@4            005156d0 f   kernel32:KERNEL32.dll
 0001:001146d6       _FlushFileBuffers@4        005156d6 f   kernel32:KERNEL32.dll
 0001:001146dc       _GetFileInformationByHandle@8 005156dc f   kernel32:KERNEL32.dll
 0001:001146e2       _DeviceIoControl@32        005156e2 f   kernel32:KERNEL32.dll
 0001:001146e8       _GetVolumeInformationW@32  005156e8 f   kernel32:KERNEL32.dll
 0001:001146ee       _GetFileSizeEx@8           005156ee f   kernel32:KERNEL32.dll
 0001:001146f4       _FindClose@4               005156f4 f   kernel32:KERNEL32.dll
 0001:001146fa       _GetLogicalDriveStringsW@8 005156fa f   kernel32:KERNEL32.dll
 0001:00114700       _SearchPathW@24            00515700 f   kernel32:KERNEL32.dll
 0001:00114706       _QueryDosDeviceW@12        00515706 f   kernel32:KERNEL32.dll
 0001:0011470c       _GetProcessHeaps@8         0051570c f   kernel32:KERNEL32.dll
 0001:00114712       _GetEnvironmentVariableW@12 00515712 f   kernel32:KERNEL32.dll
 0001:00114718       _GetTempPathW@8            00515718 f   kernel32:KERNEL32.dll
 0001:0011471e       _GetModuleFileNameW@12     0051571e f   kernel32:KERNEL32.dll
 0001:00114724       _MoveFileW@8               00515724 f   kernel32:KERNEL32.dll
 0001:0011472a       _ExpandEnvironmentStringsW@12 0051572a f   kernel32:KERNEL32.dll
 0001:00114730       _GetFileType@4             00515730 f   kernel32:KERNEL32.dll
 0001:00114736       _GetDiskFreeSpaceExW@16    00515736 f   kernel32:KERNEL32.dll
 0001:0011473c       _GetCompressedFileSizeW@8  0051573c f   kernel32:KERNEL32.dll
 0001:00114742       _FindVolumeClose@4         00515742 f   kernel32:KERNEL32.dll
 0001:00114748       _FindNextVolumeW@12        00515748 f   kernel32:KERNEL32.dll
 0001:0011474e       _FindFirstVolumeW@8        0051574e f   kernel32:KERNEL32.dll
 0001:00114754       _GetVolumeNameForVolumeMountPointW@12 00515754 f   kernel32:KERNEL32.dll
 0001:0011475a       _GetCurrentDirectoryW@8    0051575a f   kernel32:KERNEL32.dll
 0001:00114760       _GetSystemTime@4           00515760 f   kernel32:KERNEL32.dll
 0001:00114766       _GetSystemTimeAsFileTime@4 00515766 f   kernel32:KERNEL32.dll
 0001:0011476c       _FileTimeToDosDateTime@12  0051576c f   kernel32:KERNEL32.dll
 0001:00114772       _ResetEvent@4              00515772 f   kernel32:KERNEL32.dll
 0001:00114778       _LCMapStringW@24           00515778 f   kernel32:KERNEL32.dll
 0001:0011477e       _CreateThread@24           0051577e f   kernel32:KERNEL32.dll
 0001:00114784       _SetVolumeMountPointW@8    00515784 f   kernel32:KERNEL32.dll
 0001:0011478a       _DefineDosDeviceW@12       0051578a f   kernel32:KERNEL32.dll
 0001:00114790       _FindCloseChangeNotification@4 00515790 f   kernel32:KERNEL32.dll
 0001:00114796       _FindFirstChangeNotificationW@12 00515796 f   kernel32:KERNEL32.dll
 0001:0011479c       _CreateProcessW@40         0051579c f   kernel32:KERNEL32.dll
 0001:001147a2       _WriteProcessMemory@20     005157a2 f   kernel32:KERNEL32.dll
 0001:001147a8       _VirtualProtect@16         005157a8 f   kernel32:KERNEL32.dll
 0001:001147ae       _GetModuleHandleW@4        005157ae f   kernel32:KERNEL32.dll
 0001:001147b4       _GlobalMemoryStatusEx@4    005157b4 f   kernel32:KERNEL32.dll
 0001:001147ba       _GetComputerNameW@8        005157ba f   kernel32:KERNEL32.dll
 0001:001147c0       _GetComputerNameExW@12     005157c0 f   kernel32:KERNEL32.dll
 0001:001147c6       _ExitThread@4              005157c6 f   kernel32:KERNEL32.dll
 0001:001147cc       _CompareStringA@24         005157cc f   kernel32:KERNEL32.dll
 0001:001147d2       _QueryPerformanceCounter@4 005157d2 f   kernel32:KERNEL32.dll
 0001:001147d8       _QueryPerformanceFrequency@4 005157d8 f   kernel32:KERNEL32.dll
 0001:001147de       _GetSystemInfo@4           005157de f   kernel32:KERNEL32.dll
 0001:001147e4       _IsDebuggerPresent@0       005157e4 f   kernel32:KERNEL32.dll
 0001:001147ea       _GetVersionExW@4           005157ea f   kernel32:KERNEL32.dll
 0001:001147f0       _FormatMessageW@28         005157f0 f   kernel32:KERNEL32.dll
 0001:001147f6       _GetTempFileNameW@16       005157f6 f   kernel32:KERNEL32.dll
 0001:001147fc       _OutputDebugStringW@4      005157fc f   kernel32:KERNEL32.dll
 0001:00114802       _SetFileApisToOEM@0        00515802 f   kernel32:KERNEL32.dll
 0001:00114808       _SetFileApisToANSI@0       00515808 f   kernel32:KERNEL32.dll
 0001:0011480e       _LoadLibraryExW@12         0051580e f   kernel32:KERNEL32.dll
 0001:00114814       _UnmapViewOfFile@4         00515814 f   kernel32:KERNEL32.dll
 0001:0011481a       _MapViewOfFile@20          0051581a f   kernel32:KERNEL32.dll
 0001:00114820       _CreateFileMappingW@24     00515820 f   kernel32:KERNEL32.dll
 0001:00114826       _CompareFileTime@8         00515826 f   kernel32:KERNEL32.dll
 0001:0011482c       _GetNumberFormatW@24       0051582c f   kernel32:KERNEL32.dll
 0001:00114832       _CreateMutexW@12           00515832 f   kernel32:KERNEL32.dll
 0001:00114838       _ReleaseMutex@4            00515838 f   kernel32:KERNEL32.dll
 0001:0011483e       _SetStdHandle@8            0051583e f   kernel32:KERNEL32.dll
 0001:00114844       _OpenClipboard@4           00515844 f   user32:USER32.dll
 0001:0011484a       _CloseClipboard@0          0051584a f   user32:USER32.dll
 0001:00114850       _EmptyClipboard@0          00515850 f   user32:USER32.dll
 0001:00114856       _GetClipboardData@4        00515856 f   user32:USER32.dll
 0001:0011485c       _SetClipboardData@8        0051585c f   user32:USER32.dll
 0001:00114862       _IsClipboardFormatAvailable@4 00515862 f   user32:USER32.dll
 0001:00114868       _RegisterClipboardFormatW@4 00515868 f   user32:USER32.dll
 0001:0011486e       _CharUpperBuffW@8          0051586e f   user32:USER32.dll
 0001:00114874       _GetKeyboardLayoutList@8   00515874 f   user32:USER32.dll
 0001:0011487a       _IsCharAlphaW@4            0051587a f   user32:USER32.dll
 0001:00114880       _IsIconic@4                00515880 f   user32:USER32.dll
 0001:00114886       _IsZoomed@4                00515886 f   user32:USER32.dll
 0001:0011488c       _CharUpperW@4              0051588c f   user32:USER32.dll
 0001:00114892       _MessageBeep@4             00515892 f   user32:USER32.dll
 0001:00114898       _GetDoubleClickTime@0      00515898 f   user32:USER32.dll
 0001:0011489e       _WaitForInputIdle@8        0051589e f   user32:USER32.dll
 0001:001148a4       _CopyIcon@4                005158a4 f   user32:USER32.dll
 0001:001148aa       _SendMessageW@16           005158aa f   user32:USER32.dll
 0001:001148b0       _IsCharAlphaNumericW@4     005158b0 f   user32:USER32.dll
 0001:001148b6       _CharLowerBuffW@8          005158b6 f   user32:USER32.dll
 0001:001148bc       _IsCharLowerW@4            005158bc f   user32:USER32.dll
 0001:001148c2       _keybd_event@16            005158c2 f   user32:USER32.dll
 0001:001148c8       _GetKeyState@4             005158c8 f   user32:USER32.dll
 0001:001148ce       _MapVirtualKeyW@8          005158ce f   user32:USER32.dll
 0001:001148d4       _VkKeyScanW@4              005158d4 f   user32:USER32.dll
 0001:001148da       _ToUnicodeEx@28            005158da f   user32:USER32.dll
 0001:001148e0       _CharLowerA@4              005158e0 f   user32:USER32.dll
 0001:001148e6       _IsCharUpperA@4            005158e6 f   user32:USER32.dll
 0001:001148ec       _IsCharLowerA@4            005158ec f   user32:USER32.dll
 0001:001148f2       _IsCharAlphaA@4            005158f2 f   user32:USER32.dll
 0001:001148f8       _OemToCharA@8              005158f8 f   user32:USER32.dll
 0001:001148fe       _CharToOemA@8              005158fe f   user32:USER32.dll
 0001:00114904       _CharUpperA@4              00515904 f   user32:USER32.dll
 0001:0011490a       _OemToCharBuffA@12         0051590a f   user32:USER32.dll
 0001:00114910       _IsCharAlphaNumericA@4     00515910 f   user32:USER32.dll
 0001:00114916       _PostMessageW@16           00515916 f   user32:USER32.dll
 0001:0011491c       _wsprintfW                 0051591c f   user32:USER32.dll
 0001:00114922       _GetWindowTextW@12         00515922 f   user32:USER32.dll
 0001:00114928       _GetWindowTextLengthW@4    00515928 f   user32:USER32.dll
 0001:0011492e       _GetWindowLongW@8          0051592e f   user32:USER32.dll
 0001:00114934       _IsWindowVisible@4         00515934 f   user32:USER32.dll
 0001:0011493a       _ShowWindowAsync@8         0051593a f   user32:USER32.dll
 0001:00114940       _GetWindowPlacement@8      00515940 f   user32:USER32.dll
 0001:00114946       _SetForegroundWindow@4     00515946 f   user32:USER32.dll
 0001:0011494c       _SystemParametersInfoW@16  0051594c f   user32:USER32.dll
 0001:00114952       _GetWindowThreadProcessId@8 00515952 f   user32:USER32.dll
 0001:00114958       _EnumWindows@8             00515958 f   user32:USER32.dll
 0001:0011495e       _IsCharUpperW@4            0051595e f   user32:USER32.dll
 0001:00114964       _CharToOemBuffW@12         00515964 f   user32:USER32.dll
 0001:0011496a       _CharLowerW@4              0051596a f   user32:USER32.dll
 0001:00114970       _FlashWindowEx@4           00515970 f   user32:USER32.dll
 0001:00114976       _GetWindowInfo@8           00515976 f   user32:USER32.dll
 0001:0011497c       _PostQuitMessage@4         0051597c f   user32:USER32.dll
 0001:00114982       _DefWindowProcW@16         00515982 f   user32:USER32.dll
 0001:00114988       _DestroyWindow@4           00515988 f   user32:USER32.dll
 0001:0011498e       _TranslateMessage@4        0051598e f   user32:USER32.dll
 0001:00114994       _DispatchMessageW@4        00515994 f   user32:USER32.dll
 0001:0011499a       _GetMessageW@16            0051599a f   user32:USER32.dll
 0001:001149a0       _CreateWindowExW@48        005159a0 f   user32:USER32.dll
 0001:001149a6       _RegisterClassExW@4        005159a6 f   user32:USER32.dll
 0001:001149ac       _UnregisterClassW@8        005159ac f   user32:USER32.dll
 0001:001149b2       _GetDefaultPrinterW@8      005159b2 f   winspool:WINSPOOL.DRV
 0001:001149b8       _ClosePrinter@4            005159b8 f   winspool:WINSPOOL.DRV
 0001:001149be       _EndDocPrinter@4           005159be f   winspool:WINSPOOL.DRV
 0001:001149c4       _WritePrinter@16           005159c4 f   winspool:WINSPOOL.DRV
 0001:001149ca       _StartDocPrinterW@12       005159ca f   winspool:WINSPOOL.DRV
 0001:001149d0       _OpenPrinterW@12           005159d0 f   winspool:WINSPOOL.DRV
 0001:001149d6       _EnumPrintersW@28          005159d6 f   winspool:WINSPOOL.DRV
 0001:001149dc       _SetFileSecurityW@12       005159dc f   advapi32:ADVAPI32.dll
 0001:001149e2       _GetFileSecurityW@20       005159e2 f   advapi32:ADVAPI32.dll
 0001:001149e8       _RegCloseKey@4             005159e8 f   advapi32:ADVAPI32.dll
 0001:001149ee       _RegQueryValueExW@24       005159ee f   advapi32:ADVAPI32.dll
 0001:001149f4       _RegOpenKeyExW@20          005159f4 f   advapi32:ADVAPI32.dll
 0001:001149fa       _FreeSid@4                 005159fa f   advapi32:ADVAPI32.dll
 0001:00114a00       _CheckTokenMembership@12   00515a00 f   advapi32:ADVAPI32.dll
 0001:00114a06       _AllocateAndInitializeSid@44 00515a06 f   advapi32:ADVAPI32.dll
 0001:00114a0c       _SetSecurityDescriptorDacl@16 00515a0c f   advapi32:ADVAPI32.dll
 0001:00114a12       _SetEntriesInAclW@16       00515a12 f   advapi32:ADVAPI32.dll
 0001:00114a18       _InitializeSecurityDescriptor@8 00515a18 f   advapi32:ADVAPI32.dll
 0001:00114a1e       _RegOpenKeyW@12            00515a1e f   advapi32:ADVAPI32.dll
 0001:00114a24       _RegEnumValueW@32          00515a24 f   advapi32:ADVAPI32.dll
 0001:00114a2a       _RegEnumKeyExW@32          00515a2a f   advapi32:ADVAPI32.dll
 0001:00114a30       _DecryptFileW@8            00515a30 f   advapi32:ADVAPI32.dll
 0001:00114a36       _EncryptFileW@4            00515a36 f   advapi32:ADVAPI32.dll
 0001:00114a3c       _SetNamedSecurityInfoW@28  00515a3c f   advapi32:ADVAPI32.dll
 0001:00114a42       _LookupAccountNameW@28     00515a42 f   advapi32:ADVAPI32.dll
 0001:00114a48       _LookupAccountSidW@28      00515a48 f   advapi32:ADVAPI32.dll
 0001:00114a4e       _CopySid@12                00515a4e f   advapi32:ADVAPI32.dll
 0001:00114a54       _GetLengthSid@4            00515a54 f   advapi32:ADVAPI32.dll
 0001:00114a5a       _EqualSid@8                00515a5a f   advapi32:ADVAPI32.dll
 0001:00114a60       _IsValidSid@4              00515a60 f   advapi32:ADVAPI32.dll
 0001:00114a66       _GetSecurityDescriptorOwner@12 00515a66 f   advapi32:ADVAPI32.dll
 0001:00114a6c       _IsTextUnicode@12          00515a6c f   advapi32:ADVAPI32.dll
 0001:00114a72       _RegSetValueExW@24         00515a72 f   advapi32:ADVAPI32.dll
 0001:00114a78       _GetUserNameW@8            00515a78 f   advapi32:ADVAPI32.dll
 0001:00114a7e       _AdjustTokenPrivileges@24  00515a7e f   advapi32:ADVAPI32.dll
 0001:00114a84       _LookupPrivilegeValueW@12  00515a84 f   advapi32:ADVAPI32.dll
 0001:00114a8a       _OpenProcessToken@12       00515a8a f   advapi32:ADVAPI32.dll
 0001:00114a90       _GetTokenInformation@20    00515a90 f   advapi32:ADVAPI32.dll
 0001:00114a96       _RegDeleteKeyW@8           00515a96 f   advapi32:ADVAPI32.dll
 0001:00114a9c       _RegDeleteValueW@8         00515a9c f   advapi32:ADVAPI32.dll
 0001:00114aa2       _RegCreateKeyExW@36        00515aa2 f   advapi32:ADVAPI32.dll
 0001:00114aa8       _SHFileOperationW@4        00515aa8 f   shell32:SHELL32.dll
 0001:00114aae       _ShellExecuteExW@4         00515aae f   shell32:SHELL32.dll
 0001:00114ab4       _ExtractIconExW@20         00515ab4 f   shell32:SHELL32.dll
 0001:00114aba       _ShellExecuteW@24          00515aba f   shell32:SHELL32.dll
 0001:00114ac0       _CoCreateGuid@4            00515ac0 f   ole32:ole32.dll
 0001:00114ac6       _CoTaskMemFree@4           00515ac6 f   ole32:ole32.dll
 0001:00114acc       _CoUninitialize@0          00515acc f   ole32:ole32.dll
 0001:00114ad2       _CoCreateInstance@20       00515ad2 f   ole32:ole32.dll
 0001:00114ad8       _CoInitializeEx@8          00515ad8 f   ole32:ole32.dll
 0001:00114ade       ?_New_handler_interface@std@@YAHI@Z 00515ade f   libcpmt:stdhndlr.obj
 0001:00114ae8       ?set_new_handler@std@@YAP6AXXZP6AXXZ@Z 00515ae8 f   libcpmt:stdhndlr.obj
 0001:00114b24       ?set_new_handler@std@@YAP6AXXZH@Z 00515b24 f   libcpmt:stdhndlr.obj
 0001:00114b2d       ??0_Init_locks@std@@QAE@XZ 00515b2d f   libcpmt:xlock.obj
 0001:00114b5e       ??1_Init_locks@std@@QAE@XZ 00515b5e f   libcpmt:xlock.obj
 0001:00114b87       ?_Init_locks_ctor@_Init_locks@std@@CAXPAV12@@Z 00515b87 f   libcpmt:xlock.obj
 0001:00114bb0       ?_Init_locks_dtor@_Init_locks@std@@CAXPAV12@@Z 00515bb0 f   libcpmt:xlock.obj
 0001:00114bd9       ??0_Lockit@std@@QAE@XZ     00515bd9 f   libcpmt:xlock.obj
 0001:00114bf0       ??0_Lockit@std@@QAE@H@Z    00515bf0 f   libcpmt:xlock.obj
 0001:00114c18       ??1_Lockit@std@@QAE@XZ     00515c18 f   libcpmt:xlock.obj
 0001:00114c2f       ?_Lockit_ctor@_Lockit@std@@CAXPAV12@@Z 00515c2f f   libcpmt:xlock.obj
 0001:00114c3b       ?_Lockit_ctor@_Lockit@std@@CAXPAV12@H@Z 00515c3b f   libcpmt:xlock.obj
 0001:00114c5c       ?_Lockit_dtor@_Lockit@std@@CAXPAV12@@Z 00515c5c f   libcpmt:xlock.obj
 0001:00114c77       ?_Lockit_ctor@_Lockit@std@@SAXH@Z 00515c77 f   libcpmt:xlock.obj
 0001:00114c93       ?_Lockit_dtor@_Lockit@std@@SAXH@Z 00515c93 f   libcpmt:xlock.obj
 0001:00114caf       __Once                     00515caf f   libcpmt:xmtx.obj
 0001:00114cea       __Mtxinit                  00515cea f   libcpmt:xmtx.obj
 0001:00114cfa       __Mtxdst                   00515cfa f   libcpmt:xmtx.obj
 0001:00114d0a       __Mtxlock                  00515d0a f   libcpmt:xmtx.obj
 0001:00114d1a       __Mtxunlock                00515d1a f   libcpmt:xmtx.obj
 0001:00114d30       __allrem                   00515d30 f   LIBCMT:llrem.obj
 0001:00114df0       _memcpy                    00515df0 f   LIBCMT:memcpy.obj
 0001:00115160       _memset                    00516160 f   LIBCMT:memset.obj
 0001:001151e0       _strstr                    005161e0 f   LIBCMT:strstr.obj
 0001:00115270       __chkstk                   00516270 f   LIBCMT:chkstk.obj
 0001:00115270       __alloca_probe             00516270     LIBCMT:chkstk.obj
 0001:0011529b       _wcschr                    0051629b f   LIBCMT:wcschr.obj
 0001:001152c1       __purecall                 005162c1 f   LIBCMT:purevirt.obj
 0001:001152eb       __set_purecall_handler     005162eb f   LIBCMT:purevirt.obj
 0001:00115312       __get_purecall_handler     00516312 f   LIBCMT:purevirt.obj
 0001:0011531f       __wtol                     0051631f f   LIBCMT:wtox.obj
 0001:00115335       __wtol_l                   00516335 f   LIBCMT:wtox.obj
 0001:0011534e       __wtoi                     0051634e f   LIBCMT:wtox.obj
 0001:00115359       __wtoi_l                   00516359 f   LIBCMT:wtox.obj
 0001:00115364       __wtoi64                   00516364 f   LIBCMT:wtox.obj
 0001:0011537a       __wtoi64_l                 0051637a f   LIBCMT:wtox.obj
 0001:00115393       ??0_LocaleUpdate@@QAE@PAUlocaleinfo_struct@@@Z 00516393 f i LIBCMT:wcstol.obj
 0001:0011541a       ??1_LocaleUpdate@@QAE@XZ   0051641a f i LIBCMT:wcstol.obj
 0001:00115428       ?GetLocaleT@_LocaleUpdate@@QAEPAUlocaleinfo_struct@@XZ 00516428 f i LIBCMT:wcstol.obj
 0001:00115625       _wcstol                    00516625 f   LIBCMT:wcstol.obj
 0001:00115650       __wcstol_l                 00516650 f   LIBCMT:wcstol.obj
 0001:0011566d       _wcstoul                   0051666d f   LIBCMT:wcstol.obj
 0001:00115699       __wcstoul_l                00516699 f   LIBCMT:wcstol.obj
 0001:00115770       ___onexitinit              00516770 f   LIBCMT:onexit.obj
 0001:001157a1       __onexit                   005167a1 f   LIBCMT:onexit.obj
 0001:001157dd       _atexit                    005167dd f   LIBCMT:onexit.obj
 0001:001157f4       __vsnwprintf_l             005167f4 f   LIBCMT:vsnwprnt.obj
 0001:001158c8       __vsnwprintf               005168c8 f   LIBCMT:vsnwprnt.obj
 0001:001158e5       _clock                     005168e5 f   LIBCMT:clock.obj
 0001:0011592a       ___inittime                0051692a f   LIBCMT:clock.obj
 0001:00115970       __allmul                   00516970 f   LIBCMT:llmul.obj
 0001:001159b0       __aulldiv                  005169b0 f   LIBCMT:ulldiv.obj
 0001:00115a6c       __itow                     00516a6c f   LIBCMT:xtow.obj
 0001:00115a96       __ltow                     00516a96 f   LIBCMT:xtow.obj
 0001:00115abd       __ultow                    00516abd f   LIBCMT:xtow.obj
 0001:00115b56       __i64tow                   00516b56 f   LIBCMT:xtow.obj
 0001:00115b89       __ui64tow                  00516b89 f   LIBCMT:xtow.obj
 0001:00115ba6       _wcspbrk                   00516ba6 f   LIBCMT:wcspbrk.obj
 0001:00115bf0       _memmove                   00516bf0 f   LIBCMT:memmove.obj
 0001:00115f55       __invoke_watson_if_error   00516f55 f i LIBCMT:loctim64.obj
 0001:00115f79       __localtime64_s            00516f79 f   LIBCMT:loctim64.obj
 0001:00116231       __localtime64              00517231 f   LIBCMT:loctim64.obj
 0001:00116258       __time64                   00517258 f   LIBCMT:time64.obj
 0001:001162a9       __get_daylight             005172a9 f   LIBCMT:timeset.obj
 0001:001162e2       __get_dstbias              005172e2 f   LIBCMT:timeset.obj
 0001:0011631b       __get_timezone             0051731b f   LIBCMT:timeset.obj
 0001:00116354       __get_tzname               00517354 f   LIBCMT:timeset.obj
 0001:001163f8       ___daylight                005173f8 f   LIBCMT:timeset.obj
 0001:001163fe       ___dstbias                 005173fe f   LIBCMT:timeset.obj
 0001:00116404       ___timezone                00517404 f   LIBCMT:timeset.obj
 0001:0011640a       ___tzname                  0051740a f   LIBCMT:timeset.obj
 0001:00116410       __set_daylight             00517410 f i LIBCMT:tzset.obj
 0001:00116421       __set_dstbias              00517421 f i LIBCMT:tzset.obj
 0001:00116432       __set_timezone             00517432 f i LIBCMT:tzset.obj
 0001:00116b58       ___tzset                   00517b58 f   LIBCMT:tzset.obj
 0001:00116ba7       __tzset                    00517ba7 f   LIBCMT:tzset.obj
 0001:00116bdf       __isindst                  00517bdf f   LIBCMT:tzset.obj
 0001:00116c20       __isleadbyte_l             00517c20 f i LIBCMT:_wctype.obj
 0001:00116c58       _isleadbyte                00517c58 f i LIBCMT:_wctype.obj
 0001:00116c6b       __iswalpha_l               00517c6b f i LIBCMT:_wctype.obj
 0001:00116c85       _iswalpha                  00517c85 f i LIBCMT:_wctype.obj
 0001:00116c9b       __iswupper_l               00517c9b f i LIBCMT:_wctype.obj
 0001:00116cb2       _iswupper                  00517cb2 f i LIBCMT:_wctype.obj
 0001:00116cc5       __iswlower_l               00517cc5 f i LIBCMT:_wctype.obj
 0001:00116cdc       _iswlower                  00517cdc f i LIBCMT:_wctype.obj
 0001:00116cef       __iswdigit_l               00517cef f i LIBCMT:_wctype.obj
 0001:00116d06       _iswdigit                  00517d06 f i LIBCMT:_wctype.obj
 0001:00116d19       __iswxdigit_l              00517d19 f i LIBCMT:_wctype.obj
 0001:00116d33       _iswxdigit                 00517d33 f i LIBCMT:_wctype.obj
 0001:00116d49       __iswspace_l               00517d49 f i LIBCMT:_wctype.obj
 0001:00116d60       _iswspace                  00517d60 f i LIBCMT:_wctype.obj
 0001:00116d73       __iswpunct_l               00517d73 f i LIBCMT:_wctype.obj
 0001:00116d8a       _iswpunct                  00517d8a f i LIBCMT:_wctype.obj
 0001:00116d9d       __iswalnum_l               00517d9d f i LIBCMT:_wctype.obj
 0001:00116db7       _iswalnum                  00517db7 f i LIBCMT:_wctype.obj
 0001:00116dcd       __iswprint_l               00517dcd f i LIBCMT:_wctype.obj
 0001:00116de7       _iswprint                  00517de7 f i LIBCMT:_wctype.obj
 0001:00116dfd       __iswgraph_l               00517dfd f i LIBCMT:_wctype.obj
 0001:00116e17       _iswgraph                  00517e17 f i LIBCMT:_wctype.obj
 0001:00116e2d       __iswcntrl_l               00517e2d f i LIBCMT:_wctype.obj
 0001:00116e44       _iswcntrl                  00517e44 f i LIBCMT:_wctype.obj
 0001:00116e57       _iswascii                  00517e57 f i LIBCMT:_wctype.obj
 0001:00116e6b       __iswcsym_l                00517e6b f i LIBCMT:_wctype.obj
 0001:00116e95       ___iswcsym                 00517e95 f i LIBCMT:_wctype.obj
 0001:00116ebb       __iswcsymf_l               00517ebb f i LIBCMT:_wctype.obj
 0001:00116ee5       ___iswcsymf                00517ee5 f i LIBCMT:_wctype.obj
 0001:00116f10       __aulldvrm                 00517f10 f   LIBCMT:ulldvrm.obj
 0001:00116fb0       __aullrem                  00517fb0 f   LIBCMT:ullrem.obj
 0001:00117025       _bsearch                   00518025 f   LIBCMT:bsearch.obj
 0001:001170e7       __snwprintf                005180e7 f   LIBCMT:snwprint.obj
 0001:001171ba       __snwprintf_l              005181ba f   LIBCMT:snwprint.obj
 0001:001171d9       _wcscspn                   005181d9 f   LIBCMT:wcscspn.obj
 0001:0011721e       _wcsrchr                   0051821e f   LIBCMT:wcsrchr.obj
 0001:0011724a       _V6_HeapAlloc              0051824a f   LIBCMT:malloc.obj
 0001:00117299       __heap_alloc               00518299 f i LIBCMT:malloc.obj
 0001:00117313       _malloc                    00518313 f   LIBCMT:malloc.obj
 0001:0011745c       __expand                   0051845c f   LIBCMT:expand.obj
 0001:0011759c       _realloc                   0051859c f   LIBCMT:realloc.obj
 0001:001177b7       _free                      005187b7 f   LIBCMT:free.obj
 0001:00117845       __ftelli64_nolock          00518845 f   LIBCMT:ftelli64.obj
 0001:00117b91       __ftelli64                 00518b91 f   LIBCMT:ftelli64.obj
 0001:00117bdb       __fseeki64_nolock          00518bdb f   LIBCMT:fseeki64.obj
 0001:00117c77       __fseeki64                 00518c77 f   LIBCMT:fseeki64.obj
 0001:00117cc6       __ftell_nolock             00518cc6 f   LIBCMT:ftell.obj
 0001:00117e63       _ftell                     00518e63 f   LIBCMT:ftell.obj
 0001:00117ed1       __fseek_nolock             00518ed1 f   LIBCMT:fseek.obj
 0001:00117f5b       _fseek                     00518f5b f   LIBCMT:fseek.obj
 0001:00117fe0       __alloca_probe_16          00518fe0 f   LIBCMT:alloca16.obj
 0001:00117ff6       __alloca_probe_8           00518ff6     LIBCMT:alloca16.obj
 0001:00118014       __except_handler3          00519014 f   LIBCMT:exsup3.obj
 0001:00118112       __seh_longjmp_unwind@4     00519112 f   LIBCMT:exsup3.obj
 0001:0011812d       __swab                     0051912d f   LIBCMT:swab.obj
 0001:00118183       __lfind                    00519183 f   LIBCMT:lfind.obj
 0001:00118224       __fclose_nolock            00519224 f   LIBCMT:fclose.obj
 0001:0011829b       _fclose                    0051929b f   LIBCMT:fclose.obj
 0001:00118317       __fread_nolock_s           00519317 f   LIBCMT:fread.obj
 0001:00118521       __fread_nolock             00519521 f   LIBCMT:fread.obj
 0001:0011853e       _fread_s                   0051953e f   LIBCMT:fread.obj
 0001:001185d4       _fread                     005195d4 f   LIBCMT:fread.obj
 0001:001185f1       _fgetws                    005195f1 f   LIBCMT:fgetws.obj
 0001:001186b2       _fgets                     005196b2 f   LIBCMT:fgets.obj
 0001:001187fa       _wcsncpy                   005197fa f   LIBCMT:wcsncpy.obj
 0001:00118888       __itoa                     00519888 f   LIBCMT:xtoa.obj
 0001:001188b2       __ltoa                     005198b2 f   LIBCMT:xtoa.obj
 0001:001188d9       __ultoa                    005198d9 f   LIBCMT:xtoa.obj
 0001:00118962       __i64toa                   00519962 f   LIBCMT:xtoa.obj
 0001:00118995       __ui64toa                  00519995 f   LIBCMT:xtoa.obj
 0001:001189b2       _wcsstr                    005199b2 f   LIBCMT:wcsstr.obj
 0001:00118a20       __isalpha_l                00519a20 f i LIBCMT:_ctype.obj
 0001:00118a76       _isalpha                   00519a76 f i LIBCMT:_ctype.obj
 0001:00118aa6       __isupper_l                00519aa6 f i LIBCMT:_ctype.obj
 0001:00118af7       _isupper                   00519af7 f i LIBCMT:_ctype.obj
 0001:00118b25       __islower_l                00519b25 f i LIBCMT:_ctype.obj
 0001:00118b76       _islower                   00519b76 f i LIBCMT:_ctype.obj
 0001:00118ba4       __isdigit_l                00519ba4 f i LIBCMT:_ctype.obj
 0001:00118bf5       _isdigit                   00519bf5 f i LIBCMT:_ctype.obj
 0001:00118c23       __isxdigit_l               00519c23 f i LIBCMT:_ctype.obj
 0001:00118c79       _isxdigit                  00519c79 f i LIBCMT:_ctype.obj
 0001:00118ca9       __isspace_l                00519ca9 f i LIBCMT:_ctype.obj
 0001:00118cfa       _isspace                   00519cfa f i LIBCMT:_ctype.obj
 0001:00118d28       __ispunct_l                00519d28 f i LIBCMT:_ctype.obj
 0001:00118d79       _ispunct                   00519d79 f i LIBCMT:_ctype.obj
 0001:00118da7       __isalnum_l                00519da7 f i LIBCMT:_ctype.obj
 0001:00118dfd       _isalnum                   00519dfd f i LIBCMT:_ctype.obj
 0001:00118e2d       __isprint_l                00519e2d f i LIBCMT:_ctype.obj
 0001:00118e83       _isprint                   00519e83 f i LIBCMT:_ctype.obj
 0001:00118eb3       __isgraph_l                00519eb3 f i LIBCMT:_ctype.obj
 0001:00118f09       _isgraph                   00519f09 f i LIBCMT:_ctype.obj
 0001:00118f39       __iscntrl_l                00519f39 f i LIBCMT:_ctype.obj
 0001:00118f8a       _iscntrl                   00519f8a f i LIBCMT:_ctype.obj
 0001:00118fb8       ___isascii                 00519fb8 f i LIBCMT:_ctype.obj
 0001:00118fca       ___toascii                 00519fca f i LIBCMT:_ctype.obj
 0001:00118fd7       __iscsymf_l                00519fd7 f i LIBCMT:_ctype.obj
 0001:00118ffa       ___iscsymf                 00519ffa f i LIBCMT:_ctype.obj
 0001:00119019       __iscsym_l                 0051a019 f i LIBCMT:_ctype.obj
 0001:0011903c       ___iscsym                  0051a03c f i LIBCMT:_ctype.obj
 0001:0011905d       __crt_waiting_on_module_handle 0051a05d f   LIBCMT:crt0dat.obj
 0001:0011908d       __amsg_exit                0051a08d f   LIBCMT:crt0dat.obj
 0001:001190b6       ___crtCorExitProcess       0051a0b6 f   LIBCMT:crt0dat.obj
 0001:001190e1       ___crtExitProcess          0051a0e1 f   LIBCMT:crt0dat.obj
 0001:001190f9       __lockexit                 0051a0f9 f   LIBCMT:crt0dat.obj
 0001:00119102       __unlockexit               0051a102 f   LIBCMT:crt0dat.obj
 0001:00119128       __initterm_e               0051a128 f   LIBCMT:crt0dat.obj
 0001:0011914c       __get_wpgmptr              0051a14c f   LIBCMT:crt0dat.obj
 0001:00119188       __get_pgmptr               0051a188 f   LIBCMT:crt0dat.obj
 0001:001191c4       __cinit                    0051a1c4 f   LIBCMT:crt0dat.obj
 0001:00119375       _exit                      0051a375 f   LIBCMT:crt0dat.obj
 0001:0011938b       __exit                     0051a38b f   LIBCMT:crt0dat.obj
 0001:001193a1       __cexit                    0051a3a1 f   LIBCMT:crt0dat.obj
 0001:001193b0       __c_exit                   0051a3b0 f   LIBCMT:crt0dat.obj
 0001:001193bf       __init_pointers            0051a3bf f   LIBCMT:crt0dat.obj
 0001:0011940d       __wfsopen                  0051a40d f   LIBCMT:wfopen.obj
 0001:001194d3       __wfopen                   0051a4d3 f   LIBCMT:wfopen.obj
 0001:001194ea       __wfopen_s                 0051a4ea f   LIBCMT:wfopen.obj
 0001:00119540       __alldiv                   0051a540 f   LIBCMT:lldiv.obj
 0001:001195ea       __fpclear                  0051a5ea f   LIBCMT:_fpinit_.obj
 0001:001195eb       __cfltcvt_init             0051a5eb f   LIBCMT:_fpinit_.obj
 0001:0011964b       ___setfflag                0051a64b f   LIBCMT:_fpinit_.obj
 0001:00119660       __fpmath                   0051a660 f   LIBCMT:_fpinit_.obj
 0001:00119937       __wcstoi64                 0051a937 f   LIBCMT:wcstoq.obj
 0001:00119962       __wcstoi64_l               0051a962 f   LIBCMT:wcstoq.obj
 0001:0011997f       __wcstoui64                0051a97f f   LIBCMT:wcstoq.obj
 0001:001199ab       __wcstoui64_l              0051a9ab f   LIBCMT:wcstoq.obj
 0001:001199c8       __wcstod_l                 0051a9c8 f   LIBCMT:wcstod.obj
 0001:00119acf       _wcstod                    0051aacf f   LIBCMT:wcstod.obj
 0001:00119ae6       _calloc                    0051aae6 f   LIBCMT:calloc.obj
 0001:00119b26       __wcsnicmp_l               0051ab26 f   LIBCMT:wcsnicmp.obj
 0001:00119c10       __wcsnicmp                 0051ac10 f   LIBCMT:wcsnicmp.obj
 0001:00119cd0       _strchr                    0051acd0 f   LIBCMT:strchr.obj
 0001:00119cd6       ___from_strstr_to_strchr   0051acd6     LIBCMT:strchr.obj
 0001:00119d8e       _strtok                    0051ad8e f   LIBCMT:strtok.obj
 0001:00119e4f       _atol                      0051ae4f f   LIBCMT:atox.obj
 0001:00119e65       __atol_l                   0051ae65 f   LIBCMT:atox.obj
 0001:00119e7e       _atoi                      0051ae7e f   LIBCMT:atox.obj
 0001:00119e89       __atoi_l                   0051ae89 f   LIBCMT:atox.obj
 0001:00119e94       __atoi64                   0051ae94 f   LIBCMT:atox.obj
 0001:00119eaa       __atoi64_l                 0051aeaa f   LIBCMT:atox.obj
 0001:00119ed0       __aullshr                  0051aed0 f   LIBCMT:ullshr.obj
 0001:00119f59       _sscanf                    0051af59 f   LIBCMT:sscanf.obj
 0001:00119f7b       __sscanf_l                 0051af7b f   LIBCMT:sscanf.obj
 0001:00119f9e       _sscanf_s                  0051af9e f   LIBCMT:sscanf.obj
 0001:00119fc0       __sscanf_s_l               0051afc0 f   LIBCMT:sscanf.obj
 0001:00119fe3       __snprintf                 0051afe3 f   LIBCMT:snprintf.obj
 0001:0011a092       __snprintf_l               0051b092 f   LIBCMT:snprintf.obj
 0001:0011a0b1       _sprintf                   0051b0b1 f   LIBCMT:sprintf.obj
 0001:0011a12e       __sprintf_l                0051b12e f   LIBCMT:sprintf.obj
 0001:0011a14a       _sprintf_s                 0051b14a f   LIBCMT:sprintf.obj
 0001:0011a168       __sprintf_s_l              0051b168 f   LIBCMT:sprintf.obj
 0001:0011a187       __snprintf_s               0051b187 f   LIBCMT:sprintf.obj
 0001:0011a1a8       __snprintf_s_l             0051b1a8 f   LIBCMT:sprintf.obj
 0001:0011a1ca       __sprintf_p                0051b1ca f   LIBCMT:sprintf.obj
 0001:0011a1e8       __sprintf_p_l              0051b1e8 f   LIBCMT:sprintf.obj
 0001:0011a207       __scprintf                 0051b207 f   LIBCMT:sprintf.obj
 0001:0011a21c       __scprintf_p               0051b21c f   LIBCMT:sprintf.obj
 0001:0011a231       __scprintf_l               0051b231 f   LIBCMT:sprintf.obj
 0001:0011a24a       __scprintf_p_l             0051b24a f   LIBCMT:sprintf.obj
 0001:0011a263       __vswprintf_l              0051b263 f   LIBCMT:vswprint.obj
 0001:0011a2fc       __vswprintf                0051b2fc f   LIBCMT:vswprint.obj
 0001:0011a316       ___vswprintf_l             0051b316 f   LIBCMT:vswprint.obj
 0001:0011a321       __vscwprintf_helper        0051b321 f   LIBCMT:vswprint.obj
 0001:0011a378       __vscwprintf               0051b378 f   LIBCMT:vswprint.obj
 0001:0011a394       __vscwprintf_l             0051b394 f   LIBCMT:vswprint.obj
 0001:0011a3b1       __vscwprintf_p             0051b3b1 f   LIBCMT:vswprint.obj
 0001:0011a3cd       __vscwprintf_p_l           0051b3cd f   LIBCMT:vswprint.obj
 0001:0011a45a       _swscanf                   0051b45a f   LIBCMT:swscanf.obj
 0001:0011a47c       __swscanf_l                0051b47c f   LIBCMT:swscanf.obj
 0001:0011a49f       _swscanf_s                 0051b49f f   LIBCMT:swscanf.obj
 0001:0011a4c1       __swscanf_s_l              0051b4c1 f   LIBCMT:swscanf.obj
 0001:0011a4e4       _srand                     0051b4e4 f   LIBCMT:rand.obj
 0001:0011a4f6       _rand                      0051b4f6 f   LIBCMT:rand.obj
 0001:0011a518       _wcsncat                   0051b518 f   LIBCMT:wcsncat.obj
 0001:0011a558       _clearerr_s                0051b558 f   LIBCMT:clearerr.obj
 0001:0011a605       _clearerr                  0051b605 f   LIBCMT:clearerr.obj
 0001:0011a610       _fwprintf                  0051b610 f   LIBCMT:fwprintf.obj
 0001:0011a6a4       __fwprintf_l               0051b6a4 f   LIBCMT:fwprintf.obj
 0001:0011a6c0       __fwprintf_s_l             0051b6c0 f   LIBCMT:fwprintf.obj
 0001:0011a6dc       _fwprintf_s                0051b6dc f   LIBCMT:fwprintf.obj
 0001:0011a6f7       __fwprintf_p_l             0051b6f7 f   LIBCMT:fwprintf.obj
 0001:0011a713       __fwprintf_p               0051b713 f   LIBCMT:fwprintf.obj
 0001:0011a730       __ftol2_sse                0051b730 f   LIBCMT:ftol2.obj
 0001:0011a739       __ftol2_pentium4           0051b739 f   LIBCMT:ftol2.obj
 0001:0011a74c       __ftol2_sse_excpt          0051b74c f   LIBCMT:ftol2.obj
 0001:0011a766       __ftol2                    0051b766 f   LIBCMT:ftol2.obj
 0001:0011a7e0       _fmod                      0051b7e0 f   LIBCMT:_87fmod_.obj
 0001:0011a7ea       __CIfmod                   0051b7ea f   LIBCMT:_87fmod_.obj
 0001:0011a820       __allshr                   0051b820 f   LIBCMT:llshr.obj
 0001:0011a850       __allshl                   0051b850 f   LIBCMT:llshl.obj
 0001:0011a870       _memchr                    0051b870 f   LIBCMT:memchr.obj
 0001:0011aade       _wmainCRTStartup           0051bade f   LIBCMT:wcrt0.obj
 0001:0011aae8       __initp_heap_handler       0051bae8 f   LIBCMT:handler.obj
 0001:0011aaf7       ?_set_new_handler@@YAP6AHI@ZP6AHI@Z@Z 0051baf7 f   LIBCMT:handler.obj
 0001:0011ab2d       ?_set_new_handler@@YAP6AHI@ZH@Z 0051bb2d f   LIBCMT:handler.obj
 0001:0011ab36       ?_query_new_handler@@YAP6AHI@ZXZ 0051bb36 f   LIBCMT:handler.obj
 0001:0011ab43       __callnewh                 0051bb43 f   LIBCMT:handler.obj
 0001:0011abf2       __VEC_memcpy               0051bbf2 f   LIBCMT:p4_memcpy.obj
 0001:0011ad25       __get_sse2_info            0051bd25 f   LIBCMT:cpu_disp.obj
 0001:0011ad87       ___sse2_available_init     0051bd87 f   LIBCMT:cpu_disp.obj
 0001:0011adeb       __VEC_memzero              0051bdeb f   LIBCMT:p4_memset.obj
 0001:0011ae7a       _abort                     0051be7a f   LIBCMT:abort.obj
 0001:0011af91       __set_abort_behavior       0051bf91 f   LIBCMT:abort.obj
 0001:0011afb2       __NMSG_WRITE               0051bfb2 f   LIBCMT:crt0msg.obj
 0001:0011b15d       __GET_RTERRMSG             0051c15d f   LIBCMT:crt0msg.obj
 0001:0011b183       __FF_MSGBANNER             0051c183 f   LIBCMT:crt0msg.obj
 0001:0011b1bc       __crt_wait_module_handle   0051c1bc f i LIBCMT:tidtable.obj
 0001:0011b1d6       __encode_pointer           0051c1d6 f   LIBCMT:tidtable.obj
 0001:0011b248       __encoded_null             0051c248 f   LIBCMT:tidtable.obj
 0001:0011b251       __decode_pointer           0051c251 f   LIBCMT:tidtable.obj
 0001:0011b2c3       ___crtTlsAlloc@4           0051c2c3 f   LIBCMT:tidtable.obj
 0001:0011b2cc       ___fls_getvalue@4          0051c2cc f   LIBCMT:tidtable.obj
 0001:0011b2e6       ___get_flsindex            0051c2e6 f   LIBCMT:tidtable.obj
 0001:0011b2ec       ___set_flsgetvalue         0051c2ec f   LIBCMT:tidtable.obj
 0001:0011b320       ___fls_setvalue@8          0051c320 f   LIBCMT:tidtable.obj
 0001:0011b33d       __mtterm                   0051c33d f   LIBCMT:tidtable.obj
 0001:0011b37a       __initptd                  0051c37a f   LIBCMT:tidtable.obj
 0001:0011b461       __getptd_noexit            0051c461 f   LIBCMT:tidtable.obj
 0001:0011b4da       __getptd                   0051c4da f   LIBCMT:tidtable.obj
 0001:0011b4f4       __freefls@4                0051c4f4 f   LIBCMT:tidtable.obj
 0001:0011b623       __freeptd                  0051c623 f   LIBCMT:tidtable.obj
 0001:0011b691       ___threadid                0051c691 f   LIBCMT:tidtable.obj
 0001:0011b697       ___threadhandle            0051c697 f   LIBCMT:tidtable.obj
 0001:0011b69d       __mtinit                   0051c69d f   LIBCMT:tidtable.obj
 0001:0011b82a       ___getlocaleinfo           0051c82a f   LIBCMT:inithelp.obj
 0001:0011b9a9       __initp_misc_purevirt      0051c9a9 f   LIBCMT:inithelp.obj
 0001:0011bbde       ___updatetmbcinfo          0051cbde f   LIBCMT:mbctype.obj
 0001:0011bcfe       __setmbcp_nolock           0051ccfe f   LIBCMT:mbctype.obj
 0001:0011bee3       __getmbcp                  0051cee3 f   LIBCMT:mbctype.obj
 0001:0011bf21       __setmbcp                  0051cf21 f   LIBCMT:mbctype.obj
 0001:0011c0bb       ___initmbctable            0051d0bb f   LIBCMT:mbctype.obj
 0001:0011c0d9       ____setlc_active_func      0051d0d9 f   LIBCMT:setlocal.obj
 0001:0011c0df       ____unguarded_readlc_active_add_func 0051d0df f   LIBCMT:setlocal.obj
 0001:0011c0e5       ___freetlocinfo            0051d0e5 f   LIBCMT:setlocal.obj
 0001:0011c22e       ___addlocaleref            0051d22e f   LIBCMT:setlocal.obj
 0001:0011c2bd       ___removelocaleref         0051d2bd f   LIBCMT:setlocal.obj
 0001:0011c3ba       ___updatetlocinfo          0051d3ba f   LIBCMT:setlocal.obj
 0001:0011c430       __configthreadlocale       0051d430 f   LIBCMT:setlocal.obj
 0001:0011c4ed       __free_locale              0051d4ed f   LIBCMT:setlocal.obj
 0001:0011c5af       ___free_locale             0051d5af f   LIBCMT:setlocal.obj
 0001:0011c5ba       __get_current_locale       0051d5ba f   LIBCMT:setlocal.obj
 0001:0011c669       ___get_current_locale      0051d669 f   LIBCMT:setlocal.obj
 0001:0011c66e       ___init_dummy              0051d66e f   LIBCMT:setlocal.obj
 0001:0011c671       __strcats                  0051d671 f   LIBCMT:setlocal.obj
 0001:0011c6b1       ___lc_strtolc              0051d6b1 f   LIBCMT:setlocal.obj
 0001:0011c7da       ___lc_lctostr              0051d7da f   LIBCMT:setlocal.obj
 0001:0011c9c4       __expandlocale             0051d9c4 f   LIBCMT:setlocal.obj
 0001:0011d112       __create_locale            0051e112 f   LIBCMT:setlocal.obj
 0001:0011d207       ___create_locale           0051e207 f   LIBCMT:setlocal.obj
 0001:0011d212       _setlocale                 0051e212 f   LIBCMT:setlocal.obj
 0001:0011d382       __wchartodigit             0051e382 f   LIBCMT:wchtodig.obj
 0001:0011d55d       __iswctype_l               0051e55d f   LIBCMT:iswctype.obj
 0001:0011d5e7       _iswctype                  0051e5e7 f   LIBCMT:iswctype.obj
 0001:0011d65d       _is_wctype                 0051e65d f   LIBCMT:iswctype.obj
 0001:0011d668       __initp_misc_invarg        0051e668 f   LIBCMT:invarg.obj
 0001:0011d677       __invoke_watson            0051e677 f   LIBCMT:invarg.obj
 0001:0011d79f       __set_invalid_parameter_handler 0051e79f f   LIBCMT:invarg.obj
 0001:0011d7c6       __get_invalid_parameter_handler 0051e7c6 f   LIBCMT:invarg.obj
 0001:0011d7d3       ?_invoke_watson@@YAXPBG00II@Z 0051e7d3 f   LIBCMT:invarg.obj
 0001:0011d7de       __invalid_parameter        0051e7de f   LIBCMT:invarg.obj
 0001:0011d804       __invalid_parameter_noinfo 0051e804 f   LIBCMT:invarg.obj
 0001:0011d814       ?_invalid_parameter@@YAXPBG00II@Z 0051e814 f   LIBCMT:invarg.obj
 0001:0011d81f       __get_errno_from_oserr     0051e81f f   LIBCMT:dosmap.obj
 0001:0011d861       __errno                    0051e861 f   LIBCMT:dosmap.obj
 0001:0011d874       ___doserrno                0051e874 f   LIBCMT:dosmap.obj
 0001:0011d887       __dosmaperr                0051e887 f   LIBCMT:dosmap.obj
 0001:0011d8aa       __set_errno                0051e8aa f   LIBCMT:dosmap.obj
 0001:0011d8cb       __get_errno                0051e8cb f   LIBCMT:dosmap.obj
 0001:0011d8fa       __set_doserrno             0051e8fa f   LIBCMT:dosmap.obj
 0001:0011d91b       __get_doserrno             0051e91b f   LIBCMT:dosmap.obj
 0001:0011d94a       _wait_a_bit                0051e94a f i LIBCMT:crtheap.obj
 0001:0011d970       __set_malloc_crt_max_wait  0051e970 f   LIBCMT:crtheap.obj
 0001:0011d985       __malloc_crt               0051e985 f   LIBCMT:crtheap.obj
 0001:0011d9ca       __calloc_crt               0051e9ca f   LIBCMT:crtheap.obj
 0001:0011da16       __realloc_crt              0051ea16 f   LIBCMT:crtheap.obj
 0001:0011da64       __recalloc_crt             0051ea64 f   LIBCMT:crtheap.obj
 0001:0011dab6       __msize                    0051eab6 f   LIBCMT:msize.obj
 0001:0011db5c       __SEH_prolog4              0051eb5c f   LIBCMT:sehprolg4.obj
 0001:0011dba1       __SEH_epilog4              0051eba1 f   LIBCMT:sehprolg4.obj
 0001:0011dbf0       __except_handler4          0051ebf0 f   LIBCMT:chandler4.obj
 0001:0011dd7c       __flsbuf                   0051ed7c f   LIBCMT:_flsbuf.obj
 0001:0011df88       _get_int_arg               0051ef88 f i LIBCMT:woutput.obj
 0001:0011df9a       _get_int64_arg             0051ef9a f i LIBCMT:woutput.obj
 0001:0011dfaf       __woutput_l                0051efaf f   LIBCMT:woutput.obj
 0001:0011eb47       __gmtime64_s               0051fb47 f   LIBCMT:gmtime64.obj
 0001:0011ed8a       __gmtime64                 0051fd8a f   LIBCMT:gmtime64.obj
 0001:0011edb1       __gmtime32_s               0051fdb1 f   LIBCMT:gmtime.obj
 0001:0011eee4       ___getgmtimebuf            0051fee4 f   LIBCMT:gmtime.obj
 0001:0011ef1b       __gmtime32                 0051ff1b f   LIBCMT:gmtime.obj
 0001:0011ef42       _strcpy_s                  0051ff42 f   LIBCMT:strcpy_s.obj
 0001:0011efb0       _strlen                    0051ffb0 f   LIBCMT:strlen.obj
 0001:0011f03b       __mtinitlocks              0052003b f   LIBCMT:mlock.obj
 0001:0011f086       __mtdeletelocks            00520086 f   LIBCMT:mlock.obj
 0001:0011f0dd       __unlock                   005200dd f   LIBCMT:mlock.obj
 0001:0011f0f4       __lockerr_exit             005200f4 f   LIBCMT:mlock.obj
 0001:0011f10c       __mtinitlocknum            0052010c f   LIBCMT:mlock.obj
 0001:0011f1cf       __lock                     005201cf f   LIBCMT:mlock.obj
 0001:0011f202       _strncpy_s                 00520202 f   LIBCMT:strncpy_s.obj
 0001:0011f2c0       _strcmp                    005202c0 f   LIBCMT:strcmp.obj
 0001:0011f348       __getenv_helper_nolock     00520348 f   LIBCMT:getenv.obj
 0001:0011f508       _getenv                    00520508 f   LIBCMT:getenv.obj
 0001:0011f58b       _getenv_s                  0052058b f   LIBCMT:getenv.obj
 0001:0011f663       __dupenv_s                 00520663 f   LIBCMT:getenv.obj
 0001:0011f749       ___init_ctype              00520749 f   LIBCMT:initctyp.obj
 0001:0011faeb       ____mb_cur_max_func        00520aeb f   LIBCMT:initctyp.obj
 0001:0011fb14       ____mb_cur_max_l_func      00520b14 f   LIBCMT:initctyp.obj
 0001:0011fb30       ____lc_codepage_func       00520b30 f   LIBCMT:initctyp.obj
 0001:0011fb56       ____lc_collate_cp_func     00520b56 f   LIBCMT:initctyp.obj
 0001:0011fb7c       ____lc_handle_func         00520b7c f   LIBCMT:initctyp.obj
 0001:0011fba2       __get_sbh_threshold        00520ba2 f   LIBCMT:sbheap.obj
 0001:0011fbc3       __set_amblksiz             00520bc3 f   LIBCMT:sbheap.obj
 0001:0011fc0e       __get_amblksiz             00520c0e f   LIBCMT:sbheap.obj
 0001:0011fc4f       ___sbh_heap_init           00520c4f f   LIBCMT:sbheap.obj
 0001:0011fc9d       ___sbh_find_block          00520c9d f   LIBCMT:sbheap.obj
 0001:0011fccd       ___sbh_free_block          00520ccd f   LIBCMT:sbheap.obj
 0001:0011ffe3       ___sbh_alloc_new_region    00520fe3 f   LIBCMT:sbheap.obj
 0001:00120093       ___sbh_alloc_new_group     00521093 f   LIBCMT:sbheap.obj
 0001:0012019b       ___sbh_resize_block        0052119b f   LIBCMT:sbheap.obj
 0001:0012047c       ___sbh_heapmin             0052147c f   LIBCMT:sbheap.obj
 0001:00120549       ___sbh_heap_check          00521549 f   LIBCMT:sbheap.obj
 0001:0012082d       __set_sbh_threshold        0052182d f   LIBCMT:sbheap.obj
 0001:001208dc       ___sbh_alloc_block         005218dc f   LIBCMT:sbheap.obj
 0001:00120bc1       ___heap_select             00521bc1 f   LIBCMT:heapinit.obj
 0001:00120bc5       __heap_init                00521bc5 f   LIBCMT:heapinit.obj
 0001:00120bf5       __heap_term                00521bf5 f   LIBCMT:heapinit.obj
 0001:00120c69       __get_heap_handle          00521c69 f   LIBCMT:heapinit.obj
 0001:00120c6f       __read_nolock              00521c6f f   LIBCMT:read.obj
 0001:00121231       __read                     00522231 f   LIBCMT:read.obj
 0001:0012132e       __ioinit                   0052232e f   LIBCMT:ioinit.obj
 0001:00121582       __ioterm                   00522582 f   LIBCMT:ioinit.obj
 0001:001215d0       __lseeki64_nolock          005225d0 f   LIBCMT:lseeki64.obj
 0001:00121655       __lseeki64                 00522655 f   LIBCMT:lseeki64.obj
 0001:0012176e       __fileno                   0052276e f   LIBCMT:fileno.obj
 0001:001217a0       @__security_check_cookie@4 005227a0 f   LIBCMT:secchk.obj
 0001:001217af       ___iob_func                005227af f   LIBCMT:_file.obj
 0001:001217b5       ___initstdio               005227b5 f   LIBCMT:_file.obj
 0001:00121866       ___endstdio                00522866 f   LIBCMT:_file.obj
 0001:00121886       __lock_file                00522886 f   LIBCMT:_file.obj
 0001:001218c7       __lock_file2               005228c7 f   LIBCMT:_file.obj
 0001:001218f9       __unlock_file              005228f9 f   LIBCMT:_file.obj
 0001:00121935       __unlock_file2             00522935 f   LIBCMT:_file.obj
 0001:00121964       __flush                    00522964 f   LIBCMT:fflush.obj
 0001:001219cc       __fflush_nolock            005229cc f   LIBCMT:fflush.obj
 0001:00121aee       _fflush                    00522aee f   LIBCMT:fflush.obj
 0001:00121b41       __flushall                 00522b41 f   LIBCMT:fflush.obj
 0001:00121b4a       __lseek_nolock             00522b4a f   LIBCMT:lseek.obj
 0001:00121bbf       __lseek                    00522bbf f   LIBCMT:lseek.obj
 0001:00121c9b       _CallDestructExceptionObject 00522c9b f   LIBCMT:calldtor.obj
 0001:00121cd4       __global_unwind2           00522cd4 f   LIBCMT:exsup.obj
 0001:00121d39       __local_unwind2            00522d39 f   LIBCMT:exsup.obj
 0001:00121dbd       __abnormal_termination     00522dbd f   LIBCMT:exsup.obj
 0001:00121de0       __NLG_Notify1              00522de0 f   LIBCMT:exsup.obj
 0001:00121de9       __NLG_Notify               00522de9 f   LIBCMT:exsup.obj
 0001:00121e00       __NLG_Dispatch2            00522e00     LIBCMT:exsup.obj
 0001:00121e00       __NLG_Dispatch             00522e00     LIBCMT:exsup.obj
 0001:00121e08       __NLG_Call                 00522e08 f   LIBCMT:exsup.obj
 0001:00121e0a       __NLG_Return2              00522e0a     LIBCMT:exsup.obj
 0001:00121ed0       __ValidateEH3RN            00522ed0 f   LIBCMT:eh3valid.obj
 0001:00122219       __close_nolock             00523219 f   LIBCMT:close.obj
 0001:001222b5       __close                    005232b5 f   LIBCMT:close.obj
 0001:00122382       __freebuf                  00523382 f   LIBCMT:_freebuf.obj
 0001:001223b3       __filbuf                   005233b3 f   LIBCMT:_filbuf.obj
 0001:001224de       _memcpy_s                  005234de f   LIBCMT:memcpy_s.obj
 0001:0012255b       __fgetwc_nolock            0052355b f   LIBCMT:fgetwc.obj
 0001:00122706       _fgetwc                    00523706 f   LIBCMT:fgetwc.obj
 0001:0012277a       _getwc                     0052377a f   LIBCMT:fgetwc.obj
 0001:00122785       __isctype_l                00523785 f   LIBCMT:isctype.obj
 0001:0012283d       __isctype                  0052383d f   LIBCMT:isctype.obj
 0001:0012286f       __RTC_Initialize           0052386f f   LIBCMT:_initsect_.obj
 0001:00122895       __RTC_Terminate            00523895 f   LIBCMT:_initsect_.obj
 0001:001228bb       __initp_misc_cfltcvt_tab   005238bb f   LIBCMT:cmiscdat.obj
 0001:001228e0       __ValidateImageBase        005238e0 f   LIBCMT:pesect.obj
 0001:00122920       __FindPESection            00523920 f   LIBCMT:pesect.obj
 0001:00122970       __IsNonwritableInCurrentImage 00523970 f   LIBCMT:pesect.obj
 0001:00122a2d       ?terminate@@YAXXZ          00523a2d f   LIBCMT:hooks.obj
 0001:00122a66       ?unexpected@@YAXXZ         00523a66 f   LIBCMT:hooks.obj
 0001:00122a79       ?_inconsistency@@YAXXZ     00523a79 f   LIBCMT:hooks.obj
 0001:00122ab1       __initp_eh_hooks           00523ab1 f   LIBCMT:hooks.obj
 0001:00122ac2       __initp_misc_winxfltr      00523ac2 f   LIBCMT:winxfltr.obj
 0001:00122af8       __XcptFilter               00523af8 f   LIBCMT:winxfltr.obj
 0001:00122c58       ___CppXcptFilter           00523c58 f   LIBCMT:winxfltr.obj
 0001:00122c78       __initp_misc_winsig        00523c78 f   LIBCMT:winsig.obj
 0001:00122d68       ___get_sigabrt             00523d68 f   LIBCMT:winsig.obj
 0001:00122d75       ___fpecode                 00523d75 f   LIBCMT:winsig.obj
 0001:00122d7e       ___pxcptinfoptrs           00523d7e f   LIBCMT:winsig.obj
 0001:00122d87       _signal                    00523d87 f   LIBCMT:winsig.obj
 0001:00122fc4       _raise                     00523fc4 f   LIBCMT:winsig.obj
 0001:00123174       __initp_misc_rand_s        00524174 f   LIBCMT:rand_s.obj
 0001:00123183       _rand_s                    00524183 f   LIBCMT:rand_s.obj
 0001:0012328b       __initp_misc_initcrit      0052428b f   LIBCMT:initcrit.obj
 0001:0012329a       ___crtInitCritSecAndSpinCount 0052429a f   LIBCMT:initcrit.obj
 0001:001232fa       __wopenfile                005242fa f   LIBCMT:_wopen.obj
 0001:001235ae       __getstream                005245ae f   LIBCMT:stream.obj
 0001:001236e8       __local_unwind4            005246e8 f   LIBCMT:exsup4.obj
 0001:001237be       __seh_longjmp_unwind4@4    005247be f   LIBCMT:exsup4.obj
 0001:001237da       @_EH4_CallFilterFunc@8     005247da f   LIBCMT:exsup4.obj
 0001:001237f1       @_EH4_TransferToHandler@8  005247f1 f   LIBCMT:exsup4.obj
 0001:0012380a       @_EH4_GlobalUnwind@4       0052480a f   LIBCMT:exsup4.obj
 0001:00123824       @_EH4_LocalUnwind@16       00524824 f   LIBCMT:exsup4.obj
 0001:0012383b       ?strrchr@@YAPADPADH@Z      0052483b f i LIBCMT:cvt.obj
 0001:00123846       __forcdecpt_l              00524846 f   LIBCMT:cvt.obj
 0001:001238b9       __cropzeros_l              005248b9 f   LIBCMT:cvt.obj
 0001:0012393b       __positive                 0052493b f   LIBCMT:cvt.obj
 0001:00123957       __fassign_l                00524957 f   LIBCMT:cvt.obj
 0001:00123999       __fassign                  00524999 f   LIBCMT:cvt.obj
 0001:001239d2       __forcdecpt                005249d2 f   LIBCMT:cvt.obj
 0001:001239e5       __cropzeros                005249e5 f   LIBCMT:cvt.obj
 0001:00123b67       __cftoe_l                  00524b67 f   LIBCMT:cvt.obj
 0001:00123c37       __cftoe                    00524c37 f   LIBCMT:cvt.obj
 0001:00123c57       __cftoa_l                  00524c57 f   LIBCMT:cvt.obj
 0001:00123fca       __cftoa                    00524fca f   LIBCMT:cvt.obj
 0001:001240e1       __cftof_l                  005250e1 f   LIBCMT:cvt.obj
 0001:0012419c       __cftof                    0052519c f   LIBCMT:cvt.obj
 0001:001241b9       __cftog_l                  005251b9 f   LIBCMT:cvt.obj
 0001:001242b3       __cftog                    005252b3 f   LIBCMT:cvt.obj
 0001:001242d3       __cfltcvt_l                005252d3 f   LIBCMT:cvt.obj
 0001:0012435b       __cfltcvt                  0052535b f   LIBCMT:cvt.obj
 0001:0012437e       __setdefaultprecision      0052537e f   LIBCMT:fp8.obj
 0001:001243a9       __ms_p5_test_fdiv          005253a9 f   LIBCMT:_testfdiv_.obj
 0001:001243e7       __ms_p5_mp_test_fdiv       005253e7 f   LIBCMT:_testfdiv_.obj
 0001:00124410       __wfltin2                  00525410 f   LIBCMT:_wcfin_.obj
 0001:001244b9       _wcslen                    005254b9 f   LIBCMT:wcslen.obj
 0001:001244d3       __calloc_impl              005254d3 f   LIBCMT:calloc_impl.obj
 0001:001245f1       __towlower_l               005255f1 f   LIBCMT:towlower.obj
 0001:001246a6       _towlower                  005256a6 f   LIBCMT:towlower.obj
 0001:001248e8       _strtol                    005258e8 f   LIBCMT:strtol.obj
 0001:00124913       __strtol_l                 00525913 f   LIBCMT:strtol.obj
 0001:00124930       _strtoul                   00525930 f   LIBCMT:strtol.obj
 0001:0012495c       __strtoul_l                0052595c f   LIBCMT:strtol.obj
 0001:00124c10       __strtoi64                 00525c10 f   LIBCMT:strtoq.obj
 0001:00124c3b       __strtoi64_l               00525c3b f   LIBCMT:strtoq.obj
 0001:00124c58       __strtoui64                00525c58 f   LIBCMT:strtoq.obj
 0001:00124c84       __strtoui64_l              00525c84 f   LIBCMT:strtoq.obj
 0001:00124cf8       __INTRN_LOCALE_CONV        00525cf8 f i LIBCMT:input.obj
 0001:00124d7d       __input_l                  00525d7d f   LIBCMT:input.obj
 0001:00125e04       __input_s_l                00526e04 f   LIBCMT:inputs.obj
 0001:00126fce       _get_short_arg             00527fce f i LIBCMT:output.obj
 0001:00126fe1       __output_l                 00527fe1 f   LIBCMT:output.obj
 0001:00127b79       __vsnprintf_l              00528b79 f   LIBCMT:vsnprint.obj
 0001:00127c2c       __vsnprintf                00528c2c f   LIBCMT:vsnprint.obj
 0001:00127c49       __vsprintf_l               00528c49 f   LIBCMT:vsprintf.obj
 0001:00127cc7       _vsprintf                  00528cc7 f   LIBCMT:vsprintf.obj
 0001:00127ce1       __vscprintf_helper         00528ce1 f   LIBCMT:vsprintf.obj
 0001:00127d38       __vscprintf                00528d38 f   LIBCMT:vsprintf.obj
 0001:00127d54       __vscprintf_l              00528d54 f   LIBCMT:vsprintf.obj
 0001:00127d71       __vscprintf_p              00528d71 f   LIBCMT:vsprintf.obj
 0001:00127d8d       __vscprintf_p_l            00528d8d f   LIBCMT:vsprintf.obj
 0001:00127daa       __vsnprintf_helper         00528daa f   LIBCMT:vsnprnc.obj
 0001:00127e76       __vsnprintf_c              00528e76 f   LIBCMT:vsnprnc.obj
 0001:00127e9f       __vsnprintf_c_l            00528e9f f   LIBCMT:vsnprnc.obj
 0001:00127ec9       __vsprintf_s_l             00528ec9 f   LIBCMT:vsnprnc.obj
 0001:00127f51       _vsprintf_s                00528f51 f   LIBCMT:vsnprnc.obj
 0001:00127f6e       __vsnprintf_s_l            00528f6e f   LIBCMT:vsnprnc.obj
 0001:00128075       __vsnprintf_s              00529075 f   LIBCMT:vsnprnc.obj
 0001:00128095       __vsprintf_p               00529095 f   LIBCMT:vsnprnc.obj
 0001:001280be       __vsprintf_p_l             005290be f   LIBCMT:vsnprnc.obj
 0001:001280e8       __validate_param_reuseW    005290e8 f   LIBCMT:woutputp.obj
 0001:001282e6       __woutput_p_l              005292e6 f   LIBCMT:woutputp.obj
 0001:001295a6       __invoke_watson_if_oneof   0052a5a6 f i LIBCMT:winput.obj
 0001:001296be       __winput_l                 0052a6be f   LIBCMT:winput.obj
 0001:0012a8a4       __winput_s_l               0052b8a4 f   LIBCMT:winputs.obj
 0001:0012bac5       __stbuf                    0052cac5 f   LIBCMT:_sftbuf.obj
 0001:0012bb61       __ftbuf                    0052cb61 f   LIBCMT:_sftbuf.obj
 0001:0012bb95       _vfwprintf_helper          0052cb95 f   LIBCMT:vfwprint.obj
 0001:0012bc28       __vfwprintf_l              0052cc28 f   LIBCMT:vfwprint.obj
 0001:0012bc48       __vfwprintf_s_l            0052cc48 f   LIBCMT:vfwprint.obj
 0001:0012bc68       __vfwprintf_p_l            0052cc68 f   LIBCMT:vfwprint.obj
 0001:0012bc88       _vfwprintf                 0052cc88 f   LIBCMT:vfwprint.obj
 0001:0012bca7       _vfwprintf_s               0052cca7 f   LIBCMT:vfwprint.obj
 0001:0012bcc6       __vfwprintf_p              0052ccc6 f   LIBCMT:vfwprint.obj
 0001:0012bcf0       __cintrindisp2             0052ccf0 f   LIBCMT:_87cdisp_.obj
 0001:0012bd2e       __cintrindisp1             0052cd2e f   LIBCMT:_87cdisp_.obj
 0001:0012bd6b       __ctrandisp2               0052cd6b f   LIBCMT:_87cdisp_.obj
 0001:0012bf01       __ctrandisp1               0052cf01 f   LIBCMT:_87cdisp_.obj
 0001:0012bf34       __fload                    0052cf34 f   LIBCMT:_87cdisp_.obj
 0001:0012bf70       __trandisp1                0052cf70 f   LIBCMT:_87disp_.obj
 0001:0012bfd7       __trandisp2                0052cfd7 f   LIBCMT:_87disp_.obj
 0001:0012c063       __rttospopde               0052d063     LIBCMT:_87disp_.obj
 0001:0012c068       __rttospop                 0052d068     LIBCMT:_87disp_.obj
 0001:0012c06a       __rtnospop                 0052d06a     LIBCMT:_87disp_.obj
 0001:0012c06c       __rttosnpop                0052d06c     LIBCMT:_87disp_.obj
 0001:0012c06d       __rtnospopde               0052d06d     LIBCMT:_87disp_.obj
 0001:0012c074       __rtzeropop                0052d074     LIBCMT:_87disp_.obj
 0001:0012c076       __rtzeronpop               0052d076     LIBCMT:_87disp_.obj
 0001:0012c07b       __rtonepop                 0052d07b     LIBCMT:_87disp_.obj
 0001:0012c07d       __rtonenpop                0052d07d     LIBCMT:_87disp_.obj
 0001:0012c082       __tosnan1                  0052d082     LIBCMT:_87disp_.obj
 0001:0012c0ad       __nosnan2                  0052d0ad     LIBCMT:_87disp_.obj
 0001:0012c0af       __tosnan2                  0052d0af     LIBCMT:_87disp_.obj
 0001:0012c0d7       __nan2                     0052d0d7     LIBCMT:_87disp_.obj
 0001:0012c116       __rtindfpop                0052d116     LIBCMT:_87disp_.obj
 0001:0012c118       __rtindfnpop               0052d118     LIBCMT:_87disp_.obj
 0001:0012c129       __rttosnpopde              0052d129     LIBCMT:_87disp_.obj
 0001:0012c133       __rtchsifneg               0052d133     LIBCMT:_87disp_.obj
 0001:0012c140       _fdiv_main_routine         0052d140 f   LIBCMT:_adj_fdiv_.obj
 0001:0012c257       __adj_fdiv_r               0052d257 f   LIBCMT:_adj_fdiv_.obj
 0001:0012c6f6       __fdivp_sti_st             0052d6f6 f   LIBCMT:_adj_fdiv_.obj
 0001:0012c709       __fdivrp_sti_st            0052d709 f   LIBCMT:_adj_fdiv_.obj
 0001:0012c71c       __adj_fdiv_m32             0052d71c f   LIBCMT:_adj_fdiv_.obj
 0001:0012c768       __adj_fdiv_m64             0052d768 f   LIBCMT:_adj_fdiv_.obj
 0001:0012c7b4       __adj_fdiv_m16i            0052d7b4 f   LIBCMT:_adj_fdiv_.obj
 0001:0012c7e8       __adj_fdiv_m32i            0052d7e8 f   LIBCMT:_adj_fdiv_.obj
 0001:0012c81c       __adj_fdivr_m32            0052d81c f   LIBCMT:_adj_fdiv_.obj
 0001:0012c868       __adj_fdivr_m64            0052d868 f   LIBCMT:_adj_fdiv_.obj
 0001:0012c8b4       __adj_fdivr_m16i           0052d8b4 f   LIBCMT:_adj_fdiv_.obj
 0001:0012c8e8       __adj_fdivr_m32i           0052d8e8 f   LIBCMT:_adj_fdiv_.obj
 0001:0012c91c       __safe_fdiv                0052d91c f   LIBCMT:_adj_fdiv_.obj
 0001:0012c931       __safe_fdivr               0052d931 f   LIBCMT:_adj_fdiv_.obj
 0001:0012c946       __fprem_common             0052d946 f   LIBCMT:_adj_fdiv_.obj
 0001:0012cb4c       __adj_fprem                0052db4c f   LIBCMT:_adj_fdiv_.obj
 0001:0012cbfe       __fprem1_common            0052dbfe f   LIBCMT:_adj_fdiv_.obj
 0001:0012ce04       __adj_fprem1               0052de04 f   LIBCMT:_adj_fdiv_.obj
 0001:0012ceb9       __safe_fprem               0052deb9 f   LIBCMT:_adj_fdiv_.obj
 0001:0012cebf       __safe_fprem1              0052debf f   LIBCMT:_adj_fdiv_.obj
 0001:0012cec5       __adj_fpatan               0052dec5 f   LIBCMT:_adj_fdiv_.obj
 0001:0012cec8       __adj_fptan                0052dec8 f   LIBCMT:_adj_fdiv_.obj
 0001:0012cecb       ?__CxxUnhandledExceptionFilter@@YGJPAU_EXCEPTION_POINTERS@@@Z 0052decb f   LIBCMT:unhandld.obj
 0001:0012cf0d       ___CxxSetUnhandledExceptionFilter 0052df0d f   LIBCMT:unhandld.obj
 0001:0012cf1b       __wsetenvp                 0052df1b f   LIBCMT:wstdenvp.obj
 0001:0012cff9       __set_wpgmptr              0052dff9 f i LIBCMT:wstdargv.obj
 0001:0012d159       __wsetargv                 0052e159 f   LIBCMT:wstdargv.obj
 0001:0012d207       ___crtGetEnvironmentStringsW 0052e207 f   LIBCMT:w_env.obj
 0001:0012d25e       ___crtGetCommandLineW      0052e25e f   LIBCMT:aw_com.obj
 0001:0012d264       ___security_init_cookie    0052e264 f   LIBCMT:gs_support.obj
 0001:0012d2fa       ___crtMessageBoxA          0052e2fa f   LIBCMT:crtmbox.obj
 0001:0012d463       _strcat_s                  0052e463 f   LIBCMT:strcat_s.obj
 0001:0012d4d7       __set_error_mode           0052e4d7 f   LIBCMT:errmode.obj
 0001:0012d522       ___set_app_type            0052e522 f   LIBCMT:errmode.obj
 0001:0012d531       ___get_app_type            0052e531 f   LIBCMT:errmode.obj
 0001:0012d550       ___crtGetLocaleInfoW       0052e550 f   LIBCMT:w_loc.obj
 0001:0012d584       __MarkAllocaS              0052e584 f i LIBCMT:a_loc.obj
 0001:0012d59a       __freea                    0052e59a f i LIBCMT:a_loc.obj
 0001:0012d6f9       ___crtGetLocaleInfoA       0052e6f9 f   LIBCMT:a_loc.obj
 0001:0012daf9       ___crtLCMapStringA         0052eaf9 f   LIBCMT:a_map.obj
 0001:0012dcf8       ___crtGetStringTypeA       0052ecf8 f   LIBCMT:a_str.obj
 0001:0012dd3a       ___pwctype_func            0052ed3a f   LIBCMT:ctype.obj
 0001:0012dd40       ___pctype_func             0052ed40 f   LIBCMT:ctype.obj
 0001:0012e184       ___free_lc_time            0052f184 f   LIBCMT:inittime.obj
 0001:0012e319       ___init_time               0052f319 f   LIBCMT:inittime.obj
 0001:0012e3c5       ___free_lconv_num          0052f3c5 f   LIBCMT:initnum.obj
 0001:0012e40a       ___init_numeric            0052f40a f   LIBCMT:initnum.obj
 0001:0012e607       ___free_lconv_mon          0052f607 f   LIBCMT:initmon.obj
 0001:0012e695       ___init_monetary           0052f695 f   LIBCMT:initmon.obj
 0001:0012e95b       ___init_collate            0052f95b f   LIBCMT:initcoll.obj
 0001:0012e95e       __Getdays_l                0052f95e f   LIBCMT:strftime.obj
 0001:0012ea5e       __Getdays                  0052fa5e f   LIBCMT:strftime.obj
 0001:0012ea67       __Getmonths_l              0052fa67 f   LIBCMT:strftime.obj
 0001:0012eb67       __Getmonths                0052fb67 f   LIBCMT:strftime.obj
 0001:0012eb70       __Gettnames_l              0052fb70 f   LIBCMT:strftime.obj
 0001:0012eec7       __Gettnames                0052fec7 f   LIBCMT:strftime.obj
 0001:0012f7ea       __Strftime_l               005307ea f   LIBCMT:strftime.obj
 0001:0012f98e       __strftime_l               0053098e f   LIBCMT:strftime.obj
 0001:0012f9ae       _strftime                  005309ae f   LIBCMT:strftime.obj
 0001:0012f9cd       __Strftime                 005309cd f   LIBCMT:strftime.obj
 0001:0012f9ed       _localeconv                005309ed f   LIBCMT:lconv.obj
 0001:0012fa20       _strcspn                   00530a20 f   LIBCMT:strcspn.obj
 0001:00130061       ___get_qualified_locale    00531061 f   LIBCMT:getqloc.obj
 0001:001317c8       _memcmp                    005327c8 f   LIBCMT:memcmp.obj
 0001:00132e48       _strncmp                   00533e48 f   LIBCMT:strncmp.obj
 0001:00132f10       _strpbrk                   00533f10 f   LIBCMT:strpbrk.obj
 0001:00132f73       ___crtGetStringTypeW       00533f73 f   LIBCMT:w_str.obj
 0001:00132fb1       __crt_debugger_hook        00533fb1 f   LIBCMT:dbghook.obj
 0001:00132fb9       __recalloc                 00533fb9 f   LIBCMT:recalloc.obj
 0001:00133034       __write_nolock             00534034 f   LIBCMT:write.obj
 0001:00133767       __write                    00534767 f   LIBCMT:write.obj
 0001:00133843       __getbuf                   00534843 f   LIBCMT:_getbuf.obj
 0001:0013388c       __isatty                   0053488c f   LIBCMT:isatty.obj
 0001:001338f0       __fputwc_nolock            005348f0 f   LIBCMT:fputwc.obj
 0001:00133a77       _fputwc                    00534a77 f   LIBCMT:fputwc.obj
 0001:00133af0       _putwc                     00534af0 f   LIBCMT:fputwc.obj
 0001:00133afb       _printf                    00534afb f   LIBCMT:printf.obj
 0001:00133baa       __printf_l                 00534baa f   LIBCMT:printf.obj
 0001:00133bc3       __printf_s_l               00534bc3 f   LIBCMT:printf.obj
 0001:00133bdc       _printf_s                  00534bdc f   LIBCMT:printf.obj
 0001:00133bf4       __printf_p_l               00534bf4 f   LIBCMT:printf.obj
 0001:00133c0d       __printf_p                 00534c0d f   LIBCMT:printf.obj
 0001:00133c25       __set_printf_count_output  00534c25 f   LIBCMT:printf.obj
 0001:00133c4f       __get_printf_count_output  00534c4f f   LIBCMT:printf.obj
 0001:00133c65       __mbtowc_l                 00534c65 f   LIBCMT:mbtowc.obj
 0001:00133d7c       _mbtowc                    00534d7c f   LIBCMT:mbtowc.obj
 0001:00133d96       __mbsnbicoll_l             00534d96 f   LIBCMT:mbsnbico.obj
 0001:00133e84       __mbsnbicoll               00534e84 f   LIBCMT:mbsnbico.obj
 0001:00133e9e       ___wtomb_environ           00534e9e f   LIBCMT:wtombenv.obj
 0001:00133f35       _strnlen                   00534f35 f   LIBCMT:strlen_s.obj
 0001:00133f52       __set_osfhnd               00534f52 f   LIBCMT:osfinfo.obj
 0001:00133fd3       __free_osfhnd              00534fd3 f   LIBCMT:osfinfo.obj
 0001:00134059       __get_osfhandle            00535059 f   LIBCMT:osfinfo.obj
 0001:001340d0       ___lock_fhandle            005350d0 f   LIBCMT:osfinfo.obj
 0001:00134170       __unlock_fhandle           00535170 f   LIBCMT:osfinfo.obj
 0001:00134197       __alloc_osfhnd             00535197 f   LIBCMT:osfinfo.obj
 0001:00134331       __open_osfhandle           00535331 f   LIBCMT:osfinfo.obj
 0001:00134447       ___report_gsfailure        00535447 f   LIBCMT:gs_report.obj
 0001:0013454d       __fcloseall                0053554d f   LIBCMT:closeall.obj
 0001:001345ec       __commit                   005355ec f   LIBCMT:commit.obj
 0001:001346cd       __filwbuf                  005356cd f   LIBCMT:_filwbuf.obj
 0001:00134806       __ungetc_nolock            00535806 f   LIBCMT:ungetc.obj
 0001:001348f7       _ungetc                    005358f7 f   LIBCMT:ungetc.obj
 0001:00134969       __fptrap                   00535969 f   LIBCMT:crt0fp.obj
 0001:00135092       __wopen                    00536092 f   LIBCMT:wopen.obj
 0001:00135148       __wsopen_helper            00536148 f   LIBCMT:wopen.obj
 0001:00135214       __wsopen                   00536214 f   LIBCMT:wopen.obj
 0001:00135246       __wsopen_s                 00536246 f   LIBCMT:wopen.obj
 0001:00135266       _wcsncmp                   00536266 f   LIBCMT:wcsncmp.obj
 0001:001352a0       _strrchr                   005362a0 f   LIBCMT:strrchr.obj
 0001:001352cd       __tolower                  005362cd f   LIBCMT:tolower.obj
 0001:001352da       __tolower_l                005362da f   LIBCMT:tolower.obj
 0001:001353ef       _tolower                   005363ef f   LIBCMT:tolower.obj
 0001:0013541b       __atodbl_l                 0053641b f   LIBCMT:atodbl.obj
 0001:001354c3       __atodbl                   005364c3 f   LIBCMT:atodbl.obj
 0001:001354da       __atoldbl_l                005364da f   LIBCMT:atodbl.obj
 0001:00135583       __atoldbl                  00536583 f   LIBCMT:atodbl.obj
 0001:0013559a       __atoflt_l                 0053659a f   LIBCMT:atodbl.obj
 0001:00135642       __atoflt                   00536642 f   LIBCMT:atodbl.obj
 0001:00135659       __set_output_format        00536659 f   LIBCMT:outputformat.obj
 0001:00135695       __get_output_format        00536695 f   LIBCMT:outputformat.obj
 0001:0013569b       __fptostr                  0053669b f   LIBCMT:_fptostr.obj
 0001:0013575a       ___dtold                   0053675a f   LIBCMT:_cfout_.obj
 0001:00135812       __fltout2                  00536812 f   LIBCMT:_cfout_.obj
 0001:001358b0       __alldvrm                  005368b0 f   LIBCMT:lldvrm.obj
 0001:0013598f       __controlfp_s              0053698f f   LIBCMT:_contrlfp_.obj
 0001:001359fb       ___addl                    005369fb f i LIBCMT:_intrncvt_.obj
 0001:00135a1f       __ZeroTail                 00536a1f f i LIBCMT:_intrncvt_.obj
 0001:00135a68       __IncMan                   00536a68 f i LIBCMT:_intrncvt_.obj
 0001:00135ad5       __RoundMan                 00536ad5 f i LIBCMT:_intrncvt_.obj
 0001:00135bc5       __CopyMan                  00536bc5 f i LIBCMT:_intrncvt_.obj
 0001:00135be4       __FillZeroMan              00536be4 f i LIBCMT:_intrncvt_.obj
 0001:00135bf5       __IsZeroMan                00536bf5 f i LIBCMT:_intrncvt_.obj
 0001:00135c14       __ShrMan                   00536c14 f i LIBCMT:_intrncvt_.obj
 0001:00135cae       __ld12cvt                  00536cae f i LIBCMT:_intrncvt_.obj
 0001:001361d9       __ld12tod                  005371d9 f   LIBCMT:_intrncvt_.obj
 0001:0013671d       __ld12tof                  0053771d f   LIBCMT:_intrncvt_.obj
 0001:00136c61       __ld12told                 00537c61 f   LIBCMT:_intrncvt_.obj
 0001:00136d23       ___shl_12                  00537d23 f i LIBCMT:_wstrgtold_.obj
 0001:00136d56       ___shr_12                  00537d56 f i LIBCMT:_wstrgtold_.obj
 0001:00136d88       ___ld12mul                 00537d88 f i LIBCMT:_wstrgtold_.obj
 0001:00137003       ___multtenpow12            00538003 f i LIBCMT:_wstrgtold_.obj
 0001:00137308       ___wstrgtold12_l           00538308 f   LIBCMT:_wstrgtold_.obj
 0001:00137a64       ___WSTRINGTOLD_L           00538a64 f   LIBCMT:_wstrgtold_.obj
 0001:00137b1c       ___crtLCMapStringW         00538b1c f   LIBCMT:w_map.obj
 0001:00137b73       __wctomb_s_l               00538b73 f   LIBCMT:wctomb.obj
 0001:00137cdf       _wctomb_s                  00538cdf f   LIBCMT:wctomb.obj
 0001:00137cfc       __wctomb_l                 00538cfc f   LIBCMT:wctomb.obj
 0001:00137d4d       _wctomb                    00538d4d f   LIBCMT:wctomb.obj
 0001:00137d7f       __validate_param_reuseA    00538d7f f   LIBCMT:outputp.obj
 0001:00137f50       _get_crtdouble_arg         00538f50 f i LIBCMT:outputp.obj
 0001:00137f65       __output_p_l               00538f65 f   LIBCMT:outputp.obj
 0001:001392cb       __output_s_l               0053a2cb f   LIBCMT:outputs.obj
 0001:00139e9b       __ungetwc_nolock           0053ae9b f   LIBCMT:ungetwc.obj
 0001:0013a055       _ungetwc                   0053b055 f   LIBCMT:ungetwc.obj
 0001:0013a0fe       __wcstombs_l_helper        0053b0fe f   LIBCMT:wcstombs.obj
 0001:0013a340       __wcstombs_l               0053b340 f   LIBCMT:wcstombs.obj
 0001:0013a34b       _wcstombs                  0053b34b f   LIBCMT:wcstombs.obj
 0001:0013a365       __wcstombs_s_l             0053b365 f   LIBCMT:wcstombs.obj
 0001:0013a41f       _wcstombs_s                0053b41f f   LIBCMT:wcstombs.obj
 0001:0013a4e7       __woutput_s_l              0053b4e7 f   LIBCMT:woutputs.obj
 0001:0013b087       __87except                 0053c087 f   LIBCMT:_87except_.obj
 0001:0013b1c6       _wcscpy_s                  0053c1c6 f   LIBCMT:wcscpy_s.obj
 0001:0013b235       ___ansicp                  0053c235 f   LIBCMT:convrtcp.obj
 0001:0013b27e       ___convertcp               0053c27e f   LIBCMT:convrtcp.obj
 0001:0013b432       ___ascii_stricmp           0053c432 f   LIBCMT:stricmp.obj
 0001:0013b46b       __stricmp_l                0053c46b f   LIBCMT:stricmp.obj
 0001:0013b540       __stricmp                  0053c540 f   LIBCMT:stricmp.obj
 0001:0013b592       __strnicmp_l               0053c592 f   LIBCMT:strnicmp.obj
 0001:0013b684       __strnicmp                 0053c684 f   LIBCMT:strnicmp.obj
 0001:0013b7bf       __itoa_s                   0053c7bf f   LIBCMT:xtoas.obj
 0001:0013b7e9       __ltoa_s                   0053c7e9 f   LIBCMT:xtoas.obj
 0001:0013b810       __ultoa_s                  0053c810 f   LIBCMT:xtoas.obj
 0001:0013b922       __i64toa_s                 0053c922 f   LIBCMT:xtoas.obj
 0001:0013b957       __ui64toa_s                0053c957 f   LIBCMT:xtoas.obj
 0001:0013b976       __putwch_nolock            0053c976 f   LIBCMT:putwch.obj
 0001:0013ba3b       __cputws                   0053ca3b f   LIBCMT:putwch.obj
 0001:0013bada       __putwch                   0053cada f   LIBCMT:putwch.obj
 0001:0013bb20       __flswbuf                  0053cb20 f   LIBCMT:_flswbuf.obj
 0001:0013bc94       _vprintf_helper            0053cc94 f   LIBCMT:vprintf.obj
 0001:0013bd24       __vprintf_l                0053cd24 f   LIBCMT:vprintf.obj
 0001:0013bd41       __vprintf_s_l              0053cd41 f   LIBCMT:vprintf.obj
 0001:0013bd5e       __vprintf_p_l              0053cd5e f   LIBCMT:vprintf.obj
 0001:0013bd7b       _vprintf                   0053cd7b f   LIBCMT:vprintf.obj
 0001:0013bd97       _vprintf_s                 0053cd97 f   LIBCMT:vprintf.obj
 0001:0013bdb3       __vprintf_p                0053cdb3 f   LIBCMT:vprintf.obj
 0001:0013c15d       ___crtCompareStringA       0053d15d f   LIBCMT:a_cmp.obj
 0001:0013c19f       __strnicoll_l              0053d19f f   LIBCMT:strnicol.obj
 0001:0013c299       __strnicoll                0053d299 f   LIBCMT:strnicol.obj
 0001:0013c36e       ___crtsetenv               0053d36e f   LIBCMT:setenv.obj
 0001:0013c5b9       __chsize_nolock            0053d5b9 f   LIBCMT:chsize.obj
 0001:0013c76f       __chsize_s                 0053d76f f   LIBCMT:chsize.obj
 0001:0013c85c       __chsize                   0053d85c f   LIBCMT:chsize.obj
 0001:0013c878       __setmode_nolock           0053d878 f   LIBCMT:setmode.obj
 0001:0013c934       __set_fmode                0053d934 f   LIBCMT:setmode.obj
 0001:0013c980       __get_fmode                0053d980 f   LIBCMT:setmode.obj
 0001:0013c9b9       __setmode                  0053d9b9 f   LIBCMT:setmode.obj
 0001:0013cab0       ___strgtold12_l            0053dab0 f   LIBCMT:_strgtold_.obj
 0001:0013d1a8       ___STRINGTOLD_L            0053e1a8 f   LIBCMT:_strgtold_.obj
 0001:0013d203       ___add_12                  0053e203 f i LIBCMT:_x10fout_.obj
 0001:0013d274       _$I10_OUTPUT               0053e274 f   LIBCMT:_x10fout_.obj
 0001:0013db9b       __set_controlfp            0053eb9b f   LIBCMT:_ieee87_.obj
 0001:0013df0f       __statusfp                 0053ef0f f   LIBCMT:_ieee87_.obj
 0001:0013dfa1       __fpreset                  0053efa1 f   LIBCMT:_ieee87_.obj
 0001:0013e1da       __statusfp2                0053f1da f   LIBCMT:_ieee87_.obj
 0001:0013e234       __clearfp                  0053f234 f   LIBCMT:_ieee87_.obj
 0001:0013e30d       ___control87_2             0053f30d f   LIBCMT:_ieee87_.obj
 0001:0013e621       __control87                0053f621 f i LIBCMT:_ieee87_.obj
 0001:0013e930       __controlfp                0053f930 f   LIBCMT:_ieee87_.obj
 0001:0013ec42       ___mtold12                 0053fc42 f   LIBCMT:_mantold_.obj
 0001:0013ee10       __raise_exc_ex             0053fe10 f   LIBCMT:_fpexcept_.obj
 0001:0013f0ec       __raise_exc                005400ec f   LIBCMT:_fpexcept_.obj
 0001:0013f10f       __raise_excf               0054010f f   LIBCMT:_fpexcept_.obj
 0001:0013f132       __handle_exc               00540132 f   LIBCMT:_fpexcept_.obj
 0001:0013f314       __set_errno_from_matherr   00540314 f   LIBCMT:_fpexcept_.obj
 0001:0013f367       __errcode                  00540367 f   LIBCMT:_fpexcept_.obj
 0001:0013f39b       __umatherr                 0054039b f   LIBCMT:_fpexcept_.obj
 0001:0013f43b       __handle_qnan1             0054043b f   LIBCMT:_fpexcept_.obj
 0001:0013f490       __handle_qnan2             00540490 f   LIBCMT:_fpexcept_.obj
 0001:0013f4f1       __except1                  005404f1 f   LIBCMT:_fpexcept_.obj
 0001:0013f5ba       __except2                  005405ba f   LIBCMT:_fpexcept_.obj
 0001:0013f692       __matherr                  00540692 f   LIBCMT:_matherr_.obj
 0001:0013f695       __statfp                   00540695 f   LIBCMT:_fpctrl_.obj
 0001:0013f6a5       __clrfp                    005406a5 f   LIBCMT:_fpctrl_.obj
 0001:0013f6b6       __ctrlfp                   005406b6 f   LIBCMT:_fpctrl_.obj
 0001:0013f6df       __set_statfp               005406df f   LIBCMT:_fpctrl_.obj
 0001:0013f737       ___get_fpsr_sse2           00540737 f   LIBCMT:_fpctrl_.obj
 0001:0013f755       ___set_fpsr_sse2           00540755 f   LIBCMT:_fpctrl_.obj
 0001:0013f7c7       ___fclrf_sse2              005407c7 f   LIBCMT:_fpctrl_.obj
 0001:0013f7e4       ___statfp_sse2             005407e4 f   LIBCMT:_fpctrl_.obj
 0001:0013f7f7       ___clrfp_sse2              005407f7 f   LIBCMT:_fpctrl_.obj
 0001:0013f80f       ___ctrlfp_sse2             0054080f f   LIBCMT:_fpctrl_.obj
 0001:0013f846       ___set_statfp_sse2         00540846 f   LIBCMT:_fpctrl_.obj
 0001:0013f870       ___ascii_strnicmp          00540870 f   LIBCMT:_strnicm.obj
 0001:0013f8d1       ___initconin               005408d1 f   LIBCMT:initcon.obj
 0001:0013f8f0       ___initconout              005408f0 f   LIBCMT:initcon.obj
 0001:0013f90f       ___termcon                 0054090f f   LIBCMT:initcon.obj
 0001:0013f93c       __strdup                   0054093c f   LIBCMT:strdup.obj
 0001:0013f991       __mbschr_l                 00540991 f   LIBCMT:mbschr.obj
 0001:0013fa4d       __mbschr                   00540a4d f   LIBCMT:mbschr.obj
 0001:0013fa64       __set_exp                  00540a64 f   LIBCMT:_util_.obj
 0001:0013fa90       __get_exp                  00540a90 f   LIBCMT:_util_.obj
 0001:0013faa8       __add_exp                  00540aa8 f   LIBCMT:_util_.obj
 0001:0013fad5       __set_bexp                 00540ad5 f   LIBCMT:_util_.obj
 0001:0013fafc       __sptype                   00540afc f   LIBCMT:_util_.obj
 0001:0013fb5c       __decomp                   00540b5c f   LIBCMT:_util_.obj
 0001:0013fc16       _InterlockedExchange@8     00540c16 f   kernel32:KERNEL32.dll
 0001:0013fc1c       _GetTimeZoneInformation@4  00540c1c f   kernel32:KERNEL32.dll
 0001:0013fc22       _HeapAlloc@12              00540c22 f   kernel32:KERNEL32.dll
 0001:0013fc28       _HeapSize@12               00540c28 f   kernel32:KERNEL32.dll
 0001:0013fc2e       _HeapReAlloc@16            00540c2e f   kernel32:KERNEL32.dll
 0001:0013fc34       _HeapFree@12               00540c34 f   kernel32:KERNEL32.dll
 0001:0013fc3a       _ExitProcess@4             00540c3a f   kernel32:KERNEL32.dll
 0001:0013fc40       _UnhandledExceptionFilter@4 00540c40 f   kernel32:KERNEL32.dll
 0001:0013fc46       _SetUnhandledExceptionFilter@4 00540c46 f   kernel32:KERNEL32.dll
 0001:0013fc4c       _GetModuleFileNameA@12     00540c4c f   kernel32:KERNEL32.dll
 0001:0013fc52       _TlsGetValue@4             00540c52 f   kernel32:KERNEL32.dll
 0001:0013fc58       _TlsAlloc@0                00540c58 f   kernel32:KERNEL32.dll
 0001:0013fc5e       _TlsSetValue@8             00540c5e f   kernel32:KERNEL32.dll
 0001:0013fc64       _TlsFree@4                 00540c64 f   kernel32:KERNEL32.dll
 0001:0013fc6a       _IsValidCodePage@4         00540c6a f   kernel32:KERNEL32.dll
 0001:0013fc70       _FatalAppExitA@8           00540c70 f   kernel32:KERNEL32.dll
 0001:0013fc76       _VirtualFree@12            00540c76 f   kernel32:KERNEL32.dll
 0001:0013fc7c       _VirtualAlloc@16           00540c7c f   kernel32:KERNEL32.dll
 0001:0013fc82       _HeapCreate@12             00540c82 f   kernel32:KERNEL32.dll
 0001:0013fc88       _HeapDestroy@4             00540c88 f   kernel32:KERNEL32.dll
 0001:0013fc8e       _SetHandleCount@4          00540c8e f   kernel32:KERNEL32.dll
 0001:0013fc94       _GetStartupInfoA@4         00540c94 f   kernel32:KERNEL32.dll
 0001:0013fc9a       _SetFilePointer@16         00540c9a f   kernel32:KERNEL32.dll
 0001:0013fca0       _RtlUnwind@16              00540ca0 f   kernel32:KERNEL32.dll
 0001:0013fca6       _VirtualQuery@12           00540ca6 f   kernel32:KERNEL32.dll
 0001:0013fcac       _LoadLibraryA@4            00540cac f   kernel32:KERNEL32.dll
 0001:0013fcb2       _InitializeCriticalSectionAndSpinCount@8 00540cb2 f   kernel32:KERNEL32.dll
 0001:0013fcb8       _GetModuleHandleA@4        00540cb8 f   kernel32:KERNEL32.dll
 0001:0013fcbe       _FreeEnvironmentStringsW@4 00540cbe f   kernel32:KERNEL32.dll
 0001:0013fcc4       _GetEnvironmentStringsW@0  00540cc4 f   kernel32:KERNEL32.dll
 0001:0013fcca       _GetCommandLineW@0         00540cca f   kernel32:KERNEL32.dll
 0001:0013fcd0       _GetLocaleInfoA@16         00540cd0 f   kernel32:KERNEL32.dll
 0001:0013fcd6       _LCMapStringA@24           00540cd6 f   kernel32:KERNEL32.dll
 0001:0013fcdc       _GetStringTypeA@20         00540cdc f   kernel32:KERNEL32.dll
 0001:0013fce2       _GetStringTypeW@16         00540ce2 f   kernel32:KERNEL32.dll
 0001:0013fce8       _GetTimeFormatA@24         00540ce8 f   kernel32:KERNEL32.dll
 0001:0013fcee       _GetDateFormatA@24         00540cee f   kernel32:KERNEL32.dll
 0001:0013fcf4       _GetUserDefaultLCID@0      00540cf4 f   kernel32:KERNEL32.dll
 0001:0013fcfa       _EnumSystemLocalesA@8      00540cfa f   kernel32:KERNEL32.dll
 0001:0013fd00       _IsValidLocale@8           00540d00 f   kernel32:KERNEL32.dll
 0001:0013fd06       _WriteConsoleA@20          00540d06 f   kernel32:KERNEL32.dll
 0001:0013fd0c       _SetEnvironmentVariableA@8 00540d0c f   kernel32:KERNEL32.dll
 0001:0013fd12       _GetProcessHeap@0          00540d12 f   kernel32:KERNEL32.dll
 0001:0013fd18       _RaiseException@16         00540d18 f   kernel32:KERNEL32.dll
 0001:0013fd1e       _CreateFileA@28            00540d1e f   kernel32:KERNEL32.dll
 0001:00140f60       ??__Ftemp@?1??Pop@TVMStack@@QAEABVTVar@@XZ@YAXXZ 00541f60 f i macro.obj
 0002:00000000       __imp__SetFileSecurityW@12 00543000     advapi32:ADVAPI32.dll
 0002:00000004       __imp__RegCloseKey@4       00543004     advapi32:ADVAPI32.dll
 0002:00000008       __imp__RegQueryValueExW@24 00543008     advapi32:ADVAPI32.dll
 0002:0000000c       __imp__RegOpenKeyExW@20    0054300c     advapi32:ADVAPI32.dll
 0002:00000010       __imp__FreeSid@4           00543010     advapi32:ADVAPI32.dll
 0002:00000014       __imp__CheckTokenMembership@12 00543014     advapi32:ADVAPI32.dll
 0002:00000018       __imp__AllocateAndInitializeSid@44 00543018     advapi32:ADVAPI32.dll
 0002:0000001c       __imp__SetSecurityDescriptorDacl@16 0054301c     advapi32:ADVAPI32.dll
 0002:00000020       __imp__SetEntriesInAclW@16 00543020     advapi32:ADVAPI32.dll
 0002:00000024       __imp__InitializeSecurityDescriptor@8 00543024     advapi32:ADVAPI32.dll
 0002:00000028       __imp__RegOpenKeyW@12      00543028     advapi32:ADVAPI32.dll
 0002:0000002c       __imp__RegEnumValueW@32    0054302c     advapi32:ADVAPI32.dll
 0002:00000030       __imp__RegEnumKeyExW@32    00543030     advapi32:ADVAPI32.dll
 0002:00000034       __imp__DecryptFileW@8      00543034     advapi32:ADVAPI32.dll
 0002:00000038       __imp__EncryptFileW@4      00543038     advapi32:ADVAPI32.dll
 0002:0000003c       __imp__SetNamedSecurityInfoW@28 0054303c     advapi32:ADVAPI32.dll
 0002:00000040       __imp__LookupAccountNameW@28 00543040     advapi32:ADVAPI32.dll
 0002:00000044       __imp__LookupAccountSidW@28 00543044     advapi32:ADVAPI32.dll
 0002:00000048       __imp__CopySid@12          00543048     advapi32:ADVAPI32.dll
 0002:0000004c       __imp__GetLengthSid@4      0054304c     advapi32:ADVAPI32.dll
 0002:00000050       __imp__EqualSid@8          00543050     advapi32:ADVAPI32.dll
 0002:00000054       __imp__IsValidSid@4        00543054     advapi32:ADVAPI32.dll
 0002:00000058       __imp__GetSecurityDescriptorOwner@12 00543058     advapi32:ADVAPI32.dll
 0002:0000005c       __imp__IsTextUnicode@12    0054305c     advapi32:ADVAPI32.dll
 0002:00000060       __imp__RegSetValueExW@24   00543060     advapi32:ADVAPI32.dll
 0002:00000064       __imp__GetUserNameW@8      00543064     advapi32:ADVAPI32.dll
 0002:00000068       __imp__AdjustTokenPrivileges@24 00543068     advapi32:ADVAPI32.dll
 0002:0000006c       __imp__LookupPrivilegeValueW@12 0054306c     advapi32:ADVAPI32.dll
 0002:00000070       __imp__OpenProcessToken@12 00543070     advapi32:ADVAPI32.dll
 0002:00000074       __imp__GetTokenInformation@20 00543074     advapi32:ADVAPI32.dll
 0002:00000078       __imp__RegDeleteKeyW@8     00543078     advapi32:ADVAPI32.dll
 0002:0000007c       __imp__RegDeleteValueW@8   0054307c     advapi32:ADVAPI32.dll
 0002:00000080       __imp__RegCreateKeyExW@36  00543080     advapi32:ADVAPI32.dll
 0002:00000084       __imp__GetFileSecurityW@20 00543084     advapi32:ADVAPI32.dll
 0002:00000088       \177ADVAPI32_NULL_THUNK_DATA 00543088     advapi32:ADVAPI32.dll
 0002:0000008c       __imp__CompareStringW@24   0054308c     kernel32:KERNEL32.dll
 0002:00000090       __imp__MultiByteToWideChar@24 00543090     kernel32:KERNEL32.dll
 0002:00000094       __imp__GetACP@0            00543094     kernel32:KERNEL32.dll
 0002:00000098       __imp__GetOEMCP@0          00543098     kernel32:KERNEL32.dll
 0002:0000009c       __imp__GetCPInfo@8         0054309c     kernel32:KERNEL32.dll
 0002:000000a0       __imp__GetCPInfoExW@12     005430a0     kernel32:KERNEL32.dll
 0002:000000a4       __imp__EnumSystemCodePagesW@8 005430a4     kernel32:KERNEL32.dll
 0002:000000a8       __imp__AllocConsole@0      005430a8     kernel32:KERNEL32.dll
 0002:000000ac       __imp__FreeConsole@0       005430ac     kernel32:KERNEL32.dll
 0002:000000b0       __imp__GetStdHandle@4      005430b0     kernel32:KERNEL32.dll
 0002:000000b4       __imp__GetConsoleWindow@0  005430b4     kernel32:KERNEL32.dll
 0002:000000b8       __imp__GetConsoleScreenBufferInfo@8 005430b8     kernel32:KERNEL32.dll
 0002:000000bc       __imp__SetConsoleWindowInfo@12 005430bc     kernel32:KERNEL32.dll
 0002:000000c0       __imp__SetConsoleTitleW@4  005430c0     kernel32:KERNEL32.dll
 0002:000000c4       __imp__SetLastError@4      005430c4     kernel32:KERNEL32.dll
 0002:000000c8       __imp__GetConsoleCP@0      005430c8     kernel32:KERNEL32.dll
 0002:000000cc       __imp__SetConsoleCP@4      005430cc     kernel32:KERNEL32.dll
 0002:000000d0       __imp__GetConsoleOutputCP@0 005430d0     kernel32:KERNEL32.dll
 0002:000000d4       __imp__SetConsoleOutputCP@4 005430d4     kernel32:KERNEL32.dll
 0002:000000d8       __imp__SetConsoleCtrlHandler@8 005430d8     kernel32:KERNEL32.dll
 0002:000000dc       __imp__GetConsoleMode@8    005430dc     kernel32:KERNEL32.dll
 0002:000000e0       __imp__SetConsoleMode@8    005430e0     kernel32:KERNEL32.dll
 0002:000000e4       __imp__WriteConsoleW@20    005430e4     kernel32:KERNEL32.dll
 0002:000000e8       __imp__SetConsoleTextAttribute@8 005430e8     kernel32:KERNEL32.dll
 0002:000000ec       __imp__GetConsoleCursorInfo@8 005430ec     kernel32:KERNEL32.dll
 0002:000000f0       __imp__SetConsoleCursorInfo@8 005430f0     kernel32:KERNEL32.dll
 0002:000000f4       __imp__FlushConsoleInputBuffer@4 005430f4     kernel32:KERNEL32.dll
 0002:000000f8       __imp__GetNumberOfConsoleInputEvents@8 005430f8     kernel32:KERNEL32.dll
 0002:000000fc       __imp__GetConsoleAliasW@16 005430fc     kernel32:KERNEL32.dll
 0002:00000100       __imp__GetConsoleDisplayMode@4 00543100     kernel32:KERNEL32.dll
 0002:00000104       __imp__GetLargestConsoleWindowSize@4 00543104     kernel32:KERNEL32.dll
 0002:00000108       __imp__SetConsoleActiveScreenBuffer@4 00543108     kernel32:KERNEL32.dll
 0002:0000010c       __imp__ScrollConsoleScreenBufferW@20 0054310c     kernel32:KERNEL32.dll
 0002:00000110       __imp__SetConsoleScreenBufferSize@8 00543110     kernel32:KERNEL32.dll
 0002:00000114       __imp__GetLastError@0      00543114     kernel32:KERNEL32.dll
 0002:00000118       __imp__GetConsoleTitleW@8  00543118     kernel32:KERNEL32.dll
 0002:0000011c       __imp__PeekConsoleInputW@16 0054311c     kernel32:KERNEL32.dll
 0002:00000120       __imp__ReadConsoleInputW@16 00543120     kernel32:KERNEL32.dll
 0002:00000124       __imp__WriteConsoleInputW@16 00543124     kernel32:KERNEL32.dll
 0002:00000128       __imp__ReadConsoleOutputW@20 00543128     kernel32:KERNEL32.dll
 0002:0000012c       __imp__WriteConsoleOutputW@20 0054312c     kernel32:KERNEL32.dll
 0002:00000130       __imp__SetConsoleCursorPosition@8 00543130     kernel32:KERNEL32.dll
 0002:00000134       __imp__FillConsoleOutputAttribute@20 00543134     kernel32:KERNEL32.dll
 0002:00000138       __imp__FillConsoleOutputCharacterW@20 00543138     kernel32:KERNEL32.dll
 0002:0000013c       __imp__InitializeCriticalSection@4 0054313c     kernel32:KERNEL32.dll
 0002:00000140       __imp__DeleteCriticalSection@4 00543140     kernel32:KERNEL32.dll
 0002:00000144       __imp__EnterCriticalSection@4 00543144     kernel32:KERNEL32.dll
 0002:00000148       __imp__LeaveCriticalSection@4 00543148     kernel32:KERNEL32.dll
 0002:0000014c       __imp__GetTickCount@0      0054314c     kernel32:KERNEL32.dll
 0002:00000150       __imp__SetThreadExecutionState@4 00543150     kernel32:KERNEL32.dll
 0002:00000154       __imp__CloseHandle@4       00543154     kernel32:KERNEL32.dll
 0002:00000158       __imp__GetShortPathNameW@12 00543158     kernel32:KERNEL32.dll
 0002:0000015c       __imp__GetLongPathNameW@12 0054315c     kernel32:KERNEL32.dll
 0002:00000160       __imp__GetCalendarInfoW@24 00543160     kernel32:KERNEL32.dll
 0002:00000164       __imp__GetLocaleInfoW@16   00543164     kernel32:KERNEL32.dll
 0002:00000168       __imp__LocalFileTimeToFileTime@8 00543168     kernel32:KERNEL32.dll
 0002:0000016c       __imp__SystemTimeToFileTime@8 0054316c     kernel32:KERNEL32.dll
 0002:00000170       __imp__FileTimeToSystemTime@8 00543170     kernel32:KERNEL32.dll
 0002:00000174       __imp__FileTimeToLocalFileTime@8 00543174     kernel32:KERNEL32.dll
 0002:00000178       __imp__GetLocalTime@4      00543178     kernel32:KERNEL32.dll
 0002:0000017c       __imp__Sleep@4             0054317c     kernel32:KERNEL32.dll
 0002:00000180       __imp__GetCurrentThreadId@0 00543180     kernel32:KERNEL32.dll
 0002:00000184       __imp__InterlockedDecrement@4 00543184     kernel32:KERNEL32.dll
 0002:00000188       __imp__InterlockedIncrement@4 00543188     kernel32:KERNEL32.dll
 0002:0000018c       __imp__GetDiskFreeSpaceW@20 0054318c     kernel32:KERNEL32.dll
 0002:00000190       __imp__SetEnvironmentVariableW@8 00543190     kernel32:KERNEL32.dll
 0002:00000194       __imp__WideCharToMultiByte@32 00543194     kernel32:KERNEL32.dll
 0002:00000198       __imp__GetLogicalDrives@0  00543198     kernel32:KERNEL32.dll
 0002:0000019c       __imp__CreateEventW@16     0054319c     kernel32:KERNEL32.dll
 0002:000001a0       __imp__SetEvent@4          005431a0     kernel32:KERNEL32.dll
 0002:000001a4       __imp__WaitForSingleObject@8 005431a4     kernel32:KERNEL32.dll
 0002:000001a8       __imp__ReadFile@20         005431a8     kernel32:KERNEL32.dll
 0002:000001ac       __imp__WriteFile@20        005431ac     kernel32:KERNEL32.dll
 0002:000001b0       __imp__CreateDirectoryW@8  005431b0     kernel32:KERNEL32.dll
 0002:000001b4       __imp__CreateDirectoryExW@12 005431b4     kernel32:KERNEL32.dll
 0002:000001b8       __imp__RemoveDirectoryW@4  005431b8     kernel32:KERNEL32.dll
 0002:000001bc       __imp__DeleteFileW@4       005431bc     kernel32:KERNEL32.dll
 0002:000001c0       __imp__CopyFileExW@24      005431c0     kernel32:KERNEL32.dll
 0002:000001c4       __imp__MoveFileExW@12      005431c4     kernel32:KERNEL32.dll
 0002:000001c8       __imp__GetFileAttributesW@4 005431c8     kernel32:KERNEL32.dll
 0002:000001cc       __imp__SetFileAttributesW@8 005431cc     kernel32:KERNEL32.dll
 0002:000001d0       __imp__CreateHardLinkW@12  005431d0     kernel32:KERNEL32.dll
 0002:000001d4       __imp__DuplicateHandle@28  005431d4     kernel32:KERNEL32.dll
 0002:000001d8       __imp__GetCurrentProcess@0 005431d8     kernel32:KERNEL32.dll
 0002:000001dc       __imp__OpenProcess@12      005431dc     kernel32:KERNEL32.dll
 0002:000001e0       __imp__DisconnectNamedPipe@4 005431e0     kernel32:KERNEL32.dll
 0002:000001e4       __imp__GetCurrentProcessId@0 005431e4     kernel32:KERNEL32.dll
 0002:000001e8       __imp__CreateFileW@28      005431e8     kernel32:KERNEL32.dll
 0002:000001ec       __imp__WaitNamedPipeW@8    005431ec     kernel32:KERNEL32.dll
 0002:000001f0       __imp__SetErrorMode@4      005431f0     kernel32:KERNEL32.dll
 0002:000001f4       __imp__GlobalAlloc@8       005431f4     kernel32:KERNEL32.dll
 0002:000001f8       __imp__GetOverlappedResult@16 005431f8     kernel32:KERNEL32.dll
 0002:000001fc       __imp__ConnectNamedPipe@8  005431fc     kernel32:KERNEL32.dll
 0002:00000200       __imp__LocalFree@4         00543200     kernel32:KERNEL32.dll
 0002:00000204       __imp__CreateNamedPipeW@32 00543204     kernel32:KERNEL32.dll
 0002:00000208       __imp__LocalAlloc@8        00543208     kernel32:KERNEL32.dll
 0002:0000020c       __imp__SetCurrentDirectoryW@4 0054320c     kernel32:KERNEL32.dll
 0002:00000210       __imp__FreeLibrary@4       00543210     kernel32:KERNEL32.dll
 0002:00000214       __imp__GetProcAddress@8    00543214     kernel32:KERNEL32.dll
 0002:00000218       __imp__LoadLibraryW@4      00543218     kernel32:KERNEL32.dll
 0002:0000021c       __imp__SetFilePointerEx@20 0054321c     kernel32:KERNEL32.dll
 0002:00000220       __imp__SetEndOfFile@4      00543220     kernel32:KERNEL32.dll
 0002:00000224       __imp__FlushFileBuffers@4  00543224     kernel32:KERNEL32.dll
 0002:00000228       __imp__GetFileInformationByHandle@8 00543228     kernel32:KERNEL32.dll
 0002:0000022c       __imp__DeviceIoControl@32  0054322c     kernel32:KERNEL32.dll
 0002:00000230       __imp__GetVolumeInformationW@32 00543230     kernel32:KERNEL32.dll
 0002:00000234       __imp__GetFileSizeEx@8     00543234     kernel32:KERNEL32.dll
 0002:00000238       __imp__FindClose@4         00543238     kernel32:KERNEL32.dll
 0002:0000023c       __imp__GetLogicalDriveStringsW@8 0054323c     kernel32:KERNEL32.dll
 0002:00000240       __imp__SearchPathW@24      00543240     kernel32:KERNEL32.dll
 0002:00000244       __imp__QueryDosDeviceW@12  00543244     kernel32:KERNEL32.dll
 0002:00000248       __imp__GetProcessHeaps@8   00543248     kernel32:KERNEL32.dll
 0002:0000024c       __imp__GetEnvironmentVariableW@12 0054324c     kernel32:KERNEL32.dll
 0002:00000250       __imp__GetTempPathW@8      00543250     kernel32:KERNEL32.dll
 0002:00000254       __imp__GetModuleFileNameW@12 00543254     kernel32:KERNEL32.dll
 0002:00000258       __imp__MoveFileW@8         00543258     kernel32:KERNEL32.dll
 0002:0000025c       __imp__ExpandEnvironmentStringsW@12 0054325c     kernel32:KERNEL32.dll
 0002:00000260       __imp__GetFileType@4       00543260     kernel32:KERNEL32.dll
 0002:00000264       __imp__GetDiskFreeSpaceExW@16 00543264     kernel32:KERNEL32.dll
 0002:00000268       __imp__GetCompressedFileSizeW@8 00543268     kernel32:KERNEL32.dll
 0002:0000026c       __imp__FindVolumeClose@4   0054326c     kernel32:KERNEL32.dll
 0002:00000270       __imp__FindNextVolumeW@12  00543270     kernel32:KERNEL32.dll
 0002:00000274       __imp__FindFirstVolumeW@8  00543274     kernel32:KERNEL32.dll
 0002:00000278       __imp__GetVolumeNameForVolumeMountPointW@12 00543278     kernel32:KERNEL32.dll
 0002:0000027c       __imp__GetCurrentDirectoryW@8 0054327c     kernel32:KERNEL32.dll
 0002:00000280       __imp__GetSystemTime@4     00543280     kernel32:KERNEL32.dll
 0002:00000284       __imp__GetSystemTimeAsFileTime@4 00543284     kernel32:KERNEL32.dll
 0002:00000288       __imp__FileTimeToDosDateTime@12 00543288     kernel32:KERNEL32.dll
 0002:0000028c       __imp__ResetEvent@4        0054328c     kernel32:KERNEL32.dll
 0002:00000290       __imp__LCMapStringW@24     00543290     kernel32:KERNEL32.dll
 0002:00000294       __imp__CreateThread@24     00543294     kernel32:KERNEL32.dll
 0002:00000298       __imp__SetVolumeMountPointW@8 00543298     kernel32:KERNEL32.dll
 0002:0000029c       __imp__DefineDosDeviceW@12 0054329c     kernel32:KERNEL32.dll
 0002:000002a0       __imp__FindCloseChangeNotification@4 005432a0     kernel32:KERNEL32.dll
 0002:000002a4       __imp__FindFirstChangeNotificationW@12 005432a4     kernel32:KERNEL32.dll
 0002:000002a8       __imp__CreateProcessW@40   005432a8     kernel32:KERNEL32.dll
 0002:000002ac       __imp__WriteProcessMemory@20 005432ac     kernel32:KERNEL32.dll
 0002:000002b0       __imp__VirtualProtect@16   005432b0     kernel32:KERNEL32.dll
 0002:000002b4       __imp__GetModuleHandleW@4  005432b4     kernel32:KERNEL32.dll
 0002:000002b8       __imp__GlobalMemoryStatusEx@4 005432b8     kernel32:KERNEL32.dll
 0002:000002bc       __imp__GetComputerNameW@8  005432bc     kernel32:KERNEL32.dll
 0002:000002c0       __imp__GetComputerNameExW@12 005432c0     kernel32:KERNEL32.dll
 0002:000002c4       __imp__ExitThread@4        005432c4     kernel32:KERNEL32.dll
 0002:000002c8       __imp__CompareStringA@24   005432c8     kernel32:KERNEL32.dll
 0002:000002cc       __imp__QueryPerformanceCounter@4 005432cc     kernel32:KERNEL32.dll
 0002:000002d0       __imp__CreateFileA@28      005432d0     kernel32:KERNEL32.dll
 0002:000002d4       __imp__GetSystemInfo@4     005432d4     kernel32:KERNEL32.dll
 0002:000002d8       __imp__IsDebuggerPresent@0 005432d8     kernel32:KERNEL32.dll
 0002:000002dc       __imp__GetVersionExW@4     005432dc     kernel32:KERNEL32.dll
 0002:000002e0       __imp__FormatMessageW@28   005432e0     kernel32:KERNEL32.dll
 0002:000002e4       __imp__GetTempFileNameW@16 005432e4     kernel32:KERNEL32.dll
 0002:000002e8       __imp__OutputDebugStringW@4 005432e8     kernel32:KERNEL32.dll
 0002:000002ec       __imp__SetFileApisToOEM@0  005432ec     kernel32:KERNEL32.dll
 0002:000002f0       __imp__SetFileApisToANSI@0 005432f0     kernel32:KERNEL32.dll
 0002:000002f4       __imp__LoadLibraryExW@12   005432f4     kernel32:KERNEL32.dll
 0002:000002f8       __imp__UnmapViewOfFile@4   005432f8     kernel32:KERNEL32.dll
 0002:000002fc       __imp__MapViewOfFile@20    005432fc     kernel32:KERNEL32.dll
 0002:00000300       __imp__CreateFileMappingW@24 00543300     kernel32:KERNEL32.dll
 0002:00000304       __imp__CompareFileTime@8   00543304     kernel32:KERNEL32.dll
 0002:00000308       __imp__GetNumberFormatW@24 00543308     kernel32:KERNEL32.dll
 0002:0000030c       __imp__CreateMutexW@12     0054330c     kernel32:KERNEL32.dll
 0002:00000310       __imp__ReleaseMutex@4      00543310     kernel32:KERNEL32.dll
 0002:00000314       __imp__SetStdHandle@8      00543314     kernel32:KERNEL32.dll
 0002:00000318       __imp__VirtualAlloc@16     00543318     kernel32:KERNEL32.dll
 0002:0000031c       __imp__VirtualFree@12      0054331c     kernel32:KERNEL32.dll
 0002:00000320       __imp__FatalAppExitA@8     00543320     kernel32:KERNEL32.dll
 0002:00000324       __imp__IsValidCodePage@4   00543324     kernel32:KERNEL32.dll
 0002:00000328       __imp__TlsFree@4           00543328     kernel32:KERNEL32.dll
 0002:0000032c       __imp__TlsSetValue@8       0054332c     kernel32:KERNEL32.dll
 0002:00000330       __imp__TlsAlloc@0          00543330     kernel32:KERNEL32.dll
 0002:00000334       __imp__TlsGetValue@4       00543334     kernel32:KERNEL32.dll
 0002:00000338       __imp__GetModuleFileNameA@12 00543338     kernel32:KERNEL32.dll
 0002:0000033c       __imp__SetUnhandledExceptionFilter@4 0054333c     kernel32:KERNEL32.dll
 0002:00000340       __imp__UnhandledExceptionFilter@4 00543340     kernel32:KERNEL32.dll
 0002:00000344       __imp__ExitProcess@4       00543344     kernel32:KERNEL32.dll
 0002:00000348       __imp__HeapFree@12         00543348     kernel32:KERNEL32.dll
 0002:0000034c       __imp__HeapReAlloc@16      0054334c     kernel32:KERNEL32.dll
 0002:00000350       __imp__HeapSize@12         00543350     kernel32:KERNEL32.dll
 0002:00000354       __imp__HeapAlloc@12        00543354     kernel32:KERNEL32.dll
 0002:00000358       __imp__GetTimeZoneInformation@4 00543358     kernel32:KERNEL32.dll
 0002:0000035c       __imp__InterlockedExchange@8 0054335c     kernel32:KERNEL32.dll
 0002:00000360       __imp__GlobalLock@4        00543360     kernel32:KERNEL32.dll
 0002:00000364       __imp__GlobalUnlock@4      00543364     kernel32:KERNEL32.dll
 0002:00000368       __imp__GlobalFree@4        00543368     kernel32:KERNEL32.dll
 0002:0000036c       __imp__GetCurrentThread@0  0054336c     kernel32:KERNEL32.dll
 0002:00000370       __imp__GetThreadPriority@4 00543370     kernel32:KERNEL32.dll
 0002:00000374       __imp__SetThreadPriority@8 00543374     kernel32:KERNEL32.dll
 0002:00000378       __imp__GetDriveTypeW@4     00543378     kernel32:KERNEL32.dll
 0002:0000037c       __imp__HeapCreate@12       0054337c     kernel32:KERNEL32.dll
 0002:00000380       __imp__HeapDestroy@4       00543380     kernel32:KERNEL32.dll
 0002:00000384       __imp__SetHandleCount@4    00543384     kernel32:KERNEL32.dll
 0002:00000388       __imp__GetStartupInfoA@4   00543388     kernel32:KERNEL32.dll
 0002:0000038c       __imp__SetFilePointer@16   0054338c     kernel32:KERNEL32.dll
 0002:00000390       __imp__RtlUnwind@16        00543390     kernel32:KERNEL32.dll
 0002:00000394       __imp__VirtualQuery@12     00543394     kernel32:KERNEL32.dll
 0002:00000398       __imp__LoadLibraryA@4      00543398     kernel32:KERNEL32.dll
 0002:0000039c       __imp__InitializeCriticalSectionAndSpinCount@8 0054339c     kernel32:KERNEL32.dll
 0002:000003a0       __imp__GetModuleHandleA@4  005433a0     kernel32:KERNEL32.dll
 0002:000003a4       __imp__FreeEnvironmentStringsW@4 005433a4     kernel32:KERNEL32.dll
 0002:000003a8       __imp__GetEnvironmentStringsW@0 005433a8     kernel32:KERNEL32.dll
 0002:000003ac       __imp__GetCommandLineW@0   005433ac     kernel32:KERNEL32.dll
 0002:000003b0       __imp__GetLocaleInfoA@16   005433b0     kernel32:KERNEL32.dll
 0002:000003b4       __imp__LCMapStringA@24     005433b4     kernel32:KERNEL32.dll
 0002:000003b8       __imp__GetStringTypeA@20   005433b8     kernel32:KERNEL32.dll
 0002:000003bc       __imp__GetStringTypeW@16   005433bc     kernel32:KERNEL32.dll
 0002:000003c0       __imp__GetTimeFormatA@24   005433c0     kernel32:KERNEL32.dll
 0002:000003c4       __imp__GetDateFormatA@24   005433c4     kernel32:KERNEL32.dll
 0002:000003c8       __imp__GetUserDefaultLCID@0 005433c8     kernel32:KERNEL32.dll
 0002:000003cc       __imp__EnumSystemLocalesA@8 005433cc     kernel32:KERNEL32.dll
 0002:000003d0       __imp__IsValidLocale@8     005433d0     kernel32:KERNEL32.dll
 0002:000003d4       __imp__WriteConsoleA@20    005433d4     kernel32:KERNEL32.dll
 0002:000003d8       __imp__SetEnvironmentVariableA@8 005433d8     kernel32:KERNEL32.dll
 0002:000003dc       __imp__GetProcessHeap@0    005433dc     kernel32:KERNEL32.dll
 0002:000003e0       __imp__RaiseException@16   005433e0     kernel32:KERNEL32.dll
 0002:000003e4       __imp__TerminateProcess@8  005433e4     kernel32:KERNEL32.dll
 0002:000003e8       __imp__QueryPerformanceFrequency@4 005433e8     kernel32:KERNEL32.dll
 0002:000003ec       \177KERNEL32_NULL_THUNK_DATA 005433ec     kernel32:KERNEL32.dll
 0002:000003f0       __imp__WNetGetUniversalNameW@16 005433f0     mpr:MPR.dll
 0002:000003f4       __imp__WNetGetConnectionW@12 005433f4     mpr:MPR.dll
 0002:000003f8       __imp__WNetCloseEnum@4     005433f8     mpr:MPR.dll
 0002:000003fc       __imp__WNetEnumResourceW@16 005433fc     mpr:MPR.dll
 0002:00000400       __imp__WNetOpenEnumW@20    00543400     mpr:MPR.dll
 0002:00000404       __imp__WNetAddConnection2W@16 00543404     mpr:MPR.dll
 0002:00000408       __imp__WNetCancelConnection2W@12 00543408     mpr:MPR.dll
 0002:0000040c       \177MPR_NULL_THUNK_DATA    0054340c     mpr:MPR.dll
 0002:00000410       __imp__GetModuleFileNameExW@16 00543410     psapi:PSAPI.DLL
 0002:00000414       \177PSAPI_NULL_THUNK_DATA  00543414     psapi:PSAPI.DLL
 0002:00000418       __imp__SetupDiDestroyDeviceInfoList@4 00543418     setupapi:SETUPAPI.dll
 0002:0000041c       __imp__SetupDiGetDeviceRegistryPropertyW@28 0054341c     setupapi:SETUPAPI.dll
 0002:00000420       __imp__SetupDiOpenDeviceInfoW@20 00543420     setupapi:SETUPAPI.dll
 0002:00000424       __imp__SetupDiGetClassDevsW@16 00543424     setupapi:SETUPAPI.dll
 0002:00000428       __imp__CM_Get_Device_IDW@16 00543428     setupapi:SETUPAPI.dll
 0002:0000042c       __imp__CM_Get_Child@12     0054342c     setupapi:SETUPAPI.dll
 0002:00000430       __imp__CM_Get_DevNode_Status@16 00543430     setupapi:SETUPAPI.dll
 0002:00000434       __imp__CM_Request_Device_EjectW@20 00543434     setupapi:SETUPAPI.dll
 0002:00000438       __imp__SetupDiGetDeviceInterfaceDetailW@24 00543438     setupapi:SETUPAPI.dll
 0002:0000043c       __imp__SetupDiEnumDeviceInterfaces@20 0054343c     setupapi:SETUPAPI.dll
 0002:00000440       __imp__CM_Locate_DevNodeW@12 00543440     setupapi:SETUPAPI.dll
 0002:00000444       __imp__CM_Get_Device_ID_ListW@16 00543444     setupapi:SETUPAPI.dll
 0002:00000448       __imp__CM_Get_Device_ID_List_SizeW@12 00543448     setupapi:SETUPAPI.dll
 0002:0000044c       __imp__CM_Get_Sibling@12   0054344c     setupapi:SETUPAPI.dll
 0002:00000450       \177SETUPAPI_NULL_THUNK_DATA 00543450     setupapi:SETUPAPI.dll
 0002:00000454       __imp__ShellExecuteW@24    00543454     shell32:SHELL32.dll
 0002:00000458       __imp__ExtractIconExW@20   00543458     shell32:SHELL32.dll
 0002:0000045c       __imp__ShellExecuteExW@4   0054345c     shell32:SHELL32.dll
 0002:00000460       __imp__SHFileOperationW@4  00543460     shell32:SHELL32.dll
 0002:00000464       \177SHELL32_NULL_THUNK_DATA 00543464     shell32:SHELL32.dll
 0002:00000468       __imp__GetUserNameExW@12   00543468     secur32:Secur32.dll
 0002:0000046c       \177Secur32_NULL_THUNK_DATA 0054346c     secur32:Secur32.dll
 0002:00000470       __imp__GetWindowTextW@12   00543470     user32:USER32.dll
 0002:00000474       __imp__wsprintfW           00543474     user32:USER32.dll
 0002:00000478       __imp__PostMessageW@16     00543478     user32:USER32.dll
 0002:0000047c       __imp__IsCharAlphaNumericA@4 0054347c     user32:USER32.dll
 0002:00000480       __imp__OemToCharBuffA@12   00543480     user32:USER32.dll
 0002:00000484       __imp__CharUpperA@4        00543484     user32:USER32.dll
 0002:00000488       __imp__CharToOemA@8        00543488     user32:USER32.dll
 0002:0000048c       __imp__OemToCharA@8        0054348c     user32:USER32.dll
 0002:00000490       __imp__IsCharAlphaA@4      00543490     user32:USER32.dll
 0002:00000494       __imp__IsCharLowerA@4      00543494     user32:USER32.dll
 0002:00000498       __imp__IsCharUpperA@4      00543498     user32:USER32.dll
 0002:0000049c       __imp__CharLowerA@4        0054349c     user32:USER32.dll
 0002:000004a0       __imp__ToUnicodeEx@28      005434a0     user32:USER32.dll
 0002:000004a4       __imp__VkKeyScanW@4        005434a4     user32:USER32.dll
 0002:000004a8       __imp__MapVirtualKeyW@8    005434a8     user32:USER32.dll
 0002:000004ac       __imp__GetKeyState@4       005434ac     user32:USER32.dll
 0002:000004b0       __imp__keybd_event@16      005434b0     user32:USER32.dll
 0002:000004b4       __imp__IsCharLowerW@4      005434b4     user32:USER32.dll
 0002:000004b8       __imp__CharLowerBuffW@8    005434b8     user32:USER32.dll
 0002:000004bc       __imp__IsCharAlphaNumericW@4 005434bc     user32:USER32.dll
 0002:000004c0       __imp__IsWindowVisible@4   005434c0     user32:USER32.dll
 0002:000004c4       __imp__ShowWindowAsync@8   005434c4     user32:USER32.dll
 0002:000004c8       __imp__GetWindowPlacement@8 005434c8     user32:USER32.dll
 0002:000004cc       __imp__SetForegroundWindow@4 005434cc     user32:USER32.dll
 0002:000004d0       __imp__SystemParametersInfoW@16 005434d0     user32:USER32.dll
 0002:000004d4       __imp__DestroyWindow@4     005434d4     user32:USER32.dll
 0002:000004d8       __imp__TranslateMessage@4  005434d8     user32:USER32.dll
 0002:000004dc       __imp__DispatchMessageW@4  005434dc     user32:USER32.dll
 0002:000004e0       __imp__GetMessageW@16      005434e0     user32:USER32.dll
 0002:000004e4       __imp__GetWindowTextLengthW@4 005434e4     user32:USER32.dll
 0002:000004e8       __imp__RegisterClassExW@4  005434e8     user32:USER32.dll
 0002:000004ec       __imp__SendMessageW@16     005434ec     user32:USER32.dll
 0002:000004f0       __imp__CopyIcon@4          005434f0     user32:USER32.dll
 0002:000004f4       __imp__WaitForInputIdle@8  005434f4     user32:USER32.dll
 0002:000004f8       __imp__GetDoubleClickTime@0 005434f8     user32:USER32.dll
 0002:000004fc       __imp__MessageBeep@4       005434fc     user32:USER32.dll
 0002:00000500       __imp__CharUpperW@4        00543500     user32:USER32.dll
 0002:00000504       __imp__IsZoomed@4          00543504     user32:USER32.dll
 0002:00000508       __imp__IsIconic@4          00543508     user32:USER32.dll
 0002:0000050c       __imp__IsCharAlphaW@4      0054350c     user32:USER32.dll
 0002:00000510       __imp__GetKeyboardLayoutList@8 00543510     user32:USER32.dll
 0002:00000514       __imp__CharUpperBuffW@8    00543514     user32:USER32.dll
 0002:00000518       __imp__RegisterClipboardFormatW@4 00543518     user32:USER32.dll
 0002:0000051c       __imp__IsClipboardFormatAvailable@4 0054351c     user32:USER32.dll
 0002:00000520       __imp__SetClipboardData@8  00543520     user32:USER32.dll
 0002:00000524       __imp__GetClipboardData@4  00543524     user32:USER32.dll
 0002:00000528       __imp__EmptyClipboard@0    00543528     user32:USER32.dll
 0002:0000052c       __imp__CloseClipboard@0    0054352c     user32:USER32.dll
 0002:00000530       __imp__OpenClipboard@4     00543530     user32:USER32.dll
 0002:00000534       __imp__GetWindowThreadProcessId@8 00543534     user32:USER32.dll
 0002:00000538       __imp__EnumWindows@8       00543538     user32:USER32.dll
 0002:0000053c       __imp__IsCharUpperW@4      0054353c     user32:USER32.dll
 0002:00000540       __imp__CharToOemBuffW@12   00543540     user32:USER32.dll
 0002:00000544       __imp__CharLowerW@4        00543544     user32:USER32.dll
 0002:00000548       __imp__FlashWindowEx@4     00543548     user32:USER32.dll
 0002:0000054c       __imp__GetWindowInfo@8     0054354c     user32:USER32.dll
 0002:00000550       __imp__PostQuitMessage@4   00543550     user32:USER32.dll
 0002:00000554       __imp__UnregisterClassW@8  00543554     user32:USER32.dll
 0002:00000558       __imp__CreateWindowExW@48  00543558     user32:USER32.dll
 0002:0000055c       __imp__GetWindowLongW@8    0054355c     user32:USER32.dll
 0002:00000560       __imp__DefWindowProcW@16   00543560     user32:USER32.dll
 0002:00000564       \177USER32_NULL_THUNK_DATA 00543564     user32:USER32.dll
 0002:00000568       __imp__EndDocPrinter@4     00543568     winspool:WINSPOOL.DRV
 0002:0000056c       __imp__ClosePrinter@4      0054356c     winspool:WINSPOOL.DRV
 0002:00000570       __imp__StartDocPrinterW@12 00543570     winspool:WINSPOOL.DRV
 0002:00000574       __imp__OpenPrinterW@12     00543574     winspool:WINSPOOL.DRV
 0002:00000578       __imp__GetDefaultPrinterW@8 00543578     winspool:WINSPOOL.DRV
 0002:0000057c       __imp__EnumPrintersW@28    0054357c     winspool:WINSPOOL.DRV
 0002:00000580       __imp__WritePrinter@16     00543580     winspool:WINSPOOL.DRV
 0002:00000584       \177WINSPOOL_NULL_THUNK_DATA 00543584     winspool:WINSPOOL.DRV
 0002:00000588       __imp__CoCreateInstance@20 00543588     ole32:ole32.dll
 0002:0000058c       __imp__CoUninitialize@0    0054358c     ole32:ole32.dll
 0002:00000590       __imp__CoTaskMemFree@4     00543590     ole32:ole32.dll
 0002:00000594       __imp__CoCreateGuid@4      00543594     ole32:ole32.dll
 0002:00000598       __imp__CoInitializeEx@8    00543598     ole32:ole32.dll
 0002:0000059c       \177ole32_NULL_THUNK_DATA  0054359c     ole32:ole32.dll
 0002:000005a0       ___xc_a                    005435a0     LIBCMT:crt0init.obj
 0002:0000066c       ___xc_z                    0054366c     LIBCMT:crt0init.obj
 0002:00000670       ___xi_a                    00543670     LIBCMT:crt0init.obj
 0002:0000068c       ___xi_z                    0054368c     LIBCMT:crt0init.obj
 0002:00000690       ___xl_a                    00543690     LIBCMT:tlssup.obj
 0002:00000694       _hook_wow64_tlscb          00543694     hook_wow64.obj
 0002:00000698       ___xl_z                    00543698     LIBCMT:tlssup.obj
 0002:0000069c       ___xp_a                    0054369c     LIBCMT:crt0init.obj
 0002:000006a8       ___xp_z                    005436a8     LIBCMT:crt0init.obj
 0002:000006ac       ___xt_a                    005436ac     LIBCMT:crt0init.obj
 0002:000006b0       ___xt_z                    005436b0     LIBCMT:crt0init.obj
 0002:000006dc       ??_C@_11LOCGONAA@?$AA?$AA@ 005436dc     cddrv.obj
 0002:000006e0       ??_C@_05OIBHDPLN@HDDVD?$AA@ 005436e0     cddrv.obj
 0002:000006e8       ??_C@_05POMLDHCO@BDROM?$AA@ 005436e8     cddrv.obj
 0002:000006f0       ??_C@_06PAPIHFBO@DVDRAM?$AA@ 005436f0     cddrv.obj
 0002:000006f8       ??_C@_05ODBDNCGK@DVDRW?$AA@ 005436f8     cddrv.obj
 0002:00000700       ??_C@_03DGOJDHIK@DVD?$AA@  00543700     cddrv.obj
 0002:00000704       ??_C@_04KIDKNEFM@CDRW?$AA@ 00543704     cddrv.obj
 0002:0000070c       ??_C@_02OGHHJPHF@CD?$AA@   0054370c     cddrv.obj
 0002:00000710       ??_C@_19BKJMDJK@?$AA?2?$AA?2?$AA?4?$AA?2?$AA?$AA@ 00543710     cddrv.obj
 0002:0000071c       ??_C@_19MJCDBCKE@?$AA?2?$AA?2?$AA?$DP?$AA?2?$AA?$AA@ 0054371c     cddrv.obj
 0002:00000728       ?FAR_VerticalBlock@@3QB_WB 00543728     clipboard.obj
 0002:0000074c       ?FAR_VerticalBlock_Unicode@@3QB_WB 0054374c     clipboard.obj
 0002:00000780       ??_C@_15JNBOKNOG@?$AA?$AN?$AA?6?$AA?$AA@ 00543780     clipboard.obj
 0002:00000788       ??_C@_1BK@BNOKEKKF@?$AAH?$AAi?$AAs?$AAt?$AAo?$AAr?$AAy?$AAV?$AAi?$AAe?$AAw?$AAs?$AA?$AA@ 00543788     cmdline.obj
 0002:000007a4       ??_C@_1BO@KEOHINI@?$AAH?$AAi?$AAs?$AAt?$AAo?$AAr?$AAy?$AAF?$AAo?$AAl?$AAd?$AAe?$AAr?$AAs?$AA?$AA@ 005437a4     cmdline.obj
 0002:000007c4       ??_C@_1BA@JJMCCKFL@?$AAH?$AAi?$AAs?$AAt?$AAo?$AAr?$AAy?$AA?$AA@ 005437c4     cmdline.obj
 0002:000007d4       ??_C@_13MOEPKPHB@?$AA?$DO?$AA?$AA@ 005437d4     cmdline.obj
 0002:000007d8       ??_C@_15FNDDFCCM@?$AA?$CF?$AAT?$AA?$AA@ 005437d8     cmdline.obj
 0002:000007e0       ??_C@_15NCKAFLD@?$AA?$CF?$AAD?$AA?$AA@ 005437e0     cmdline.obj
 0002:000007e8       ??_C@_13OCMIIKPF@?$CB?$JB?$AA?$AA@ 005437e8     cmdline.obj
 0002:000007ec       ??_7CommandLine@@6B@       005437ec     cmdline.obj
 0002:00000820       ??_C@_1CI@IECHNEBO@?$AAC?$AAo?$AAd?$AAe?$AAP?$AAa?$AAg?$AAe?$AAs?$AA?2?$AAF?$AAa?$AAv?$AAo?$AAr?$AAi?$AAt?$AAe?$AAs?$AA?$AA@ 00543820     codepage.obj
 0002:00000848       ??_C@_1CA@ECBGAKAN@?$AAC?$AAo?$AAd?$AAe?$AAP?$AAa?$AAg?$AAe?$AAs?$AA?2?$AAN?$AAa?$AAm?$AAe?$AAs?$AA?$AA@ 00543848     codepage.obj
 0002:00000868       ??_7BaseFormat@@6B@        00543868     codepage.obj
 0002:00000870       ??_7FormatString@@6B@      00543870     codepage.obj
 0002:00000878       ??_C@_1CI@GJEHANA@?$AAU?$AAT?$AAF?$AA?9?$AA1?$AA6?$AA?5?$AA?$CI?$AAB?$AAi?$AAg?$AA?5?$AAe?$AAn?$AAd?$AAi?$AAa?$AAn?$AA?$CJ?$AA?$AA@ 00543878     codepage.obj
 0002:000008a0       ??_C@_1CO@FPEBNHFN@?$AAU?$AAT?$AAF?$AA?9?$AA1?$AA6?$AA?5?$AA?$CI?$AAL?$AAi?$AAt?$AAt?$AAl?$AAe?$AA?5?$AAe?$AAn?$AAd?$AAi?$AAa?$AAn?$AA?$CJ?$AA?$AA@ 005438a0     codepage.obj
 0002:000008d0       ??_C@_1M@PBFCDPHC@?$AAU?$AAT?$AAF?$AA?9?$AA8?$AA?$AA@ 005438d0     codepage.obj
 0002:000008dc       ??_C@_1M@KJDBCPCE@?$AAU?$AAT?$AAF?$AA?9?$AA7?$AA?$AA@ 005438dc     codepage.obj
 0002:000008e8       ??_C@_19DNBMEGCG@?$AAA?$AAN?$AAS?$AAI?$AA?$AA@ 005438e8     codepage.obj
 0002:000008f4       ??_C@_17FMILOLOI@?$AAO?$AAE?$AAM?$AA?$AA@ 005438f4     codepage.obj
 0002:000008fc       ??_C@_15IGBOBEDA@?$AA?5?$AA?$CK?$AA?$AA@ 005438fc     codepage.obj
 0002:00000904       ??_C@_1CI@MBAPDCAP@?$AAE?$AAd?$AAi?$AAt?$AAC?$AAo?$AAd?$AAe?$AAP?$AAa?$AAg?$AAe?$AAN?$AAa?$AAm?$AAe?$AAD?$AAl?$AAg?$AA?$AA@ 00543904     codepage.obj
 0002:0000092c       ??_C@_1BK@DJDJEEAK@?$AAC?$AAo?$AAd?$AAe?$AAP?$AAa?$AAg?$AAe?$AAN?$AAa?$AAm?$AAe?$AA?$AA@ 0054392c     codepage.obj
 0002:00000948       ??_C@_1BM@LBHKDLFG@?$AAC?$AAo?$AAd?$AAe?$AAP?$AAa?$AAg?$AAe?$AAs?$AAM?$AAe?$AAn?$AAu?$AA?$AA@ 00543948     codepage.obj
 0002:00000964       ??_C@_1BO@OEADHPMA@?$AAC?$AAu?$AAr?$AAr?$AAe?$AAn?$AAt?$AAP?$AAa?$AAl?$AAe?$AAt?$AAt?$AAe?$AA?$AA@ 00543964     config.obj
 0002:00000984       ??_C@_1BG@MDGCBPFO@?$AA?4?$AAB?$AAA?$AAT?$AA?$DL?$AA?4?$AAC?$AAM?$AAD?$AA?$DL?$AA?$AA@ 00543984     config.obj
 0002:0000099c       ??_C@_1CG@NLOLICCC@?$AA?5?$AA?7?$AA?$CB?$AA?$CD?$AA$?$AA?$CF?$AA?$FO?$AA?$CG?$AA?$CK?$AA?$CI?$AA?$CJ?$AA?$CL?$AA?$HM?$AA?$DN?$AA?2?$AA?1?$AA?$EA?$AA?$DP?$AA?$AA@ 0054399c     config.obj
 0002:000009c4       ??_C@_1DK@LCNKAACK@?$AA?$HO?$AA?$CB?$AA?$CF?$AA?$FO?$AA?$CG?$AA?$CK?$AA?$CI?$AA?$CJ?$AA?$CL?$AA?$HM?$AA?$HL?$AA?$HN?$AA?3?$AA?$CC?$AA?$DM?$AA?$DO?$AA?$DP?$AA?$GA?$AA?9?$AA?$DN?$AA?2?$AA?$FL?$AA?$FN?$AA?$DL?$AA?8?$AA?0?$AA?4?$AA?1?$AA?$AA@ 005439c4     config.obj
 0002:00000a00       ?SECOND_COLUMN@?$DialogBuilderBase@UFarDialogItem@@@@1HB 00543a00     config.obj
 0002:00000a04       ?SECOND_COLUMN@?$DialogBuilderBase@UDialogItemEx@@@@1HB 00543a04     config.obj
 0002:00000d30       ??_C@_1CA@LNIOBKLN@?$AAF?$AAo?$AAl?$AAd?$AAe?$AAr?$AAI?$AAn?$AAf?$AAo?$AAF?$AAi?$AAl?$AAe?$AAs?$AA?$AA@ 00543d30     config.obj
 0002:00000d50       ??_C@_1BA@ODKDDAOP@?$AAO?$AAp?$AAt?$AAM?$AAe?$AAn?$AAu?$AA?$AA@ 00543d50     config.obj
 0002:00000d60       ??_C@_19JPHCGFBO@?$AAM?$AAa?$AAi?$AAn?$AA?$AA@ 00543d60     config.obj
 0002:00000d6c       ??_C@_1CI@OAPGELHL@?$AAP?$AAe?$AAr?$AAs?$AAo?$AAn?$AAa?$AAl?$AAP?$AAl?$AAu?$AAg?$AAi?$AAn?$AAs?$AAP?$AAa?$AAt?$AAh?$AA?$AA@ 00543d6c     config.obj
 0002:00000d98       ??_C@_1FA@EDEKLJNG@?$AA0?$AA?0?$AA0?$AA?0?$AA0?$AA?0?$AA0?$AA?0?$AA0?$AA?0?$AA0?$AA?0?$AA0?$AA?0?$AA0?$AA?0?$AA0?$AA?0?$AA0?$AA?0?$AA0?$AA?0?$AA0?$AA?0?$AA0?$AA?0?$AA0?$AA?0?$AA0?$AA?0?$AA0?$AA?0@ 00543d98     config.obj
 0002:00000de8       ??_C@_1BA@BPEMMEAO@?$AAL?$AAa?$AAy?$AAo?$AAu?$AAt?$AAs?$AA?$AA@ 00543de8     config.obj
 0002:00000df8       ??_C@_1EC@NPCHFMKF@?$AA?$FO?$AA?3?$AA?3?$AE?$BG?$AE?$BG?$AA?$FO?$AA$?$AA?$DL?$AA?$DL?$AE6?$AE6?$AA$?$AA?$EA?$AA?$CC?$AA?$CC?$AE?9?$AE?9?$AA?$EA?$AA?$CG?$AA?$DP?$AA?$DP?$AA?0?$AA?0?$AE1?$AE1?$AA?$CG?$AA?1?$AA?4?$AA?4?$AEN?$AEN?$AA?1@ 00543df8     config.obj
 0002:00000e3c       ??_C@_1CO@LJMEPBNA@?$AA?$DP?$AA?0?$AA?$CG?$AA?$DP?$AA?1?$AA?4?$AA?0?$AE1?$AA?4?$AEN?$AA?$FO?$AA?3?$AA?3?$AE?$BG?$AA?$DL?$AE6?$AA$?$AA?$DL?$AA?$EA?$AA?$CC?$AA?$CC?$AE?9?$AA?$AA@ 00543e3c     config.obj
 0002:00000e6c       ??_C@_1CO@CDBJOOJJ@?$AA?0?$AA?$DP?$AA?$DP?$AA?$CG?$AA?4?$AA?1?$AE1?$AA?0?$AEN?$AA?4?$AA?3?$AA?$FO?$AE?$BG?$AA?3?$AE6?$AA?$DL?$AA?$DL?$AA$?$AA?$CC?$AA?$EA?$AE?9?$AA?$CC?$AA?$AA@ 00543e6c     config.obj
 0002:00000ea0       ??_C@_1HO@GMHPJPCN@?$AA?$CD?$AAF?$AAD?$AAU?$AAL?$AAT?$AAP?$AAB?$AAQ?$AAR?$AAK?$AAV?$AAY?$AAJ?$AAG?$AAH?$AAC?$AAN?$AAE?$AAA?$AA?$HL?$AAW?$AAX?$AAI?$AAO?$AA?$HN?$AAS?$AAM?$AAZ?$AAf?$AAd?$AAu@ 00543ea0     config.obj
 0002:00000f20       ??_C@_1HO@EKAEOBCB@?$CB?$BG?$AE?$BA?$AE?$BC?$AE?$BD?$AE?$BE?$AE?$BF?$AE?$BH?$AE?$BI?$AE?$BJ?$AE?$BK?$AE?$BL?$AE?$BM?$AE?$BN?$AE?$BO?$AE?$BP?$AE?5?$AE?$CB?$AE?$CC?$AE?$CD?$AE$?$AE?$CF?$AE?$CG?$AE?8?$AE?$CI?$AE?$CJ?$AE?$CK?$AE?$CL?$AE?0?$AE?1?$AE0?$AE2?$AE3@ 00543f20     config.obj
 0002:00000fa0       ??_C@_1CK@IGIAOGEF@?$AAV?$AAi?$AAe?$AAw?$AAe?$AAr?$AA?2?$AAL?$AAa?$AAs?$AAt?$AAP?$AAo?$AAs?$AAi?$AAt?$AAi?$AAo?$AAn?$AAs?$AA?$AA@ 00543fa0     config.obj
 0002:00000fcc       ??_C@_1CK@JGGNAFIB@?$AAE?$AAd?$AAi?$AAt?$AAo?$AAr?$AA?2?$AAL?$AAa?$AAs?$AAt?$AAP?$AAo?$AAs?$AAi?$AAt?$AAi?$AAo?$AAn?$AAs?$AA?$AA@ 00543fcc     config.obj
 0002:00000ff8       ??_C@_1CM@EIBIPKLH@?$AAK?$AAe?$AAy?$AAR?$AAe?$AAc?$AAo?$AAr?$AAd?$AAC?$AAt?$AAr?$AAl?$AAS?$AAh?$AAi?$AAf?$AAt?$AAD?$AAo?$AAt?$AA?$AA@ 00543ff8     config.obj
 0002:00001024       ??_C@_1CC@LLNNMBOC@?$AAK?$AAe?$AAy?$AAR?$AAe?$AAc?$AAo?$AAr?$AAd?$AAC?$AAt?$AAr?$AAl?$AAD?$AAo?$AAt?$AA?$AA@ 00544024     config.obj
 0002:00001048       ??_C@_1CA@LNFDKMOB@?$AAD?$AAi?$AAs?$AAa?$AAb?$AAl?$AAe?$AAd?$AAO?$AAp?$AAt?$AAi?$AAo?$AAn?$AAs?$AA?$AA@ 00544048     config.obj
 0002:00001068       ??_C@_1CC@HFNOAPDA@?$AAS?$AAh?$AAo?$AAw?$AAH?$AAi?$AAd?$AAd?$AAe?$AAn?$AAD?$AAr?$AAi?$AAv?$AAe?$AAs?$AA?$AA@ 00544068     config.obj
 0002:0000108c       ??_C@_1CI@HKOCOHPB@?$AAT?$AAe?$AAm?$AAp?$AAl?$AAa?$AAt?$AAe?$AAP?$AAl?$AAu?$AAg?$AAi?$AAn?$AAs?$AAP?$AAa?$AAt?$AAh?$AA?$AA@ 0054408c     config.obj
 0002:000010b4       ??_C@_1BO@LPEFLAOK@?$AAS?$AAy?$AAs?$AAt?$AAe?$AAm?$AAS?$AAe?$AAt?$AAt?$AAi?$AAn?$AAg?$AAs?$AA?$AA@ 005440b4     config.obj
 0002:000010d4       ??_C@_1BM@IHDKAEGN@?$AAP?$AAa?$AAn?$AAe?$AAl?$AAS?$AAe?$AAt?$AAt?$AAi?$AAn?$AAg?$AAs?$AA?$AA@ 005440d4     config.obj
 0002:000010f0       ??_C@_1BO@EIJJPIDP@?$AAI?$AAn?$AAt?$AAe?$AAr?$AAf?$AAS?$AAe?$AAt?$AAt?$AAi?$AAn?$AAg?$AAs?$AA?$AA@ 005440f0     config.obj
 0002:00001110       ??_C@_1CK@LAIHJELN@?$AAA?$AAu?$AAt?$AAo?$AAC?$AAo?$AAm?$AAp?$AAl?$AAe?$AAt?$AAe?$AAS?$AAe?$AAt?$AAt?$AAi?$AAn?$AAg?$AAs?$AA?$AA@ 00544110     config.obj
 0002:0000113c       ??_C@_1CE@DAMEFFKK@?$AAI?$AAn?$AAf?$AAo?$AAP?$AAa?$AAn?$AAe?$AAl?$AAS?$AAe?$AAt?$AAt?$AAi?$AAn?$AAg?$AAs?$AA?$AA@ 0054413c     config.obj
 0002:00001160       ??_C@_1BO@LDKMOICK@?$AAD?$AAi?$AAa?$AAl?$AAo?$AAg?$AAS?$AAe?$AAt?$AAt?$AAi?$AAn?$AAg?$AAs?$AA?$AA@ 00544160     config.obj
 0002:00001180       ??_C@_1BM@GALMFJPH@?$AAV?$AAM?$AAe?$AAn?$AAu?$AAS?$AAe?$AAt?$AAt?$AAi?$AAn?$AAg?$AAs?$AA?$AA@ 00544180     config.obj
 0002:0000119c       ??_C@_1CA@FELOKAGE@?$AAC?$AAm?$AAd?$AAl?$AAi?$AAn?$AAe?$AAS?$AAe?$AAt?$AAt?$AAi?$AAn?$AAg?$AAs?$AA?$AA@ 0054419c     config.obj
 0002:000011bc       ??_C@_1BG@NJLOFCFA@?$AAC?$AAo?$AAn?$AAf?$AAi?$AAr?$AAm?$AAD?$AAl?$AAg?$AA?$AA@ 005441bc     config.obj
 0002:000011d4       ??_C@_1BC@NMHDNOOB@?$AAP?$AAe?$AAr?$AAs?$AAP?$AAa?$AAt?$AAh?$AA?$AA@ 005441d4     config.obj
 0002:000011e8       ??_C@_1CO@KHDGGJFN@?$AAP?$AAl?$AAu?$AAg?$AAi?$AAn?$AAs?$AAM?$AAa?$AAn?$AAa?$AAg?$AAe?$AAr?$AAS?$AAe?$AAt?$AAt?$AAi?$AAn?$AAg?$AAs?$AA?$AA@ 005441e8     config.obj
 0002:00001218       ??_C@_1BA@NABIGHBN@?$AAF?$AAi?$AAl?$AAe?$AAD?$AAi?$AAz?$AA?$AA@ 00544218     config.obj
 0002:00001228       ??_C@_1BO@JLBPLOMA@?$AAE?$AAx?$AAt?$AAe?$AAr?$AAn?$AAa?$AAl?$AAV?$AAi?$AAe?$AAw?$AAe?$AAr?$AA?$AA@ 00544228     config.obj
 0002:00001248       ??_C@_1BO@DIDCPKPH@?$AAV?$AAi?$AAe?$AAw?$AAe?$AAr?$AAS?$AAe?$AAt?$AAt?$AAi?$AAn?$AAg?$AAs?$AA?$AA@ 00544248     config.obj
 0002:00001268       ??_C@_1BO@CKELGCJC@?$AAE?$AAx?$AAt?$AAe?$AAr?$AAn?$AAa?$AAl?$AAE?$AAd?$AAi?$AAt?$AAo?$AAr?$AA?$AA@ 00544268     config.obj
 0002:00001288       ??_C@_1BO@LGACPPKG@?$AAE?$AAd?$AAi?$AAt?$AAo?$AAr?$AAS?$AAe?$AAt?$AAt?$AAi?$AAn?$AAg?$AAs?$AA?$AA@ 00544288     config.obj
 0002:000012a8       ??_C@_1BE@KBAOMLIF@?$AAM?$AAB?$AAt?$AAn?$AAC?$AAl?$AAi?$AAc?$AAk?$AA?$AA@ 005442a8     config.obj
 0002:000012bc       ??_C@_1BE@DNFHBAIB@?$AAR?$AAB?$AAt?$AAn?$AAC?$AAl?$AAi?$AAc?$AAk?$AA?$AA@ 005442bc     config.obj
 0002:000012d0       ??_C@_1BE@MEGJPAMD@?$AAL?$AAB?$AAt?$AAn?$AAC?$AAl?$AAi?$AAc?$AAk?$AA?$AA@ 005442d0     config.obj
 0002:000012e4       ??_C@_1CG@BJICBGPO@?$AAI?$AAn?$AAf?$AAo?$AAU?$AAs?$AAe?$AAr?$AAN?$AAa?$AAm?$AAe?$AAF?$AAo?$AAr?$AAm?$AAa?$AAt?$AA?$AA@ 005442e4     config.obj
 0002:0000130c       ??_C@_1CO@DKGGENBH@?$AAI?$AAn?$AAf?$AAo?$AAC?$AAo?$AAm?$AAp?$AAu?$AAt?$AAe?$AAr?$AAN?$AAa?$AAm?$AAe?$AAF?$AAo?$AAr?$AAm?$AAa?$AAt?$AA?$AA@ 0054430c     config.obj
 0002:00001340       ??_C@_1GE@BCNGIMII@?$AAD?$AAi?$AAr?$AAI?$AAn?$AAf?$AAo?$AA?0?$AAF?$AAi?$AAl?$AAe?$AA_?$AAI?$AAd?$AA?4?$AAd?$AAi?$AAz?$AA?0?$AAD?$AAe?$AAs?$AAc?$AAr?$AAi?$AAp?$AAt?$AA?4?$AAi?$AAo?$AAn@ 00544340     config.obj
 0002:000013a4       ??_C@_1BG@HAJJKMOA@?$AAF?$AAo?$AAl?$AAd?$AAe?$AAr?$AAI?$AAn?$AAf?$AAo?$AA?$AA@ 005443a4     config.obj
 0002:000013bc       ??_C@_1BO@GNPFLCOG@?$AAN?$AAo?$AAA?$AAu?$AAt?$AAo?$AAD?$AAe?$AAt?$AAe?$AAc?$AAt?$AAC?$AAP?$AA?$AA@ 005443bc     config.obj
 0002:000013dc       ??_C@_1BG@HNFNHMIG@?$AAC?$AAP?$AAM?$AAe?$AAn?$AAu?$AAM?$AAo?$AAd?$AAe?$AA?$AA@ 005443dc     config.obj
 0002:000013f4       ??_C@_1CE@KAACIONF@?$AAE?$AAx?$AAc?$AAl?$AAu?$AAd?$AAe?$AAC?$AAm?$AAd?$AAH?$AAi?$AAs?$AAt?$AAo?$AAr?$AAy?$AA?$AA@ 005443f4     config.obj
 0002:00001418       ??_C@_1CA@CCHONPMP@?$AAC?$AAa?$AAl?$AAl?$AAP?$AAl?$AAu?$AAg?$AAi?$AAn?$AAR?$AAu?$AAl?$AAe?$AAs?$AA?$AA@ 00544418     config.obj
 0002:00001438       ??_C@_19CNCPAEHD@?$AA?$CF?$AA?4?$AA6?$AAg?$AA?$AA@ 00544438     config.obj
 0002:00001444       ??_C@_1BA@HGNMGNGJ@?$AAC?$AAO?$AAN?$AAV?$AAF?$AAM?$AAT?$AA?$AA@ 00544444     config.obj
 0002:00001454       ??_C@_1DA@DCDBJMAN@?$AA?$CF?$AAa?$AA?5?$AA?$CF?$AAb?$AA?5?$AA?$CF?$AAd?$AA?5?$AA?$CF?$AAH?$AA?3?$AA?$CF?$AAM?$AA?3?$AA?$CF?$AAS?$AA?5?$AA?$CF?$AAZ?$AA?5?$AA?$CF?$AAY?$AA?$AA@ 00544454     config.obj
 0002:00001484       ??_C@_1BG@HHJIGCJJ@?$AAD?$AAa?$AAt?$AAe?$AAF?$AAo?$AAr?$AAm?$AAa?$AAt?$AA?$AA@ 00544484     config.obj
 0002:0000149c       ??_C@_1CA@FPEJEBAH@?$AAM?$AAa?$AAc?$AAr?$AAo?$AAR?$AAe?$AAu?$AAs?$AAe?$AAR?$AAu?$AAl?$AAe?$AAs?$AA?$AA@ 0054449c     config.obj
 0002:000014bc       ??_C@_1BE@FAOPGOID@?$AAS?$AAa?$AAv?$AAe?$AAI?$AAn?$AAU?$AAT?$AAF?$AA?$AA@ 005444bc     config.obj
 0002:000014d0       ??_C@_1BM@JLIFPEHE@?$AAA?$AAn?$AAs?$AAi?$AAB?$AAy?$AAD?$AAe?$AAf?$AAa?$AAu?$AAl?$AAt?$AA?$AA@ 005444d0     config.obj
 0002:000014ec       ??_C@_1BC@BOBECLNL@?$AAS?$AAt?$AAa?$AAr?$AAt?$AAP?$AAo?$AAs?$AA?$AA@ 005444ec     config.obj
 0002:00001500       ??_C@_1BE@EKKNNPGO@?$AAS?$AAe?$AAt?$AAH?$AAi?$AAd?$AAd?$AAe?$AAn?$AA?$AA@ 00544500     config.obj
 0002:00001514       ??_C@_1BC@HGGOIOEE@?$AAR?$AAO?$AAU?$AAp?$AAd?$AAa?$AAt?$AAe?$AA?$AA@ 00544514     config.obj
 0002:00001528       ??_C@_1BG@HFEONLBN@?$AAU?$AAp?$AAd?$AAa?$AAt?$AAe?$AAM?$AAo?$AAd?$AAe?$AA?$AA@ 00544528     config.obj
 0002:00001540       ??_C@_1CO@GJHBLLAK@?$AAD?$AAe?$AAs?$AAc?$AAr?$AAi?$AAp?$AAt?$AA?4?$AAi?$AAo?$AAn?$AA?0?$AAF?$AAi?$AAl?$AAe?$AAs?$AA?4?$AAb?$AAb?$AAs?$AA?$AA@ 00544540     config.obj
 0002:00001570       ??_C@_1BE@IBGLDNNG@?$AAL?$AAi?$AAs?$AAt?$AAN?$AAa?$AAm?$AAe?$AAs?$AA?$AA@ 00544570     config.obj
 0002:00001584       ??_C@_1BO@GLBDBHFI@?$AAF?$AAu?$AAl?$AAl?$AAs?$AAc?$AAr?$AAe?$AAe?$AAn?$AAH?$AAe?$AAl?$AAp?$AA?$AA@ 00544584     config.obj
 0002:000015a4       ??_C@_1BO@JIKMKPEK@?$AAW?$AAi?$AAd?$AAt?$AAh?$AAD?$AAe?$AAc?$AAr?$AAe?$AAm?$AAe?$AAn?$AAt?$AA?$AA@ 005445a4     config.obj
 0002:000015c4       ??_C@_1CK@BANBINOH@?$AAR?$AAi?$AAg?$AAh?$AAt?$AAH?$AAe?$AAi?$AAg?$AAh?$AAt?$AAD?$AAe?$AAc?$AAr?$AAe?$AAm?$AAe?$AAn?$AAt?$AA?$AA@ 005445c4     config.obj
 0002:000015f0       ??_C@_1CI@OPMFDAJE@?$AAL?$AAe?$AAf?$AAt?$AAH?$AAe?$AAi?$AAg?$AAh?$AAt?$AAD?$AAe?$AAc?$AAr?$AAe?$AAm?$AAe?$AAn?$AAt?$AA?$AA@ 005445f0     config.obj
 0002:00001618       ??_C@_1BM@NAPOKFKP@?$AAS?$AAc?$AAr?$AAe?$AAe?$AAn?$AAs?$AAN?$AAu?$AAm?$AAb?$AAe?$AAr?$AA?$AA@ 00544618     config.obj
 0002:00001634       ??_C@_1BM@KPCKIEEF@?$AAS?$AAc?$AAr?$AAo?$AAl?$AAl?$AAb?$AAa?$AAr?$AAM?$AAe?$AAn?$AAu?$AA?$AA@ 00544634     config.obj
 0002:00001650       ??_C@_1BE@HDKMEMEF@?$AAS?$AAc?$AAr?$AAo?$AAl?$AAl?$AAb?$AAa?$AAr?$AA?$AA@ 00544650     config.obj
 0002:00001664       ??_C@_1BC@NGHKAFIA@?$AAF?$AAr?$AAe?$AAe?$AAI?$AAn?$AAf?$AAo?$AA?$AA@ 00544664     config.obj
 0002:00001678       ??_C@_1BE@FHLGMNJJ@?$AAT?$AAo?$AAt?$AAa?$AAl?$AAI?$AAn?$AAf?$AAo?$AA?$AA@ 00544678     config.obj
 0002:0000168c       ??_C@_1BG@MHMKAABO@?$AAS?$AAt?$AAa?$AAt?$AAu?$AAs?$AAL?$AAi?$AAn?$AAe?$AA?$AA@ 0054468c     config.obj
 0002:000016a4       ??_C@_1BK@MBFACEDG@?$AAC?$AAo?$AAl?$AAu?$AAm?$AAn?$AAT?$AAi?$AAt?$AAl?$AAe?$AAs?$AA?$AA@ 005446a4     config.obj
 0002:000016c0       ??_C@_1CC@BJEENBLJ@?$AAD?$AAi?$AAr?$AAe?$AAc?$AAt?$AAo?$AAr?$AAi?$AAe?$AAs?$AAF?$AAi?$AAr?$AAs?$AAt?$AA?$AA@ 005446c0     config.obj
 0002:000016e4       ??_C@_1BM@GJIFDEJ@?$AAS?$AAe?$AAl?$AAe?$AAc?$AAt?$AAe?$AAd?$AAF?$AAi?$AAr?$AAs?$AAt?$AA?$AA@ 005446e4     config.obj
 0002:00001700       ??_C@_1BA@JNIBDAIG@?$AAC?$AAu?$AAr?$AAF?$AAi?$AAl?$AAe?$AA?$AA@ 00544700     config.obj
 0002:00001710       ??_C@_1O@MLIMHFEH@?$AAF?$AAo?$AAl?$AAd?$AAe?$AAr?$AA?$AA@ 00544710     config.obj
 0002:00001720       ??_C@_1CE@KEEODGJP@?$AAC?$AAa?$AAs?$AAe?$AAS?$AAe?$AAn?$AAs?$AAi?$AAt?$AAi?$AAv?$AAe?$AAS?$AAo?$AAr?$AAt?$AA?$AA@ 00544720     config.obj
 0002:00001744       ??_C@_1BI@POMHLOLA@?$AAN?$AAu?$AAm?$AAe?$AAr?$AAi?$AAc?$AAS?$AAo?$AAr?$AAt?$AA?$AA@ 00544744     config.obj
 0002:0000175c       ??_C@_1BG@IIFDEFDL@?$AAS?$AAh?$AAo?$AAr?$AAt?$AAN?$AAa?$AAm?$AAe?$AAs?$AA?$AA@ 0054475c     config.obj
 0002:00001774       ??_C@_1BG@MDJGIKFA@?$AAS?$AAo?$AAr?$AAt?$AAG?$AAr?$AAo?$AAu?$AAp?$AAs?$AA?$AA@ 00544774     config.obj
 0002:0000178c       ??_C@_1BE@ENOJMBAM@?$AAS?$AAo?$AAr?$AAt?$AAO?$AAr?$AAd?$AAe?$AAr?$AA?$AA@ 0054478c     config.obj
 0002:000017a0       ??_C@_1BC@IALIJCAM@?$AAS?$AAo?$AAr?$AAt?$AAM?$AAo?$AAd?$AAe?$AA?$AA@ 005447a0     config.obj
 0002:000017b4       ??_C@_1BC@EDDCNOFD@?$AAV?$AAi?$AAe?$AAw?$AAM?$AAo?$AAd?$AAe?$AA?$AA@ 005447b4     config.obj
 0002:000017c8       ??_C@_1M@HJJEACF@?$AAF?$AAo?$AAc?$AAu?$AAs?$AA?$AA@ 005447c8     config.obj
 0002:000017d4       ??_C@_1BA@DFCBHGCL@?$AAV?$AAi?$AAs?$AAi?$AAb?$AAl?$AAe?$AA?$AA@ 005447d4     config.obj
 0002:000017e4       ??_C@_19BIEPDBPA@?$AAT?$AAy?$AAp?$AAe?$AA?$AA@ 005447e4     config.obj
 0002:000017f0       ??_C@_1CA@OMJHOBF@?$AAA?$AAu?$AAt?$AAo?$AAU?$AAp?$AAd?$AAa?$AAt?$AAe?$AAL?$AAi?$AAm?$AAi?$AAt?$AA?$AA@ 005447f0     config.obj
 0002:00001810       ??_C@_1CM@NIFBIDMA@?$AAR?$AAe?$AAm?$AAe?$AAm?$AAb?$AAe?$AAr?$AAL?$AAo?$AAg?$AAi?$AAc?$AAa?$AAl?$AAD?$AAr?$AAi?$AAv?$AAe?$AAs?$AA?$AA@ 00544810     config.obj
 0002:0000183c       ??_C@_1CC@CHOCELDD@?$AAC?$AAt?$AAr?$AAl?$AAA?$AAl?$AAt?$AAS?$AAh?$AAi?$AAf?$AAt?$AAR?$AAu?$AAl?$AAe?$AA?$AA@ 0054483c     config.obj
 0002:00001860       ??_C@_1BE@KDJEFBBP@?$AAC?$AAt?$AAr?$AAl?$AAF?$AAR?$AAu?$AAl?$AAe?$AA?$AA@ 00544860     config.obj
 0002:00001874       ??_C@_1BO@JADLHMDO@?$AAR?$AAi?$AAg?$AAh?$AAt?$AAC?$AAl?$AAi?$AAc?$AAk?$AAR?$AAu?$AAl?$AAe?$AA?$AA@ 00544874     config.obj
 0002:00001894       ??_C@_1BI@BKFMFKGH@?$AAR?$AAe?$AAv?$AAe?$AAr?$AAs?$AAe?$AAS?$AAo?$AAr?$AAt?$AA?$AA@ 00544894     config.obj
 0002:000018ac       ??_C@_1BM@FAFKMMCM@?$AAS?$AAe?$AAl?$AAe?$AAc?$AAt?$AAF?$AAo?$AAl?$AAd?$AAe?$AAr?$AAs?$AA?$AA@ 005448ac     config.obj
 0002:000018c8       ??_C@_1BM@IPCIHCME@?$AAS?$AAo?$AAr?$AAt?$AAF?$AAo?$AAl?$AAd?$AAe?$AAr?$AAE?$AAx?$AAt?$AA?$AA@ 005448c8     config.obj
 0002:000018e4       ??_C@_1BE@OGIDDLOL@?$AAH?$AAi?$AAg?$AAh?$AAl?$AAi?$AAg?$AAh?$AAt?$AA?$AA@ 005448e4     config.obj
 0002:000018f8       ??_C@_1BG@EEJFCAOO@?$AAS?$AAh?$AAo?$AAw?$AAH?$AAi?$AAd?$AAd?$AAe?$AAn?$AA?$AA@ 005448f8     config.obj
 0002:00001910       ??_C@_1DC@HNMMKICP@?$AAS?$AAh?$AAe?$AAl?$AAl?$AAR?$AAi?$AAg?$AAh?$AAt?$AAL?$AAe?$AAf?$AAt?$AAA?$AAr?$AAr?$AAo?$AAw?$AAs?$AAR?$AAu?$AAl?$AAe?$AA?$AA@ 00544910     config.obj
 0002:00001944       ??_C@_1O@GBAEOCCH@?$AAP?$AAr?$AAe?$AAf?$AAi?$AAx?$AA?$AA@ 00544944     config.obj
 0002:00001954       ??_C@_1BI@MLPADJKC@?$AAS?$AAe?$AAt?$AAF?$AAi?$AAn?$AAd?$AAL?$AAi?$AAs?$AAt?$AA?$AA@ 00544954     config.obj
 0002:0000196c       ??_C@_1CI@ODHDJADK@?$AAE?$AAv?$AAe?$AAn?$AAI?$AAf?$AAO?$AAn?$AAl?$AAy?$AAO?$AAn?$AAe?$AAP?$AAl?$AAu?$AAg?$AAi?$AAn?$AA?$AA@ 0054496c     config.obj
 0002:00001994       ??_C@_1CI@EAFNBCCN@?$AAS?$AAt?$AAa?$AAn?$AAd?$AAa?$AAr?$AAd?$AAA?$AAs?$AAs?$AAo?$AAc?$AAi?$AAa?$AAt?$AAi?$AAo?$AAn?$AA?$AA@ 00544994     config.obj
 0002:000019bc       ??_C@_1BO@PFHPGOFN@?$AAO?$AAp?$AAe?$AAn?$AAF?$AAi?$AAl?$AAe?$AAP?$AAl?$AAu?$AAg?$AAi?$AAn?$AA?$AA@ 005449bc     config.obj
 0002:000019dc       ??_C@_1CI@PHNCHKFI@?$AAE?$AAs?$AAc?$AAT?$AAw?$AAi?$AAc?$AAe?$AAT?$AAo?$AAI?$AAn?$AAt?$AAe?$AAr?$AAr?$AAu?$AAp?$AAt?$AA?$AA@ 005449dc     config.obj
 0002:00001a04       ??_C@_19NAPFLIBB@?$AAE?$AAx?$AAi?$AAt?$AA?$AA@ 00544a04     config.obj
 0002:00001a10       ??_C@_1BK@CELJNOO@?$AAH?$AAi?$AAs?$AAt?$AAo?$AAr?$AAy?$AAC?$AAl?$AAe?$AAa?$AAr?$AA?$AA@ 00544a10     config.obj
 0002:00001a2c       ??_C@_1BI@ENLAFIOP@?$AAA?$AAl?$AAl?$AAo?$AAw?$AAR?$AAe?$AAe?$AAd?$AAi?$AAt?$AA?$AA@ 00544a2c     config.obj
 0002:00001a44       ??_C@_1BM@NLNLIOOF@?$AAR?$AAe?$AAm?$AAo?$AAv?$AAe?$AAH?$AAo?$AAt?$AAP?$AAl?$AAu?$AAg?$AA?$AA@ 00544a44     config.obj
 0002:00001a60       ??_C@_1BE@GLEDFABN@?$AAD?$AAe?$AAt?$AAa?$AAc?$AAh?$AAV?$AAH?$AAD?$AA?$AA@ 00544a60     config.obj
 0002:00001a74       ??_C@_1BI@GIJHHJGB@?$AAR?$AAe?$AAm?$AAo?$AAv?$AAe?$AAS?$AAU?$AAB?$AAS?$AAT?$AA?$AA@ 00544a74     config.obj
 0002:00001a8c       ??_C@_1CC@DJEEMKIM@?$AAR?$AAe?$AAm?$AAo?$AAv?$AAe?$AAC?$AAo?$AAn?$AAn?$AAe?$AAc?$AAt?$AAi?$AAo?$AAn?$AA?$AA@ 00544a8c     config.obj
 0002:00001ab0       ??_C@_17FPIFMLJN@?$AAE?$AAs?$AAc?$AA?$AA@ 00544ab0     config.obj
 0002:00001ab8       ??_C@_1BK@EJNJILCB@?$AAD?$AAe?$AAl?$AAe?$AAt?$AAe?$AAF?$AAo?$AAl?$AAd?$AAe?$AAr?$AA?$AA@ 00544ab8     config.obj
 0002:00001ad4       ??_C@_1O@JDLOHAN@?$AAD?$AAe?$AAl?$AAe?$AAt?$AAe?$AA?$AA@ 00544ad4     config.obj
 0002:00001ae4       ??_C@_19ILFPL@?$AAD?$AAr?$AAa?$AAg?$AA?$AA@ 00544ae4     config.obj
 0002:00001af0       ??_C@_15MMAMLPML@?$AAR?$AAO?$AA?$AA@ 00544af0     config.obj
 0002:00001af8       ??_C@_19KPHJEAGD@?$AAM?$AAo?$AAv?$AAe?$AA?$AA@ 00544af8     config.obj
 0002:00001b04       ??_C@_19HNCGHLOK@?$AAC?$AAo?$AAp?$AAy?$AA?$AA@ 00544b04     config.obj
 0002:00001b10       ??_C@_1BA@CLLEDPIF@?$AAE?$AAn?$AAg?$AAl?$AAi?$AAs?$AAh?$AA?$AA@ 00544b10     config.obj
 0002:00001b20       ??_C@_19BNBKBBLP@?$AAH?$AAe?$AAl?$AAp?$AA?$AA@ 00544b20     config.obj
 0002:00001b2c       ??_C@_1BI@BOGMKEBD@?$AAA?$AAc?$AAt?$AAi?$AAv?$AAa?$AAt?$AAe?$AAU?$AAR?$AAL?$AA?$AA@ 00544b2c     config.obj
 0002:00001b44       ??_C@_1CC@LKAMPIK@?$AAA?$AAu?$AAt?$AAo?$AAC?$AAh?$AAa?$AAn?$AAg?$AAe?$AAF?$AAo?$AAl?$AAd?$AAe?$AAr?$AA?$AA@ 00544b44     config.obj
 0002:00001b68       ??_C@_1BA@PJPOFJGC@?$AAN?$AAe?$AAt?$AAP?$AAa?$AAt?$AAh?$AA?$AA@ 00544b68     config.obj
 0002:00001b78       ??_C@_1BM@CCAJGPKJ@?$AAR?$AAe?$AAm?$AAo?$AAv?$AAa?$AAb?$AAl?$AAe?$AAD?$AAi?$AAs?$AAk?$AA?$AA@ 00544b78     config.obj
 0002:00001b94       ??_C@_1BA@LOOPMBD@?$AAN?$AAe?$AAt?$AAD?$AAi?$AAs?$AAk?$AA?$AA@ 00544b94     config.obj
 0002:00001ba4       ??_C@_1BE@BCDHPADD@?$AAL?$AAo?$AAc?$AAa?$AAl?$AAD?$AAi?$AAs?$AAk?$AA?$AA@ 00544ba4     config.obj
 0002:00001bb8       ??_C@_1BK@CJHGKEOH@?$AAT?$AAr?$AAe?$AAe?$AAF?$AAi?$AAl?$AAe?$AAA?$AAt?$AAt?$AAr?$AA?$AA@ 00544bb8     config.obj
 0002:00001bd4       ??_C@_1BK@EHCDPJFF@?$AAM?$AAi?$AAn?$AAT?$AAr?$AAe?$AAe?$AAC?$AAo?$AAu?$AAn?$AAt?$AA?$AA@ 00544bd4     config.obj
 0002:00001bf0       ??_C@_1BO@LMMPFIFB@?$AAS?$AAi?$AAl?$AAe?$AAn?$AAt?$AAE?$AAx?$AAt?$AAe?$AAr?$AAn?$AAa?$AAl?$AA?$AA@ 00544bf0     config.obj
 0002:00001c10       ??_C@_1BE@BNHDPFOG@?$AAF?$AAu?$AAl?$AAl?$AAT?$AAi?$AAt?$AAl?$AAe?$AA?$AA@ 00544c10     config.obj
 0002:00001c24       ??_C@_1BE@NGAKCFLK@?$AAB?$AAa?$AAt?$AAc?$AAh?$AAT?$AAy?$AAp?$AAe?$AA?$AA@ 00544c24     config.obj
 0002:00001c38       ??_C@_1CC@LFIOLPLO@?$AAS?$AAh?$AAo?$AAw?$AAE?$AAr?$AAr?$AAo?$AAr?$AAM?$AAe?$AAs?$AAs?$AAa?$AAg?$AAe?$AA?$AA@ 00544c38     config.obj
 0002:00001c5c       ??_C@_1BG@JJPLIMJA@?$AAU?$AAs?$AAe?$AAA?$AAp?$AAp?$AAP?$AAa?$AAt?$AAh?$AA?$AA@ 00544c5c     config.obj
 0002:00001c74       ??_C@_1BE@JLDGPEKM@?$AAR?$AAe?$AAs?$AAt?$AAo?$AAr?$AAe?$AAC?$AAP?$AA?$AA@ 00544c74     config.obj
 0002:00001c88       ??_C@_1O@GDKMEIHM@?$AAM?$AAo?$AAv?$AAe?$AAR?$AAO?$AA?$AA@ 00544c88     config.obj
 0002:00001c98       ??_C@_1BG@OCBBDIDH@?$AAW?$AAi?$AAn?$AAd?$AAo?$AAw?$AAM?$AAo?$AAd?$AAe?$AA?$AA@ 00544c98     config.obj
 0002:00001cb0       ??_C@_1BM@CHPAPEC@?$AAE?$AAl?$AAe?$AAv?$AAa?$AAt?$AAi?$AAo?$AAn?$AAM?$AAo?$AAd?$AAe?$AA?$AA@ 00544cb0     config.obj
 0002:00001ccc       ??_C@_1CA@BNLKMPOP@?$AAU?$AAs?$AAe?$AAP?$AAr?$AAi?$AAn?$AAt?$AAM?$AAa?$AAn?$AAa?$AAg?$AAe?$AAr?$AA?$AA@ 00544ccc     config.obj
 0002:00001cec       ??_C@_1BK@CIDNEPEL@?$AAS?$AAc?$AAa?$AAn?$AAJ?$AAu?$AAn?$AAc?$AAt?$AAi?$AAo?$AAn?$AA?$AA@ 00544cec     config.obj
 0002:00001d08       ??_C@_1CI@MADMAFBG@?$AAA?$AAl?$AAl?$AAC?$AAt?$AAr?$AAl?$AAA?$AAl?$AAt?$AAS?$AAh?$AAi?$AAf?$AAt?$AAR?$AAu?$AAl?$AAe?$AA?$AA@ 00544d08     config.obj
 0002:00001d30       ??_C@_1BA@KJDOGJEI@?$AAC?$AAA?$AAS?$AAR?$AAu?$AAl?$AAe?$AA?$AA@ 00544d30     config.obj
 0002:00001d40       ??_C@_1BE@FOHADCNN@?$AAU?$AAs?$AAe?$AAN?$AAu?$AAm?$AAP?$AAa?$AAd?$AA?$AA@ 00544d40     config.obj
 0002:00001d54       ??_C@_1CE@BDMPONDN@?$AAU?$AAp?$AAd?$AAa?$AAt?$AAe?$AAE?$AAn?$AAv?$AAi?$AAr?$AAo?$AAn?$AAm?$AAe?$AAn?$AAt?$AA?$AA@ 00544d54     config.obj
 0002:00001d78       ??_C@_1BI@EEHDFBHO@?$AAC?$AAl?$AAo?$AAs?$AAe?$AAC?$AAD?$AAG?$AAa?$AAt?$AAe?$AA?$AA@ 00544d78     config.obj
 0002:00001d90       ??_C@_1CE@HELJEBLG@?$AAP?$AAl?$AAu?$AAg?$AAi?$AAn?$AAM?$AAa?$AAx?$AAR?$AAe?$AAa?$AAd?$AAD?$AAa?$AAt?$AAa?$AA?$AA@ 00544d90     config.obj
 0002:00001db4       ??_C@_1CC@FGGFEEAK@?$AAC?$AAl?$AAo?$AAs?$AAe?$AAC?$AAo?$AAn?$AAs?$AAo?$AAl?$AAe?$AAR?$AAu?$AAl?$AAe?$AA?$AA@ 00544db4     config.obj
 0002:00001dd8       ??_C@_1BG@NKGGGBGI@?$AAQ?$AAu?$AAo?$AAt?$AAe?$AAd?$AAN?$AAa?$AAm?$AAe?$AA?$AA@ 00544dd8     config.obj
 0002:00001df0       ??_C@_1CE@BMCGJNML@?$AA?5?$AA?$CG?$AA?$CI?$AA?$CJ?$AA?$FL?$AA?$FN?$AA?$HL?$AA?$HN?$AA?$FO?$AA?$DN?$AA?$DL?$AA?$CB?$AA?8?$AA?$CL?$AA?0?$AA?$GA?$AA?$KA?$AA?$AA@ 00544df0     config.obj
 0002:00001e14       ??_C@_1BM@IJILPMFD@?$AAQ?$AAu?$AAo?$AAt?$AAe?$AAd?$AAS?$AAy?$AAm?$AAb?$AAo?$AAl?$AAs?$AA?$AA@ 00544e14     config.obj
 0002:00001e30       ??_C@_1CE@BIFOFDFE@?$AAD?$AAe?$AAl?$AAT?$AAh?$AAr?$AAe?$AAa?$AAd?$AAP?$AAr?$AAi?$AAo?$AAr?$AAi?$AAt?$AAy?$AA?$AA@ 00544e30     config.obj
 0002:00001e54       ??_C@_1CC@IDGFJIAC@?$AAS?$AAh?$AAo?$AAw?$AAC?$AAh?$AAe?$AAc?$AAk?$AAi?$AAn?$AAg?$AAF?$AAi?$AAl?$AAe?$AA?$AA@ 00544e54     config.obj
 0002:00001e78       ??_C@_1BM@OACFBAKC@?$AAS?$AAu?$AAb?$AAs?$AAt?$AAN?$AAa?$AAm?$AAe?$AAR?$AAu?$AAl?$AAe?$AA?$AA@ 00544e78     config.obj
 0002:00001e94       ??_C@_1CE@KDMABNFG@?$AAM?$AAs?$AAH?$AAW?$AAh?$AAe?$AAe?$AAl?$AAD?$AAe?$AAl?$AAt?$AAa?$AAE?$AAd?$AAi?$AAt?$AA?$AA@ 00544e94     config.obj
 0002:00001eb8       ??_C@_1CE@JBCLFNPJ@?$AAM?$AAs?$AAH?$AAW?$AAh?$AAe?$AAe?$AAl?$AAD?$AAe?$AAl?$AAt?$AAa?$AAV?$AAi?$AAe?$AAw?$AA?$AA@ 00544eb8     config.obj
 0002:00001edc       ??_C@_1BM@DNJODGHL@?$AAM?$AAs?$AAH?$AAW?$AAh?$AAe?$AAe?$AAl?$AAD?$AAe?$AAl?$AAt?$AAa?$AA?$AA@ 00544edc     config.obj
 0002:00001ef8       ??_C@_1CC@MHMPDKMN@?$AAM?$AAs?$AAW?$AAh?$AAe?$AAe?$AAl?$AAD?$AAe?$AAl?$AAt?$AAa?$AAH?$AAe?$AAl?$AAp?$AA?$AA@ 00544ef8     config.obj
 0002:00001f1c       ??_C@_1CC@CBDELHAH@?$AAM?$AAs?$AAW?$AAh?$AAe?$AAe?$AAl?$AAD?$AAe?$AAl?$AAt?$AAa?$AAE?$AAd?$AAi?$AAt?$AA?$AA@ 00544f1c     config.obj
 0002:00001f40       ??_C@_1CC@BDNPPHKI@?$AAM?$AAs?$AAW?$AAh?$AAe?$AAe?$AAl?$AAD?$AAe?$AAl?$AAt?$AAa?$AAV?$AAi?$AAe?$AAw?$AA?$AA@ 00544f40     config.obj
 0002:00001f64       ??_C@_1BK@DBGOFGHE@?$AAM?$AAs?$AAW?$AAh?$AAe?$AAe?$AAl?$AAD?$AAe?$AAl?$AAt?$AAa?$AA?$AA@ 00544f64     config.obj
 0002:00001f80       ??_C@_1CG@IFOILEGE@?$AAF?$AAl?$AAa?$AAg?$AAP?$AAo?$AAs?$AAi?$AAx?$AAS?$AAe?$AAm?$AAa?$AAn?$AAt?$AAi?$AAc?$AAs?$AA?$AA@ 00544f80     config.obj
 0002:00001fa8       ??_C@_1BK@GBANPIBF@?$AAM?$AAu?$AAl?$AAt?$AAi?$AAM?$AAa?$AAk?$AAe?$AAD?$AAi?$AAr?$AA?$AA@ 00544fa8     config.obj
 0002:00001fc4       ??_C@_1BK@LGDNKMMJ@?$AAS?$AAc?$AAa?$AAn?$AAS?$AAy?$AAm?$AAl?$AAi?$AAn?$AAk?$AAs?$AA?$AA@ 00544fc4     config.obj
